
UART_发送01字符控制灯亮_不使用组帧.elf:     file format elf32-littlearm
UART_发送01字符控制灯亮_不使用组帧.elf
architecture: armv6s-m, flags 0x00000112:
EXEC_P, HAS_SYMS, D_PAGED
start address 0x00006c59

Program Header:
    LOAD off    0x00000000 vaddr 0x00000000 paddr 0x00000000 align 2**16
         filesz 0x000068c0 memsz 0x000068c0 flags r--
    LOAD off    0x00006c00 vaddr 0x00006c00 paddr 0x00006c00 align 2**16
         filesz 0x00000010 memsz 0x00000010 flags r--
    LOAD off    0x00006c10 vaddr 0x00006c10 paddr 0x00006c10 align 2**16
         filesz 0x000025b8 memsz 0x000025b8 flags rwx
    LOAD off    0x00010400 vaddr 0x20000400 paddr 0x000091c8 align 2**16
         filesz 0x00000008 memsz 0x00000328 flags rw-
private flags = 5000200: [Version5 EABI] [soft-float ABI]

Sections:
Idx Name            Size      VMA       LMA       File off  Algn  Flags
  0 .interrupts     000000c0  00006800  00006800  00006800  2**2  CONTENTS, ALLOC, LOAD, READONLY, DATA
  1 .flash_config   00000010  00006c00  00006c00  00006c00  2**0  CONTENTS, ALLOC, LOAD, READONLY, DATA
  2 .text           000025a8  00006c10  00006c10  00006c10  2**2  CONTENTS, ALLOC, LOAD, READONLY, CODE
  3 .ARM            00000008  000091b8  000091b8  000091b8  2**2  CONTENTS, ALLOC, LOAD, READONLY, DATA
  4 .init_array     00000004  000091c0  000091c0  000091c0  2**2  CONTENTS, ALLOC, LOAD, DATA
  5 .fini_array     00000004  000091c4  000091c4  000091c4  2**2  CONTENTS, ALLOC, LOAD, DATA
  6 .mtb            00000000  20000400  20000400  00010408  2**0  CONTENTS
  7 .data           00000008  20000400  000091c8  00010400  2**2  CONTENTS, ALLOC, LOAD, DATA
  8 .bss            00000020  20000408  000091d0  00010408  2**2  ALLOC
  9 .heap           00000200  20000428  000091f0  00010408  2**0  ALLOC
 10 .stack          00000100  20000628  000093f0  00010408  2**0  ALLOC
 11 .ARM.attributes 00000028  00000000  00000000  00010408  2**0  CONTENTS, READONLY
 12 .debug_info     000073c9  00000000  00000000  00010430  2**0  CONTENTS, READONLY, DEBUGGING, OCTETS
 13 .debug_abbrev   000016f3  00000000  00000000  000177f9  2**0  CONTENTS, READONLY, DEBUGGING, OCTETS
 14 .debug_aranges  00000250  00000000  00000000  00018ef0  2**3  CONTENTS, READONLY, DEBUGGING, OCTETS
 15 .debug_ranges   000001b0  00000000  00000000  00019140  2**0  CONTENTS, READONLY, DEBUGGING, OCTETS
 16 .debug_macro    0000ef21  00000000  00000000  000192f0  2**0  CONTENTS, READONLY, DEBUGGING, OCTETS
 17 .debug_line     00003990  00000000  00000000  00028211  2**0  CONTENTS, READONLY, DEBUGGING, OCTETS
 18 .debug_str      0004ea81  00000000  00000000  0002bba1  2**0  CONTENTS, READONLY, DEBUGGING, OCTETS
 19 .comment        0000004c  00000000  00000000  0007a622  2**0  CONTENTS, READONLY
 20 .debug_frame    000007c4  00000000  00000000  0007a670  2**2  CONTENTS, READONLY, DEBUGGING, OCTETS
 21 .debug_loc      00002999  00000000  00000000  0007ae34  2**0  CONTENTS, READONLY, DEBUGGING, OCTETS
SYMBOL TABLE:
00006800 l    d  .interrupts	00000000 .interrupts
00006c00 l    d  .flash_config	00000000 .flash_config
00006c10 l    d  .text	00000000 .text
000091b8 l    d  .ARM	00000000 .ARM
000091c0 l    d  .init_array	00000000 .init_array
000091c4 l    d  .fini_array	00000000 .fini_array
20000400 l    d  .mtb	00000000 .mtb
20000400 l    d  .data	00000000 .data
20000408 l    d  .bss	00000000 .bss
20000428 l    d  .heap	00000000 .heap
20000628 l    d  .stack	00000000 .stack
00000000 l    d  .ARM.attributes	00000000 .ARM.attributes
00000000 l    d  .debug_info	00000000 .debug_info
00000000 l    d  .debug_abbrev	00000000 .debug_abbrev
00000000 l    d  .debug_aranges	00000000 .debug_aranges
00000000 l    d  .debug_ranges	00000000 .debug_ranges
00000000 l    d  .debug_macro	00000000 .debug_macro
00000000 l    d  .debug_line	00000000 .debug_line
00000000 l    d  .debug_str	00000000 .debug_str
00000000 l    d  .comment	00000000 .comment
00000000 l    d  .debug_frame	00000000 .debug_frame
00000000 l    d  .debug_loc	00000000 .debug_loc
00000000 l    df *ABS*	00000000 ./obj/startup_MKL36Z4.o
00000000 l    df *ABS*	00000000 crtstuff.c
000091a0 l     O .text	00000000 __EH_FRAME_BEGIN__
00006c10 l     F .text	00000000 __do_global_dtors_aux
20000408 l       .bss	00000001 completed.8914
000091c4 l     O .fini_array	00000000 __do_global_dtors_aux_fini_array_entry
00006c38 l     F .text	00000000 frame_dummy
2000040c l       .bss	00000018 object.8919
000091c0 l     O .init_array	00000000 __frame_dummy_init_array_entry
00000000 l    df *ABS*	00000000 _udivsi3.o
00006ca8 l       .text	00000000 .udivsi3_skip_div0_test
00000000 l    df *ABS*	00000000 _divsi3.o
00006dbc l       .text	00000000 .divsi3_skip_div0_test
00000000 l    df *ABS*	00000000 _dvmd_tls.o
00000000 l    df *ABS*	00000000 _arm_cmpdf2.o
00000000 l    df *ABS*	00000000 _aeabi_uldivmod.o
00000000 l    df *ABS*	00000000 libgcc2.c
00000000 l    df *ABS*	00000000 libgcc2.c
00000000 l    df *ABS*	00000000 libgcc2.c
00000000 l    df *ABS*	00000000 eqdf2.c
00000000 l    df *ABS*	00000000 gedf2.c
00000000 l    df *ABS*	00000000 ledf2.c
00000000 l    df *ABS*	00000000 muldf3.c
00000000 l    df *ABS*	00000000 subdf3.c
00000000 l    df *ABS*	00000000 fixdfsi.c
00000000 l    df *ABS*	00000000 floatunsidf.c
00000000 l    df *ABS*	00000000 _clzsi2.o
00000000 l    df *ABS*	00000000 _clzdi2.o
00000000 l    df *ABS*	00000000 lib_a-strlen.o
00000000 l    df *ABS*	00000000 system_MKL36Z4.c
00000000 l    df *ABS*	00000000 main.c
00000000 l    df *ABS*	00000000 flash.c
00000000 l    df *ABS*	00000000 gpio.c
00000000 l    df *ABS*	00000000 gec.c
00000000 l    df *ABS*	00000000 uart.c
00000000 l    df *ABS*	00000000 isr.c
00000000 l    df *ABS*	00000000 printf.c
000087ce l     F .text	0000002a printk_putc
000087f8 l     F .text	00000088 printk_mknumstr
00008880 l     F .text	0000001e printk_pad_zero
0000889e l     F .text	0000001e printk_pad_space
00000000 l    df *ABS*	00000000 memcpy-stub.c
00000000 l    df *ABS*	00000000 memset.c
00000000 l    df *ABS*	00000000 d:/tools/armnoneeabi/bin/../lib/gcc/arm-none-eabi/9.3.1/thumb/v6-m/nofp/crti.o
00000000 l    df *ABS*	00000000 d:/tools/armnoneeabi/bin/../lib/gcc/arm-none-eabi/9.3.1/thumb/v6-m/nofp/crtn.o
00000000 l    df *ABS*	00000000 
000091c4 l       .init_array	00000000 __init_array_end
000091c0 l       .init_array	00000000 __preinit_array_end
000091c0 l       .init_array	00000000 __init_array_start
000091c0 l       .init_array	00000000 __preinit_array_start
20000428 g       .heap	00000000 __HeapBase
00006fd4 g     F .text	00000012 .hidden __aeabi_dcmple
000082a0 g     F .text	00000008 flash_read_physical
00007260 g     F .text	00000078 .hidden __eqdf2
20000400 g       .data	00000000 __data_start__
00000100 g       *ABS*	00000000 STACK_SIZE
00006ca0  w    F .text	00000006 I2C0_IRQHandler
0000003e g       *ABS*	00000000 GEC_USER_SECTOR_END
00006ca0  w    F .text	00000006 HardFault_Handler
00006ca0  w    F .text	00000006 SysTick_Handler
00006ca0  w    F .text	00000006 PendSV_Handler
00006ca0  w    F .text	00000006 NMI_Handler
000091c0 g       .ARM	00000000 __exidx_end
00006ca0  w    F .text	00000006 PORTC_PORTD_IRQHandler
00006ca0  w    F .text	00000006 I2C1_IRQHandler
00006ca0  w    F .text	00000006 UART1_IRQHandler
000072d8 g     F .text	000000e4 .hidden __gtdf2
000091c8 g       .fini_array	00000000 __etext
00006ca0  w    F .text	00000006 DMA2_IRQHandler
0000873c g     F .text	00000054 uart_enable_re_int
00006ca0  w    F .text	00000006 TPM0_IRQHandler
00006fa4 g     F .text	00000010 .hidden __aeabi_cdcmple
00006ca0  w    F .text	00000006 I2S0_IRQHandler
00006ca0  w    F .text	00000006 LLWU_IRQHandler
0000001a g       *ABS*	00000000 GEC_USER_SECTOR_START
00006ca0  w    F .text	00000006 TSI0_IRQHandler
00008790 g     F .text	0000003e UART0_IRQHandler
00008ffc g     F .text	00000012 memcpy
00006f94 g     F .text	00000020 .hidden __aeabi_cdrcmple
000073bc g     F .text	000000e0 .hidden __ltdf2
000091c0 g       .init_array	00000000 __DTOR_END__
00007010 g     F .text	0000003e .hidden __aeabi_uldivmod
20000400 g     O .data	00000004 SystemCoreClock
00006ca0  w    F .text	00000006 ADC0_IRQHandler
00006ca8 g     F .text	0000010a .hidden __udivsi3
20000408 g       .bss	00000000 __START_BSS
00007050 g     F .text	0000003c .hidden __fixunsdfsi
20000628 g       .heap	00000000 __HeapLimit
20000408 g       .bss	00000000 __bss_start__
0000830c g     F .text	00000064 flash_erase
00008104 g     F .text	0000004c .hidden __aeabi_ui2d
00006ca0  w    F .text	00000006 SPI1_IRQHandler
000070c8 g     F .text	00000196 .hidden __udivmoddi4
00006ca0  w    F .text	00000006 DefaultISR
00006fc0 g     F .text	00000012 .hidden __aeabi_dcmplt
000091b8 g       .ARM	00000000 __exidx_start
0000749c g     F .text	000004d8 .hidden __aeabi_dmul
000088c8 g     F .text	000001a4 printk_mkfloatstr
000091a0 g     F .text	00000000 _init
00006ca0  w    F .text	00000006 TPM2_IRQHandler
0000708c g     F .text	0000003c .hidden __aeabi_d2ulz
00006ca0  w    F .text	00000006 RTC_IRQHandler
00009074 g     O .text	00000014 PORT_ARR
00000400 g       *ABS*	00000000 MCU_SECTORSIZE
00006c58  w    F .text	00000048 Reset_Handler
00006ca0  w    F .text	00000006 LCD_IRQHandler
000073bc g     F .text	000000e0 .hidden __ledf2
200017ff g       *ABS*	00000000 GEC_USER_RAM_END
00008fd8 g     F .text	00000024 myprintf
00006ca0  w    F .text	00000006 RTC_Seconds_IRQHandler
00006dbc g     F .text	00000000 .hidden __aeabi_idiv
00006ca0  w    F .text	00000006 MCG_IRQHandler
00006ca0  w    F .text	00000006 UART2_IRQHandler
20000408 g       .data	00000000 __data_end__
000091c0 g       .init_array	00000000 __CTOR_LIST__
00000200 g       *ABS*	00000000 HEAP_SIZE
00006fe8 g     F .text	00000012 .hidden __aeabi_dcmpgt
00008150 g     F .text	0000003c .hidden __clzsi2
00008528 g     F .text	0000014c uart_init
20000428 g       .bss	00000000 __bss_end__
00006ca0  w    F .text	00000006 Reserved20_IRQHandler
00006ffc g     F .text	00000012 .hidden __aeabi_dcmpge
000082c8 g     F .text	00000044 flash_cmd_launch
00007974 g     F .text	00000724 .hidden __aeabi_dsub
20000424 g     O .bss	00000004 component_fun
20000400 g       *ABS*	00000000 GEC_USER_RAM_START
000090d0 g     O .text	00000008 UART_ARR
000088bc g     F .text	0000000c out_char
00008a6c g     F .text	0000056a printk
00006f90  w    F .text	00000002 .hidden __aeabi_ldiv0
20000404 g     O .data	00000003 table_irq_uart
000086d0 g     F .text	0000006c uart_re1
0000900e g     F .text	00000010 memset
00006800 g       .interrupts	000000c0 __isr_vector
0000827c g     F .text	00000024 main
00006ca0  w    F .text	00000006 PIT_IRQHandler
00006ca8 g     F .text	00000000 .hidden __aeabi_uidiv
00006ca0  w    F .text	00000006 SVC_Handler
20000400 g       .data	00000000 __DATA_RAM
000083c4 g     F .text	00000008 gpio_get_port_pin
20000428 g       .heap	00000000 __end__
00006dbc g     F .text	000001cc .hidden __divsi3
000091c0 g       .init_array	00000000 __CTOR_END__
00006ca0  w    F .text	00000006 DMA3_IRQHandler
000091c0 g       .init_array	00000000 __DTOR_LIST__
20000428 g       .bss	00000000 __END_BSS
000081b4 g     F .text	000000c8 SystemInit
00006ca0  w    F .text	00000006 DMA0_IRQHandler
00007260 g     F .text	00000078 .hidden __nedf2
0000708c g     F .text	0000003c .hidden __fixunsdfdi
000091ac g     F .text	00000000 _fini
00006ca0  w    F .text	00000006 DAC0_IRQHandler
20001800 g       .stack	00000000 __StackTop
00008370 g     F .text	00000054 flash_write_physical
20000400 g       .mtb	00000000 _mtb_end
000091d0 g       *ABS*	00000000 __DATA_END
000082a8 g     F .text	0000001e flash_isempty
00007050 g     F .text	0000003c .hidden __aeabi_d2uiz
00006ca0  w    F .text	00000006 TPM1_IRQHandler
0000848c g     F .text	00000090 Vectors_Init
20001800 g       *ABS*	00000000 __stack
00006db4 g     F .text	00000008 .hidden __aeabi_uidivmod
00006fb4 g     F .text	0000000c .hidden __aeabi_dcmpeq
00006ca0  w    F .text	00000006 LVD_LVW_IRQHandler
00006ca0  w    F .text	00000006 SPI0_IRQHandler
00006ca0  w    F .text	00000006 PORTA_IRQHandler
00006800 g       .interrupts	00000000 __VECTOR_TABLE
000091c8 g       .fini_array	00000000 __DATA_ROM
20001700 g       *ABS*	00000000 __StackLimit
00006ca0  w    F .text	00000006 FTFA_IRQHandler
00009060 g     O .text	00000014 GPIO_ARR
00008098 g     F .text	0000006c .hidden __aeabi_d2iz
20000400 g       .mtb	00000000 _mtb_start
00006ca0  w    F .text	00000006 Reserved40_IRQHandler
00006f90  w    F .text	00000002 .hidden __aeabi_idiv0
00006ca0  w    F .text	00000006 LPTMR0_IRQHandler
000081a4 g     F .text	0000000e strlen
00006fa4 g     F .text	00000010 .hidden __aeabi_cdcmpeq
000072d8 g     F .text	000000e4 .hidden __gedf2
00008674 g     F .text	0000005c uart_send1
0000851c g     F .text	0000000c uart_is_uartNo
000083cc g     F .text	00000044 gpio_set
00008410 g     F .text	0000007c gpio_init
0000818c g     F .text	00000016 .hidden __clzdi2
00006ca0  w    F .text	00000006 CMP0_IRQHandler
00006f88 g     F .text	00000008 .hidden __aeabi_idivmod
00000000 g       *ABS*	00000000 MCU_FLASH_ADDR_START
00006ca0  w    F .text	00000006 DMA1_IRQHandler



Disassembly of section .text:

00006c10 <__do_global_dtors_aux>:
__do_global_dtors_aux():
    6c10:	b510      	push	{r4, lr}
    6c12:	4c06      	ldr	r4, [pc, #24]	; (6c2c <__do_global_dtors_aux+0x1c>)
    6c14:	7823      	ldrb	r3, [r4, #0]
    6c16:	2b00      	cmp	r3, #0
    6c18:	d107      	bne.n	6c2a <__do_global_dtors_aux+0x1a>
    6c1a:	4b05      	ldr	r3, [pc, #20]	; (6c30 <__do_global_dtors_aux+0x20>)
    6c1c:	2b00      	cmp	r3, #0
    6c1e:	d002      	beq.n	6c26 <__do_global_dtors_aux+0x16>
    6c20:	4804      	ldr	r0, [pc, #16]	; (6c34 <__do_global_dtors_aux+0x24>)
    6c22:	e000      	b.n	6c26 <__do_global_dtors_aux+0x16>
    6c24:	bf00      	nop
    6c26:	2301      	movs	r3, #1
    6c28:	7023      	strb	r3, [r4, #0]
    6c2a:	bd10      	pop	{r4, pc}
    6c2c:	20000408 	.word	0x20000408
    6c30:	00000000 	.word	0x00000000
    6c34:	000091a0 	.word	0x000091a0

00006c38 <frame_dummy>:
frame_dummy():
    6c38:	4b04      	ldr	r3, [pc, #16]	; (6c4c <frame_dummy+0x14>)
    6c3a:	b510      	push	{r4, lr}
    6c3c:	2b00      	cmp	r3, #0
    6c3e:	d003      	beq.n	6c48 <frame_dummy+0x10>
    6c40:	4903      	ldr	r1, [pc, #12]	; (6c50 <frame_dummy+0x18>)
    6c42:	4804      	ldr	r0, [pc, #16]	; (6c54 <frame_dummy+0x1c>)
    6c44:	e000      	b.n	6c48 <frame_dummy+0x10>
    6c46:	bf00      	nop
    6c48:	bd10      	pop	{r4, pc}
    6c4a:	46c0      	nop			; (mov r8, r8)
    6c4c:	00000000 	.word	0x00000000
    6c50:	2000040c 	.word	0x2000040c
    6c54:	000091a0 	.word	0x000091a0

00006c58 <Reset_Handler>:
Reset_Handler():
F:\WorkSpace\AHL-GEC-EXP\Temp\UART_发送01字符控制灯亮_不使用组帧\Debug/srcs/startup_MKL36Z4.S:118
    .align 2
    .globl   Reset_Handler
    .weak    Reset_Handler
    .type    Reset_Handler, %function
Reset_Handler:
    cpsid   i               /* Mask interrupts */
    6c58:	b672      	cpsid	i
F:\WorkSpace\AHL-GEC-EXP\Temp\UART_发送01字符控制灯亮_不使用组帧\Debug/srcs/startup_MKL36Z4.S:120
#ifndef __NO_SYSTEM_INIT
    bl SystemInit
    6c5a:	f001 faab 	bl	81b4 <SystemInit>
F:\WorkSpace\AHL-GEC-EXP\Temp\UART_发送01字符控制灯亮_不使用组帧\Debug/srcs/startup_MKL36Z4.S:122
#endif
    cpsie   i               /* Unmask interrupts */
    6c5e:	b662      	cpsie	i
F:\WorkSpace\AHL-GEC-EXP\Temp\UART_发送01字符控制灯亮_不使用组帧\Debug/srcs/startup_MKL36Z4.S:130
 *      linker script.
 *      __etext: End of code section, i.e., begin of data sections to copy from.
 *      __data_start__/__data_end__: RAM address range that data should be
 *      copied to. Both must be aligned to 4 bytes boundary.  */

    ldr    r1, =__etext
    6c60:	490a      	ldr	r1, [pc, #40]	; (6c8c <Reset_Handler+0x34>)
F:\WorkSpace\AHL-GEC-EXP\Temp\UART_发送01字符控制灯亮_不使用组帧\Debug/srcs/startup_MKL36Z4.S:131
    ldr    r2, =__data_start__
    6c62:	4a0b      	ldr	r2, [pc, #44]	; (6c90 <Reset_Handler+0x38>)
F:\WorkSpace\AHL-GEC-EXP\Temp\UART_发送01字符控制灯亮_不使用组帧\Debug/srcs/startup_MKL36Z4.S:132
    ldr    r3, =__data_end__
    6c64:	4b0b      	ldr	r3, [pc, #44]	; (6c94 <Reset_Handler+0x3c>)
F:\WorkSpace\AHL-GEC-EXP\Temp\UART_发送01字符控制灯亮_不使用组帧\Debug/srcs/startup_MKL36Z4.S:134

    subs    r3, r2
    6c66:	1a9b      	subs	r3, r3, r2
F:\WorkSpace\AHL-GEC-EXP\Temp\UART_发送01字符控制灯亮_不使用组帧\Debug/srcs/startup_MKL36Z4.S:135
    ble     .LC0
    6c68:	dd03      	ble.n	6c72 <Reset_Handler+0x1a>
F:\WorkSpace\AHL-GEC-EXP\Temp\UART_发送01字符控制灯亮_不使用组帧\Debug/srcs/startup_MKL36Z4.S:138

.LC1:
    subs    r3, 4
    6c6a:	3b04      	subs	r3, #4
F:\WorkSpace\AHL-GEC-EXP\Temp\UART_发送01字符控制灯亮_不使用组帧\Debug/srcs/startup_MKL36Z4.S:139
    ldr    r0, [r1,r3]
    6c6c:	58c8      	ldr	r0, [r1, r3]
F:\WorkSpace\AHL-GEC-EXP\Temp\UART_发送01字符控制灯亮_不使用组帧\Debug/srcs/startup_MKL36Z4.S:140
    str    r0, [r2,r3]
    6c6e:	50d0      	str	r0, [r2, r3]
F:\WorkSpace\AHL-GEC-EXP\Temp\UART_发送01字符控制灯亮_不使用组帧\Debug/srcs/startup_MKL36Z4.S:141
    bgt    .LC1
    6c70:	dcfb      	bgt.n	6c6a <Reset_Handler+0x12>
F:\WorkSpace\AHL-GEC-EXP\Temp\UART_发送01字符控制灯亮_不使用组帧\Debug/srcs/startup_MKL36Z4.S:154
 *     Loop to zero out BSS section, which uses following symbols
 *     in linker script:
 *      __bss_start__: start of BSS section. Must align to 4
 *      __bss_end__: end of BSS section. Must align to 4
 */
    ldr r1, =__bss_start__
    6c72:	4909      	ldr	r1, [pc, #36]	; (6c98 <Reset_Handler+0x40>)
F:\WorkSpace\AHL-GEC-EXP\Temp\UART_发送01字符控制灯亮_不使用组帧\Debug/srcs/startup_MKL36Z4.S:155
    ldr r2, =__bss_end__
    6c74:	4a09      	ldr	r2, [pc, #36]	; (6c9c <Reset_Handler+0x44>)
F:\WorkSpace\AHL-GEC-EXP\Temp\UART_发送01字符控制灯亮_不使用组帧\Debug/srcs/startup_MKL36Z4.S:157

    subs    r2, r1
    6c76:	1a52      	subs	r2, r2, r1
F:\WorkSpace\AHL-GEC-EXP\Temp\UART_发送01字符控制灯亮_不使用组帧\Debug/srcs/startup_MKL36Z4.S:158
    ble .LC3
    6c78:	dd03      	ble.n	6c82 <Reset_Handler+0x2a>
F:\WorkSpace\AHL-GEC-EXP\Temp\UART_发送01字符控制灯亮_不使用组帧\Debug/srcs/startup_MKL36Z4.S:160

    movs    r0, 0
    6c7a:	2000      	movs	r0, #0
F:\WorkSpace\AHL-GEC-EXP\Temp\UART_发送01字符控制灯亮_不使用组帧\Debug/srcs/startup_MKL36Z4.S:162
.LC2:
    str r0, [r1, r2]
    6c7c:	5088      	str	r0, [r1, r2]
F:\WorkSpace\AHL-GEC-EXP\Temp\UART_发送01字符控制灯亮_不使用组帧\Debug/srcs/startup_MKL36Z4.S:163
    subs    r2, 4
    6c7e:	3a04      	subs	r2, #4
F:\WorkSpace\AHL-GEC-EXP\Temp\UART_发送01字符控制灯亮_不使用组帧\Debug/srcs/startup_MKL36Z4.S:164
    bge .LC2
    6c80:	dafc      	bge.n	6c7c <Reset_Handler+0x24>
F:\WorkSpace\AHL-GEC-EXP\Temp\UART_发送01字符控制灯亮_不使用组帧\Debug/srcs/startup_MKL36Z4.S:173
#define __START _start
#endif


/*【User程序修改处1】*/
	bl	 Vectors_Init  
    6c82:	f001 fc03 	bl	848c <Vectors_Init>
F:\WorkSpace\AHL-GEC-EXP\Temp\UART_发送01字符控制灯亮_不使用组帧\Debug/srcs/startup_MKL36Z4.S:175
  //  bl    __START
   bl main
    6c86:	f001 faf9 	bl	827c <main>
    6c8a:	0000      	.short	0x0000
F:\WorkSpace\AHL-GEC-EXP\Temp\UART_发送01字符控制灯亮_不使用组帧\Debug/srcs/startup_MKL36Z4.S:130
    ldr    r1, =__etext
    6c8c:	000091c8 	.word	0x000091c8
F:\WorkSpace\AHL-GEC-EXP\Temp\UART_发送01字符控制灯亮_不使用组帧\Debug/srcs/startup_MKL36Z4.S:131
    ldr    r2, =__data_start__
    6c90:	20000400 	.word	0x20000400
F:\WorkSpace\AHL-GEC-EXP\Temp\UART_发送01字符控制灯亮_不使用组帧\Debug/srcs/startup_MKL36Z4.S:132
    ldr    r3, =__data_end__
    6c94:	20000408 	.word	0x20000408
F:\WorkSpace\AHL-GEC-EXP\Temp\UART_发送01字符控制灯亮_不使用组帧\Debug/srcs/startup_MKL36Z4.S:154
    ldr r1, =__bss_start__
    6c98:	20000408 	.word	0x20000408
F:\WorkSpace\AHL-GEC-EXP\Temp\UART_发送01字符控制灯亮_不使用组帧\Debug/srcs/startup_MKL36Z4.S:155
    ldr r2, =__bss_end__
    6c9c:	20000428 	.word	0x20000428

00006ca0 <ADC0_IRQHandler>:
I2C0_IRQHandler():
F:\WorkSpace\AHL-GEC-EXP\Temp\UART_发送01字符控制灯亮_不使用组帧\Debug/srcs/startup_MKL36Z4.S:186
    .weak DefaultISR
    .type DefaultISR, %function
DefaultISR:    
    //ldr	r0, =DefaultISR   //误中断，进入无限循环
    //bx r0
       push  {lr}        //【20200326】WYH改，误中断，回原处
    6ca0:	b500      	push	{lr}
F:\WorkSpace\AHL-GEC-EXP\Temp\UART_发送01字符控制灯亮_不使用组帧\Debug/srcs/startup_MKL36Z4.S:187
       nop
    6ca2:	46c0      	nop			; (mov r8, r8)
F:\WorkSpace\AHL-GEC-EXP\Temp\UART_发送01字符控制灯亮_不使用组帧\Debug/srcs/startup_MKL36Z4.S:188
       pop   {pc}
    6ca4:	bd00      	pop	{pc}
    6ca6:	46c0      	nop			; (mov r8, r8)

00006ca8 <__udivsi3>:
__udivsi3():
    6ca8:	2200      	movs	r2, #0
    6caa:	0843      	lsrs	r3, r0, #1
    6cac:	428b      	cmp	r3, r1
    6cae:	d374      	bcc.n	6d9a <__udivsi3+0xf2>
    6cb0:	0903      	lsrs	r3, r0, #4
    6cb2:	428b      	cmp	r3, r1
    6cb4:	d35f      	bcc.n	6d76 <__udivsi3+0xce>
    6cb6:	0a03      	lsrs	r3, r0, #8
    6cb8:	428b      	cmp	r3, r1
    6cba:	d344      	bcc.n	6d46 <__udivsi3+0x9e>
    6cbc:	0b03      	lsrs	r3, r0, #12
    6cbe:	428b      	cmp	r3, r1
    6cc0:	d328      	bcc.n	6d14 <__udivsi3+0x6c>
    6cc2:	0c03      	lsrs	r3, r0, #16
    6cc4:	428b      	cmp	r3, r1
    6cc6:	d30d      	bcc.n	6ce4 <__udivsi3+0x3c>
    6cc8:	22ff      	movs	r2, #255	; 0xff
    6cca:	0209      	lsls	r1, r1, #8
    6ccc:	ba12      	rev	r2, r2
    6cce:	0c03      	lsrs	r3, r0, #16
    6cd0:	428b      	cmp	r3, r1
    6cd2:	d302      	bcc.n	6cda <__udivsi3+0x32>
    6cd4:	1212      	asrs	r2, r2, #8
    6cd6:	0209      	lsls	r1, r1, #8
    6cd8:	d065      	beq.n	6da6 <__udivsi3+0xfe>
    6cda:	0b03      	lsrs	r3, r0, #12
    6cdc:	428b      	cmp	r3, r1
    6cde:	d319      	bcc.n	6d14 <__udivsi3+0x6c>
    6ce0:	e000      	b.n	6ce4 <__udivsi3+0x3c>
    6ce2:	0a09      	lsrs	r1, r1, #8
    6ce4:	0bc3      	lsrs	r3, r0, #15
    6ce6:	428b      	cmp	r3, r1
    6ce8:	d301      	bcc.n	6cee <__udivsi3+0x46>
    6cea:	03cb      	lsls	r3, r1, #15
    6cec:	1ac0      	subs	r0, r0, r3
    6cee:	4152      	adcs	r2, r2
    6cf0:	0b83      	lsrs	r3, r0, #14
    6cf2:	428b      	cmp	r3, r1
    6cf4:	d301      	bcc.n	6cfa <__udivsi3+0x52>
    6cf6:	038b      	lsls	r3, r1, #14
    6cf8:	1ac0      	subs	r0, r0, r3
    6cfa:	4152      	adcs	r2, r2
    6cfc:	0b43      	lsrs	r3, r0, #13
    6cfe:	428b      	cmp	r3, r1
    6d00:	d301      	bcc.n	6d06 <__udivsi3+0x5e>
    6d02:	034b      	lsls	r3, r1, #13
    6d04:	1ac0      	subs	r0, r0, r3
    6d06:	4152      	adcs	r2, r2
    6d08:	0b03      	lsrs	r3, r0, #12
    6d0a:	428b      	cmp	r3, r1
    6d0c:	d301      	bcc.n	6d12 <__udivsi3+0x6a>
    6d0e:	030b      	lsls	r3, r1, #12
    6d10:	1ac0      	subs	r0, r0, r3
    6d12:	4152      	adcs	r2, r2
    6d14:	0ac3      	lsrs	r3, r0, #11
    6d16:	428b      	cmp	r3, r1
    6d18:	d301      	bcc.n	6d1e <__udivsi3+0x76>
    6d1a:	02cb      	lsls	r3, r1, #11
    6d1c:	1ac0      	subs	r0, r0, r3
    6d1e:	4152      	adcs	r2, r2
    6d20:	0a83      	lsrs	r3, r0, #10
    6d22:	428b      	cmp	r3, r1
    6d24:	d301      	bcc.n	6d2a <__udivsi3+0x82>
    6d26:	028b      	lsls	r3, r1, #10
    6d28:	1ac0      	subs	r0, r0, r3
    6d2a:	4152      	adcs	r2, r2
    6d2c:	0a43      	lsrs	r3, r0, #9
    6d2e:	428b      	cmp	r3, r1
    6d30:	d301      	bcc.n	6d36 <__udivsi3+0x8e>
    6d32:	024b      	lsls	r3, r1, #9
    6d34:	1ac0      	subs	r0, r0, r3
    6d36:	4152      	adcs	r2, r2
    6d38:	0a03      	lsrs	r3, r0, #8
    6d3a:	428b      	cmp	r3, r1
    6d3c:	d301      	bcc.n	6d42 <__udivsi3+0x9a>
    6d3e:	020b      	lsls	r3, r1, #8
    6d40:	1ac0      	subs	r0, r0, r3
    6d42:	4152      	adcs	r2, r2
    6d44:	d2cd      	bcs.n	6ce2 <__udivsi3+0x3a>
    6d46:	09c3      	lsrs	r3, r0, #7
    6d48:	428b      	cmp	r3, r1
    6d4a:	d301      	bcc.n	6d50 <__udivsi3+0xa8>
    6d4c:	01cb      	lsls	r3, r1, #7
    6d4e:	1ac0      	subs	r0, r0, r3
    6d50:	4152      	adcs	r2, r2
    6d52:	0983      	lsrs	r3, r0, #6
    6d54:	428b      	cmp	r3, r1
    6d56:	d301      	bcc.n	6d5c <__udivsi3+0xb4>
    6d58:	018b      	lsls	r3, r1, #6
    6d5a:	1ac0      	subs	r0, r0, r3
    6d5c:	4152      	adcs	r2, r2
    6d5e:	0943      	lsrs	r3, r0, #5
    6d60:	428b      	cmp	r3, r1
    6d62:	d301      	bcc.n	6d68 <__udivsi3+0xc0>
    6d64:	014b      	lsls	r3, r1, #5
    6d66:	1ac0      	subs	r0, r0, r3
    6d68:	4152      	adcs	r2, r2
    6d6a:	0903      	lsrs	r3, r0, #4
    6d6c:	428b      	cmp	r3, r1
    6d6e:	d301      	bcc.n	6d74 <__udivsi3+0xcc>
    6d70:	010b      	lsls	r3, r1, #4
    6d72:	1ac0      	subs	r0, r0, r3
    6d74:	4152      	adcs	r2, r2
    6d76:	08c3      	lsrs	r3, r0, #3
    6d78:	428b      	cmp	r3, r1
    6d7a:	d301      	bcc.n	6d80 <__udivsi3+0xd8>
    6d7c:	00cb      	lsls	r3, r1, #3
    6d7e:	1ac0      	subs	r0, r0, r3
    6d80:	4152      	adcs	r2, r2
    6d82:	0883      	lsrs	r3, r0, #2
    6d84:	428b      	cmp	r3, r1
    6d86:	d301      	bcc.n	6d8c <__udivsi3+0xe4>
    6d88:	008b      	lsls	r3, r1, #2
    6d8a:	1ac0      	subs	r0, r0, r3
    6d8c:	4152      	adcs	r2, r2
    6d8e:	0843      	lsrs	r3, r0, #1
    6d90:	428b      	cmp	r3, r1
    6d92:	d301      	bcc.n	6d98 <__udivsi3+0xf0>
    6d94:	004b      	lsls	r3, r1, #1
    6d96:	1ac0      	subs	r0, r0, r3
    6d98:	4152      	adcs	r2, r2
    6d9a:	1a41      	subs	r1, r0, r1
    6d9c:	d200      	bcs.n	6da0 <__udivsi3+0xf8>
    6d9e:	4601      	mov	r1, r0
    6da0:	4152      	adcs	r2, r2
    6da2:	4610      	mov	r0, r2
    6da4:	4770      	bx	lr
    6da6:	e7ff      	b.n	6da8 <__udivsi3+0x100>
    6da8:	b501      	push	{r0, lr}
    6daa:	2000      	movs	r0, #0
    6dac:	f000 f8f0 	bl	6f90 <__aeabi_idiv0>
    6db0:	bd02      	pop	{r1, pc}
    6db2:	46c0      	nop			; (mov r8, r8)

00006db4 <__aeabi_uidivmod>:
__aeabi_uidivmod():
    6db4:	2900      	cmp	r1, #0
    6db6:	d0f7      	beq.n	6da8 <__udivsi3+0x100>
    6db8:	e776      	b.n	6ca8 <__udivsi3>
    6dba:	4770      	bx	lr

00006dbc <__divsi3>:
__divsi3():
    6dbc:	4603      	mov	r3, r0
    6dbe:	430b      	orrs	r3, r1
    6dc0:	d47f      	bmi.n	6ec2 <__divsi3+0x106>
    6dc2:	2200      	movs	r2, #0
    6dc4:	0843      	lsrs	r3, r0, #1
    6dc6:	428b      	cmp	r3, r1
    6dc8:	d374      	bcc.n	6eb4 <__divsi3+0xf8>
    6dca:	0903      	lsrs	r3, r0, #4
    6dcc:	428b      	cmp	r3, r1
    6dce:	d35f      	bcc.n	6e90 <__divsi3+0xd4>
    6dd0:	0a03      	lsrs	r3, r0, #8
    6dd2:	428b      	cmp	r3, r1
    6dd4:	d344      	bcc.n	6e60 <__divsi3+0xa4>
    6dd6:	0b03      	lsrs	r3, r0, #12
    6dd8:	428b      	cmp	r3, r1
    6dda:	d328      	bcc.n	6e2e <__divsi3+0x72>
    6ddc:	0c03      	lsrs	r3, r0, #16
    6dde:	428b      	cmp	r3, r1
    6de0:	d30d      	bcc.n	6dfe <__divsi3+0x42>
    6de2:	22ff      	movs	r2, #255	; 0xff
    6de4:	0209      	lsls	r1, r1, #8
    6de6:	ba12      	rev	r2, r2
    6de8:	0c03      	lsrs	r3, r0, #16
    6dea:	428b      	cmp	r3, r1
    6dec:	d302      	bcc.n	6df4 <__divsi3+0x38>
    6dee:	1212      	asrs	r2, r2, #8
    6df0:	0209      	lsls	r1, r1, #8
    6df2:	d065      	beq.n	6ec0 <__divsi3+0x104>
    6df4:	0b03      	lsrs	r3, r0, #12
    6df6:	428b      	cmp	r3, r1
    6df8:	d319      	bcc.n	6e2e <__divsi3+0x72>
    6dfa:	e000      	b.n	6dfe <__divsi3+0x42>
    6dfc:	0a09      	lsrs	r1, r1, #8
    6dfe:	0bc3      	lsrs	r3, r0, #15
    6e00:	428b      	cmp	r3, r1
    6e02:	d301      	bcc.n	6e08 <__divsi3+0x4c>
    6e04:	03cb      	lsls	r3, r1, #15
    6e06:	1ac0      	subs	r0, r0, r3
    6e08:	4152      	adcs	r2, r2
    6e0a:	0b83      	lsrs	r3, r0, #14
    6e0c:	428b      	cmp	r3, r1
    6e0e:	d301      	bcc.n	6e14 <__divsi3+0x58>
    6e10:	038b      	lsls	r3, r1, #14
    6e12:	1ac0      	subs	r0, r0, r3
    6e14:	4152      	adcs	r2, r2
    6e16:	0b43      	lsrs	r3, r0, #13
    6e18:	428b      	cmp	r3, r1
    6e1a:	d301      	bcc.n	6e20 <__divsi3+0x64>
    6e1c:	034b      	lsls	r3, r1, #13
    6e1e:	1ac0      	subs	r0, r0, r3
    6e20:	4152      	adcs	r2, r2
    6e22:	0b03      	lsrs	r3, r0, #12
    6e24:	428b      	cmp	r3, r1
    6e26:	d301      	bcc.n	6e2c <__divsi3+0x70>
    6e28:	030b      	lsls	r3, r1, #12
    6e2a:	1ac0      	subs	r0, r0, r3
    6e2c:	4152      	adcs	r2, r2
    6e2e:	0ac3      	lsrs	r3, r0, #11
    6e30:	428b      	cmp	r3, r1
    6e32:	d301      	bcc.n	6e38 <__divsi3+0x7c>
    6e34:	02cb      	lsls	r3, r1, #11
    6e36:	1ac0      	subs	r0, r0, r3
    6e38:	4152      	adcs	r2, r2
    6e3a:	0a83      	lsrs	r3, r0, #10
    6e3c:	428b      	cmp	r3, r1
    6e3e:	d301      	bcc.n	6e44 <__divsi3+0x88>
    6e40:	028b      	lsls	r3, r1, #10
    6e42:	1ac0      	subs	r0, r0, r3
    6e44:	4152      	adcs	r2, r2
    6e46:	0a43      	lsrs	r3, r0, #9
    6e48:	428b      	cmp	r3, r1
    6e4a:	d301      	bcc.n	6e50 <__divsi3+0x94>
    6e4c:	024b      	lsls	r3, r1, #9
    6e4e:	1ac0      	subs	r0, r0, r3
    6e50:	4152      	adcs	r2, r2
    6e52:	0a03      	lsrs	r3, r0, #8
    6e54:	428b      	cmp	r3, r1
    6e56:	d301      	bcc.n	6e5c <__divsi3+0xa0>
    6e58:	020b      	lsls	r3, r1, #8
    6e5a:	1ac0      	subs	r0, r0, r3
    6e5c:	4152      	adcs	r2, r2
    6e5e:	d2cd      	bcs.n	6dfc <__divsi3+0x40>
    6e60:	09c3      	lsrs	r3, r0, #7
    6e62:	428b      	cmp	r3, r1
    6e64:	d301      	bcc.n	6e6a <__divsi3+0xae>
    6e66:	01cb      	lsls	r3, r1, #7
    6e68:	1ac0      	subs	r0, r0, r3
    6e6a:	4152      	adcs	r2, r2
    6e6c:	0983      	lsrs	r3, r0, #6
    6e6e:	428b      	cmp	r3, r1
    6e70:	d301      	bcc.n	6e76 <__divsi3+0xba>
    6e72:	018b      	lsls	r3, r1, #6
    6e74:	1ac0      	subs	r0, r0, r3
    6e76:	4152      	adcs	r2, r2
    6e78:	0943      	lsrs	r3, r0, #5
    6e7a:	428b      	cmp	r3, r1
    6e7c:	d301      	bcc.n	6e82 <__divsi3+0xc6>
    6e7e:	014b      	lsls	r3, r1, #5
    6e80:	1ac0      	subs	r0, r0, r3
    6e82:	4152      	adcs	r2, r2
    6e84:	0903      	lsrs	r3, r0, #4
    6e86:	428b      	cmp	r3, r1
    6e88:	d301      	bcc.n	6e8e <__divsi3+0xd2>
    6e8a:	010b      	lsls	r3, r1, #4
    6e8c:	1ac0      	subs	r0, r0, r3
    6e8e:	4152      	adcs	r2, r2
    6e90:	08c3      	lsrs	r3, r0, #3
    6e92:	428b      	cmp	r3, r1
    6e94:	d301      	bcc.n	6e9a <__divsi3+0xde>
    6e96:	00cb      	lsls	r3, r1, #3
    6e98:	1ac0      	subs	r0, r0, r3
    6e9a:	4152      	adcs	r2, r2
    6e9c:	0883      	lsrs	r3, r0, #2
    6e9e:	428b      	cmp	r3, r1
    6ea0:	d301      	bcc.n	6ea6 <__divsi3+0xea>
    6ea2:	008b      	lsls	r3, r1, #2
    6ea4:	1ac0      	subs	r0, r0, r3
    6ea6:	4152      	adcs	r2, r2
    6ea8:	0843      	lsrs	r3, r0, #1
    6eaa:	428b      	cmp	r3, r1
    6eac:	d301      	bcc.n	6eb2 <__divsi3+0xf6>
    6eae:	004b      	lsls	r3, r1, #1
    6eb0:	1ac0      	subs	r0, r0, r3
    6eb2:	4152      	adcs	r2, r2
    6eb4:	1a41      	subs	r1, r0, r1
    6eb6:	d200      	bcs.n	6eba <__divsi3+0xfe>
    6eb8:	4601      	mov	r1, r0
    6eba:	4152      	adcs	r2, r2
    6ebc:	4610      	mov	r0, r2
    6ebe:	4770      	bx	lr
    6ec0:	e05d      	b.n	6f7e <__divsi3+0x1c2>
    6ec2:	0fca      	lsrs	r2, r1, #31
    6ec4:	d000      	beq.n	6ec8 <__divsi3+0x10c>
    6ec6:	4249      	negs	r1, r1
    6ec8:	1003      	asrs	r3, r0, #32
    6eca:	d300      	bcc.n	6ece <__divsi3+0x112>
    6ecc:	4240      	negs	r0, r0
    6ece:	4053      	eors	r3, r2
    6ed0:	2200      	movs	r2, #0
    6ed2:	469c      	mov	ip, r3
    6ed4:	0903      	lsrs	r3, r0, #4
    6ed6:	428b      	cmp	r3, r1
    6ed8:	d32d      	bcc.n	6f36 <__divsi3+0x17a>
    6eda:	0a03      	lsrs	r3, r0, #8
    6edc:	428b      	cmp	r3, r1
    6ede:	d312      	bcc.n	6f06 <__divsi3+0x14a>
    6ee0:	22fc      	movs	r2, #252	; 0xfc
    6ee2:	0189      	lsls	r1, r1, #6
    6ee4:	ba12      	rev	r2, r2
    6ee6:	0a03      	lsrs	r3, r0, #8
    6ee8:	428b      	cmp	r3, r1
    6eea:	d30c      	bcc.n	6f06 <__divsi3+0x14a>
    6eec:	0189      	lsls	r1, r1, #6
    6eee:	1192      	asrs	r2, r2, #6
    6ef0:	428b      	cmp	r3, r1
    6ef2:	d308      	bcc.n	6f06 <__divsi3+0x14a>
    6ef4:	0189      	lsls	r1, r1, #6
    6ef6:	1192      	asrs	r2, r2, #6
    6ef8:	428b      	cmp	r3, r1
    6efa:	d304      	bcc.n	6f06 <__divsi3+0x14a>
    6efc:	0189      	lsls	r1, r1, #6
    6efe:	d03a      	beq.n	6f76 <__divsi3+0x1ba>
    6f00:	1192      	asrs	r2, r2, #6
    6f02:	e000      	b.n	6f06 <__divsi3+0x14a>
    6f04:	0989      	lsrs	r1, r1, #6
    6f06:	09c3      	lsrs	r3, r0, #7
    6f08:	428b      	cmp	r3, r1
    6f0a:	d301      	bcc.n	6f10 <__divsi3+0x154>
    6f0c:	01cb      	lsls	r3, r1, #7
    6f0e:	1ac0      	subs	r0, r0, r3
    6f10:	4152      	adcs	r2, r2
    6f12:	0983      	lsrs	r3, r0, #6
    6f14:	428b      	cmp	r3, r1
    6f16:	d301      	bcc.n	6f1c <__divsi3+0x160>
    6f18:	018b      	lsls	r3, r1, #6
    6f1a:	1ac0      	subs	r0, r0, r3
    6f1c:	4152      	adcs	r2, r2
    6f1e:	0943      	lsrs	r3, r0, #5
    6f20:	428b      	cmp	r3, r1
    6f22:	d301      	bcc.n	6f28 <__divsi3+0x16c>
    6f24:	014b      	lsls	r3, r1, #5
    6f26:	1ac0      	subs	r0, r0, r3
    6f28:	4152      	adcs	r2, r2
    6f2a:	0903      	lsrs	r3, r0, #4
    6f2c:	428b      	cmp	r3, r1
    6f2e:	d301      	bcc.n	6f34 <__divsi3+0x178>
    6f30:	010b      	lsls	r3, r1, #4
    6f32:	1ac0      	subs	r0, r0, r3
    6f34:	4152      	adcs	r2, r2
    6f36:	08c3      	lsrs	r3, r0, #3
    6f38:	428b      	cmp	r3, r1
    6f3a:	d301      	bcc.n	6f40 <__divsi3+0x184>
    6f3c:	00cb      	lsls	r3, r1, #3
    6f3e:	1ac0      	subs	r0, r0, r3
    6f40:	4152      	adcs	r2, r2
    6f42:	0883      	lsrs	r3, r0, #2
    6f44:	428b      	cmp	r3, r1
    6f46:	d301      	bcc.n	6f4c <__divsi3+0x190>
    6f48:	008b      	lsls	r3, r1, #2
    6f4a:	1ac0      	subs	r0, r0, r3
    6f4c:	4152      	adcs	r2, r2
    6f4e:	d2d9      	bcs.n	6f04 <__divsi3+0x148>
    6f50:	0843      	lsrs	r3, r0, #1
    6f52:	428b      	cmp	r3, r1
    6f54:	d301      	bcc.n	6f5a <__divsi3+0x19e>
    6f56:	004b      	lsls	r3, r1, #1
    6f58:	1ac0      	subs	r0, r0, r3
    6f5a:	4152      	adcs	r2, r2
    6f5c:	1a41      	subs	r1, r0, r1
    6f5e:	d200      	bcs.n	6f62 <__divsi3+0x1a6>
    6f60:	4601      	mov	r1, r0
    6f62:	4663      	mov	r3, ip
    6f64:	4152      	adcs	r2, r2
    6f66:	105b      	asrs	r3, r3, #1
    6f68:	4610      	mov	r0, r2
    6f6a:	d301      	bcc.n	6f70 <__divsi3+0x1b4>
    6f6c:	4240      	negs	r0, r0
    6f6e:	2b00      	cmp	r3, #0
    6f70:	d500      	bpl.n	6f74 <__divsi3+0x1b8>
    6f72:	4249      	negs	r1, r1
    6f74:	4770      	bx	lr
    6f76:	4663      	mov	r3, ip
    6f78:	105b      	asrs	r3, r3, #1
    6f7a:	d300      	bcc.n	6f7e <__divsi3+0x1c2>
    6f7c:	4240      	negs	r0, r0
    6f7e:	b501      	push	{r0, lr}
    6f80:	2000      	movs	r0, #0
    6f82:	f000 f805 	bl	6f90 <__aeabi_idiv0>
    6f86:	bd02      	pop	{r1, pc}

00006f88 <__aeabi_idivmod>:
__aeabi_idivmod():
    6f88:	2900      	cmp	r1, #0
    6f8a:	d0f8      	beq.n	6f7e <__divsi3+0x1c2>
    6f8c:	e716      	b.n	6dbc <__divsi3>
    6f8e:	4770      	bx	lr

00006f90 <__aeabi_idiv0>:
__aeabi_ldiv0():
    6f90:	4770      	bx	lr
    6f92:	46c0      	nop			; (mov r8, r8)

00006f94 <__aeabi_cdrcmple>:
__aeabi_cdrcmple():
    6f94:	4684      	mov	ip, r0
    6f96:	1c10      	adds	r0, r2, #0
    6f98:	4662      	mov	r2, ip
    6f9a:	468c      	mov	ip, r1
    6f9c:	1c19      	adds	r1, r3, #0
    6f9e:	4663      	mov	r3, ip
    6fa0:	e000      	b.n	6fa4 <__aeabi_cdcmpeq>
    6fa2:	46c0      	nop			; (mov r8, r8)

00006fa4 <__aeabi_cdcmpeq>:
    6fa4:	b51f      	push	{r0, r1, r2, r3, r4, lr}
    6fa6:	f000 fa09 	bl	73bc <__ledf2>
    6faa:	2800      	cmp	r0, #0
    6fac:	d401      	bmi.n	6fb2 <__aeabi_cdcmpeq+0xe>
    6fae:	2100      	movs	r1, #0
    6fb0:	42c8      	cmn	r0, r1
    6fb2:	bd1f      	pop	{r0, r1, r2, r3, r4, pc}

00006fb4 <__aeabi_dcmpeq>:
__aeabi_dcmpeq():
    6fb4:	b510      	push	{r4, lr}
    6fb6:	f000 f953 	bl	7260 <__eqdf2>
    6fba:	4240      	negs	r0, r0
    6fbc:	3001      	adds	r0, #1
    6fbe:	bd10      	pop	{r4, pc}

00006fc0 <__aeabi_dcmplt>:
__aeabi_dcmplt():
    6fc0:	b510      	push	{r4, lr}
    6fc2:	f000 f9fb 	bl	73bc <__ledf2>
    6fc6:	2800      	cmp	r0, #0
    6fc8:	db01      	blt.n	6fce <__aeabi_dcmplt+0xe>
    6fca:	2000      	movs	r0, #0
    6fcc:	bd10      	pop	{r4, pc}
    6fce:	2001      	movs	r0, #1
    6fd0:	bd10      	pop	{r4, pc}
    6fd2:	46c0      	nop			; (mov r8, r8)

00006fd4 <__aeabi_dcmple>:
__aeabi_dcmple():
    6fd4:	b510      	push	{r4, lr}
    6fd6:	f000 f9f1 	bl	73bc <__ledf2>
    6fda:	2800      	cmp	r0, #0
    6fdc:	dd01      	ble.n	6fe2 <__aeabi_dcmple+0xe>
    6fde:	2000      	movs	r0, #0
    6fe0:	bd10      	pop	{r4, pc}
    6fe2:	2001      	movs	r0, #1
    6fe4:	bd10      	pop	{r4, pc}
    6fe6:	46c0      	nop			; (mov r8, r8)

00006fe8 <__aeabi_dcmpgt>:
__aeabi_dcmpgt():
    6fe8:	b510      	push	{r4, lr}
    6fea:	f000 f975 	bl	72d8 <__gedf2>
    6fee:	2800      	cmp	r0, #0
    6ff0:	dc01      	bgt.n	6ff6 <__aeabi_dcmpgt+0xe>
    6ff2:	2000      	movs	r0, #0
    6ff4:	bd10      	pop	{r4, pc}
    6ff6:	2001      	movs	r0, #1
    6ff8:	bd10      	pop	{r4, pc}
    6ffa:	46c0      	nop			; (mov r8, r8)

00006ffc <__aeabi_dcmpge>:
__aeabi_dcmpge():
    6ffc:	b510      	push	{r4, lr}
    6ffe:	f000 f96b 	bl	72d8 <__gedf2>
    7002:	2800      	cmp	r0, #0
    7004:	da01      	bge.n	700a <__aeabi_dcmpge+0xe>
    7006:	2000      	movs	r0, #0
    7008:	bd10      	pop	{r4, pc}
    700a:	2001      	movs	r0, #1
    700c:	bd10      	pop	{r4, pc}
    700e:	46c0      	nop			; (mov r8, r8)

00007010 <__aeabi_uldivmod>:
__aeabi_uldivmod():
    7010:	2b00      	cmp	r3, #0
    7012:	d111      	bne.n	7038 <__aeabi_uldivmod+0x28>
    7014:	2a00      	cmp	r2, #0
    7016:	d10f      	bne.n	7038 <__aeabi_uldivmod+0x28>
    7018:	2900      	cmp	r1, #0
    701a:	d100      	bne.n	701e <__aeabi_uldivmod+0xe>
    701c:	2800      	cmp	r0, #0
    701e:	d002      	beq.n	7026 <__aeabi_uldivmod+0x16>
    7020:	2100      	movs	r1, #0
    7022:	43c9      	mvns	r1, r1
    7024:	1c08      	adds	r0, r1, #0
    7026:	b407      	push	{r0, r1, r2}
    7028:	4802      	ldr	r0, [pc, #8]	; (7034 <__aeabi_uldivmod+0x24>)
    702a:	a102      	add	r1, pc, #8	; (adr r1, 7034 <__aeabi_uldivmod+0x24>)
    702c:	1840      	adds	r0, r0, r1
    702e:	9002      	str	r0, [sp, #8]
    7030:	bd03      	pop	{r0, r1, pc}
    7032:	46c0      	nop			; (mov r8, r8)
    7034:	ffffff5d 	.word	0xffffff5d
    7038:	b403      	push	{r0, r1}
    703a:	4668      	mov	r0, sp
    703c:	b501      	push	{r0, lr}
    703e:	9802      	ldr	r0, [sp, #8]
    7040:	f000 f842 	bl	70c8 <__udivmoddi4>
    7044:	9b01      	ldr	r3, [sp, #4]
    7046:	469e      	mov	lr, r3
    7048:	b002      	add	sp, #8
    704a:	bc0c      	pop	{r2, r3}
    704c:	4770      	bx	lr
    704e:	46c0      	nop			; (mov r8, r8)

00007050 <__aeabi_d2uiz>:
__fixunsdfsi():
    7050:	b570      	push	{r4, r5, r6, lr}
    7052:	2200      	movs	r2, #0
    7054:	4b0c      	ldr	r3, [pc, #48]	; (7088 <__aeabi_d2uiz+0x38>)
    7056:	0004      	movs	r4, r0
    7058:	000d      	movs	r5, r1
    705a:	f7ff ffcf 	bl	6ffc <__aeabi_dcmpge>
    705e:	2800      	cmp	r0, #0
    7060:	d104      	bne.n	706c <__aeabi_d2uiz+0x1c>
    7062:	0020      	movs	r0, r4
    7064:	0029      	movs	r1, r5
    7066:	f001 f817 	bl	8098 <__aeabi_d2iz>
    706a:	bd70      	pop	{r4, r5, r6, pc}
    706c:	4b06      	ldr	r3, [pc, #24]	; (7088 <__aeabi_d2uiz+0x38>)
    706e:	2200      	movs	r2, #0
    7070:	0020      	movs	r0, r4
    7072:	0029      	movs	r1, r5
    7074:	f000 fc7e 	bl	7974 <__aeabi_dsub>
    7078:	f001 f80e 	bl	8098 <__aeabi_d2iz>
    707c:	2380      	movs	r3, #128	; 0x80
    707e:	061b      	lsls	r3, r3, #24
    7080:	469c      	mov	ip, r3
    7082:	4460      	add	r0, ip
    7084:	e7f1      	b.n	706a <__aeabi_d2uiz+0x1a>
    7086:	46c0      	nop			; (mov r8, r8)
    7088:	41e00000 	.word	0x41e00000

0000708c <__aeabi_d2ulz>:
__aeabi_d2ulz():
    708c:	b570      	push	{r4, r5, r6, lr}
    708e:	2200      	movs	r2, #0
    7090:	4b0b      	ldr	r3, [pc, #44]	; (70c0 <__aeabi_d2ulz+0x34>)
    7092:	000d      	movs	r5, r1
    7094:	0004      	movs	r4, r0
    7096:	f000 fa01 	bl	749c <__aeabi_dmul>
    709a:	f7ff ffd9 	bl	7050 <__aeabi_d2uiz>
    709e:	0006      	movs	r6, r0
    70a0:	f001 f830 	bl	8104 <__aeabi_ui2d>
    70a4:	2200      	movs	r2, #0
    70a6:	4b07      	ldr	r3, [pc, #28]	; (70c4 <__aeabi_d2ulz+0x38>)
    70a8:	f000 f9f8 	bl	749c <__aeabi_dmul>
    70ac:	0002      	movs	r2, r0
    70ae:	000b      	movs	r3, r1
    70b0:	0020      	movs	r0, r4
    70b2:	0029      	movs	r1, r5
    70b4:	f000 fc5e 	bl	7974 <__aeabi_dsub>
    70b8:	f7ff ffca 	bl	7050 <__aeabi_d2uiz>
    70bc:	0031      	movs	r1, r6
    70be:	bd70      	pop	{r4, r5, r6, pc}
    70c0:	3df00000 	.word	0x3df00000
    70c4:	41f00000 	.word	0x41f00000

000070c8 <__udivmoddi4>:
__udivmoddi4():
    70c8:	b5f0      	push	{r4, r5, r6, r7, lr}
    70ca:	4657      	mov	r7, sl
    70cc:	464e      	mov	r6, r9
    70ce:	4645      	mov	r5, r8
    70d0:	46de      	mov	lr, fp
    70d2:	b5e0      	push	{r5, r6, r7, lr}
    70d4:	0004      	movs	r4, r0
    70d6:	000d      	movs	r5, r1
    70d8:	4692      	mov	sl, r2
    70da:	4699      	mov	r9, r3
    70dc:	b083      	sub	sp, #12
    70de:	428b      	cmp	r3, r1
    70e0:	d830      	bhi.n	7144 <__udivmoddi4+0x7c>
    70e2:	d02d      	beq.n	7140 <__udivmoddi4+0x78>
    70e4:	4649      	mov	r1, r9
    70e6:	4650      	mov	r0, sl
    70e8:	f001 f850 	bl	818c <__clzdi2>
    70ec:	0029      	movs	r1, r5
    70ee:	0006      	movs	r6, r0
    70f0:	0020      	movs	r0, r4
    70f2:	f001 f84b 	bl	818c <__clzdi2>
    70f6:	1a33      	subs	r3, r6, r0
    70f8:	4698      	mov	r8, r3
    70fa:	3b20      	subs	r3, #32
    70fc:	469b      	mov	fp, r3
    70fe:	d433      	bmi.n	7168 <__udivmoddi4+0xa0>
    7100:	465a      	mov	r2, fp
    7102:	4653      	mov	r3, sl
    7104:	4093      	lsls	r3, r2
    7106:	4642      	mov	r2, r8
    7108:	001f      	movs	r7, r3
    710a:	4653      	mov	r3, sl
    710c:	4093      	lsls	r3, r2
    710e:	001e      	movs	r6, r3
    7110:	42af      	cmp	r7, r5
    7112:	d83a      	bhi.n	718a <__udivmoddi4+0xc2>
    7114:	42af      	cmp	r7, r5
    7116:	d100      	bne.n	711a <__udivmoddi4+0x52>
    7118:	e078      	b.n	720c <__udivmoddi4+0x144>
    711a:	465b      	mov	r3, fp
    711c:	1ba4      	subs	r4, r4, r6
    711e:	41bd      	sbcs	r5, r7
    7120:	2b00      	cmp	r3, #0
    7122:	da00      	bge.n	7126 <__udivmoddi4+0x5e>
    7124:	e075      	b.n	7212 <__udivmoddi4+0x14a>
    7126:	2200      	movs	r2, #0
    7128:	2300      	movs	r3, #0
    712a:	9200      	str	r2, [sp, #0]
    712c:	9301      	str	r3, [sp, #4]
    712e:	2301      	movs	r3, #1
    7130:	465a      	mov	r2, fp
    7132:	4093      	lsls	r3, r2
    7134:	9301      	str	r3, [sp, #4]
    7136:	2301      	movs	r3, #1
    7138:	4642      	mov	r2, r8
    713a:	4093      	lsls	r3, r2
    713c:	9300      	str	r3, [sp, #0]
    713e:	e028      	b.n	7192 <__udivmoddi4+0xca>
    7140:	4282      	cmp	r2, r0
    7142:	d9cf      	bls.n	70e4 <__udivmoddi4+0x1c>
    7144:	2200      	movs	r2, #0
    7146:	2300      	movs	r3, #0
    7148:	9200      	str	r2, [sp, #0]
    714a:	9301      	str	r3, [sp, #4]
    714c:	9b0c      	ldr	r3, [sp, #48]	; 0x30
    714e:	2b00      	cmp	r3, #0
    7150:	d001      	beq.n	7156 <__udivmoddi4+0x8e>
    7152:	601c      	str	r4, [r3, #0]
    7154:	605d      	str	r5, [r3, #4]
    7156:	9800      	ldr	r0, [sp, #0]
    7158:	9901      	ldr	r1, [sp, #4]
    715a:	b003      	add	sp, #12
    715c:	bcf0      	pop	{r4, r5, r6, r7}
    715e:	46bb      	mov	fp, r7
    7160:	46b2      	mov	sl, r6
    7162:	46a9      	mov	r9, r5
    7164:	46a0      	mov	r8, r4
    7166:	bdf0      	pop	{r4, r5, r6, r7, pc}
    7168:	4642      	mov	r2, r8
    716a:	2320      	movs	r3, #32
    716c:	1a9b      	subs	r3, r3, r2
    716e:	4652      	mov	r2, sl
    7170:	40da      	lsrs	r2, r3
    7172:	4641      	mov	r1, r8
    7174:	0013      	movs	r3, r2
    7176:	464a      	mov	r2, r9
    7178:	408a      	lsls	r2, r1
    717a:	0017      	movs	r7, r2
    717c:	4642      	mov	r2, r8
    717e:	431f      	orrs	r7, r3
    7180:	4653      	mov	r3, sl
    7182:	4093      	lsls	r3, r2
    7184:	001e      	movs	r6, r3
    7186:	42af      	cmp	r7, r5
    7188:	d9c4      	bls.n	7114 <__udivmoddi4+0x4c>
    718a:	2200      	movs	r2, #0
    718c:	2300      	movs	r3, #0
    718e:	9200      	str	r2, [sp, #0]
    7190:	9301      	str	r3, [sp, #4]
    7192:	4643      	mov	r3, r8
    7194:	2b00      	cmp	r3, #0
    7196:	d0d9      	beq.n	714c <__udivmoddi4+0x84>
    7198:	07fb      	lsls	r3, r7, #31
    719a:	0872      	lsrs	r2, r6, #1
    719c:	431a      	orrs	r2, r3
    719e:	4646      	mov	r6, r8
    71a0:	087b      	lsrs	r3, r7, #1
    71a2:	e00e      	b.n	71c2 <__udivmoddi4+0xfa>
    71a4:	42ab      	cmp	r3, r5
    71a6:	d101      	bne.n	71ac <__udivmoddi4+0xe4>
    71a8:	42a2      	cmp	r2, r4
    71aa:	d80c      	bhi.n	71c6 <__udivmoddi4+0xfe>
    71ac:	1aa4      	subs	r4, r4, r2
    71ae:	419d      	sbcs	r5, r3
    71b0:	2001      	movs	r0, #1
    71b2:	1924      	adds	r4, r4, r4
    71b4:	416d      	adcs	r5, r5
    71b6:	2100      	movs	r1, #0
    71b8:	3e01      	subs	r6, #1
    71ba:	1824      	adds	r4, r4, r0
    71bc:	414d      	adcs	r5, r1
    71be:	2e00      	cmp	r6, #0
    71c0:	d006      	beq.n	71d0 <__udivmoddi4+0x108>
    71c2:	42ab      	cmp	r3, r5
    71c4:	d9ee      	bls.n	71a4 <__udivmoddi4+0xdc>
    71c6:	3e01      	subs	r6, #1
    71c8:	1924      	adds	r4, r4, r4
    71ca:	416d      	adcs	r5, r5
    71cc:	2e00      	cmp	r6, #0
    71ce:	d1f8      	bne.n	71c2 <__udivmoddi4+0xfa>
    71d0:	9800      	ldr	r0, [sp, #0]
    71d2:	9901      	ldr	r1, [sp, #4]
    71d4:	465b      	mov	r3, fp
    71d6:	1900      	adds	r0, r0, r4
    71d8:	4169      	adcs	r1, r5
    71da:	2b00      	cmp	r3, #0
    71dc:	db24      	blt.n	7228 <__udivmoddi4+0x160>
    71de:	002b      	movs	r3, r5
    71e0:	465a      	mov	r2, fp
    71e2:	4644      	mov	r4, r8
    71e4:	40d3      	lsrs	r3, r2
    71e6:	002a      	movs	r2, r5
    71e8:	40e2      	lsrs	r2, r4
    71ea:	001c      	movs	r4, r3
    71ec:	465b      	mov	r3, fp
    71ee:	0015      	movs	r5, r2
    71f0:	2b00      	cmp	r3, #0
    71f2:	db2a      	blt.n	724a <__udivmoddi4+0x182>
    71f4:	0026      	movs	r6, r4
    71f6:	409e      	lsls	r6, r3
    71f8:	0033      	movs	r3, r6
    71fa:	0026      	movs	r6, r4
    71fc:	4647      	mov	r7, r8
    71fe:	40be      	lsls	r6, r7
    7200:	0032      	movs	r2, r6
    7202:	1a80      	subs	r0, r0, r2
    7204:	4199      	sbcs	r1, r3
    7206:	9000      	str	r0, [sp, #0]
    7208:	9101      	str	r1, [sp, #4]
    720a:	e79f      	b.n	714c <__udivmoddi4+0x84>
    720c:	42a3      	cmp	r3, r4
    720e:	d8bc      	bhi.n	718a <__udivmoddi4+0xc2>
    7210:	e783      	b.n	711a <__udivmoddi4+0x52>
    7212:	4642      	mov	r2, r8
    7214:	2320      	movs	r3, #32
    7216:	2100      	movs	r1, #0
    7218:	1a9b      	subs	r3, r3, r2
    721a:	2200      	movs	r2, #0
    721c:	9100      	str	r1, [sp, #0]
    721e:	9201      	str	r2, [sp, #4]
    7220:	2201      	movs	r2, #1
    7222:	40da      	lsrs	r2, r3
    7224:	9201      	str	r2, [sp, #4]
    7226:	e786      	b.n	7136 <__udivmoddi4+0x6e>
    7228:	4642      	mov	r2, r8
    722a:	2320      	movs	r3, #32
    722c:	1a9b      	subs	r3, r3, r2
    722e:	002a      	movs	r2, r5
    7230:	4646      	mov	r6, r8
    7232:	409a      	lsls	r2, r3
    7234:	0023      	movs	r3, r4
    7236:	40f3      	lsrs	r3, r6
    7238:	4644      	mov	r4, r8
    723a:	4313      	orrs	r3, r2
    723c:	002a      	movs	r2, r5
    723e:	40e2      	lsrs	r2, r4
    7240:	001c      	movs	r4, r3
    7242:	465b      	mov	r3, fp
    7244:	0015      	movs	r5, r2
    7246:	2b00      	cmp	r3, #0
    7248:	dad4      	bge.n	71f4 <__udivmoddi4+0x12c>
    724a:	4642      	mov	r2, r8
    724c:	002f      	movs	r7, r5
    724e:	2320      	movs	r3, #32
    7250:	0026      	movs	r6, r4
    7252:	4097      	lsls	r7, r2
    7254:	1a9b      	subs	r3, r3, r2
    7256:	40de      	lsrs	r6, r3
    7258:	003b      	movs	r3, r7
    725a:	4333      	orrs	r3, r6
    725c:	e7cd      	b.n	71fa <__udivmoddi4+0x132>
    725e:	46c0      	nop			; (mov r8, r8)

00007260 <__eqdf2>:
__eqdf2():
    7260:	b5f0      	push	{r4, r5, r6, r7, lr}
    7262:	464f      	mov	r7, r9
    7264:	4646      	mov	r6, r8
    7266:	46d6      	mov	lr, sl
    7268:	4694      	mov	ip, r2
    726a:	4691      	mov	r9, r2
    726c:	031a      	lsls	r2, r3, #12
    726e:	0b12      	lsrs	r2, r2, #12
    7270:	4d18      	ldr	r5, [pc, #96]	; (72d4 <__eqdf2+0x74>)
    7272:	b5c0      	push	{r6, r7, lr}
    7274:	004c      	lsls	r4, r1, #1
    7276:	030f      	lsls	r7, r1, #12
    7278:	4692      	mov	sl, r2
    727a:	005a      	lsls	r2, r3, #1
    727c:	0006      	movs	r6, r0
    727e:	4680      	mov	r8, r0
    7280:	0b3f      	lsrs	r7, r7, #12
    7282:	2001      	movs	r0, #1
    7284:	0d64      	lsrs	r4, r4, #21
    7286:	0fc9      	lsrs	r1, r1, #31
    7288:	0d52      	lsrs	r2, r2, #21
    728a:	0fdb      	lsrs	r3, r3, #31
    728c:	42ac      	cmp	r4, r5
    728e:	d00a      	beq.n	72a6 <__eqdf2+0x46>
    7290:	42aa      	cmp	r2, r5
    7292:	d003      	beq.n	729c <__eqdf2+0x3c>
    7294:	4294      	cmp	r4, r2
    7296:	d101      	bne.n	729c <__eqdf2+0x3c>
    7298:	4557      	cmp	r7, sl
    729a:	d00d      	beq.n	72b8 <__eqdf2+0x58>
    729c:	bce0      	pop	{r5, r6, r7}
    729e:	46ba      	mov	sl, r7
    72a0:	46b1      	mov	r9, r6
    72a2:	46a8      	mov	r8, r5
    72a4:	bdf0      	pop	{r4, r5, r6, r7, pc}
    72a6:	003d      	movs	r5, r7
    72a8:	4335      	orrs	r5, r6
    72aa:	d1f7      	bne.n	729c <__eqdf2+0x3c>
    72ac:	42a2      	cmp	r2, r4
    72ae:	d1f5      	bne.n	729c <__eqdf2+0x3c>
    72b0:	4652      	mov	r2, sl
    72b2:	4665      	mov	r5, ip
    72b4:	432a      	orrs	r2, r5
    72b6:	d1f1      	bne.n	729c <__eqdf2+0x3c>
    72b8:	2001      	movs	r0, #1
    72ba:	45c8      	cmp	r8, r9
    72bc:	d1ee      	bne.n	729c <__eqdf2+0x3c>
    72be:	4299      	cmp	r1, r3
    72c0:	d006      	beq.n	72d0 <__eqdf2+0x70>
    72c2:	2c00      	cmp	r4, #0
    72c4:	d1ea      	bne.n	729c <__eqdf2+0x3c>
    72c6:	433e      	orrs	r6, r7
    72c8:	0030      	movs	r0, r6
    72ca:	1e46      	subs	r6, r0, #1
    72cc:	41b0      	sbcs	r0, r6
    72ce:	e7e5      	b.n	729c <__eqdf2+0x3c>
    72d0:	2000      	movs	r0, #0
    72d2:	e7e3      	b.n	729c <__eqdf2+0x3c>
    72d4:	000007ff 	.word	0x000007ff

000072d8 <__gedf2>:
__gtdf2():
    72d8:	b5f0      	push	{r4, r5, r6, r7, lr}
    72da:	464e      	mov	r6, r9
    72dc:	4645      	mov	r5, r8
    72de:	4657      	mov	r7, sl
    72e0:	46de      	mov	lr, fp
    72e2:	0004      	movs	r4, r0
    72e4:	0018      	movs	r0, r3
    72e6:	b5e0      	push	{r5, r6, r7, lr}
    72e8:	0016      	movs	r6, r2
    72ea:	031b      	lsls	r3, r3, #12
    72ec:	0b1b      	lsrs	r3, r3, #12
    72ee:	4d32      	ldr	r5, [pc, #200]	; (73b8 <__gedf2+0xe0>)
    72f0:	030f      	lsls	r7, r1, #12
    72f2:	004a      	lsls	r2, r1, #1
    72f4:	4699      	mov	r9, r3
    72f6:	0043      	lsls	r3, r0, #1
    72f8:	46a4      	mov	ip, r4
    72fa:	46b0      	mov	r8, r6
    72fc:	0b3f      	lsrs	r7, r7, #12
    72fe:	0d52      	lsrs	r2, r2, #21
    7300:	0fc9      	lsrs	r1, r1, #31
    7302:	0d5b      	lsrs	r3, r3, #21
    7304:	0fc0      	lsrs	r0, r0, #31
    7306:	42aa      	cmp	r2, r5
    7308:	d029      	beq.n	735e <__gedf2+0x86>
    730a:	42ab      	cmp	r3, r5
    730c:	d018      	beq.n	7340 <__gedf2+0x68>
    730e:	2a00      	cmp	r2, #0
    7310:	d12a      	bne.n	7368 <__gedf2+0x90>
    7312:	433c      	orrs	r4, r7
    7314:	46a3      	mov	fp, r4
    7316:	4265      	negs	r5, r4
    7318:	4165      	adcs	r5, r4
    731a:	2b00      	cmp	r3, #0
    731c:	d102      	bne.n	7324 <__gedf2+0x4c>
    731e:	464c      	mov	r4, r9
    7320:	4326      	orrs	r6, r4
    7322:	d027      	beq.n	7374 <__gedf2+0x9c>
    7324:	2d00      	cmp	r5, #0
    7326:	d115      	bne.n	7354 <__gedf2+0x7c>
    7328:	4281      	cmp	r1, r0
    732a:	d028      	beq.n	737e <__gedf2+0xa6>
    732c:	2002      	movs	r0, #2
    732e:	3901      	subs	r1, #1
    7330:	4008      	ands	r0, r1
    7332:	3801      	subs	r0, #1
    7334:	bcf0      	pop	{r4, r5, r6, r7}
    7336:	46bb      	mov	fp, r7
    7338:	46b2      	mov	sl, r6
    733a:	46a9      	mov	r9, r5
    733c:	46a0      	mov	r8, r4
    733e:	bdf0      	pop	{r4, r5, r6, r7, pc}
    7340:	464d      	mov	r5, r9
    7342:	432e      	orrs	r6, r5
    7344:	d12f      	bne.n	73a6 <__gedf2+0xce>
    7346:	2a00      	cmp	r2, #0
    7348:	d1ee      	bne.n	7328 <__gedf2+0x50>
    734a:	433c      	orrs	r4, r7
    734c:	4265      	negs	r5, r4
    734e:	4165      	adcs	r5, r4
    7350:	2d00      	cmp	r5, #0
    7352:	d0e9      	beq.n	7328 <__gedf2+0x50>
    7354:	2800      	cmp	r0, #0
    7356:	d1ed      	bne.n	7334 <__gedf2+0x5c>
    7358:	2001      	movs	r0, #1
    735a:	4240      	negs	r0, r0
    735c:	e7ea      	b.n	7334 <__gedf2+0x5c>
    735e:	003d      	movs	r5, r7
    7360:	4325      	orrs	r5, r4
    7362:	d120      	bne.n	73a6 <__gedf2+0xce>
    7364:	4293      	cmp	r3, r2
    7366:	d0eb      	beq.n	7340 <__gedf2+0x68>
    7368:	2b00      	cmp	r3, #0
    736a:	d1dd      	bne.n	7328 <__gedf2+0x50>
    736c:	464c      	mov	r4, r9
    736e:	4326      	orrs	r6, r4
    7370:	d1da      	bne.n	7328 <__gedf2+0x50>
    7372:	e7db      	b.n	732c <__gedf2+0x54>
    7374:	465b      	mov	r3, fp
    7376:	2000      	movs	r0, #0
    7378:	2b00      	cmp	r3, #0
    737a:	d0db      	beq.n	7334 <__gedf2+0x5c>
    737c:	e7d6      	b.n	732c <__gedf2+0x54>
    737e:	429a      	cmp	r2, r3
    7380:	dc0a      	bgt.n	7398 <__gedf2+0xc0>
    7382:	dbe7      	blt.n	7354 <__gedf2+0x7c>
    7384:	454f      	cmp	r7, r9
    7386:	d8d1      	bhi.n	732c <__gedf2+0x54>
    7388:	d010      	beq.n	73ac <__gedf2+0xd4>
    738a:	2000      	movs	r0, #0
    738c:	454f      	cmp	r7, r9
    738e:	d2d1      	bcs.n	7334 <__gedf2+0x5c>
    7390:	2900      	cmp	r1, #0
    7392:	d0e1      	beq.n	7358 <__gedf2+0x80>
    7394:	0008      	movs	r0, r1
    7396:	e7cd      	b.n	7334 <__gedf2+0x5c>
    7398:	4243      	negs	r3, r0
    739a:	4158      	adcs	r0, r3
    739c:	2302      	movs	r3, #2
    739e:	4240      	negs	r0, r0
    73a0:	4018      	ands	r0, r3
    73a2:	3801      	subs	r0, #1
    73a4:	e7c6      	b.n	7334 <__gedf2+0x5c>
    73a6:	2002      	movs	r0, #2
    73a8:	4240      	negs	r0, r0
    73aa:	e7c3      	b.n	7334 <__gedf2+0x5c>
    73ac:	45c4      	cmp	ip, r8
    73ae:	d8bd      	bhi.n	732c <__gedf2+0x54>
    73b0:	2000      	movs	r0, #0
    73b2:	45c4      	cmp	ip, r8
    73b4:	d2be      	bcs.n	7334 <__gedf2+0x5c>
    73b6:	e7eb      	b.n	7390 <__gedf2+0xb8>
    73b8:	000007ff 	.word	0x000007ff

000073bc <__ledf2>:
__ltdf2():
    73bc:	b5f0      	push	{r4, r5, r6, r7, lr}
    73be:	464e      	mov	r6, r9
    73c0:	4645      	mov	r5, r8
    73c2:	4657      	mov	r7, sl
    73c4:	46de      	mov	lr, fp
    73c6:	0004      	movs	r4, r0
    73c8:	0018      	movs	r0, r3
    73ca:	b5e0      	push	{r5, r6, r7, lr}
    73cc:	0016      	movs	r6, r2
    73ce:	031b      	lsls	r3, r3, #12
    73d0:	0b1b      	lsrs	r3, r3, #12
    73d2:	4d31      	ldr	r5, [pc, #196]	; (7498 <__ledf2+0xdc>)
    73d4:	030f      	lsls	r7, r1, #12
    73d6:	004a      	lsls	r2, r1, #1
    73d8:	4699      	mov	r9, r3
    73da:	0043      	lsls	r3, r0, #1
    73dc:	46a4      	mov	ip, r4
    73de:	46b0      	mov	r8, r6
    73e0:	0b3f      	lsrs	r7, r7, #12
    73e2:	0d52      	lsrs	r2, r2, #21
    73e4:	0fc9      	lsrs	r1, r1, #31
    73e6:	0d5b      	lsrs	r3, r3, #21
    73e8:	0fc0      	lsrs	r0, r0, #31
    73ea:	42aa      	cmp	r2, r5
    73ec:	d011      	beq.n	7412 <__ledf2+0x56>
    73ee:	42ab      	cmp	r3, r5
    73f0:	d014      	beq.n	741c <__ledf2+0x60>
    73f2:	2a00      	cmp	r2, #0
    73f4:	d12f      	bne.n	7456 <__ledf2+0x9a>
    73f6:	433c      	orrs	r4, r7
    73f8:	46a3      	mov	fp, r4
    73fa:	4265      	negs	r5, r4
    73fc:	4165      	adcs	r5, r4
    73fe:	2b00      	cmp	r3, #0
    7400:	d114      	bne.n	742c <__ledf2+0x70>
    7402:	464c      	mov	r4, r9
    7404:	4326      	orrs	r6, r4
    7406:	d111      	bne.n	742c <__ledf2+0x70>
    7408:	465b      	mov	r3, fp
    740a:	2000      	movs	r0, #0
    740c:	2b00      	cmp	r3, #0
    740e:	d017      	beq.n	7440 <__ledf2+0x84>
    7410:	e010      	b.n	7434 <__ledf2+0x78>
    7412:	003d      	movs	r5, r7
    7414:	4325      	orrs	r5, r4
    7416:	d112      	bne.n	743e <__ledf2+0x82>
    7418:	4293      	cmp	r3, r2
    741a:	d11c      	bne.n	7456 <__ledf2+0x9a>
    741c:	464d      	mov	r5, r9
    741e:	432e      	orrs	r6, r5
    7420:	d10d      	bne.n	743e <__ledf2+0x82>
    7422:	2a00      	cmp	r2, #0
    7424:	d104      	bne.n	7430 <__ledf2+0x74>
    7426:	433c      	orrs	r4, r7
    7428:	4265      	negs	r5, r4
    742a:	4165      	adcs	r5, r4
    742c:	2d00      	cmp	r5, #0
    742e:	d10d      	bne.n	744c <__ledf2+0x90>
    7430:	4281      	cmp	r1, r0
    7432:	d016      	beq.n	7462 <__ledf2+0xa6>
    7434:	2002      	movs	r0, #2
    7436:	3901      	subs	r1, #1
    7438:	4008      	ands	r0, r1
    743a:	3801      	subs	r0, #1
    743c:	e000      	b.n	7440 <__ledf2+0x84>
    743e:	2002      	movs	r0, #2
    7440:	bcf0      	pop	{r4, r5, r6, r7}
    7442:	46bb      	mov	fp, r7
    7444:	46b2      	mov	sl, r6
    7446:	46a9      	mov	r9, r5
    7448:	46a0      	mov	r8, r4
    744a:	bdf0      	pop	{r4, r5, r6, r7, pc}
    744c:	2800      	cmp	r0, #0
    744e:	d1f7      	bne.n	7440 <__ledf2+0x84>
    7450:	2001      	movs	r0, #1
    7452:	4240      	negs	r0, r0
    7454:	e7f4      	b.n	7440 <__ledf2+0x84>
    7456:	2b00      	cmp	r3, #0
    7458:	d1ea      	bne.n	7430 <__ledf2+0x74>
    745a:	464c      	mov	r4, r9
    745c:	4326      	orrs	r6, r4
    745e:	d1e7      	bne.n	7430 <__ledf2+0x74>
    7460:	e7e8      	b.n	7434 <__ledf2+0x78>
    7462:	429a      	cmp	r2, r3
    7464:	dd06      	ble.n	7474 <__ledf2+0xb8>
    7466:	4243      	negs	r3, r0
    7468:	4158      	adcs	r0, r3
    746a:	2302      	movs	r3, #2
    746c:	4240      	negs	r0, r0
    746e:	4018      	ands	r0, r3
    7470:	3801      	subs	r0, #1
    7472:	e7e5      	b.n	7440 <__ledf2+0x84>
    7474:	429a      	cmp	r2, r3
    7476:	dbe9      	blt.n	744c <__ledf2+0x90>
    7478:	454f      	cmp	r7, r9
    747a:	d8db      	bhi.n	7434 <__ledf2+0x78>
    747c:	d006      	beq.n	748c <__ledf2+0xd0>
    747e:	2000      	movs	r0, #0
    7480:	454f      	cmp	r7, r9
    7482:	d2dd      	bcs.n	7440 <__ledf2+0x84>
    7484:	2900      	cmp	r1, #0
    7486:	d0e3      	beq.n	7450 <__ledf2+0x94>
    7488:	0008      	movs	r0, r1
    748a:	e7d9      	b.n	7440 <__ledf2+0x84>
    748c:	45c4      	cmp	ip, r8
    748e:	d8d1      	bhi.n	7434 <__ledf2+0x78>
    7490:	2000      	movs	r0, #0
    7492:	45c4      	cmp	ip, r8
    7494:	d2d4      	bcs.n	7440 <__ledf2+0x84>
    7496:	e7f5      	b.n	7484 <__ledf2+0xc8>
    7498:	000007ff 	.word	0x000007ff

0000749c <__aeabi_dmul>:
__aeabi_dmul():
    749c:	b5f0      	push	{r4, r5, r6, r7, lr}
    749e:	4657      	mov	r7, sl
    74a0:	464e      	mov	r6, r9
    74a2:	4645      	mov	r5, r8
    74a4:	46de      	mov	lr, fp
    74a6:	b5e0      	push	{r5, r6, r7, lr}
    74a8:	4698      	mov	r8, r3
    74aa:	030c      	lsls	r4, r1, #12
    74ac:	004b      	lsls	r3, r1, #1
    74ae:	0006      	movs	r6, r0
    74b0:	4692      	mov	sl, r2
    74b2:	b087      	sub	sp, #28
    74b4:	0b24      	lsrs	r4, r4, #12
    74b6:	0d5b      	lsrs	r3, r3, #21
    74b8:	0fcf      	lsrs	r7, r1, #31
    74ba:	2b00      	cmp	r3, #0
    74bc:	d06c      	beq.n	7598 <__aeabi_dmul+0xfc>
    74be:	4add      	ldr	r2, [pc, #884]	; (7834 <__aeabi_dmul+0x398>)
    74c0:	4293      	cmp	r3, r2
    74c2:	d100      	bne.n	74c6 <__aeabi_dmul+0x2a>
    74c4:	e086      	b.n	75d4 <__aeabi_dmul+0x138>
    74c6:	0f42      	lsrs	r2, r0, #29
    74c8:	00e4      	lsls	r4, r4, #3
    74ca:	4314      	orrs	r4, r2
    74cc:	2280      	movs	r2, #128	; 0x80
    74ce:	0412      	lsls	r2, r2, #16
    74d0:	4314      	orrs	r4, r2
    74d2:	4ad9      	ldr	r2, [pc, #868]	; (7838 <__aeabi_dmul+0x39c>)
    74d4:	00c5      	lsls	r5, r0, #3
    74d6:	4694      	mov	ip, r2
    74d8:	4463      	add	r3, ip
    74da:	9300      	str	r3, [sp, #0]
    74dc:	2300      	movs	r3, #0
    74de:	4699      	mov	r9, r3
    74e0:	469b      	mov	fp, r3
    74e2:	4643      	mov	r3, r8
    74e4:	4642      	mov	r2, r8
    74e6:	031e      	lsls	r6, r3, #12
    74e8:	0fd2      	lsrs	r2, r2, #31
    74ea:	005b      	lsls	r3, r3, #1
    74ec:	4650      	mov	r0, sl
    74ee:	4690      	mov	r8, r2
    74f0:	0b36      	lsrs	r6, r6, #12
    74f2:	0d5b      	lsrs	r3, r3, #21
    74f4:	d100      	bne.n	74f8 <__aeabi_dmul+0x5c>
    74f6:	e078      	b.n	75ea <__aeabi_dmul+0x14e>
    74f8:	4ace      	ldr	r2, [pc, #824]	; (7834 <__aeabi_dmul+0x398>)
    74fa:	4293      	cmp	r3, r2
    74fc:	d01d      	beq.n	753a <__aeabi_dmul+0x9e>
    74fe:	49ce      	ldr	r1, [pc, #824]	; (7838 <__aeabi_dmul+0x39c>)
    7500:	0f42      	lsrs	r2, r0, #29
    7502:	468c      	mov	ip, r1
    7504:	9900      	ldr	r1, [sp, #0]
    7506:	4463      	add	r3, ip
    7508:	00f6      	lsls	r6, r6, #3
    750a:	468c      	mov	ip, r1
    750c:	4316      	orrs	r6, r2
    750e:	2280      	movs	r2, #128	; 0x80
    7510:	449c      	add	ip, r3
    7512:	0412      	lsls	r2, r2, #16
    7514:	4663      	mov	r3, ip
    7516:	4316      	orrs	r6, r2
    7518:	00c2      	lsls	r2, r0, #3
    751a:	2000      	movs	r0, #0
    751c:	9300      	str	r3, [sp, #0]
    751e:	9900      	ldr	r1, [sp, #0]
    7520:	4643      	mov	r3, r8
    7522:	3101      	adds	r1, #1
    7524:	468c      	mov	ip, r1
    7526:	4649      	mov	r1, r9
    7528:	407b      	eors	r3, r7
    752a:	9301      	str	r3, [sp, #4]
    752c:	290f      	cmp	r1, #15
    752e:	d900      	bls.n	7532 <__aeabi_dmul+0x96>
    7530:	e07e      	b.n	7630 <__aeabi_dmul+0x194>
    7532:	4bc2      	ldr	r3, [pc, #776]	; (783c <__aeabi_dmul+0x3a0>)
    7534:	0089      	lsls	r1, r1, #2
    7536:	5859      	ldr	r1, [r3, r1]
    7538:	468f      	mov	pc, r1
    753a:	4652      	mov	r2, sl
    753c:	9b00      	ldr	r3, [sp, #0]
    753e:	4332      	orrs	r2, r6
    7540:	d000      	beq.n	7544 <__aeabi_dmul+0xa8>
    7542:	e156      	b.n	77f2 <__aeabi_dmul+0x356>
    7544:	49bb      	ldr	r1, [pc, #748]	; (7834 <__aeabi_dmul+0x398>)
    7546:	2600      	movs	r6, #0
    7548:	468c      	mov	ip, r1
    754a:	4463      	add	r3, ip
    754c:	4649      	mov	r1, r9
    754e:	9300      	str	r3, [sp, #0]
    7550:	2302      	movs	r3, #2
    7552:	4319      	orrs	r1, r3
    7554:	4689      	mov	r9, r1
    7556:	2002      	movs	r0, #2
    7558:	e7e1      	b.n	751e <__aeabi_dmul+0x82>
    755a:	4643      	mov	r3, r8
    755c:	9301      	str	r3, [sp, #4]
    755e:	0034      	movs	r4, r6
    7560:	0015      	movs	r5, r2
    7562:	4683      	mov	fp, r0
    7564:	465b      	mov	r3, fp
    7566:	2b02      	cmp	r3, #2
    7568:	d05e      	beq.n	7628 <__aeabi_dmul+0x18c>
    756a:	2b03      	cmp	r3, #3
    756c:	d100      	bne.n	7570 <__aeabi_dmul+0xd4>
    756e:	e1f3      	b.n	7958 <__aeabi_dmul+0x4bc>
    7570:	2b01      	cmp	r3, #1
    7572:	d000      	beq.n	7576 <__aeabi_dmul+0xda>
    7574:	e118      	b.n	77a8 <__aeabi_dmul+0x30c>
    7576:	2200      	movs	r2, #0
    7578:	2400      	movs	r4, #0
    757a:	2500      	movs	r5, #0
    757c:	9b01      	ldr	r3, [sp, #4]
    757e:	0512      	lsls	r2, r2, #20
    7580:	4322      	orrs	r2, r4
    7582:	07db      	lsls	r3, r3, #31
    7584:	431a      	orrs	r2, r3
    7586:	0028      	movs	r0, r5
    7588:	0011      	movs	r1, r2
    758a:	b007      	add	sp, #28
    758c:	bcf0      	pop	{r4, r5, r6, r7}
    758e:	46bb      	mov	fp, r7
    7590:	46b2      	mov	sl, r6
    7592:	46a9      	mov	r9, r5
    7594:	46a0      	mov	r8, r4
    7596:	bdf0      	pop	{r4, r5, r6, r7, pc}
    7598:	0025      	movs	r5, r4
    759a:	4305      	orrs	r5, r0
    759c:	d100      	bne.n	75a0 <__aeabi_dmul+0x104>
    759e:	e141      	b.n	7824 <__aeabi_dmul+0x388>
    75a0:	2c00      	cmp	r4, #0
    75a2:	d100      	bne.n	75a6 <__aeabi_dmul+0x10a>
    75a4:	e1ad      	b.n	7902 <__aeabi_dmul+0x466>
    75a6:	0020      	movs	r0, r4
    75a8:	f000 fdd2 	bl	8150 <__clzsi2>
    75ac:	0001      	movs	r1, r0
    75ae:	0002      	movs	r2, r0
    75b0:	390b      	subs	r1, #11
    75b2:	231d      	movs	r3, #29
    75b4:	0010      	movs	r0, r2
    75b6:	1a5b      	subs	r3, r3, r1
    75b8:	0031      	movs	r1, r6
    75ba:	0035      	movs	r5, r6
    75bc:	3808      	subs	r0, #8
    75be:	4084      	lsls	r4, r0
    75c0:	40d9      	lsrs	r1, r3
    75c2:	4085      	lsls	r5, r0
    75c4:	430c      	orrs	r4, r1
    75c6:	489e      	ldr	r0, [pc, #632]	; (7840 <__aeabi_dmul+0x3a4>)
    75c8:	1a83      	subs	r3, r0, r2
    75ca:	9300      	str	r3, [sp, #0]
    75cc:	2300      	movs	r3, #0
    75ce:	4699      	mov	r9, r3
    75d0:	469b      	mov	fp, r3
    75d2:	e786      	b.n	74e2 <__aeabi_dmul+0x46>
    75d4:	0005      	movs	r5, r0
    75d6:	4325      	orrs	r5, r4
    75d8:	d000      	beq.n	75dc <__aeabi_dmul+0x140>
    75da:	e11c      	b.n	7816 <__aeabi_dmul+0x37a>
    75dc:	2208      	movs	r2, #8
    75de:	9300      	str	r3, [sp, #0]
    75e0:	2302      	movs	r3, #2
    75e2:	2400      	movs	r4, #0
    75e4:	4691      	mov	r9, r2
    75e6:	469b      	mov	fp, r3
    75e8:	e77b      	b.n	74e2 <__aeabi_dmul+0x46>
    75ea:	4652      	mov	r2, sl
    75ec:	4332      	orrs	r2, r6
    75ee:	d100      	bne.n	75f2 <__aeabi_dmul+0x156>
    75f0:	e10a      	b.n	7808 <__aeabi_dmul+0x36c>
    75f2:	2e00      	cmp	r6, #0
    75f4:	d100      	bne.n	75f8 <__aeabi_dmul+0x15c>
    75f6:	e176      	b.n	78e6 <__aeabi_dmul+0x44a>
    75f8:	0030      	movs	r0, r6
    75fa:	f000 fda9 	bl	8150 <__clzsi2>
    75fe:	0002      	movs	r2, r0
    7600:	3a0b      	subs	r2, #11
    7602:	231d      	movs	r3, #29
    7604:	0001      	movs	r1, r0
    7606:	1a9b      	subs	r3, r3, r2
    7608:	4652      	mov	r2, sl
    760a:	3908      	subs	r1, #8
    760c:	40da      	lsrs	r2, r3
    760e:	408e      	lsls	r6, r1
    7610:	4316      	orrs	r6, r2
    7612:	4652      	mov	r2, sl
    7614:	408a      	lsls	r2, r1
    7616:	9b00      	ldr	r3, [sp, #0]
    7618:	4989      	ldr	r1, [pc, #548]	; (7840 <__aeabi_dmul+0x3a4>)
    761a:	1a18      	subs	r0, r3, r0
    761c:	0003      	movs	r3, r0
    761e:	468c      	mov	ip, r1
    7620:	4463      	add	r3, ip
    7622:	2000      	movs	r0, #0
    7624:	9300      	str	r3, [sp, #0]
    7626:	e77a      	b.n	751e <__aeabi_dmul+0x82>
    7628:	2400      	movs	r4, #0
    762a:	2500      	movs	r5, #0
    762c:	4a81      	ldr	r2, [pc, #516]	; (7834 <__aeabi_dmul+0x398>)
    762e:	e7a5      	b.n	757c <__aeabi_dmul+0xe0>
    7630:	0c2f      	lsrs	r7, r5, #16
    7632:	042d      	lsls	r5, r5, #16
    7634:	0c2d      	lsrs	r5, r5, #16
    7636:	002b      	movs	r3, r5
    7638:	0c11      	lsrs	r1, r2, #16
    763a:	0412      	lsls	r2, r2, #16
    763c:	0c12      	lsrs	r2, r2, #16
    763e:	4353      	muls	r3, r2
    7640:	4698      	mov	r8, r3
    7642:	0013      	movs	r3, r2
    7644:	0028      	movs	r0, r5
    7646:	437b      	muls	r3, r7
    7648:	4699      	mov	r9, r3
    764a:	4348      	muls	r0, r1
    764c:	4448      	add	r0, r9
    764e:	4683      	mov	fp, r0
    7650:	4640      	mov	r0, r8
    7652:	000b      	movs	r3, r1
    7654:	0c00      	lsrs	r0, r0, #16
    7656:	4682      	mov	sl, r0
    7658:	4658      	mov	r0, fp
    765a:	437b      	muls	r3, r7
    765c:	4450      	add	r0, sl
    765e:	9302      	str	r3, [sp, #8]
    7660:	4581      	cmp	r9, r0
    7662:	d906      	bls.n	7672 <__aeabi_dmul+0x1d6>
    7664:	469a      	mov	sl, r3
    7666:	2380      	movs	r3, #128	; 0x80
    7668:	025b      	lsls	r3, r3, #9
    766a:	4699      	mov	r9, r3
    766c:	44ca      	add	sl, r9
    766e:	4653      	mov	r3, sl
    7670:	9302      	str	r3, [sp, #8]
    7672:	0c03      	lsrs	r3, r0, #16
    7674:	469b      	mov	fp, r3
    7676:	4643      	mov	r3, r8
    7678:	041b      	lsls	r3, r3, #16
    767a:	0400      	lsls	r0, r0, #16
    767c:	0c1b      	lsrs	r3, r3, #16
    767e:	4698      	mov	r8, r3
    7680:	0003      	movs	r3, r0
    7682:	4443      	add	r3, r8
    7684:	9304      	str	r3, [sp, #16]
    7686:	0c33      	lsrs	r3, r6, #16
    7688:	4699      	mov	r9, r3
    768a:	002b      	movs	r3, r5
    768c:	0436      	lsls	r6, r6, #16
    768e:	0c36      	lsrs	r6, r6, #16
    7690:	4373      	muls	r3, r6
    7692:	4698      	mov	r8, r3
    7694:	0033      	movs	r3, r6
    7696:	437b      	muls	r3, r7
    7698:	469a      	mov	sl, r3
    769a:	464b      	mov	r3, r9
    769c:	435d      	muls	r5, r3
    769e:	435f      	muls	r7, r3
    76a0:	4643      	mov	r3, r8
    76a2:	4455      	add	r5, sl
    76a4:	0c18      	lsrs	r0, r3, #16
    76a6:	1940      	adds	r0, r0, r5
    76a8:	4582      	cmp	sl, r0
    76aa:	d903      	bls.n	76b4 <__aeabi_dmul+0x218>
    76ac:	2380      	movs	r3, #128	; 0x80
    76ae:	025b      	lsls	r3, r3, #9
    76b0:	469a      	mov	sl, r3
    76b2:	4457      	add	r7, sl
    76b4:	0c05      	lsrs	r5, r0, #16
    76b6:	19eb      	adds	r3, r5, r7
    76b8:	9305      	str	r3, [sp, #20]
    76ba:	4643      	mov	r3, r8
    76bc:	041d      	lsls	r5, r3, #16
    76be:	0c2d      	lsrs	r5, r5, #16
    76c0:	0400      	lsls	r0, r0, #16
    76c2:	1940      	adds	r0, r0, r5
    76c4:	0c25      	lsrs	r5, r4, #16
    76c6:	0424      	lsls	r4, r4, #16
    76c8:	0c24      	lsrs	r4, r4, #16
    76ca:	0027      	movs	r7, r4
    76cc:	4357      	muls	r7, r2
    76ce:	436a      	muls	r2, r5
    76d0:	4690      	mov	r8, r2
    76d2:	002a      	movs	r2, r5
    76d4:	0c3b      	lsrs	r3, r7, #16
    76d6:	469a      	mov	sl, r3
    76d8:	434a      	muls	r2, r1
    76da:	4361      	muls	r1, r4
    76dc:	4441      	add	r1, r8
    76de:	4451      	add	r1, sl
    76e0:	4483      	add	fp, r0
    76e2:	4588      	cmp	r8, r1
    76e4:	d903      	bls.n	76ee <__aeabi_dmul+0x252>
    76e6:	2380      	movs	r3, #128	; 0x80
    76e8:	025b      	lsls	r3, r3, #9
    76ea:	4698      	mov	r8, r3
    76ec:	4442      	add	r2, r8
    76ee:	043f      	lsls	r7, r7, #16
    76f0:	0c0b      	lsrs	r3, r1, #16
    76f2:	0c3f      	lsrs	r7, r7, #16
    76f4:	0409      	lsls	r1, r1, #16
    76f6:	19c9      	adds	r1, r1, r7
    76f8:	0027      	movs	r7, r4
    76fa:	4698      	mov	r8, r3
    76fc:	464b      	mov	r3, r9
    76fe:	4377      	muls	r7, r6
    7700:	435c      	muls	r4, r3
    7702:	436e      	muls	r6, r5
    7704:	435d      	muls	r5, r3
    7706:	0c3b      	lsrs	r3, r7, #16
    7708:	4699      	mov	r9, r3
    770a:	19a4      	adds	r4, r4, r6
    770c:	444c      	add	r4, r9
    770e:	4442      	add	r2, r8
    7710:	9503      	str	r5, [sp, #12]
    7712:	42a6      	cmp	r6, r4
    7714:	d904      	bls.n	7720 <__aeabi_dmul+0x284>
    7716:	2380      	movs	r3, #128	; 0x80
    7718:	025b      	lsls	r3, r3, #9
    771a:	4698      	mov	r8, r3
    771c:	4445      	add	r5, r8
    771e:	9503      	str	r5, [sp, #12]
    7720:	9b02      	ldr	r3, [sp, #8]
    7722:	043f      	lsls	r7, r7, #16
    7724:	445b      	add	r3, fp
    7726:	001e      	movs	r6, r3
    7728:	4283      	cmp	r3, r0
    772a:	4180      	sbcs	r0, r0
    772c:	0423      	lsls	r3, r4, #16
    772e:	4698      	mov	r8, r3
    7730:	9b05      	ldr	r3, [sp, #20]
    7732:	0c3f      	lsrs	r7, r7, #16
    7734:	4447      	add	r7, r8
    7736:	4698      	mov	r8, r3
    7738:	1876      	adds	r6, r6, r1
    773a:	428e      	cmp	r6, r1
    773c:	4189      	sbcs	r1, r1
    773e:	4447      	add	r7, r8
    7740:	4240      	negs	r0, r0
    7742:	183d      	adds	r5, r7, r0
    7744:	46a8      	mov	r8, r5
    7746:	4693      	mov	fp, r2
    7748:	4249      	negs	r1, r1
    774a:	468a      	mov	sl, r1
    774c:	44c3      	add	fp, r8
    774e:	429f      	cmp	r7, r3
    7750:	41bf      	sbcs	r7, r7
    7752:	4580      	cmp	r8, r0
    7754:	4180      	sbcs	r0, r0
    7756:	9b03      	ldr	r3, [sp, #12]
    7758:	44da      	add	sl, fp
    775a:	4698      	mov	r8, r3
    775c:	4653      	mov	r3, sl
    775e:	4240      	negs	r0, r0
    7760:	427f      	negs	r7, r7
    7762:	4307      	orrs	r7, r0
    7764:	0c24      	lsrs	r4, r4, #16
    7766:	4593      	cmp	fp, r2
    7768:	4192      	sbcs	r2, r2
    776a:	458a      	cmp	sl, r1
    776c:	4189      	sbcs	r1, r1
    776e:	193f      	adds	r7, r7, r4
    7770:	0ddc      	lsrs	r4, r3, #23
    7772:	9b04      	ldr	r3, [sp, #16]
    7774:	0275      	lsls	r5, r6, #9
    7776:	431d      	orrs	r5, r3
    7778:	1e68      	subs	r0, r5, #1
    777a:	4185      	sbcs	r5, r0
    777c:	4653      	mov	r3, sl
    777e:	4252      	negs	r2, r2
    7780:	4249      	negs	r1, r1
    7782:	430a      	orrs	r2, r1
    7784:	18bf      	adds	r7, r7, r2
    7786:	4447      	add	r7, r8
    7788:	0df6      	lsrs	r6, r6, #23
    778a:	027f      	lsls	r7, r7, #9
    778c:	4335      	orrs	r5, r6
    778e:	025a      	lsls	r2, r3, #9
    7790:	433c      	orrs	r4, r7
    7792:	4315      	orrs	r5, r2
    7794:	01fb      	lsls	r3, r7, #7
    7796:	d400      	bmi.n	779a <__aeabi_dmul+0x2fe>
    7798:	e0c1      	b.n	791e <__aeabi_dmul+0x482>
    779a:	2101      	movs	r1, #1
    779c:	086a      	lsrs	r2, r5, #1
    779e:	400d      	ands	r5, r1
    77a0:	4315      	orrs	r5, r2
    77a2:	07e2      	lsls	r2, r4, #31
    77a4:	4315      	orrs	r5, r2
    77a6:	0864      	lsrs	r4, r4, #1
    77a8:	4926      	ldr	r1, [pc, #152]	; (7844 <__aeabi_dmul+0x3a8>)
    77aa:	4461      	add	r1, ip
    77ac:	2900      	cmp	r1, #0
    77ae:	dd56      	ble.n	785e <__aeabi_dmul+0x3c2>
    77b0:	076b      	lsls	r3, r5, #29
    77b2:	d009      	beq.n	77c8 <__aeabi_dmul+0x32c>
    77b4:	220f      	movs	r2, #15
    77b6:	402a      	ands	r2, r5
    77b8:	2a04      	cmp	r2, #4
    77ba:	d005      	beq.n	77c8 <__aeabi_dmul+0x32c>
    77bc:	1d2a      	adds	r2, r5, #4
    77be:	42aa      	cmp	r2, r5
    77c0:	41ad      	sbcs	r5, r5
    77c2:	426d      	negs	r5, r5
    77c4:	1964      	adds	r4, r4, r5
    77c6:	0015      	movs	r5, r2
    77c8:	01e3      	lsls	r3, r4, #7
    77ca:	d504      	bpl.n	77d6 <__aeabi_dmul+0x33a>
    77cc:	2180      	movs	r1, #128	; 0x80
    77ce:	4a1e      	ldr	r2, [pc, #120]	; (7848 <__aeabi_dmul+0x3ac>)
    77d0:	00c9      	lsls	r1, r1, #3
    77d2:	4014      	ands	r4, r2
    77d4:	4461      	add	r1, ip
    77d6:	4a1d      	ldr	r2, [pc, #116]	; (784c <__aeabi_dmul+0x3b0>)
    77d8:	4291      	cmp	r1, r2
    77da:	dd00      	ble.n	77de <__aeabi_dmul+0x342>
    77dc:	e724      	b.n	7628 <__aeabi_dmul+0x18c>
    77de:	0762      	lsls	r2, r4, #29
    77e0:	08ed      	lsrs	r5, r5, #3
    77e2:	0264      	lsls	r4, r4, #9
    77e4:	0549      	lsls	r1, r1, #21
    77e6:	4315      	orrs	r5, r2
    77e8:	0b24      	lsrs	r4, r4, #12
    77ea:	0d4a      	lsrs	r2, r1, #21
    77ec:	e6c6      	b.n	757c <__aeabi_dmul+0xe0>
    77ee:	9701      	str	r7, [sp, #4]
    77f0:	e6b8      	b.n	7564 <__aeabi_dmul+0xc8>
    77f2:	4a10      	ldr	r2, [pc, #64]	; (7834 <__aeabi_dmul+0x398>)
    77f4:	2003      	movs	r0, #3
    77f6:	4694      	mov	ip, r2
    77f8:	4463      	add	r3, ip
    77fa:	464a      	mov	r2, r9
    77fc:	9300      	str	r3, [sp, #0]
    77fe:	2303      	movs	r3, #3
    7800:	431a      	orrs	r2, r3
    7802:	4691      	mov	r9, r2
    7804:	4652      	mov	r2, sl
    7806:	e68a      	b.n	751e <__aeabi_dmul+0x82>
    7808:	4649      	mov	r1, r9
    780a:	2301      	movs	r3, #1
    780c:	4319      	orrs	r1, r3
    780e:	4689      	mov	r9, r1
    7810:	2600      	movs	r6, #0
    7812:	2001      	movs	r0, #1
    7814:	e683      	b.n	751e <__aeabi_dmul+0x82>
    7816:	220c      	movs	r2, #12
    7818:	9300      	str	r3, [sp, #0]
    781a:	2303      	movs	r3, #3
    781c:	0005      	movs	r5, r0
    781e:	4691      	mov	r9, r2
    7820:	469b      	mov	fp, r3
    7822:	e65e      	b.n	74e2 <__aeabi_dmul+0x46>
    7824:	2304      	movs	r3, #4
    7826:	4699      	mov	r9, r3
    7828:	2300      	movs	r3, #0
    782a:	9300      	str	r3, [sp, #0]
    782c:	3301      	adds	r3, #1
    782e:	2400      	movs	r4, #0
    7830:	469b      	mov	fp, r3
    7832:	e656      	b.n	74e2 <__aeabi_dmul+0x46>
    7834:	000007ff 	.word	0x000007ff
    7838:	fffffc01 	.word	0xfffffc01
    783c:	00009020 	.word	0x00009020
    7840:	fffffc0d 	.word	0xfffffc0d
    7844:	000003ff 	.word	0x000003ff
    7848:	feffffff 	.word	0xfeffffff
    784c:	000007fe 	.word	0x000007fe
    7850:	2300      	movs	r3, #0
    7852:	2480      	movs	r4, #128	; 0x80
    7854:	2500      	movs	r5, #0
    7856:	4a44      	ldr	r2, [pc, #272]	; (7968 <__aeabi_dmul+0x4cc>)
    7858:	9301      	str	r3, [sp, #4]
    785a:	0324      	lsls	r4, r4, #12
    785c:	e68e      	b.n	757c <__aeabi_dmul+0xe0>
    785e:	2001      	movs	r0, #1
    7860:	1a40      	subs	r0, r0, r1
    7862:	2838      	cmp	r0, #56	; 0x38
    7864:	dd00      	ble.n	7868 <__aeabi_dmul+0x3cc>
    7866:	e686      	b.n	7576 <__aeabi_dmul+0xda>
    7868:	281f      	cmp	r0, #31
    786a:	dd5b      	ble.n	7924 <__aeabi_dmul+0x488>
    786c:	221f      	movs	r2, #31
    786e:	0023      	movs	r3, r4
    7870:	4252      	negs	r2, r2
    7872:	1a51      	subs	r1, r2, r1
    7874:	40cb      	lsrs	r3, r1
    7876:	0019      	movs	r1, r3
    7878:	2820      	cmp	r0, #32
    787a:	d003      	beq.n	7884 <__aeabi_dmul+0x3e8>
    787c:	4a3b      	ldr	r2, [pc, #236]	; (796c <__aeabi_dmul+0x4d0>)
    787e:	4462      	add	r2, ip
    7880:	4094      	lsls	r4, r2
    7882:	4325      	orrs	r5, r4
    7884:	1e6a      	subs	r2, r5, #1
    7886:	4195      	sbcs	r5, r2
    7888:	002a      	movs	r2, r5
    788a:	430a      	orrs	r2, r1
    788c:	2107      	movs	r1, #7
    788e:	000d      	movs	r5, r1
    7890:	2400      	movs	r4, #0
    7892:	4015      	ands	r5, r2
    7894:	4211      	tst	r1, r2
    7896:	d05b      	beq.n	7950 <__aeabi_dmul+0x4b4>
    7898:	210f      	movs	r1, #15
    789a:	2400      	movs	r4, #0
    789c:	4011      	ands	r1, r2
    789e:	2904      	cmp	r1, #4
    78a0:	d053      	beq.n	794a <__aeabi_dmul+0x4ae>
    78a2:	1d11      	adds	r1, r2, #4
    78a4:	4291      	cmp	r1, r2
    78a6:	4192      	sbcs	r2, r2
    78a8:	4252      	negs	r2, r2
    78aa:	18a4      	adds	r4, r4, r2
    78ac:	000a      	movs	r2, r1
    78ae:	0223      	lsls	r3, r4, #8
    78b0:	d54b      	bpl.n	794a <__aeabi_dmul+0x4ae>
    78b2:	2201      	movs	r2, #1
    78b4:	2400      	movs	r4, #0
    78b6:	2500      	movs	r5, #0
    78b8:	e660      	b.n	757c <__aeabi_dmul+0xe0>
    78ba:	2380      	movs	r3, #128	; 0x80
    78bc:	031b      	lsls	r3, r3, #12
    78be:	421c      	tst	r4, r3
    78c0:	d009      	beq.n	78d6 <__aeabi_dmul+0x43a>
    78c2:	421e      	tst	r6, r3
    78c4:	d107      	bne.n	78d6 <__aeabi_dmul+0x43a>
    78c6:	4333      	orrs	r3, r6
    78c8:	031c      	lsls	r4, r3, #12
    78ca:	4643      	mov	r3, r8
    78cc:	0015      	movs	r5, r2
    78ce:	0b24      	lsrs	r4, r4, #12
    78d0:	4a25      	ldr	r2, [pc, #148]	; (7968 <__aeabi_dmul+0x4cc>)
    78d2:	9301      	str	r3, [sp, #4]
    78d4:	e652      	b.n	757c <__aeabi_dmul+0xe0>
    78d6:	2280      	movs	r2, #128	; 0x80
    78d8:	0312      	lsls	r2, r2, #12
    78da:	4314      	orrs	r4, r2
    78dc:	0324      	lsls	r4, r4, #12
    78de:	4a22      	ldr	r2, [pc, #136]	; (7968 <__aeabi_dmul+0x4cc>)
    78e0:	0b24      	lsrs	r4, r4, #12
    78e2:	9701      	str	r7, [sp, #4]
    78e4:	e64a      	b.n	757c <__aeabi_dmul+0xe0>
    78e6:	f000 fc33 	bl	8150 <__clzsi2>
    78ea:	0003      	movs	r3, r0
    78ec:	001a      	movs	r2, r3
    78ee:	3215      	adds	r2, #21
    78f0:	3020      	adds	r0, #32
    78f2:	2a1c      	cmp	r2, #28
    78f4:	dc00      	bgt.n	78f8 <__aeabi_dmul+0x45c>
    78f6:	e684      	b.n	7602 <__aeabi_dmul+0x166>
    78f8:	4656      	mov	r6, sl
    78fa:	3b08      	subs	r3, #8
    78fc:	2200      	movs	r2, #0
    78fe:	409e      	lsls	r6, r3
    7900:	e689      	b.n	7616 <__aeabi_dmul+0x17a>
    7902:	f000 fc25 	bl	8150 <__clzsi2>
    7906:	0001      	movs	r1, r0
    7908:	0002      	movs	r2, r0
    790a:	3115      	adds	r1, #21
    790c:	3220      	adds	r2, #32
    790e:	291c      	cmp	r1, #28
    7910:	dc00      	bgt.n	7914 <__aeabi_dmul+0x478>
    7912:	e64e      	b.n	75b2 <__aeabi_dmul+0x116>
    7914:	0034      	movs	r4, r6
    7916:	3808      	subs	r0, #8
    7918:	2500      	movs	r5, #0
    791a:	4084      	lsls	r4, r0
    791c:	e653      	b.n	75c6 <__aeabi_dmul+0x12a>
    791e:	9b00      	ldr	r3, [sp, #0]
    7920:	469c      	mov	ip, r3
    7922:	e741      	b.n	77a8 <__aeabi_dmul+0x30c>
    7924:	4912      	ldr	r1, [pc, #72]	; (7970 <__aeabi_dmul+0x4d4>)
    7926:	0022      	movs	r2, r4
    7928:	4461      	add	r1, ip
    792a:	002e      	movs	r6, r5
    792c:	408d      	lsls	r5, r1
    792e:	408a      	lsls	r2, r1
    7930:	40c6      	lsrs	r6, r0
    7932:	1e69      	subs	r1, r5, #1
    7934:	418d      	sbcs	r5, r1
    7936:	4332      	orrs	r2, r6
    7938:	432a      	orrs	r2, r5
    793a:	40c4      	lsrs	r4, r0
    793c:	0753      	lsls	r3, r2, #29
    793e:	d0b6      	beq.n	78ae <__aeabi_dmul+0x412>
    7940:	210f      	movs	r1, #15
    7942:	4011      	ands	r1, r2
    7944:	2904      	cmp	r1, #4
    7946:	d1ac      	bne.n	78a2 <__aeabi_dmul+0x406>
    7948:	e7b1      	b.n	78ae <__aeabi_dmul+0x412>
    794a:	0765      	lsls	r5, r4, #29
    794c:	0264      	lsls	r4, r4, #9
    794e:	0b24      	lsrs	r4, r4, #12
    7950:	08d2      	lsrs	r2, r2, #3
    7952:	4315      	orrs	r5, r2
    7954:	2200      	movs	r2, #0
    7956:	e611      	b.n	757c <__aeabi_dmul+0xe0>
    7958:	2280      	movs	r2, #128	; 0x80
    795a:	0312      	lsls	r2, r2, #12
    795c:	4314      	orrs	r4, r2
    795e:	0324      	lsls	r4, r4, #12
    7960:	4a01      	ldr	r2, [pc, #4]	; (7968 <__aeabi_dmul+0x4cc>)
    7962:	0b24      	lsrs	r4, r4, #12
    7964:	e60a      	b.n	757c <__aeabi_dmul+0xe0>
    7966:	46c0      	nop			; (mov r8, r8)
    7968:	000007ff 	.word	0x000007ff
    796c:	0000043e 	.word	0x0000043e
    7970:	0000041e 	.word	0x0000041e

00007974 <__aeabi_dsub>:
__aeabi_dsub():
    7974:	b5f8      	push	{r3, r4, r5, r6, r7, lr}
    7976:	4657      	mov	r7, sl
    7978:	464e      	mov	r6, r9
    797a:	4645      	mov	r5, r8
    797c:	46de      	mov	lr, fp
    797e:	0004      	movs	r4, r0
    7980:	b5e0      	push	{r5, r6, r7, lr}
    7982:	001f      	movs	r7, r3
    7984:	0010      	movs	r0, r2
    7986:	030b      	lsls	r3, r1, #12
    7988:	0f62      	lsrs	r2, r4, #29
    798a:	004e      	lsls	r6, r1, #1
    798c:	0fcd      	lsrs	r5, r1, #31
    798e:	0a5b      	lsrs	r3, r3, #9
    7990:	0339      	lsls	r1, r7, #12
    7992:	4313      	orrs	r3, r2
    7994:	0a49      	lsrs	r1, r1, #9
    7996:	00e2      	lsls	r2, r4, #3
    7998:	0f44      	lsrs	r4, r0, #29
    799a:	4321      	orrs	r1, r4
    799c:	4cc2      	ldr	r4, [pc, #776]	; (7ca8 <__aeabi_dsub+0x334>)
    799e:	4691      	mov	r9, r2
    79a0:	4692      	mov	sl, r2
    79a2:	00c0      	lsls	r0, r0, #3
    79a4:	007a      	lsls	r2, r7, #1
    79a6:	4680      	mov	r8, r0
    79a8:	0d76      	lsrs	r6, r6, #21
    79aa:	0d52      	lsrs	r2, r2, #21
    79ac:	0fff      	lsrs	r7, r7, #31
    79ae:	42a2      	cmp	r2, r4
    79b0:	d100      	bne.n	79b4 <__aeabi_dsub+0x40>
    79b2:	e0b4      	b.n	7b1e <__aeabi_dsub+0x1aa>
    79b4:	2401      	movs	r4, #1
    79b6:	4067      	eors	r7, r4
    79b8:	46bb      	mov	fp, r7
    79ba:	42bd      	cmp	r5, r7
    79bc:	d100      	bne.n	79c0 <__aeabi_dsub+0x4c>
    79be:	e088      	b.n	7ad2 <__aeabi_dsub+0x15e>
    79c0:	1ab4      	subs	r4, r6, r2
    79c2:	46a4      	mov	ip, r4
    79c4:	2c00      	cmp	r4, #0
    79c6:	dc00      	bgt.n	79ca <__aeabi_dsub+0x56>
    79c8:	e0b2      	b.n	7b30 <__aeabi_dsub+0x1bc>
    79ca:	2a00      	cmp	r2, #0
    79cc:	d100      	bne.n	79d0 <__aeabi_dsub+0x5c>
    79ce:	e0c5      	b.n	7b5c <__aeabi_dsub+0x1e8>
    79d0:	4ab5      	ldr	r2, [pc, #724]	; (7ca8 <__aeabi_dsub+0x334>)
    79d2:	4296      	cmp	r6, r2
    79d4:	d100      	bne.n	79d8 <__aeabi_dsub+0x64>
    79d6:	e28b      	b.n	7ef0 <__aeabi_dsub+0x57c>
    79d8:	2280      	movs	r2, #128	; 0x80
    79da:	0412      	lsls	r2, r2, #16
    79dc:	4311      	orrs	r1, r2
    79de:	4662      	mov	r2, ip
    79e0:	2a38      	cmp	r2, #56	; 0x38
    79e2:	dd00      	ble.n	79e6 <__aeabi_dsub+0x72>
    79e4:	e1a1      	b.n	7d2a <__aeabi_dsub+0x3b6>
    79e6:	2a1f      	cmp	r2, #31
    79e8:	dd00      	ble.n	79ec <__aeabi_dsub+0x78>
    79ea:	e216      	b.n	7e1a <__aeabi_dsub+0x4a6>
    79ec:	2720      	movs	r7, #32
    79ee:	000c      	movs	r4, r1
    79f0:	1abf      	subs	r7, r7, r2
    79f2:	40bc      	lsls	r4, r7
    79f4:	0002      	movs	r2, r0
    79f6:	46a0      	mov	r8, r4
    79f8:	4664      	mov	r4, ip
    79fa:	40b8      	lsls	r0, r7
    79fc:	40e2      	lsrs	r2, r4
    79fe:	4644      	mov	r4, r8
    7a00:	4314      	orrs	r4, r2
    7a02:	0002      	movs	r2, r0
    7a04:	1e50      	subs	r0, r2, #1
    7a06:	4182      	sbcs	r2, r0
    7a08:	4660      	mov	r0, ip
    7a0a:	40c1      	lsrs	r1, r0
    7a0c:	4322      	orrs	r2, r4
    7a0e:	1a5b      	subs	r3, r3, r1
    7a10:	4649      	mov	r1, r9
    7a12:	1a8c      	subs	r4, r1, r2
    7a14:	45a1      	cmp	r9, r4
    7a16:	4192      	sbcs	r2, r2
    7a18:	4252      	negs	r2, r2
    7a1a:	1a9b      	subs	r3, r3, r2
    7a1c:	4698      	mov	r8, r3
    7a1e:	4643      	mov	r3, r8
    7a20:	021b      	lsls	r3, r3, #8
    7a22:	d400      	bmi.n	7a26 <__aeabi_dsub+0xb2>
    7a24:	e117      	b.n	7c56 <__aeabi_dsub+0x2e2>
    7a26:	4643      	mov	r3, r8
    7a28:	025b      	lsls	r3, r3, #9
    7a2a:	0a5b      	lsrs	r3, r3, #9
    7a2c:	4698      	mov	r8, r3
    7a2e:	4643      	mov	r3, r8
    7a30:	2b00      	cmp	r3, #0
    7a32:	d100      	bne.n	7a36 <__aeabi_dsub+0xc2>
    7a34:	e16c      	b.n	7d10 <__aeabi_dsub+0x39c>
    7a36:	4640      	mov	r0, r8
    7a38:	f000 fb8a 	bl	8150 <__clzsi2>
    7a3c:	0002      	movs	r2, r0
    7a3e:	3a08      	subs	r2, #8
    7a40:	2120      	movs	r1, #32
    7a42:	0020      	movs	r0, r4
    7a44:	4643      	mov	r3, r8
    7a46:	1a89      	subs	r1, r1, r2
    7a48:	4093      	lsls	r3, r2
    7a4a:	40c8      	lsrs	r0, r1
    7a4c:	4094      	lsls	r4, r2
    7a4e:	4303      	orrs	r3, r0
    7a50:	4296      	cmp	r6, r2
    7a52:	dd00      	ble.n	7a56 <__aeabi_dsub+0xe2>
    7a54:	e157      	b.n	7d06 <__aeabi_dsub+0x392>
    7a56:	1b96      	subs	r6, r2, r6
    7a58:	1c71      	adds	r1, r6, #1
    7a5a:	291f      	cmp	r1, #31
    7a5c:	dd00      	ble.n	7a60 <__aeabi_dsub+0xec>
    7a5e:	e1cb      	b.n	7df8 <__aeabi_dsub+0x484>
    7a60:	2220      	movs	r2, #32
    7a62:	0018      	movs	r0, r3
    7a64:	0026      	movs	r6, r4
    7a66:	1a52      	subs	r2, r2, r1
    7a68:	4094      	lsls	r4, r2
    7a6a:	4090      	lsls	r0, r2
    7a6c:	40ce      	lsrs	r6, r1
    7a6e:	40cb      	lsrs	r3, r1
    7a70:	1e62      	subs	r2, r4, #1
    7a72:	4194      	sbcs	r4, r2
    7a74:	4330      	orrs	r0, r6
    7a76:	4698      	mov	r8, r3
    7a78:	2600      	movs	r6, #0
    7a7a:	4304      	orrs	r4, r0
    7a7c:	0763      	lsls	r3, r4, #29
    7a7e:	d009      	beq.n	7a94 <__aeabi_dsub+0x120>
    7a80:	230f      	movs	r3, #15
    7a82:	4023      	ands	r3, r4
    7a84:	2b04      	cmp	r3, #4
    7a86:	d005      	beq.n	7a94 <__aeabi_dsub+0x120>
    7a88:	1d23      	adds	r3, r4, #4
    7a8a:	42a3      	cmp	r3, r4
    7a8c:	41a4      	sbcs	r4, r4
    7a8e:	4264      	negs	r4, r4
    7a90:	44a0      	add	r8, r4
    7a92:	001c      	movs	r4, r3
    7a94:	4643      	mov	r3, r8
    7a96:	021b      	lsls	r3, r3, #8
    7a98:	d400      	bmi.n	7a9c <__aeabi_dsub+0x128>
    7a9a:	e0df      	b.n	7c5c <__aeabi_dsub+0x2e8>
    7a9c:	4b82      	ldr	r3, [pc, #520]	; (7ca8 <__aeabi_dsub+0x334>)
    7a9e:	3601      	adds	r6, #1
    7aa0:	429e      	cmp	r6, r3
    7aa2:	d100      	bne.n	7aa6 <__aeabi_dsub+0x132>
    7aa4:	e0fb      	b.n	7c9e <__aeabi_dsub+0x32a>
    7aa6:	4642      	mov	r2, r8
    7aa8:	4b80      	ldr	r3, [pc, #512]	; (7cac <__aeabi_dsub+0x338>)
    7aaa:	08e4      	lsrs	r4, r4, #3
    7aac:	401a      	ands	r2, r3
    7aae:	0013      	movs	r3, r2
    7ab0:	0571      	lsls	r1, r6, #21
    7ab2:	0752      	lsls	r2, r2, #29
    7ab4:	025b      	lsls	r3, r3, #9
    7ab6:	4322      	orrs	r2, r4
    7ab8:	0b1b      	lsrs	r3, r3, #12
    7aba:	0d49      	lsrs	r1, r1, #21
    7abc:	0509      	lsls	r1, r1, #20
    7abe:	07ed      	lsls	r5, r5, #31
    7ac0:	4319      	orrs	r1, r3
    7ac2:	4329      	orrs	r1, r5
    7ac4:	0010      	movs	r0, r2
    7ac6:	bcf0      	pop	{r4, r5, r6, r7}
    7ac8:	46bb      	mov	fp, r7
    7aca:	46b2      	mov	sl, r6
    7acc:	46a9      	mov	r9, r5
    7ace:	46a0      	mov	r8, r4
    7ad0:	bdf8      	pop	{r3, r4, r5, r6, r7, pc}
    7ad2:	1ab4      	subs	r4, r6, r2
    7ad4:	46a4      	mov	ip, r4
    7ad6:	2c00      	cmp	r4, #0
    7ad8:	dd58      	ble.n	7b8c <__aeabi_dsub+0x218>
    7ada:	2a00      	cmp	r2, #0
    7adc:	d100      	bne.n	7ae0 <__aeabi_dsub+0x16c>
    7ade:	e09e      	b.n	7c1e <__aeabi_dsub+0x2aa>
    7ae0:	4a71      	ldr	r2, [pc, #452]	; (7ca8 <__aeabi_dsub+0x334>)
    7ae2:	4296      	cmp	r6, r2
    7ae4:	d100      	bne.n	7ae8 <__aeabi_dsub+0x174>
    7ae6:	e13b      	b.n	7d60 <__aeabi_dsub+0x3ec>
    7ae8:	2280      	movs	r2, #128	; 0x80
    7aea:	0412      	lsls	r2, r2, #16
    7aec:	4311      	orrs	r1, r2
    7aee:	4662      	mov	r2, ip
    7af0:	2a38      	cmp	r2, #56	; 0x38
    7af2:	dd00      	ble.n	7af6 <__aeabi_dsub+0x182>
    7af4:	e0c1      	b.n	7c7a <__aeabi_dsub+0x306>
    7af6:	2a1f      	cmp	r2, #31
    7af8:	dc00      	bgt.n	7afc <__aeabi_dsub+0x188>
    7afa:	e1bb      	b.n	7e74 <__aeabi_dsub+0x500>
    7afc:	000c      	movs	r4, r1
    7afe:	3a20      	subs	r2, #32
    7b00:	40d4      	lsrs	r4, r2
    7b02:	0022      	movs	r2, r4
    7b04:	4664      	mov	r4, ip
    7b06:	2c20      	cmp	r4, #32
    7b08:	d004      	beq.n	7b14 <__aeabi_dsub+0x1a0>
    7b0a:	2740      	movs	r7, #64	; 0x40
    7b0c:	1b3f      	subs	r7, r7, r4
    7b0e:	40b9      	lsls	r1, r7
    7b10:	4308      	orrs	r0, r1
    7b12:	4680      	mov	r8, r0
    7b14:	4644      	mov	r4, r8
    7b16:	1e61      	subs	r1, r4, #1
    7b18:	418c      	sbcs	r4, r1
    7b1a:	4314      	orrs	r4, r2
    7b1c:	e0b1      	b.n	7c82 <__aeabi_dsub+0x30e>
    7b1e:	000c      	movs	r4, r1
    7b20:	4304      	orrs	r4, r0
    7b22:	d02a      	beq.n	7b7a <__aeabi_dsub+0x206>
    7b24:	46bb      	mov	fp, r7
    7b26:	42bd      	cmp	r5, r7
    7b28:	d02d      	beq.n	7b86 <__aeabi_dsub+0x212>
    7b2a:	4c61      	ldr	r4, [pc, #388]	; (7cb0 <__aeabi_dsub+0x33c>)
    7b2c:	46a4      	mov	ip, r4
    7b2e:	44b4      	add	ip, r6
    7b30:	4664      	mov	r4, ip
    7b32:	2c00      	cmp	r4, #0
    7b34:	d05c      	beq.n	7bf0 <__aeabi_dsub+0x27c>
    7b36:	1b94      	subs	r4, r2, r6
    7b38:	46a4      	mov	ip, r4
    7b3a:	2e00      	cmp	r6, #0
    7b3c:	d000      	beq.n	7b40 <__aeabi_dsub+0x1cc>
    7b3e:	e115      	b.n	7d6c <__aeabi_dsub+0x3f8>
    7b40:	464d      	mov	r5, r9
    7b42:	431d      	orrs	r5, r3
    7b44:	d100      	bne.n	7b48 <__aeabi_dsub+0x1d4>
    7b46:	e1c3      	b.n	7ed0 <__aeabi_dsub+0x55c>
    7b48:	1e65      	subs	r5, r4, #1
    7b4a:	2c01      	cmp	r4, #1
    7b4c:	d100      	bne.n	7b50 <__aeabi_dsub+0x1dc>
    7b4e:	e20c      	b.n	7f6a <__aeabi_dsub+0x5f6>
    7b50:	4e55      	ldr	r6, [pc, #340]	; (7ca8 <__aeabi_dsub+0x334>)
    7b52:	42b4      	cmp	r4, r6
    7b54:	d100      	bne.n	7b58 <__aeabi_dsub+0x1e4>
    7b56:	e1f8      	b.n	7f4a <__aeabi_dsub+0x5d6>
    7b58:	46ac      	mov	ip, r5
    7b5a:	e10e      	b.n	7d7a <__aeabi_dsub+0x406>
    7b5c:	000a      	movs	r2, r1
    7b5e:	4302      	orrs	r2, r0
    7b60:	d100      	bne.n	7b64 <__aeabi_dsub+0x1f0>
    7b62:	e136      	b.n	7dd2 <__aeabi_dsub+0x45e>
    7b64:	0022      	movs	r2, r4
    7b66:	3a01      	subs	r2, #1
    7b68:	2c01      	cmp	r4, #1
    7b6a:	d100      	bne.n	7b6e <__aeabi_dsub+0x1fa>
    7b6c:	e1c6      	b.n	7efc <__aeabi_dsub+0x588>
    7b6e:	4c4e      	ldr	r4, [pc, #312]	; (7ca8 <__aeabi_dsub+0x334>)
    7b70:	45a4      	cmp	ip, r4
    7b72:	d100      	bne.n	7b76 <__aeabi_dsub+0x202>
    7b74:	e0f4      	b.n	7d60 <__aeabi_dsub+0x3ec>
    7b76:	4694      	mov	ip, r2
    7b78:	e731      	b.n	79de <__aeabi_dsub+0x6a>
    7b7a:	2401      	movs	r4, #1
    7b7c:	4067      	eors	r7, r4
    7b7e:	46bb      	mov	fp, r7
    7b80:	42bd      	cmp	r5, r7
    7b82:	d000      	beq.n	7b86 <__aeabi_dsub+0x212>
    7b84:	e71c      	b.n	79c0 <__aeabi_dsub+0x4c>
    7b86:	4c4a      	ldr	r4, [pc, #296]	; (7cb0 <__aeabi_dsub+0x33c>)
    7b88:	46a4      	mov	ip, r4
    7b8a:	44b4      	add	ip, r6
    7b8c:	4664      	mov	r4, ip
    7b8e:	2c00      	cmp	r4, #0
    7b90:	d100      	bne.n	7b94 <__aeabi_dsub+0x220>
    7b92:	e0cf      	b.n	7d34 <__aeabi_dsub+0x3c0>
    7b94:	1b94      	subs	r4, r2, r6
    7b96:	46a4      	mov	ip, r4
    7b98:	2e00      	cmp	r6, #0
    7b9a:	d100      	bne.n	7b9e <__aeabi_dsub+0x22a>
    7b9c:	e15c      	b.n	7e58 <__aeabi_dsub+0x4e4>
    7b9e:	4e42      	ldr	r6, [pc, #264]	; (7ca8 <__aeabi_dsub+0x334>)
    7ba0:	42b2      	cmp	r2, r6
    7ba2:	d100      	bne.n	7ba6 <__aeabi_dsub+0x232>
    7ba4:	e1ec      	b.n	7f80 <__aeabi_dsub+0x60c>
    7ba6:	2680      	movs	r6, #128	; 0x80
    7ba8:	0436      	lsls	r6, r6, #16
    7baa:	4333      	orrs	r3, r6
    7bac:	4664      	mov	r4, ip
    7bae:	2c38      	cmp	r4, #56	; 0x38
    7bb0:	dd00      	ble.n	7bb4 <__aeabi_dsub+0x240>
    7bb2:	e1b3      	b.n	7f1c <__aeabi_dsub+0x5a8>
    7bb4:	2c1f      	cmp	r4, #31
    7bb6:	dd00      	ble.n	7bba <__aeabi_dsub+0x246>
    7bb8:	e238      	b.n	802c <__aeabi_dsub+0x6b8>
    7bba:	2620      	movs	r6, #32
    7bbc:	1b36      	subs	r6, r6, r4
    7bbe:	001c      	movs	r4, r3
    7bc0:	40b4      	lsls	r4, r6
    7bc2:	464f      	mov	r7, r9
    7bc4:	46a0      	mov	r8, r4
    7bc6:	4664      	mov	r4, ip
    7bc8:	40e7      	lsrs	r7, r4
    7bca:	4644      	mov	r4, r8
    7bcc:	433c      	orrs	r4, r7
    7bce:	464f      	mov	r7, r9
    7bd0:	40b7      	lsls	r7, r6
    7bd2:	003e      	movs	r6, r7
    7bd4:	1e77      	subs	r7, r6, #1
    7bd6:	41be      	sbcs	r6, r7
    7bd8:	4334      	orrs	r4, r6
    7bda:	4666      	mov	r6, ip
    7bdc:	40f3      	lsrs	r3, r6
    7bde:	18c9      	adds	r1, r1, r3
    7be0:	1824      	adds	r4, r4, r0
    7be2:	4284      	cmp	r4, r0
    7be4:	419b      	sbcs	r3, r3
    7be6:	425b      	negs	r3, r3
    7be8:	4698      	mov	r8, r3
    7bea:	0016      	movs	r6, r2
    7bec:	4488      	add	r8, r1
    7bee:	e04e      	b.n	7c8e <__aeabi_dsub+0x31a>
    7bf0:	4a30      	ldr	r2, [pc, #192]	; (7cb4 <__aeabi_dsub+0x340>)
    7bf2:	1c74      	adds	r4, r6, #1
    7bf4:	4214      	tst	r4, r2
    7bf6:	d000      	beq.n	7bfa <__aeabi_dsub+0x286>
    7bf8:	e0d6      	b.n	7da8 <__aeabi_dsub+0x434>
    7bfa:	464a      	mov	r2, r9
    7bfc:	431a      	orrs	r2, r3
    7bfe:	2e00      	cmp	r6, #0
    7c00:	d000      	beq.n	7c04 <__aeabi_dsub+0x290>
    7c02:	e15b      	b.n	7ebc <__aeabi_dsub+0x548>
    7c04:	2a00      	cmp	r2, #0
    7c06:	d100      	bne.n	7c0a <__aeabi_dsub+0x296>
    7c08:	e1a5      	b.n	7f56 <__aeabi_dsub+0x5e2>
    7c0a:	000a      	movs	r2, r1
    7c0c:	4302      	orrs	r2, r0
    7c0e:	d000      	beq.n	7c12 <__aeabi_dsub+0x29e>
    7c10:	e1bb      	b.n	7f8a <__aeabi_dsub+0x616>
    7c12:	464a      	mov	r2, r9
    7c14:	0759      	lsls	r1, r3, #29
    7c16:	08d2      	lsrs	r2, r2, #3
    7c18:	430a      	orrs	r2, r1
    7c1a:	08db      	lsrs	r3, r3, #3
    7c1c:	e027      	b.n	7c6e <__aeabi_dsub+0x2fa>
    7c1e:	000a      	movs	r2, r1
    7c20:	4302      	orrs	r2, r0
    7c22:	d100      	bne.n	7c26 <__aeabi_dsub+0x2b2>
    7c24:	e174      	b.n	7f10 <__aeabi_dsub+0x59c>
    7c26:	0022      	movs	r2, r4
    7c28:	3a01      	subs	r2, #1
    7c2a:	2c01      	cmp	r4, #1
    7c2c:	d005      	beq.n	7c3a <__aeabi_dsub+0x2c6>
    7c2e:	4c1e      	ldr	r4, [pc, #120]	; (7ca8 <__aeabi_dsub+0x334>)
    7c30:	45a4      	cmp	ip, r4
    7c32:	d100      	bne.n	7c36 <__aeabi_dsub+0x2c2>
    7c34:	e094      	b.n	7d60 <__aeabi_dsub+0x3ec>
    7c36:	4694      	mov	ip, r2
    7c38:	e759      	b.n	7aee <__aeabi_dsub+0x17a>
    7c3a:	4448      	add	r0, r9
    7c3c:	4548      	cmp	r0, r9
    7c3e:	4192      	sbcs	r2, r2
    7c40:	185b      	adds	r3, r3, r1
    7c42:	4698      	mov	r8, r3
    7c44:	0004      	movs	r4, r0
    7c46:	4252      	negs	r2, r2
    7c48:	4490      	add	r8, r2
    7c4a:	4643      	mov	r3, r8
    7c4c:	2602      	movs	r6, #2
    7c4e:	021b      	lsls	r3, r3, #8
    7c50:	d500      	bpl.n	7c54 <__aeabi_dsub+0x2e0>
    7c52:	e0c4      	b.n	7dde <__aeabi_dsub+0x46a>
    7c54:	3e01      	subs	r6, #1
    7c56:	0763      	lsls	r3, r4, #29
    7c58:	d000      	beq.n	7c5c <__aeabi_dsub+0x2e8>
    7c5a:	e711      	b.n	7a80 <__aeabi_dsub+0x10c>
    7c5c:	4643      	mov	r3, r8
    7c5e:	46b4      	mov	ip, r6
    7c60:	0759      	lsls	r1, r3, #29
    7c62:	08e2      	lsrs	r2, r4, #3
    7c64:	430a      	orrs	r2, r1
    7c66:	08db      	lsrs	r3, r3, #3
    7c68:	490f      	ldr	r1, [pc, #60]	; (7ca8 <__aeabi_dsub+0x334>)
    7c6a:	458c      	cmp	ip, r1
    7c6c:	d040      	beq.n	7cf0 <__aeabi_dsub+0x37c>
    7c6e:	4661      	mov	r1, ip
    7c70:	031b      	lsls	r3, r3, #12
    7c72:	0549      	lsls	r1, r1, #21
    7c74:	0b1b      	lsrs	r3, r3, #12
    7c76:	0d49      	lsrs	r1, r1, #21
    7c78:	e720      	b.n	7abc <__aeabi_dsub+0x148>
    7c7a:	4301      	orrs	r1, r0
    7c7c:	000c      	movs	r4, r1
    7c7e:	1e61      	subs	r1, r4, #1
    7c80:	418c      	sbcs	r4, r1
    7c82:	444c      	add	r4, r9
    7c84:	454c      	cmp	r4, r9
    7c86:	4192      	sbcs	r2, r2
    7c88:	4252      	negs	r2, r2
    7c8a:	4690      	mov	r8, r2
    7c8c:	4498      	add	r8, r3
    7c8e:	4643      	mov	r3, r8
    7c90:	021b      	lsls	r3, r3, #8
    7c92:	d5e0      	bpl.n	7c56 <__aeabi_dsub+0x2e2>
    7c94:	4b04      	ldr	r3, [pc, #16]	; (7ca8 <__aeabi_dsub+0x334>)
    7c96:	3601      	adds	r6, #1
    7c98:	429e      	cmp	r6, r3
    7c9a:	d000      	beq.n	7c9e <__aeabi_dsub+0x32a>
    7c9c:	e09f      	b.n	7dde <__aeabi_dsub+0x46a>
    7c9e:	0031      	movs	r1, r6
    7ca0:	2300      	movs	r3, #0
    7ca2:	2200      	movs	r2, #0
    7ca4:	e70a      	b.n	7abc <__aeabi_dsub+0x148>
    7ca6:	46c0      	nop			; (mov r8, r8)
    7ca8:	000007ff 	.word	0x000007ff
    7cac:	ff7fffff 	.word	0xff7fffff
    7cb0:	fffff801 	.word	0xfffff801
    7cb4:	000007fe 	.word	0x000007fe
    7cb8:	2a00      	cmp	r2, #0
    7cba:	d100      	bne.n	7cbe <__aeabi_dsub+0x34a>
    7cbc:	e160      	b.n	7f80 <__aeabi_dsub+0x60c>
    7cbe:	000a      	movs	r2, r1
    7cc0:	4302      	orrs	r2, r0
    7cc2:	d04d      	beq.n	7d60 <__aeabi_dsub+0x3ec>
    7cc4:	464a      	mov	r2, r9
    7cc6:	075c      	lsls	r4, r3, #29
    7cc8:	08d2      	lsrs	r2, r2, #3
    7cca:	4322      	orrs	r2, r4
    7ccc:	2480      	movs	r4, #128	; 0x80
    7cce:	08db      	lsrs	r3, r3, #3
    7cd0:	0324      	lsls	r4, r4, #12
    7cd2:	4223      	tst	r3, r4
    7cd4:	d007      	beq.n	7ce6 <__aeabi_dsub+0x372>
    7cd6:	08ce      	lsrs	r6, r1, #3
    7cd8:	4226      	tst	r6, r4
    7cda:	d104      	bne.n	7ce6 <__aeabi_dsub+0x372>
    7cdc:	465d      	mov	r5, fp
    7cde:	0033      	movs	r3, r6
    7ce0:	08c2      	lsrs	r2, r0, #3
    7ce2:	0749      	lsls	r1, r1, #29
    7ce4:	430a      	orrs	r2, r1
    7ce6:	0f51      	lsrs	r1, r2, #29
    7ce8:	00d2      	lsls	r2, r2, #3
    7cea:	08d2      	lsrs	r2, r2, #3
    7cec:	0749      	lsls	r1, r1, #29
    7cee:	430a      	orrs	r2, r1
    7cf0:	0011      	movs	r1, r2
    7cf2:	4319      	orrs	r1, r3
    7cf4:	d100      	bne.n	7cf8 <__aeabi_dsub+0x384>
    7cf6:	e1c8      	b.n	808a <__aeabi_dsub+0x716>
    7cf8:	2180      	movs	r1, #128	; 0x80
    7cfa:	0309      	lsls	r1, r1, #12
    7cfc:	430b      	orrs	r3, r1
    7cfe:	031b      	lsls	r3, r3, #12
    7d00:	49d5      	ldr	r1, [pc, #852]	; (8058 <__aeabi_dsub+0x6e4>)
    7d02:	0b1b      	lsrs	r3, r3, #12
    7d04:	e6da      	b.n	7abc <__aeabi_dsub+0x148>
    7d06:	49d5      	ldr	r1, [pc, #852]	; (805c <__aeabi_dsub+0x6e8>)
    7d08:	1ab6      	subs	r6, r6, r2
    7d0a:	400b      	ands	r3, r1
    7d0c:	4698      	mov	r8, r3
    7d0e:	e6b5      	b.n	7a7c <__aeabi_dsub+0x108>
    7d10:	0020      	movs	r0, r4
    7d12:	f000 fa1d 	bl	8150 <__clzsi2>
    7d16:	0002      	movs	r2, r0
    7d18:	3218      	adds	r2, #24
    7d1a:	2a1f      	cmp	r2, #31
    7d1c:	dc00      	bgt.n	7d20 <__aeabi_dsub+0x3ac>
    7d1e:	e68f      	b.n	7a40 <__aeabi_dsub+0xcc>
    7d20:	0023      	movs	r3, r4
    7d22:	3808      	subs	r0, #8
    7d24:	4083      	lsls	r3, r0
    7d26:	2400      	movs	r4, #0
    7d28:	e692      	b.n	7a50 <__aeabi_dsub+0xdc>
    7d2a:	4308      	orrs	r0, r1
    7d2c:	0002      	movs	r2, r0
    7d2e:	1e50      	subs	r0, r2, #1
    7d30:	4182      	sbcs	r2, r0
    7d32:	e66d      	b.n	7a10 <__aeabi_dsub+0x9c>
    7d34:	4cca      	ldr	r4, [pc, #808]	; (8060 <__aeabi_dsub+0x6ec>)
    7d36:	1c72      	adds	r2, r6, #1
    7d38:	4222      	tst	r2, r4
    7d3a:	d000      	beq.n	7d3e <__aeabi_dsub+0x3ca>
    7d3c:	e0ad      	b.n	7e9a <__aeabi_dsub+0x526>
    7d3e:	464a      	mov	r2, r9
    7d40:	431a      	orrs	r2, r3
    7d42:	2e00      	cmp	r6, #0
    7d44:	d1b8      	bne.n	7cb8 <__aeabi_dsub+0x344>
    7d46:	2a00      	cmp	r2, #0
    7d48:	d100      	bne.n	7d4c <__aeabi_dsub+0x3d8>
    7d4a:	e158      	b.n	7ffe <__aeabi_dsub+0x68a>
    7d4c:	000a      	movs	r2, r1
    7d4e:	4302      	orrs	r2, r0
    7d50:	d000      	beq.n	7d54 <__aeabi_dsub+0x3e0>
    7d52:	e159      	b.n	8008 <__aeabi_dsub+0x694>
    7d54:	464a      	mov	r2, r9
    7d56:	0759      	lsls	r1, r3, #29
    7d58:	08d2      	lsrs	r2, r2, #3
    7d5a:	430a      	orrs	r2, r1
    7d5c:	08db      	lsrs	r3, r3, #3
    7d5e:	e786      	b.n	7c6e <__aeabi_dsub+0x2fa>
    7d60:	464a      	mov	r2, r9
    7d62:	0759      	lsls	r1, r3, #29
    7d64:	08d2      	lsrs	r2, r2, #3
    7d66:	430a      	orrs	r2, r1
    7d68:	08db      	lsrs	r3, r3, #3
    7d6a:	e7c1      	b.n	7cf0 <__aeabi_dsub+0x37c>
    7d6c:	4dba      	ldr	r5, [pc, #744]	; (8058 <__aeabi_dsub+0x6e4>)
    7d6e:	42aa      	cmp	r2, r5
    7d70:	d100      	bne.n	7d74 <__aeabi_dsub+0x400>
    7d72:	e11e      	b.n	7fb2 <__aeabi_dsub+0x63e>
    7d74:	2580      	movs	r5, #128	; 0x80
    7d76:	042d      	lsls	r5, r5, #16
    7d78:	432b      	orrs	r3, r5
    7d7a:	4664      	mov	r4, ip
    7d7c:	2c38      	cmp	r4, #56	; 0x38
    7d7e:	dc5d      	bgt.n	7e3c <__aeabi_dsub+0x4c8>
    7d80:	2c1f      	cmp	r4, #31
    7d82:	dd00      	ble.n	7d86 <__aeabi_dsub+0x412>
    7d84:	e0d0      	b.n	7f28 <__aeabi_dsub+0x5b4>
    7d86:	2520      	movs	r5, #32
    7d88:	4667      	mov	r7, ip
    7d8a:	1b2d      	subs	r5, r5, r4
    7d8c:	464e      	mov	r6, r9
    7d8e:	001c      	movs	r4, r3
    7d90:	40fe      	lsrs	r6, r7
    7d92:	40ac      	lsls	r4, r5
    7d94:	4334      	orrs	r4, r6
    7d96:	464e      	mov	r6, r9
    7d98:	40ae      	lsls	r6, r5
    7d9a:	0035      	movs	r5, r6
    7d9c:	40fb      	lsrs	r3, r7
    7d9e:	1e6e      	subs	r6, r5, #1
    7da0:	41b5      	sbcs	r5, r6
    7da2:	1ac9      	subs	r1, r1, r3
    7da4:	432c      	orrs	r4, r5
    7da6:	e04e      	b.n	7e46 <__aeabi_dsub+0x4d2>
    7da8:	464a      	mov	r2, r9
    7daa:	1a14      	subs	r4, r2, r0
    7dac:	45a1      	cmp	r9, r4
    7dae:	4192      	sbcs	r2, r2
    7db0:	4252      	negs	r2, r2
    7db2:	4690      	mov	r8, r2
    7db4:	1a5f      	subs	r7, r3, r1
    7db6:	003a      	movs	r2, r7
    7db8:	4647      	mov	r7, r8
    7dba:	1bd2      	subs	r2, r2, r7
    7dbc:	4690      	mov	r8, r2
    7dbe:	0212      	lsls	r2, r2, #8
    7dc0:	d500      	bpl.n	7dc4 <__aeabi_dsub+0x450>
    7dc2:	e08b      	b.n	7edc <__aeabi_dsub+0x568>
    7dc4:	4642      	mov	r2, r8
    7dc6:	4322      	orrs	r2, r4
    7dc8:	d000      	beq.n	7dcc <__aeabi_dsub+0x458>
    7dca:	e630      	b.n	7a2e <__aeabi_dsub+0xba>
    7dcc:	2300      	movs	r3, #0
    7dce:	2500      	movs	r5, #0
    7dd0:	e74d      	b.n	7c6e <__aeabi_dsub+0x2fa>
    7dd2:	464a      	mov	r2, r9
    7dd4:	0759      	lsls	r1, r3, #29
    7dd6:	08d2      	lsrs	r2, r2, #3
    7dd8:	430a      	orrs	r2, r1
    7dda:	08db      	lsrs	r3, r3, #3
    7ddc:	e744      	b.n	7c68 <__aeabi_dsub+0x2f4>
    7dde:	4642      	mov	r2, r8
    7de0:	4b9e      	ldr	r3, [pc, #632]	; (805c <__aeabi_dsub+0x6e8>)
    7de2:	0861      	lsrs	r1, r4, #1
    7de4:	401a      	ands	r2, r3
    7de6:	0013      	movs	r3, r2
    7de8:	2201      	movs	r2, #1
    7dea:	4014      	ands	r4, r2
    7dec:	430c      	orrs	r4, r1
    7dee:	07da      	lsls	r2, r3, #31
    7df0:	085b      	lsrs	r3, r3, #1
    7df2:	4698      	mov	r8, r3
    7df4:	4314      	orrs	r4, r2
    7df6:	e641      	b.n	7a7c <__aeabi_dsub+0x108>
    7df8:	001a      	movs	r2, r3
    7dfa:	3e1f      	subs	r6, #31
    7dfc:	40f2      	lsrs	r2, r6
    7dfe:	0016      	movs	r6, r2
    7e00:	2920      	cmp	r1, #32
    7e02:	d003      	beq.n	7e0c <__aeabi_dsub+0x498>
    7e04:	2240      	movs	r2, #64	; 0x40
    7e06:	1a51      	subs	r1, r2, r1
    7e08:	408b      	lsls	r3, r1
    7e0a:	431c      	orrs	r4, r3
    7e0c:	1e62      	subs	r2, r4, #1
    7e0e:	4194      	sbcs	r4, r2
    7e10:	2300      	movs	r3, #0
    7e12:	4334      	orrs	r4, r6
    7e14:	4698      	mov	r8, r3
    7e16:	2600      	movs	r6, #0
    7e18:	e71d      	b.n	7c56 <__aeabi_dsub+0x2e2>
    7e1a:	000c      	movs	r4, r1
    7e1c:	3a20      	subs	r2, #32
    7e1e:	40d4      	lsrs	r4, r2
    7e20:	0022      	movs	r2, r4
    7e22:	4664      	mov	r4, ip
    7e24:	2c20      	cmp	r4, #32
    7e26:	d004      	beq.n	7e32 <__aeabi_dsub+0x4be>
    7e28:	2740      	movs	r7, #64	; 0x40
    7e2a:	1b3f      	subs	r7, r7, r4
    7e2c:	40b9      	lsls	r1, r7
    7e2e:	4308      	orrs	r0, r1
    7e30:	4680      	mov	r8, r0
    7e32:	4644      	mov	r4, r8
    7e34:	1e61      	subs	r1, r4, #1
    7e36:	418c      	sbcs	r4, r1
    7e38:	4322      	orrs	r2, r4
    7e3a:	e5e9      	b.n	7a10 <__aeabi_dsub+0x9c>
    7e3c:	464c      	mov	r4, r9
    7e3e:	4323      	orrs	r3, r4
    7e40:	001c      	movs	r4, r3
    7e42:	1e63      	subs	r3, r4, #1
    7e44:	419c      	sbcs	r4, r3
    7e46:	1b04      	subs	r4, r0, r4
    7e48:	42a0      	cmp	r0, r4
    7e4a:	419b      	sbcs	r3, r3
    7e4c:	425b      	negs	r3, r3
    7e4e:	1acb      	subs	r3, r1, r3
    7e50:	4698      	mov	r8, r3
    7e52:	465d      	mov	r5, fp
    7e54:	0016      	movs	r6, r2
    7e56:	e5e2      	b.n	7a1e <__aeabi_dsub+0xaa>
    7e58:	464e      	mov	r6, r9
    7e5a:	431e      	orrs	r6, r3
    7e5c:	d100      	bne.n	7e60 <__aeabi_dsub+0x4ec>
    7e5e:	e0ae      	b.n	7fbe <__aeabi_dsub+0x64a>
    7e60:	1e66      	subs	r6, r4, #1
    7e62:	2c01      	cmp	r4, #1
    7e64:	d100      	bne.n	7e68 <__aeabi_dsub+0x4f4>
    7e66:	e0fd      	b.n	8064 <__aeabi_dsub+0x6f0>
    7e68:	4f7b      	ldr	r7, [pc, #492]	; (8058 <__aeabi_dsub+0x6e4>)
    7e6a:	42bc      	cmp	r4, r7
    7e6c:	d100      	bne.n	7e70 <__aeabi_dsub+0x4fc>
    7e6e:	e107      	b.n	8080 <__aeabi_dsub+0x70c>
    7e70:	46b4      	mov	ip, r6
    7e72:	e69b      	b.n	7bac <__aeabi_dsub+0x238>
    7e74:	4664      	mov	r4, ip
    7e76:	2220      	movs	r2, #32
    7e78:	1b12      	subs	r2, r2, r4
    7e7a:	000c      	movs	r4, r1
    7e7c:	4094      	lsls	r4, r2
    7e7e:	0007      	movs	r7, r0
    7e80:	4090      	lsls	r0, r2
    7e82:	46a0      	mov	r8, r4
    7e84:	4664      	mov	r4, ip
    7e86:	1e42      	subs	r2, r0, #1
    7e88:	4190      	sbcs	r0, r2
    7e8a:	4662      	mov	r2, ip
    7e8c:	40e7      	lsrs	r7, r4
    7e8e:	4644      	mov	r4, r8
    7e90:	40d1      	lsrs	r1, r2
    7e92:	433c      	orrs	r4, r7
    7e94:	4304      	orrs	r4, r0
    7e96:	185b      	adds	r3, r3, r1
    7e98:	e6f3      	b.n	7c82 <__aeabi_dsub+0x30e>
    7e9a:	4c6f      	ldr	r4, [pc, #444]	; (8058 <__aeabi_dsub+0x6e4>)
    7e9c:	42a2      	cmp	r2, r4
    7e9e:	d100      	bne.n	7ea2 <__aeabi_dsub+0x52e>
    7ea0:	e0d5      	b.n	804e <__aeabi_dsub+0x6da>
    7ea2:	4448      	add	r0, r9
    7ea4:	185b      	adds	r3, r3, r1
    7ea6:	4548      	cmp	r0, r9
    7ea8:	4189      	sbcs	r1, r1
    7eaa:	4249      	negs	r1, r1
    7eac:	185b      	adds	r3, r3, r1
    7eae:	07dc      	lsls	r4, r3, #31
    7eb0:	0840      	lsrs	r0, r0, #1
    7eb2:	085b      	lsrs	r3, r3, #1
    7eb4:	4698      	mov	r8, r3
    7eb6:	0016      	movs	r6, r2
    7eb8:	4304      	orrs	r4, r0
    7eba:	e6cc      	b.n	7c56 <__aeabi_dsub+0x2e2>
    7ebc:	2a00      	cmp	r2, #0
    7ebe:	d000      	beq.n	7ec2 <__aeabi_dsub+0x54e>
    7ec0:	e082      	b.n	7fc8 <__aeabi_dsub+0x654>
    7ec2:	000a      	movs	r2, r1
    7ec4:	4302      	orrs	r2, r0
    7ec6:	d140      	bne.n	7f4a <__aeabi_dsub+0x5d6>
    7ec8:	2380      	movs	r3, #128	; 0x80
    7eca:	2500      	movs	r5, #0
    7ecc:	031b      	lsls	r3, r3, #12
    7ece:	e713      	b.n	7cf8 <__aeabi_dsub+0x384>
    7ed0:	074b      	lsls	r3, r1, #29
    7ed2:	08c2      	lsrs	r2, r0, #3
    7ed4:	431a      	orrs	r2, r3
    7ed6:	465d      	mov	r5, fp
    7ed8:	08cb      	lsrs	r3, r1, #3
    7eda:	e6c5      	b.n	7c68 <__aeabi_dsub+0x2f4>
    7edc:	464a      	mov	r2, r9
    7ede:	1a84      	subs	r4, r0, r2
    7ee0:	42a0      	cmp	r0, r4
    7ee2:	4192      	sbcs	r2, r2
    7ee4:	1acb      	subs	r3, r1, r3
    7ee6:	4252      	negs	r2, r2
    7ee8:	1a9b      	subs	r3, r3, r2
    7eea:	4698      	mov	r8, r3
    7eec:	465d      	mov	r5, fp
    7eee:	e59e      	b.n	7a2e <__aeabi_dsub+0xba>
    7ef0:	464a      	mov	r2, r9
    7ef2:	0759      	lsls	r1, r3, #29
    7ef4:	08d2      	lsrs	r2, r2, #3
    7ef6:	430a      	orrs	r2, r1
    7ef8:	08db      	lsrs	r3, r3, #3
    7efa:	e6f9      	b.n	7cf0 <__aeabi_dsub+0x37c>
    7efc:	464a      	mov	r2, r9
    7efe:	1a14      	subs	r4, r2, r0
    7f00:	45a1      	cmp	r9, r4
    7f02:	4192      	sbcs	r2, r2
    7f04:	1a5b      	subs	r3, r3, r1
    7f06:	4252      	negs	r2, r2
    7f08:	1a9b      	subs	r3, r3, r2
    7f0a:	4698      	mov	r8, r3
    7f0c:	2601      	movs	r6, #1
    7f0e:	e586      	b.n	7a1e <__aeabi_dsub+0xaa>
    7f10:	464a      	mov	r2, r9
    7f12:	0759      	lsls	r1, r3, #29
    7f14:	08d2      	lsrs	r2, r2, #3
    7f16:	430a      	orrs	r2, r1
    7f18:	08db      	lsrs	r3, r3, #3
    7f1a:	e6a5      	b.n	7c68 <__aeabi_dsub+0x2f4>
    7f1c:	464c      	mov	r4, r9
    7f1e:	4323      	orrs	r3, r4
    7f20:	001c      	movs	r4, r3
    7f22:	1e63      	subs	r3, r4, #1
    7f24:	419c      	sbcs	r4, r3
    7f26:	e65b      	b.n	7be0 <__aeabi_dsub+0x26c>
    7f28:	4665      	mov	r5, ip
    7f2a:	001e      	movs	r6, r3
    7f2c:	3d20      	subs	r5, #32
    7f2e:	40ee      	lsrs	r6, r5
    7f30:	2c20      	cmp	r4, #32
    7f32:	d005      	beq.n	7f40 <__aeabi_dsub+0x5cc>
    7f34:	2540      	movs	r5, #64	; 0x40
    7f36:	1b2d      	subs	r5, r5, r4
    7f38:	40ab      	lsls	r3, r5
    7f3a:	464c      	mov	r4, r9
    7f3c:	431c      	orrs	r4, r3
    7f3e:	46a2      	mov	sl, r4
    7f40:	4654      	mov	r4, sl
    7f42:	1e63      	subs	r3, r4, #1
    7f44:	419c      	sbcs	r4, r3
    7f46:	4334      	orrs	r4, r6
    7f48:	e77d      	b.n	7e46 <__aeabi_dsub+0x4d2>
    7f4a:	074b      	lsls	r3, r1, #29
    7f4c:	08c2      	lsrs	r2, r0, #3
    7f4e:	431a      	orrs	r2, r3
    7f50:	465d      	mov	r5, fp
    7f52:	08cb      	lsrs	r3, r1, #3
    7f54:	e6cc      	b.n	7cf0 <__aeabi_dsub+0x37c>
    7f56:	000a      	movs	r2, r1
    7f58:	4302      	orrs	r2, r0
    7f5a:	d100      	bne.n	7f5e <__aeabi_dsub+0x5ea>
    7f5c:	e736      	b.n	7dcc <__aeabi_dsub+0x458>
    7f5e:	074b      	lsls	r3, r1, #29
    7f60:	08c2      	lsrs	r2, r0, #3
    7f62:	431a      	orrs	r2, r3
    7f64:	465d      	mov	r5, fp
    7f66:	08cb      	lsrs	r3, r1, #3
    7f68:	e681      	b.n	7c6e <__aeabi_dsub+0x2fa>
    7f6a:	464a      	mov	r2, r9
    7f6c:	1a84      	subs	r4, r0, r2
    7f6e:	42a0      	cmp	r0, r4
    7f70:	4192      	sbcs	r2, r2
    7f72:	1acb      	subs	r3, r1, r3
    7f74:	4252      	negs	r2, r2
    7f76:	1a9b      	subs	r3, r3, r2
    7f78:	4698      	mov	r8, r3
    7f7a:	465d      	mov	r5, fp
    7f7c:	2601      	movs	r6, #1
    7f7e:	e54e      	b.n	7a1e <__aeabi_dsub+0xaa>
    7f80:	074b      	lsls	r3, r1, #29
    7f82:	08c2      	lsrs	r2, r0, #3
    7f84:	431a      	orrs	r2, r3
    7f86:	08cb      	lsrs	r3, r1, #3
    7f88:	e6b2      	b.n	7cf0 <__aeabi_dsub+0x37c>
    7f8a:	464a      	mov	r2, r9
    7f8c:	1a14      	subs	r4, r2, r0
    7f8e:	45a1      	cmp	r9, r4
    7f90:	4192      	sbcs	r2, r2
    7f92:	1a5f      	subs	r7, r3, r1
    7f94:	4252      	negs	r2, r2
    7f96:	1aba      	subs	r2, r7, r2
    7f98:	4690      	mov	r8, r2
    7f9a:	0212      	lsls	r2, r2, #8
    7f9c:	d56b      	bpl.n	8076 <__aeabi_dsub+0x702>
    7f9e:	464a      	mov	r2, r9
    7fa0:	1a84      	subs	r4, r0, r2
    7fa2:	42a0      	cmp	r0, r4
    7fa4:	4192      	sbcs	r2, r2
    7fa6:	1acb      	subs	r3, r1, r3
    7fa8:	4252      	negs	r2, r2
    7faa:	1a9b      	subs	r3, r3, r2
    7fac:	4698      	mov	r8, r3
    7fae:	465d      	mov	r5, fp
    7fb0:	e564      	b.n	7a7c <__aeabi_dsub+0x108>
    7fb2:	074b      	lsls	r3, r1, #29
    7fb4:	08c2      	lsrs	r2, r0, #3
    7fb6:	431a      	orrs	r2, r3
    7fb8:	465d      	mov	r5, fp
    7fba:	08cb      	lsrs	r3, r1, #3
    7fbc:	e698      	b.n	7cf0 <__aeabi_dsub+0x37c>
    7fbe:	074b      	lsls	r3, r1, #29
    7fc0:	08c2      	lsrs	r2, r0, #3
    7fc2:	431a      	orrs	r2, r3
    7fc4:	08cb      	lsrs	r3, r1, #3
    7fc6:	e64f      	b.n	7c68 <__aeabi_dsub+0x2f4>
    7fc8:	000a      	movs	r2, r1
    7fca:	4302      	orrs	r2, r0
    7fcc:	d090      	beq.n	7ef0 <__aeabi_dsub+0x57c>
    7fce:	464a      	mov	r2, r9
    7fd0:	075c      	lsls	r4, r3, #29
    7fd2:	08d2      	lsrs	r2, r2, #3
    7fd4:	4314      	orrs	r4, r2
    7fd6:	2280      	movs	r2, #128	; 0x80
    7fd8:	08db      	lsrs	r3, r3, #3
    7fda:	0312      	lsls	r2, r2, #12
    7fdc:	4213      	tst	r3, r2
    7fde:	d008      	beq.n	7ff2 <__aeabi_dsub+0x67e>
    7fe0:	08ce      	lsrs	r6, r1, #3
    7fe2:	4216      	tst	r6, r2
    7fe4:	d105      	bne.n	7ff2 <__aeabi_dsub+0x67e>
    7fe6:	08c0      	lsrs	r0, r0, #3
    7fe8:	0749      	lsls	r1, r1, #29
    7fea:	4308      	orrs	r0, r1
    7fec:	0004      	movs	r4, r0
    7fee:	465d      	mov	r5, fp
    7ff0:	0033      	movs	r3, r6
    7ff2:	0f61      	lsrs	r1, r4, #29
    7ff4:	00e2      	lsls	r2, r4, #3
    7ff6:	0749      	lsls	r1, r1, #29
    7ff8:	08d2      	lsrs	r2, r2, #3
    7ffa:	430a      	orrs	r2, r1
    7ffc:	e678      	b.n	7cf0 <__aeabi_dsub+0x37c>
    7ffe:	074b      	lsls	r3, r1, #29
    8000:	08c2      	lsrs	r2, r0, #3
    8002:	431a      	orrs	r2, r3
    8004:	08cb      	lsrs	r3, r1, #3
    8006:	e632      	b.n	7c6e <__aeabi_dsub+0x2fa>
    8008:	4448      	add	r0, r9
    800a:	185b      	adds	r3, r3, r1
    800c:	4548      	cmp	r0, r9
    800e:	4192      	sbcs	r2, r2
    8010:	4698      	mov	r8, r3
    8012:	4252      	negs	r2, r2
    8014:	4490      	add	r8, r2
    8016:	4643      	mov	r3, r8
    8018:	0004      	movs	r4, r0
    801a:	021b      	lsls	r3, r3, #8
    801c:	d400      	bmi.n	8020 <__aeabi_dsub+0x6ac>
    801e:	e61a      	b.n	7c56 <__aeabi_dsub+0x2e2>
    8020:	4642      	mov	r2, r8
    8022:	4b0e      	ldr	r3, [pc, #56]	; (805c <__aeabi_dsub+0x6e8>)
    8024:	2601      	movs	r6, #1
    8026:	401a      	ands	r2, r3
    8028:	4690      	mov	r8, r2
    802a:	e614      	b.n	7c56 <__aeabi_dsub+0x2e2>
    802c:	4666      	mov	r6, ip
    802e:	001f      	movs	r7, r3
    8030:	3e20      	subs	r6, #32
    8032:	40f7      	lsrs	r7, r6
    8034:	2c20      	cmp	r4, #32
    8036:	d005      	beq.n	8044 <__aeabi_dsub+0x6d0>
    8038:	2640      	movs	r6, #64	; 0x40
    803a:	1b36      	subs	r6, r6, r4
    803c:	40b3      	lsls	r3, r6
    803e:	464c      	mov	r4, r9
    8040:	431c      	orrs	r4, r3
    8042:	46a2      	mov	sl, r4
    8044:	4654      	mov	r4, sl
    8046:	1e63      	subs	r3, r4, #1
    8048:	419c      	sbcs	r4, r3
    804a:	433c      	orrs	r4, r7
    804c:	e5c8      	b.n	7be0 <__aeabi_dsub+0x26c>
    804e:	0011      	movs	r1, r2
    8050:	2300      	movs	r3, #0
    8052:	2200      	movs	r2, #0
    8054:	e532      	b.n	7abc <__aeabi_dsub+0x148>
    8056:	46c0      	nop			; (mov r8, r8)
    8058:	000007ff 	.word	0x000007ff
    805c:	ff7fffff 	.word	0xff7fffff
    8060:	000007fe 	.word	0x000007fe
    8064:	464a      	mov	r2, r9
    8066:	1814      	adds	r4, r2, r0
    8068:	4284      	cmp	r4, r0
    806a:	4192      	sbcs	r2, r2
    806c:	185b      	adds	r3, r3, r1
    806e:	4698      	mov	r8, r3
    8070:	4252      	negs	r2, r2
    8072:	4490      	add	r8, r2
    8074:	e5e9      	b.n	7c4a <__aeabi_dsub+0x2d6>
    8076:	4642      	mov	r2, r8
    8078:	4322      	orrs	r2, r4
    807a:	d100      	bne.n	807e <__aeabi_dsub+0x70a>
    807c:	e6a6      	b.n	7dcc <__aeabi_dsub+0x458>
    807e:	e5ea      	b.n	7c56 <__aeabi_dsub+0x2e2>
    8080:	074b      	lsls	r3, r1, #29
    8082:	08c2      	lsrs	r2, r0, #3
    8084:	431a      	orrs	r2, r3
    8086:	08cb      	lsrs	r3, r1, #3
    8088:	e632      	b.n	7cf0 <__aeabi_dsub+0x37c>
    808a:	2200      	movs	r2, #0
    808c:	4901      	ldr	r1, [pc, #4]	; (8094 <__aeabi_dsub+0x720>)
    808e:	0013      	movs	r3, r2
    8090:	e514      	b.n	7abc <__aeabi_dsub+0x148>
    8092:	46c0      	nop			; (mov r8, r8)
    8094:	000007ff 	.word	0x000007ff

00008098 <__aeabi_d2iz>:
__aeabi_d2iz():
    8098:	000a      	movs	r2, r1
    809a:	b530      	push	{r4, r5, lr}
    809c:	4c13      	ldr	r4, [pc, #76]	; (80ec <__aeabi_d2iz+0x54>)
    809e:	0053      	lsls	r3, r2, #1
    80a0:	0309      	lsls	r1, r1, #12
    80a2:	0005      	movs	r5, r0
    80a4:	0b09      	lsrs	r1, r1, #12
    80a6:	2000      	movs	r0, #0
    80a8:	0d5b      	lsrs	r3, r3, #21
    80aa:	0fd2      	lsrs	r2, r2, #31
    80ac:	42a3      	cmp	r3, r4
    80ae:	dd04      	ble.n	80ba <__aeabi_d2iz+0x22>
    80b0:	480f      	ldr	r0, [pc, #60]	; (80f0 <__aeabi_d2iz+0x58>)
    80b2:	4283      	cmp	r3, r0
    80b4:	dd02      	ble.n	80bc <__aeabi_d2iz+0x24>
    80b6:	4b0f      	ldr	r3, [pc, #60]	; (80f4 <__aeabi_d2iz+0x5c>)
    80b8:	18d0      	adds	r0, r2, r3
    80ba:	bd30      	pop	{r4, r5, pc}
    80bc:	2080      	movs	r0, #128	; 0x80
    80be:	0340      	lsls	r0, r0, #13
    80c0:	4301      	orrs	r1, r0
    80c2:	480d      	ldr	r0, [pc, #52]	; (80f8 <__aeabi_d2iz+0x60>)
    80c4:	1ac0      	subs	r0, r0, r3
    80c6:	281f      	cmp	r0, #31
    80c8:	dd08      	ble.n	80dc <__aeabi_d2iz+0x44>
    80ca:	480c      	ldr	r0, [pc, #48]	; (80fc <__aeabi_d2iz+0x64>)
    80cc:	1ac3      	subs	r3, r0, r3
    80ce:	40d9      	lsrs	r1, r3
    80d0:	000b      	movs	r3, r1
    80d2:	4258      	negs	r0, r3
    80d4:	2a00      	cmp	r2, #0
    80d6:	d1f0      	bne.n	80ba <__aeabi_d2iz+0x22>
    80d8:	0018      	movs	r0, r3
    80da:	e7ee      	b.n	80ba <__aeabi_d2iz+0x22>
    80dc:	4c08      	ldr	r4, [pc, #32]	; (8100 <__aeabi_d2iz+0x68>)
    80de:	40c5      	lsrs	r5, r0
    80e0:	46a4      	mov	ip, r4
    80e2:	4463      	add	r3, ip
    80e4:	4099      	lsls	r1, r3
    80e6:	000b      	movs	r3, r1
    80e8:	432b      	orrs	r3, r5
    80ea:	e7f2      	b.n	80d2 <__aeabi_d2iz+0x3a>
    80ec:	000003fe 	.word	0x000003fe
    80f0:	0000041d 	.word	0x0000041d
    80f4:	7fffffff 	.word	0x7fffffff
    80f8:	00000433 	.word	0x00000433
    80fc:	00000413 	.word	0x00000413
    8100:	fffffbed 	.word	0xfffffbed

00008104 <__aeabi_ui2d>:
__aeabi_ui2d():
    8104:	b510      	push	{r4, lr}
    8106:	1e04      	subs	r4, r0, #0
    8108:	d010      	beq.n	812c <__aeabi_ui2d+0x28>
    810a:	f000 f821 	bl	8150 <__clzsi2>
    810e:	4b0f      	ldr	r3, [pc, #60]	; (814c <__aeabi_ui2d+0x48>)
    8110:	1a1b      	subs	r3, r3, r0
    8112:	280a      	cmp	r0, #10
    8114:	dc11      	bgt.n	813a <__aeabi_ui2d+0x36>
    8116:	220b      	movs	r2, #11
    8118:	0021      	movs	r1, r4
    811a:	1a12      	subs	r2, r2, r0
    811c:	40d1      	lsrs	r1, r2
    811e:	3015      	adds	r0, #21
    8120:	030a      	lsls	r2, r1, #12
    8122:	055b      	lsls	r3, r3, #21
    8124:	4084      	lsls	r4, r0
    8126:	0b12      	lsrs	r2, r2, #12
    8128:	0d5b      	lsrs	r3, r3, #21
    812a:	e001      	b.n	8130 <__aeabi_ui2d+0x2c>
    812c:	2300      	movs	r3, #0
    812e:	2200      	movs	r2, #0
    8130:	051b      	lsls	r3, r3, #20
    8132:	4313      	orrs	r3, r2
    8134:	0020      	movs	r0, r4
    8136:	0019      	movs	r1, r3
    8138:	bd10      	pop	{r4, pc}
    813a:	0022      	movs	r2, r4
    813c:	380b      	subs	r0, #11
    813e:	4082      	lsls	r2, r0
    8140:	055b      	lsls	r3, r3, #21
    8142:	0312      	lsls	r2, r2, #12
    8144:	2400      	movs	r4, #0
    8146:	0b12      	lsrs	r2, r2, #12
    8148:	0d5b      	lsrs	r3, r3, #21
    814a:	e7f1      	b.n	8130 <__aeabi_ui2d+0x2c>
    814c:	0000041e 	.word	0x0000041e

00008150 <__clzsi2>:
__clzsi2():
    8150:	211c      	movs	r1, #28
    8152:	2301      	movs	r3, #1
    8154:	041b      	lsls	r3, r3, #16
    8156:	4298      	cmp	r0, r3
    8158:	d301      	bcc.n	815e <__clzsi2+0xe>
    815a:	0c00      	lsrs	r0, r0, #16
    815c:	3910      	subs	r1, #16
    815e:	0a1b      	lsrs	r3, r3, #8
    8160:	4298      	cmp	r0, r3
    8162:	d301      	bcc.n	8168 <__clzsi2+0x18>
    8164:	0a00      	lsrs	r0, r0, #8
    8166:	3908      	subs	r1, #8
    8168:	091b      	lsrs	r3, r3, #4
    816a:	4298      	cmp	r0, r3
    816c:	d301      	bcc.n	8172 <__clzsi2+0x22>
    816e:	0900      	lsrs	r0, r0, #4
    8170:	3904      	subs	r1, #4
    8172:	a202      	add	r2, pc, #8	; (adr r2, 817c <__clzsi2+0x2c>)
    8174:	5c10      	ldrb	r0, [r2, r0]
    8176:	1840      	adds	r0, r0, r1
    8178:	4770      	bx	lr
    817a:	46c0      	nop			; (mov r8, r8)
    817c:	02020304 	.word	0x02020304
    8180:	01010101 	.word	0x01010101
	...

0000818c <__clzdi2>:
__clzdi2():
    818c:	b510      	push	{r4, lr}
    818e:	2900      	cmp	r1, #0
    8190:	d103      	bne.n	819a <__clzdi2+0xe>
    8192:	f7ff ffdd 	bl	8150 <__clzsi2>
    8196:	3020      	adds	r0, #32
    8198:	e002      	b.n	81a0 <__clzdi2+0x14>
    819a:	1c08      	adds	r0, r1, #0
    819c:	f7ff ffd8 	bl	8150 <__clzsi2>
    81a0:	bd10      	pop	{r4, pc}
    81a2:	46c0      	nop			; (mov r8, r8)

000081a4 <strlen>:
strlen():
    81a4:	2300      	movs	r3, #0
    81a6:	5cc2      	ldrb	r2, [r0, r3]
    81a8:	3301      	adds	r3, #1
    81aa:	2a00      	cmp	r2, #0
    81ac:	d1fb      	bne.n	81a6 <strlen+0x2>
    81ae:	1e58      	subs	r0, r3, #1
    81b0:	4770      	bx	lr
	...

000081b4 <SystemInit>:
SystemInit():
F:\WorkSpace\AHL-GEC-EXP\Temp\UART_发送01字符控制灯亮_不使用组帧\Debug/srcc/system_MKL36Z4.c:112
    //看门狗默认为开启，而且复位之后只能开启或关闭看门狗一次
    //SIM_COPC &= ~SIM_COPC_COPT_MASK;    //DISABLE_WDOG 

    /* System clock initialization */
    /* SIM_CLKDIV1: OUTDIV1=0,??=0,??=0,??=0,??=0,??=0,??=0,??=0,??=0,??=0,OUTDIV4=3,??=0,??=0,??=0,??=0,??=0,??=0,??=0,??=0,??=0,??=0,??=0,??=0,??=0,??=0,??=0,??=0 */
    SIM_CLKDIV1 = (SIM_CLKDIV1_OUTDIV1(0x00) | SIM_CLKDIV1_OUTDIV4(0x03)); /* Set the system prescalers to safe value */
    81b4:	4b27      	ldr	r3, [pc, #156]	; (8254 <SystemInit+0xa0>)
    81b6:	4a28      	ldr	r2, [pc, #160]	; (8258 <SystemInit+0xa4>)
    81b8:	21c0      	movs	r1, #192	; 0xc0
    81ba:	0289      	lsls	r1, r1, #10
    81bc:	5099      	str	r1, [r3, r2]
F:\WorkSpace\AHL-GEC-EXP\Temp\UART_发送01字符控制灯亮_不使用组帧\Debug/srcc/system_MKL36Z4.c:114
    /* SIM_SCGC5: PORTA=1 */
    SIM_SCGC5 |= SIM_SCGC5_PORTA_MASK;   /* Enable clock gate for ports to enable pin routing */
    81be:	4927      	ldr	r1, [pc, #156]	; (825c <SystemInit+0xa8>)
    81c0:	5858      	ldr	r0, [r3, r1]
    81c2:	2280      	movs	r2, #128	; 0x80
    81c4:	0092      	lsls	r2, r2, #2
    81c6:	4302      	orrs	r2, r0
    81c8:	505a      	str	r2, [r3, r1]
F:\WorkSpace\AHL-GEC-EXP\Temp\UART_发送01字符控制灯亮_不使用组帧\Debug/srcc/system_MKL36Z4.c:115
    if ((PMC_REGSC & PMC_REGSC_ACKISO_MASK) != 0x0U) {
    81ca:	4b25      	ldr	r3, [pc, #148]	; (8260 <SystemInit+0xac>)
    81cc:	789b      	ldrb	r3, [r3, #2]
    81ce:	071b      	lsls	r3, r3, #28
    81d0:	d505      	bpl.n	81de <SystemInit+0x2a>
F:\WorkSpace\AHL-GEC-EXP\Temp\UART_发送01字符控制灯亮_不使用组帧\Debug/srcc/system_MKL36Z4.c:117
        /* PMC_REGSC: ACKISO=1 */
        PMC_REGSC |= PMC_REGSC_ACKISO_MASK; /* Release IO pads after wakeup from VLLS mode. */
    81d2:	4a23      	ldr	r2, [pc, #140]	; (8260 <SystemInit+0xac>)
    81d4:	7893      	ldrb	r3, [r2, #2]
    81d6:	2108      	movs	r1, #8
    81d8:	430b      	orrs	r3, r1
    81da:	b2db      	uxtb	r3, r3
    81dc:	7093      	strb	r3, [r2, #2]
F:\WorkSpace\AHL-GEC-EXP\Temp\UART_发送01字符控制灯亮_不使用组帧\Debug/srcc/system_MKL36Z4.c:120
    }
    /* SIM_CLKDIV1: OUTDIV1=0,??=0,??=0,??=0,??=0,??=0,??=0,??=0,??=0,??=0,OUTDIV4=1,??=0,??=0,??=0,??=0,??=0,??=0,??=0,??=0,??=0,??=0,??=0,??=0,??=0,??=0,??=0,??=0 */
    SIM_CLKDIV1 = (SIM_CLKDIV1_OUTDIV1(0x00) | SIM_CLKDIV1_OUTDIV4(0x01)); /* Update system prescalers */
    81de:	4b1d      	ldr	r3, [pc, #116]	; (8254 <SystemInit+0xa0>)
    81e0:	4a1d      	ldr	r2, [pc, #116]	; (8258 <SystemInit+0xa4>)
    81e2:	2180      	movs	r1, #128	; 0x80
    81e4:	0249      	lsls	r1, r1, #9
    81e6:	5099      	str	r1, [r3, r2]
F:\WorkSpace\AHL-GEC-EXP\Temp\UART_发送01字符控制灯亮_不使用组帧\Debug/srcc/system_MKL36Z4.c:122
    /* SIM_SOPT2: ??=0,PLLFLLSEL=0 */
    SIM_SOPT2 &= (uint32_t)~(uint32_t)((SIM_SOPT2_PLLFLLSEL_MASK | 0x00020000U)); /* Select FLL as a clock source for various peripherals */
    81e8:	4a1e      	ldr	r2, [pc, #120]	; (8264 <SystemInit+0xb0>)
    81ea:	5899      	ldr	r1, [r3, r2]
    81ec:	481e      	ldr	r0, [pc, #120]	; (8268 <SystemInit+0xb4>)
    81ee:	4001      	ands	r1, r0
    81f0:	5099      	str	r1, [r3, r2]
F:\WorkSpace\AHL-GEC-EXP\Temp\UART_发送01字符控制灯亮_不使用组帧\Debug/srcc/system_MKL36Z4.c:124
    /* SIM_SOPT1: OSC32KSEL=0 */
    SIM_SOPT1 &= (uint32_t)~(uint32_t)(SIM_SOPT1_OSC32KSEL(0x03)); /* System oscillator drives 32 kHz clock for various peripherals */
    81f2:	6819      	ldr	r1, [r3, #0]
    81f4:	481d      	ldr	r0, [pc, #116]	; (826c <SystemInit+0xb8>)
    81f6:	4001      	ands	r1, r0
    81f8:	6019      	str	r1, [r3, #0]
F:\WorkSpace\AHL-GEC-EXP\Temp\UART_发送01字符控制灯亮_不使用组帧\Debug/srcc/system_MKL36Z4.c:126
    /* SIM_SOPT2: TPMSRC=1 */
    SIM_SOPT2 = (uint32_t)((SIM_SOPT2 & (uint32_t)~(uint32_t)(
    81fa:	5899      	ldr	r1, [r3, r2]
    81fc:	481c      	ldr	r0, [pc, #112]	; (8270 <SystemInit+0xbc>)
    81fe:	4008      	ands	r0, r1
    8200:	2180      	movs	r1, #128	; 0x80
    8202:	0449      	lsls	r1, r1, #17
    8204:	4301      	orrs	r1, r0
    8206:	5099      	str	r1, [r3, r2]
F:\WorkSpace\AHL-GEC-EXP\Temp\UART_发送01字符控制灯亮_不使用组帧\Debug/srcc/system_MKL36Z4.c:133
    )) | (uint32_t)(
            SIM_SOPT2_TPMSRC(0x01)
    ));                      /* Set the TPM clock */
    /* Switch to FEI Mode */
    /* MCG_C1: CLKS=0,FRDIV=0,IREFS=1,IRCLKEN=1,IREFSTEN=0 */
    MCG_C1 = MCG_C1_CLKS(0x00) |
    8208:	4b1a      	ldr	r3, [pc, #104]	; (8274 <SystemInit+0xc0>)
    820a:	2206      	movs	r2, #6
    820c:	701a      	strb	r2, [r3, #0]
F:\WorkSpace\AHL-GEC-EXP\Temp\UART_发送01字符控制灯亮_不使用组帧\Debug/srcc/system_MKL36Z4.c:138
            MCG_C1_FRDIV(0x00) |
            MCG_C1_IREFS_MASK |
            MCG_C1_IRCLKEN_MASK;
    /* MCG_C2: LOCRE0=0,RANGE0=0,HGO0=0,EREFS0=0,LP=0,IRCS=0 */
    MCG_C2 &= (uint8_t)~(uint8_t)(
    820e:	785a      	ldrb	r2, [r3, #1]
    8210:	2140      	movs	r1, #64	; 0x40
    8212:	400a      	ands	r2, r1
    8214:	705a      	strb	r2, [r3, #1]
F:\WorkSpace\AHL-GEC-EXP\Temp\UART_发送01字符控制灯亮_不使用组帧\Debug/srcc/system_MKL36Z4.c:147
            MCG_C2_EREFS0_MASK |
            MCG_C2_LP_MASK |
            MCG_C2_IRCS_MASK
    );
    /* MCG_C4: DMX32=1,DRST_DRS=1 */
    MCG_C4 = (uint8_t)((MCG_C4 & (uint8_t)~(uint8_t)(
    8216:	78d9      	ldrb	r1, [r3, #3]
    8218:	b249      	sxtb	r1, r1
F:\WorkSpace\AHL-GEC-EXP\Temp\UART_发送01字符控制灯亮_不使用组帧\Debug/srcc/system_MKL36Z4.c:149
            MCG_C4_DRST_DRS(0x02)
    )) | (uint8_t)(
    821a:	221f      	movs	r2, #31
    821c:	4011      	ands	r1, r2
    821e:	3a7f      	subs	r2, #127	; 0x7f
    8220:	430a      	orrs	r2, r1
F:\WorkSpace\AHL-GEC-EXP\Temp\UART_发送01字符控制灯亮_不使用组帧\Debug/srcc/system_MKL36Z4.c:147
    MCG_C4 = (uint8_t)((MCG_C4 & (uint8_t)~(uint8_t)(
    8222:	b2d2      	uxtb	r2, r2
    8224:	70da      	strb	r2, [r3, #3]
F:\WorkSpace\AHL-GEC-EXP\Temp\UART_发送01字符控制灯亮_不使用组帧\Debug/srcc/system_MKL36Z4.c:154
            MCG_C4_DMX32_MASK |
            MCG_C4_DRST_DRS(0x01)
    ));
    /* OSC0_CR: ERCLKEN=0,??=0,EREFSTEN=0,??=0,SC2P=0,SC4P=0,SC8P=0,SC16P=0 */
    OSC0_CR = 0x00U;
    8226:	2200      	movs	r2, #0
    8228:	4913      	ldr	r1, [pc, #76]	; (8278 <SystemInit+0xc4>)
    822a:	700a      	strb	r2, [r1, #0]
F:\WorkSpace\AHL-GEC-EXP\Temp\UART_发送01字符控制灯亮_不使用组帧\Debug/srcc/system_MKL36Z4.c:156
    /* MCG_C5: ??=0,PLLCLKEN0=0,PLLSTEN0=0,PRDIV0=0 */
    MCG_C5 = MCG_C5_PRDIV0(0x00);
    822c:	711a      	strb	r2, [r3, #4]
F:\WorkSpace\AHL-GEC-EXP\Temp\UART_发送01字符控制灯亮_不使用组帧\Debug/srcc/system_MKL36Z4.c:158
    /* MCG_C6: LOLIE0=0,PLLS=0,CME0=0,VDIV0=0 */
    MCG_C6 = MCG_C6_VDIV0(0x00);
    822e:	715a      	strb	r2, [r3, #5]
F:\WorkSpace\AHL-GEC-EXP\Temp\UART_发送01字符控制灯亮_不使用组帧\Debug/srcc/system_MKL36Z4.c:159 (discriminator 1)
    while((MCG_S & MCG_S_IREFST_MASK) == 0x00U) { /* Check that the source of the FLL reference clock is the internal reference clock. */
    8230:	4b10      	ldr	r3, [pc, #64]	; (8274 <SystemInit+0xc0>)
    8232:	799b      	ldrb	r3, [r3, #6]
    8234:	06db      	lsls	r3, r3, #27
    8236:	d5fb      	bpl.n	8230 <SystemInit+0x7c>
F:\WorkSpace\AHL-GEC-EXP\Temp\UART_发送01字符控制灯亮_不使用组帧\Debug/srcc/system_MKL36Z4.c:161 (discriminator 1)
    }
    while((MCG_S & 0x0CU) != 0x00U) {    /* Wait until output of the FLL is selected */
    8238:	4b0e      	ldr	r3, [pc, #56]	; (8274 <SystemInit+0xc0>)
    823a:	799a      	ldrb	r2, [r3, #6]
    823c:	230c      	movs	r3, #12
    823e:	421a      	tst	r2, r3
    8240:	d1fa      	bne.n	8238 <SystemInit+0x84>
F:\WorkSpace\AHL-GEC-EXP\Temp\UART_发送01字符控制灯亮_不使用组帧\Debug/srcc/system_MKL36Z4.c:234
    //        if (((MCG_S & MCG_S_CLKST_MASK) >> MCG_S_CLKST_SHIFT) == 0x3) break;
    //    }
    //    //4.现在处于PEE模式

    //开启PORT模块时钟
    SIM->SCGC5 |= SIM_SCGC5_PORTA_MASK
    8242:	4904      	ldr	r1, [pc, #16]	; (8254 <SystemInit+0xa0>)
    8244:	4a05      	ldr	r2, [pc, #20]	; (825c <SystemInit+0xa8>)
    8246:	5888      	ldr	r0, [r1, r2]
    8248:	23f8      	movs	r3, #248	; 0xf8
    824a:	019b      	lsls	r3, r3, #6
    824c:	4303      	orrs	r3, r0
    824e:	508b      	str	r3, [r1, r2]
F:\WorkSpace\AHL-GEC-EXP\Temp\UART_发送01字符控制灯亮_不使用组帧\Debug/srcc/system_MKL36Z4.c:239
            | SIM_SCGC5_PORTB_MASK
            | SIM_SCGC5_PORTC_MASK
            | SIM_SCGC5_PORTD_MASK
            | SIM_SCGC5_PORTE_MASK;
}
    8250:	4770      	bx	lr
    8252:	46c0      	nop			; (mov r8, r8)
    8254:	40047000 	.word	0x40047000
    8258:	00001044 	.word	0x00001044
    825c:	00001038 	.word	0x00001038
    8260:	4007d000 	.word	0x4007d000
    8264:	00001004 	.word	0x00001004
    8268:	fffcffff 	.word	0xfffcffff
    826c:	fff3ffff 	.word	0xfff3ffff
    8270:	fcffffff 	.word	0xfcffffff
    8274:	40064000 	.word	0x40064000
    8278:	40065000 	.word	0x40065000

0000827c <main>:
main():
F:\WorkSpace\AHL-GEC-EXP\Temp\UART_发送01字符控制灯亮_不使用组帧\Debug/srcc/main.c:18
//main.c使用的内部函数声明处

//----------------------------------------------------------------------
//主函数，一般情况下可以认为程序从此开始运行（实际上有启动过程见书稿）
int main(void)
{
    827c:	b510      	push	{r4, lr}
F:\WorkSpace\AHL-GEC-EXP\Temp\UART_发送01字符控制灯亮_不使用组帧\Debug/srcc/main.c:22
    //（1）======启动部分（开头）==========================================

    //（1.2）【不变】关总中断
    DISABLE_INTERRUPTS;
    827e:	b672      	cpsid	i
F:\WorkSpace\AHL-GEC-EXP\Temp\UART_发送01字符控制灯亮_不使用组帧\Debug/srcc/main.c:27

    //（1.4）给全局变量赋初值

    //（1.5）用户外设模块初始化
    gpio_init(LIGHT_BLUE, GPIO_OUTPUT, LIGHT_OFF); //初始化蓝灯
    8280:	2201      	movs	r2, #1
    8282:	2101      	movs	r1, #1
    8284:	200d      	movs	r0, #13
    8286:	f000 f8c3 	bl	8410 <gpio_init>
F:\WorkSpace\AHL-GEC-EXP\Temp\UART_发送01字符控制灯亮_不使用组帧\Debug/srcc/main.c:28
    uart_init(UART_User, 115200);
    828a:	21e1      	movs	r1, #225	; 0xe1
    828c:	0249      	lsls	r1, r1, #9
    828e:	2000      	movs	r0, #0
    8290:	f000 f94a 	bl	8528 <uart_init>
F:\WorkSpace\AHL-GEC-EXP\Temp\UART_发送01字符控制灯亮_不使用组帧\Debug/srcc/main.c:31

    //（1.6）使能模块中断
    uart_enable_re_int(UART_User);
    8294:	2000      	movs	r0, #0
    8296:	f000 fa51 	bl	873c <uart_enable_re_int>
F:\WorkSpace\AHL-GEC-EXP\Temp\UART_发送01字符控制灯亮_不使用组帧\Debug/srcc/main.c:33
    //（1.7）【不变】开总中断
    ENABLE_INTERRUPTS;
    829a:	b662      	cpsie	i
F:\WorkSpace\AHL-GEC-EXP\Temp\UART_发送01字符控制灯亮_不使用组帧\Debug/srcc/main.c:34
}
    829c:	2000      	movs	r0, #0
    829e:	bd10      	pop	{r4, pc}

000082a0 <flash_read_physical>:
flash_read_physical():
F:\WorkSpace\AHL-GEC-EXP\Temp\UART_发送01字符控制灯亮_不使用组帧\Debug/srcc/flash.c:203
//       addr：目标地址，要求为4的倍数（例如：0x00000004）
//       N：读字节数目（0~1020,要求为4，8,12,......）
//功能概要：读取flash指定地址的内容
//======================================================================
void flash_read_physical(uint8_t *dest,uint32_t addr,uint16_t N)
{
    82a0:	b510      	push	{r4, lr}
F:\WorkSpace\AHL-GEC-EXP\Temp\UART_发送01字符控制灯亮_不使用组帧\Debug/srcc/flash.c:206
	uint8_t *src;
	src=(uint8_t *)addr;
	memcpy(dest,src,N);
    82a2:	f000 feab 	bl	8ffc <memcpy>
F:\WorkSpace\AHL-GEC-EXP\Temp\UART_发送01字符控制灯亮_不使用组帧\Debug/srcc/flash.c:207
}
    82a6:	bd10      	pop	{r4, pc}

000082a8 <flash_isempty>:
flash_isempty():
F:\WorkSpace\AHL-GEC-EXP\Temp\UART_发送01字符控制灯亮_不使用组帧\Debug/srcc/flash.c:254
{
   uint16_t i,flag;
   uint8_t* buff;
   i = 0;
   flag = 1;
   for(i = 0; i<N; i++)   //遍历区域内字节
    82a8:	2300      	movs	r3, #0
F:\WorkSpace\AHL-GEC-EXP\Temp\UART_发送01字符控制灯亮_不使用组帧\Debug/srcc/flash.c:254 (discriminator 1)
    82aa:	428b      	cmp	r3, r1
    82ac:	d206      	bcs.n	82bc <flash_isempty+0x14>
F:\WorkSpace\AHL-GEC-EXP\Temp\UART_发送01字符控制灯亮_不使用组帧\Debug/srcc/flash.c:256
   {
	  buff=(uint8_t*)(sect*0x400);
    82ae:	0282      	lsls	r2, r0, #10
F:\WorkSpace\AHL-GEC-EXP\Temp\UART_发送01字符控制灯亮_不使用组帧\Debug/srcc/flash.c:257
      if(buff[i]!=0xff)   //非空
    82b0:	5cd2      	ldrb	r2, [r2, r3]
    82b2:	2aff      	cmp	r2, #255	; 0xff
    82b4:	d105      	bne.n	82c2 <flash_isempty+0x1a>
F:\WorkSpace\AHL-GEC-EXP\Temp\UART_发送01字符控制灯亮_不使用组帧\Debug/srcc/flash.c:254 (discriminator 2)
   for(i = 0; i<N; i++)   //遍历区域内字节
    82b6:	3301      	adds	r3, #1
    82b8:	b29b      	uxth	r3, r3
    82ba:	e7f6      	b.n	82aa <flash_isempty+0x2>
F:\WorkSpace\AHL-GEC-EXP\Temp\UART_发送01字符控制灯亮_不使用组帧\Debug/srcc/flash.c:253
   flag = 1;
    82bc:	2001      	movs	r0, #1
F:\WorkSpace\AHL-GEC-EXP\Temp\UART_发送01字符控制灯亮_不使用组帧\Debug/srcc/flash.c:263
      {
      	  flag=0;
          break;
       }
   }
   return flag;
    82be:	b2c0      	uxtb	r0, r0
F:\WorkSpace\AHL-GEC-EXP\Temp\UART_发送01字符控制灯亮_不使用组帧\Debug/srcc/flash.c:264
}
    82c0:	4770      	bx	lr
F:\WorkSpace\AHL-GEC-EXP\Temp\UART_发送01字符控制灯亮_不使用组帧\Debug/srcc/flash.c:259
      	  flag=0;
    82c2:	2000      	movs	r0, #0
    82c4:	e7fb      	b.n	82be <flash_isempty+0x16>
	...

000082c8 <flash_cmd_launch>:
flash_cmd_launch():
F:\WorkSpace\AHL-GEC-EXP\Temp\UART_发送01字符控制灯亮_不使用组帧\Debug/srcc/flash.c:342
//======================================================================
uint32_t flash_cmd_launch(void)
{
	uint8_t irq_flag=0;
    // 清除访问错误标志位和非法访问标志位
    FTFA_FSTAT = ACCERR | FPVIOL;
    82c8:	4b0f      	ldr	r3, [pc, #60]	; (8308 <flash_cmd_launch+0x40>)
    82ca:	2230      	movs	r2, #48	; 0x30
    82cc:	701a      	strb	r2, [r3, #0]
__get_PRIMASK():
F:\WorkSpace\AHL-GEC-EXP\Temp\UART_发送01字符控制灯亮_不使用组帧\02_CPU/core_cmFunc.h:484
 */
__attribute__( ( always_inline ) ) __STATIC_INLINE uint32_t __get_PRIMASK(void)
{
  uint32_t result;

  __ASM volatile ("MRS %0, primask" : "=r" (result) );
    82ce:	f3ef 8310 	mrs	r3, PRIMASK
flash_cmd_launch():
F:\WorkSpace\AHL-GEC-EXP\Temp\UART_发送01字符控制灯亮_不使用组帧\Debug/srcc/flash.c:343
    if(__get_PRIMASK() == 0U)
    82d2:	2b00      	cmp	r3, #0
    82d4:	d112      	bne.n	82fc <flash_cmd_launch+0x34>
__disable_irq():
F:\WorkSpace\AHL-GEC-EXP\Temp\UART_发送01字符控制灯亮_不使用组帧\02_CPU/core_cmFunc.h:344
  __ASM volatile ("cpsid i" : : : "memory");
    82d6:	b672      	cpsid	i
flash_cmd_launch():
F:\WorkSpace\AHL-GEC-EXP\Temp\UART_发送01字符控制灯亮_不使用组帧\Debug/srcc/flash.c:346
    {
    	__disable_irq();  //关总中断
    	irq_flag = 1;
    82d8:	3a2f      	subs	r2, #47	; 0x2f
F:\WorkSpace\AHL-GEC-EXP\Temp\UART_发送01字符控制灯亮_不使用组帧\Debug/srcc/flash.c:349
    }
    // 启动命令
    FTFA_FSTAT = CCIF;
    82da:	4b0b      	ldr	r3, [pc, #44]	; (8308 <flash_cmd_launch+0x40>)
    82dc:	2180      	movs	r1, #128	; 0x80
    82de:	7019      	strb	r1, [r3, #0]
F:\WorkSpace\AHL-GEC-EXP\Temp\UART_发送01字符控制灯亮_不使用组帧\Debug/srcc/flash.c:351 (discriminator 1)
    // 等待命令结束
    while(!(FTFA_FSTAT & CCIF));
    82e0:	4b09      	ldr	r3, [pc, #36]	; (8308 <flash_cmd_launch+0x40>)
    82e2:	781b      	ldrb	r3, [r3, #0]
    82e4:	b25b      	sxtb	r3, r3
    82e6:	2b00      	cmp	r3, #0
    82e8:	dafa      	bge.n	82e0 <flash_cmd_launch+0x18>
F:\WorkSpace\AHL-GEC-EXP\Temp\UART_发送01字符控制灯亮_不使用组帧\Debug/srcc/flash.c:352
    if(irq_flag == 1)
    82ea:	2a01      	cmp	r2, #1
    82ec:	d008      	beq.n	8300 <flash_cmd_launch+0x38>
F:\WorkSpace\AHL-GEC-EXP\Temp\UART_发送01字符控制灯亮_不使用组帧\Debug/srcc/flash.c:357
    {
    	__enable_irq();  //开总中断
    }
    // 检查错误标志
    if(FTFA_FSTAT & (ACCERR | FPVIOL | MGSTAT0))
    82ee:	4b06      	ldr	r3, [pc, #24]	; (8308 <flash_cmd_launch+0x40>)
    82f0:	781a      	ldrb	r2, [r3, #0]
    82f2:	2331      	movs	r3, #49	; 0x31
    82f4:	421a      	tst	r2, r3
    82f6:	d105      	bne.n	8304 <flash_cmd_launch+0x3c>
F:\WorkSpace\AHL-GEC-EXP\Temp\UART_发送01字符控制灯亮_不使用组帧\Debug/srcc/flash.c:359
        return 1 ; //执行命令出错
    return 0; //执行命令成功
    82f8:	2000      	movs	r0, #0
F:\WorkSpace\AHL-GEC-EXP\Temp\UART_发送01字符控制灯亮_不使用组帧\Debug/srcc/flash.c:360
}
    82fa:	4770      	bx	lr
F:\WorkSpace\AHL-GEC-EXP\Temp\UART_发送01字符控制灯亮_不使用组帧\Debug/srcc/flash.c:340
	uint8_t irq_flag=0;
    82fc:	2200      	movs	r2, #0
    82fe:	e7ec      	b.n	82da <flash_cmd_launch+0x12>
__enable_irq():
F:\WorkSpace\AHL-GEC-EXP\Temp\UART_发送01字符控制灯亮_不使用组帧\02_CPU/core_cmFunc.h:333
  __ASM volatile ("cpsie i" : : : "memory");
    8300:	b662      	cpsie	i
F:\WorkSpace\AHL-GEC-EXP\Temp\UART_发送01字符控制灯亮_不使用组帧\02_CPU/core_cmFunc.h:334
}
    8302:	e7f4      	b.n	82ee <flash_cmd_launch+0x26>
flash_cmd_launch():
F:\WorkSpace\AHL-GEC-EXP\Temp\UART_发送01字符控制灯亮_不使用组帧\Debug/srcc/flash.c:358
        return 1 ; //执行命令出错
    8304:	2001      	movs	r0, #1
    8306:	e7f8      	b.n	82fa <flash_cmd_launch+0x32>
    8308:	40020000 	.word	0x40020000

0000830c <flash_erase>:
flash_erase():
F:\WorkSpace\AHL-GEC-EXP\Temp\UART_发送01字符控制灯亮_不使用组帧\Debug/srcc/flash.c:50
{
    830c:	b510      	push	{r4, lr}
F:\WorkSpace\AHL-GEC-EXP\Temp\UART_发送01字符控制灯亮_不使用组帧\Debug/srcc/flash.c:57
    dest.word    = (uint32_t)(sect*(1<<10));
    830e:	0284      	lsls	r4, r0, #10
F:\WorkSpace\AHL-GEC-EXP\Temp\UART_发送01字符控制灯亮_不使用组帧\Debug/srcc/flash.c:60
    FTFA_FCCOB0 = ERSSCR; // 擦除扇区命令
    8310:	4b16      	ldr	r3, [pc, #88]	; (836c <flash_erase+0x60>)
    8312:	2209      	movs	r2, #9
    8314:	71da      	strb	r2, [r3, #7]
F:\WorkSpace\AHL-GEC-EXP\Temp\UART_发送01字符控制灯亮_不使用组帧\Debug/srcc/flash.c:63
    FTFA_FCCOB1 = dest.byte[2];
    8316:	0482      	lsls	r2, r0, #18
    8318:	0e12      	lsrs	r2, r2, #24
    831a:	719a      	strb	r2, [r3, #6]
F:\WorkSpace\AHL-GEC-EXP\Temp\UART_发送01字符控制灯亮_不使用组帧\Debug/srcc/flash.c:64
    FTFA_FCCOB2 = dest.byte[1];
    831c:	0680      	lsls	r0, r0, #26
    831e:	0e00      	lsrs	r0, r0, #24
    8320:	7158      	strb	r0, [r3, #5]
F:\WorkSpace\AHL-GEC-EXP\Temp\UART_发送01字符控制灯亮_不使用组帧\Debug/srcc/flash.c:65
    FTFA_FCCOB3 = dest.byte[0];
    8322:	2200      	movs	r2, #0
    8324:	711a      	strb	r2, [r3, #4]
F:\WorkSpace\AHL-GEC-EXP\Temp\UART_发送01字符控制灯亮_不使用组帧\Debug/srcc/flash.c:68
    if(1 == flash_cmd_launch())    //若执行命令出现错误
    8326:	f7ff ffcf 	bl	82c8 <flash_cmd_launch>
    832a:	2801      	cmp	r0, #1
    832c:	d01a      	beq.n	8364 <flash_erase+0x58>
F:\WorkSpace\AHL-GEC-EXP\Temp\UART_发送01字符控制灯亮_不使用组帧\Debug/srcc/flash.c:73
    if(dest.word < 0x400)
    832e:	2380      	movs	r3, #128	; 0x80
    8330:	00db      	lsls	r3, r3, #3
    8332:	429c      	cmp	r4, r3
    8334:	d301      	bcc.n	833a <flash_erase+0x2e>
F:\WorkSpace\AHL-GEC-EXP\Temp\UART_发送01字符控制灯亮_不使用组帧\Debug/srcc/flash.c:91
    return 0;  //成功返回
    8336:	2000      	movs	r0, #0
F:\WorkSpace\AHL-GEC-EXP\Temp\UART_发送01字符控制灯亮_不使用组帧\Debug/srcc/flash.c:92
}
    8338:	bd10      	pop	{r4, pc}
F:\WorkSpace\AHL-GEC-EXP\Temp\UART_发送01字符控制灯亮_不使用组帧\Debug/srcc/flash.c:76
        FTFA_FCCOB0 = PGM4; 
    833a:	4b0c      	ldr	r3, [pc, #48]	; (836c <flash_erase+0x60>)
    833c:	2206      	movs	r2, #6
    833e:	71da      	strb	r2, [r3, #7]
F:\WorkSpace\AHL-GEC-EXP\Temp\UART_发送01字符控制灯亮_不使用组帧\Debug/srcc/flash.c:78
        FTFA_FCCOB1 = 0x00;
    8340:	2200      	movs	r2, #0
    8342:	719a      	strb	r2, [r3, #6]
F:\WorkSpace\AHL-GEC-EXP\Temp\UART_发送01字符控制灯亮_不使用组帧\Debug/srcc/flash.c:79
        FTFA_FCCOB2 = 0x04;
    8344:	3204      	adds	r2, #4
    8346:	715a      	strb	r2, [r3, #5]
F:\WorkSpace\AHL-GEC-EXP\Temp\UART_发送01字符控制灯亮_不使用组帧\Debug/srcc/flash.c:80
        FTFA_FCCOB3 = 0x0C;
    8348:	3208      	adds	r2, #8
    834a:	711a      	strb	r2, [r3, #4]
F:\WorkSpace\AHL-GEC-EXP\Temp\UART_发送01字符控制灯亮_不使用组帧\Debug/srcc/flash.c:82
        FTFA_FCCOB4 = 0xFF;
    834c:	32f3      	adds	r2, #243	; 0xf3
    834e:	72da      	strb	r2, [r3, #11]
F:\WorkSpace\AHL-GEC-EXP\Temp\UART_发送01字符控制灯亮_不使用组帧\Debug/srcc/flash.c:83
        FTFA_FCCOB5 = 0xFF;
    8350:	729a      	strb	r2, [r3, #10]
F:\WorkSpace\AHL-GEC-EXP\Temp\UART_发送01字符控制灯亮_不使用组帧\Debug/srcc/flash.c:84
        FTFA_FCCOB6 = 0xFF;
    8352:	725a      	strb	r2, [r3, #9]
F:\WorkSpace\AHL-GEC-EXP\Temp\UART_发送01字符控制灯亮_不使用组帧\Debug/srcc/flash.c:85
        FTFA_FCCOB7 = 0xFE;
    8354:	3a01      	subs	r2, #1
    8356:	721a      	strb	r2, [r3, #8]
F:\WorkSpace\AHL-GEC-EXP\Temp\UART_发送01字符控制灯亮_不使用组帧\Debug/srcc/flash.c:87
        if(1 == flash_cmd_launch())  //若执行命令出现错误
    8358:	f7ff ffb6 	bl	82c8 <flash_cmd_launch>
    835c:	2801      	cmp	r0, #1
    835e:	d003      	beq.n	8368 <flash_erase+0x5c>
F:\WorkSpace\AHL-GEC-EXP\Temp\UART_发送01字符控制灯亮_不使用组帧\Debug/srcc/flash.c:91
    return 0;  //成功返回
    8360:	2000      	movs	r0, #0
    8362:	e7e9      	b.n	8338 <flash_erase+0x2c>
F:\WorkSpace\AHL-GEC-EXP\Temp\UART_发送01字符控制灯亮_不使用组帧\Debug/srcc/flash.c:69
        return 1;     //擦除命令错误
    8364:	2001      	movs	r0, #1
    8366:	e7e7      	b.n	8338 <flash_erase+0x2c>
F:\WorkSpace\AHL-GEC-EXP\Temp\UART_发送01字符控制灯亮_不使用组帧\Debug/srcc/flash.c:88
            return 2;   //解锁命令错误
    8368:	2002      	movs	r0, #2
    836a:	e7e5      	b.n	8338 <flash_erase+0x2c>
    836c:	40020000 	.word	0x40020000

00008370 <flash_write_physical>:
flash_write_physical():
F:\WorkSpace\AHL-GEC-EXP\Temp\UART_发送01字符控制灯亮_不使用组帧\Debug/srcc/flash.c:147
{
    8370:	b5f8      	push	{r3, r4, r5, r6, r7, lr}
    8372:	000f      	movs	r7, r1
    8374:	0014      	movs	r4, r2
F:\WorkSpace\AHL-GEC-EXP\Temp\UART_发送01字符控制灯亮_不使用组帧\Debug/srcc/flash.c:156
    FTFA_FCCOB0 = PGM4;
    8376:	4b12      	ldr	r3, [pc, #72]	; (83c0 <flash_write_physical+0x50>)
    8378:	2206      	movs	r2, #6
    837a:	71da      	strb	r2, [r3, #7]
F:\WorkSpace\AHL-GEC-EXP\Temp\UART_发送01字符控制灯亮_不使用组帧\Debug/srcc/flash.c:157
    dest.word = destaddr;
    837c:	0005      	movs	r5, r0
F:\WorkSpace\AHL-GEC-EXP\Temp\UART_发送01字符控制灯亮_不使用组帧\Debug/srcc/flash.c:158
    for(size=0; size<N; size+=4, dest.word+=4, buf+=4)
    837e:	2600      	movs	r6, #0
F:\WorkSpace\AHL-GEC-EXP\Temp\UART_发送01字符控制灯亮_不使用组帧\Debug/srcc/flash.c:158 (discriminator 1)
    8380:	42b7      	cmp	r7, r6
    8382:	d918      	bls.n	83b6 <flash_write_physical+0x46>
F:\WorkSpace\AHL-GEC-EXP\Temp\UART_发送01字符控制灯亮_不使用组帧\Debug/srcc/flash.c:161
        FTFA_FCCOB1 = dest.byte[2];
    8384:	022a      	lsls	r2, r5, #8
    8386:	0e12      	lsrs	r2, r2, #24
    8388:	4b0d      	ldr	r3, [pc, #52]	; (83c0 <flash_write_physical+0x50>)
    838a:	719a      	strb	r2, [r3, #6]
F:\WorkSpace\AHL-GEC-EXP\Temp\UART_发送01字符控制灯亮_不使用组帧\Debug/srcc/flash.c:162
        FTFA_FCCOB2 = dest.byte[1];
    838c:	042a      	lsls	r2, r5, #16
    838e:	0e12      	lsrs	r2, r2, #24
    8390:	715a      	strb	r2, [r3, #5]
F:\WorkSpace\AHL-GEC-EXP\Temp\UART_发送01字符控制灯亮_不使用组帧\Debug/srcc/flash.c:163
        FTFA_FCCOB3 = dest.byte[0];
    8392:	b2ea      	uxtb	r2, r5
    8394:	711a      	strb	r2, [r3, #4]
F:\WorkSpace\AHL-GEC-EXP\Temp\UART_发送01字符控制灯亮_不使用组帧\Debug/srcc/flash.c:166
        FTFA_FCCOB4 = buf[3];//大端寻址
    8396:	78e2      	ldrb	r2, [r4, #3]
    8398:	72da      	strb	r2, [r3, #11]
F:\WorkSpace\AHL-GEC-EXP\Temp\UART_发送01字符控制灯亮_不使用组帧\Debug/srcc/flash.c:167
        FTFA_FCCOB5 = buf[2];
    839a:	78a2      	ldrb	r2, [r4, #2]
    839c:	729a      	strb	r2, [r3, #10]
F:\WorkSpace\AHL-GEC-EXP\Temp\UART_发送01字符控制灯亮_不使用组帧\Debug/srcc/flash.c:168
        FTFA_FCCOB6 = buf[1];
    839e:	7862      	ldrb	r2, [r4, #1]
    83a0:	725a      	strb	r2, [r3, #9]
F:\WorkSpace\AHL-GEC-EXP\Temp\UART_发送01字符控制灯亮_不使用组帧\Debug/srcc/flash.c:169
        FTFA_FCCOB7 = buf[0];
    83a2:	7822      	ldrb	r2, [r4, #0]
    83a4:	721a      	strb	r2, [r3, #8]
F:\WorkSpace\AHL-GEC-EXP\Temp\UART_发送01字符控制灯亮_不使用组帧\Debug/srcc/flash.c:171
        if(1 == flash_cmd_launch())
    83a6:	f7ff ff8f 	bl	82c8 <flash_cmd_launch>
    83aa:	2801      	cmp	r0, #1
    83ac:	d005      	beq.n	83ba <flash_write_physical+0x4a>
F:\WorkSpace\AHL-GEC-EXP\Temp\UART_发送01字符控制灯亮_不使用组帧\Debug/srcc/flash.c:158 (discriminator 2)
    for(size=0; size<N; size+=4, dest.word+=4, buf+=4)
    83ae:	3604      	adds	r6, #4
    83b0:	3504      	adds	r5, #4
    83b2:	3404      	adds	r4, #4
    83b4:	e7e4      	b.n	8380 <flash_write_physical+0x10>
F:\WorkSpace\AHL-GEC-EXP\Temp\UART_发送01字符控制灯亮_不使用组帧\Debug/srcc/flash.c:175
    return 0;  //成功执行
    83b6:	2000      	movs	r0, #0
F:\WorkSpace\AHL-GEC-EXP\Temp\UART_发送01字符控制灯亮_不使用组帧\Debug/srcc/flash.c:176
}
    83b8:	bdf8      	pop	{r3, r4, r5, r6, r7, pc}
F:\WorkSpace\AHL-GEC-EXP\Temp\UART_发送01字符控制灯亮_不使用组帧\Debug/srcc/flash.c:172
            return 2;  //写入命令错误
    83ba:	2002      	movs	r0, #2
    83bc:	e7fc      	b.n	83b8 <flash_write_physical+0x48>
    83be:	46c0      	nop			; (mov r8, r8)
    83c0:	40020000 	.word	0x40020000

000083c4 <gpio_get_port_pin>:
gpio_get_port_pin():
F:\WorkSpace\AHL-GEC-EXP\Temp\UART_发送01字符控制灯亮_不使用组帧\Debug/srcc/gpio.c:348
//功能概要：将传进参数port_pin进行解析，得出具体端口号与引脚号，分别赋值给port与pin,返回。
//       （例：(PTB_NUM)|(9)解析为PORTB与9，并将其分别赋值给port与pin）。
//=====================================================================
void gpio_get_port_pin(uint16_t port_pin,uint8_t* port,uint8_t* pin)
{
	*port = (port_pin>>8);
    83c4:	0a03      	lsrs	r3, r0, #8
    83c6:	700b      	strb	r3, [r1, #0]
F:\WorkSpace\AHL-GEC-EXP\Temp\UART_发送01字符控制灯亮_不使用组帧\Debug/srcc/gpio.c:349
	*pin = port_pin;
    83c8:	7010      	strb	r0, [r2, #0]
F:\WorkSpace\AHL-GEC-EXP\Temp\UART_发送01字符控制灯亮_不使用组帧\Debug/srcc/gpio.c:350
}
    83ca:	4770      	bx	lr

000083cc <gpio_set>:
gpio_set():
F:\WorkSpace\AHL-GEC-EXP\Temp\UART_发送01字符控制灯亮_不使用组帧\Debug/srcc/gpio.c:67
{
    83cc:	b530      	push	{r4, r5, lr}
    83ce:	b083      	sub	sp, #12
    83d0:	000c      	movs	r4, r1
F:\WorkSpace\AHL-GEC-EXP\Temp\UART_发送01字符控制灯亮_不使用组帧\Debug/srcc/gpio.c:72
	gpio_get_port_pin(port_pin,&port,&pin);
    83d2:	466b      	mov	r3, sp
    83d4:	1ddd      	adds	r5, r3, #7
    83d6:	1d9a      	adds	r2, r3, #6
    83d8:	0029      	movs	r1, r5
    83da:	f7ff fff3 	bl	83c4 <gpio_get_port_pin>
F:\WorkSpace\AHL-GEC-EXP\Temp\UART_发送01字符控制灯亮_不使用组帧\Debug/srcc/gpio.c:75
	gpio_ptr = GPIO_ARR[port];
    83de:	782b      	ldrb	r3, [r5, #0]
    83e0:	009b      	lsls	r3, r3, #2
    83e2:	4a0a      	ldr	r2, [pc, #40]	; (840c <gpio_set+0x40>)
    83e4:	589b      	ldr	r3, [r3, r2]
F:\WorkSpace\AHL-GEC-EXP\Temp\UART_发送01字符控制灯亮_不使用组帧\Debug/srcc/gpio.c:78
	if(state == 1)
    83e6:	2c01      	cmp	r4, #1
    83e8:	d008      	beq.n	83fc <gpio_set+0x30>
F:\WorkSpace\AHL-GEC-EXP\Temp\UART_发送01字符控制灯亮_不使用组帧\Debug/srcc/gpio.c:84
		BCLR(pin,GPIO_PDOR_REG(gpio_ptr));
    83ea:	681a      	ldr	r2, [r3, #0]
    83ec:	4669      	mov	r1, sp
    83ee:	7988      	ldrb	r0, [r1, #6]
    83f0:	2101      	movs	r1, #1
    83f2:	4081      	lsls	r1, r0
    83f4:	438a      	bics	r2, r1
    83f6:	601a      	str	r2, [r3, #0]
F:\WorkSpace\AHL-GEC-EXP\Temp\UART_发送01字符控制灯亮_不使用组帧\Debug/srcc/gpio.c:86
}
    83f8:	b003      	add	sp, #12
    83fa:	bd30      	pop	{r4, r5, pc}
F:\WorkSpace\AHL-GEC-EXP\Temp\UART_发送01字符控制灯亮_不使用组帧\Debug/srcc/gpio.c:80
		BSET(pin,GPIO_PDOR_REG(gpio_ptr));
    83fc:	681a      	ldr	r2, [r3, #0]
    83fe:	4669      	mov	r1, sp
    8400:	7988      	ldrb	r0, [r1, #6]
    8402:	2101      	movs	r1, #1
    8404:	4081      	lsls	r1, r0
    8406:	430a      	orrs	r2, r1
    8408:	601a      	str	r2, [r3, #0]
    840a:	e7f5      	b.n	83f8 <gpio_set+0x2c>
    840c:	00009060 	.word	0x00009060

00008410 <gpio_init>:
gpio_init():
F:\WorkSpace\AHL-GEC-EXP\Temp\UART_发送01字符控制灯亮_不使用组帧\Debug/srcc/gpio.c:31
{
    8410:	b5f0      	push	{r4, r5, r6, r7, lr}
    8412:	b083      	sub	sp, #12
    8414:	0006      	movs	r6, r0
    8416:	000f      	movs	r7, r1
    8418:	0015      	movs	r5, r2
F:\WorkSpace\AHL-GEC-EXP\Temp\UART_发送01字符控制灯亮_不使用组帧\Debug/srcc/gpio.c:37
	gpio_get_port_pin(port_pin,&port,&pin);
    841a:	466b      	mov	r3, sp
    841c:	1ddc      	adds	r4, r3, #7
    841e:	1d9a      	adds	r2, r3, #6
    8420:	0021      	movs	r1, r4
    8422:	f7ff ffcf 	bl	83c4 <gpio_get_port_pin>
F:\WorkSpace\AHL-GEC-EXP\Temp\UART_发送01字符控制灯亮_不使用组帧\Debug/srcc/gpio.c:39
	port_ptr = PORT_ARR[port];        //获得PORT模块相应口基地址
    8426:	7822      	ldrb	r2, [r4, #0]
    8428:	0092      	lsls	r2, r2, #2
    842a:	4b15      	ldr	r3, [pc, #84]	; (8480 <gpio_init+0x70>)
    842c:	58d3      	ldr	r3, [r2, r3]
F:\WorkSpace\AHL-GEC-EXP\Temp\UART_发送01字符控制灯亮_不使用组帧\Debug/srcc/gpio.c:40
	gpio_ptr = GPIO_ARR[port];        //获得GPIO模块相应口基地址
    842e:	4915      	ldr	r1, [pc, #84]	; (8484 <gpio_init+0x74>)
    8430:	5850      	ldr	r0, [r2, r1]
F:\WorkSpace\AHL-GEC-EXP\Temp\UART_发送01字符控制灯亮_不使用组帧\Debug/srcc/gpio.c:43
	PORT_PCR_REG(port_ptr,pin) &= ~PORT_PCR_MUX_MASK;//置D10-D8=000
    8432:	466a      	mov	r2, sp
    8434:	7992      	ldrb	r2, [r2, #6]
    8436:	0092      	lsls	r2, r2, #2
    8438:	58d1      	ldr	r1, [r2, r3]
    843a:	4c13      	ldr	r4, [pc, #76]	; (8488 <gpio_init+0x78>)
    843c:	4021      	ands	r1, r4
    843e:	50d1      	str	r1, [r2, r3]
F:\WorkSpace\AHL-GEC-EXP\Temp\UART_发送01字符控制灯亮_不使用组帧\Debug/srcc/gpio.c:44
	PORT_PCR_REG(port_ptr,pin) |= PORT_PCR_MUX(1);//置D10-D8=001
    8440:	466a      	mov	r2, sp
    8442:	7994      	ldrb	r4, [r2, #6]
    8444:	00a4      	lsls	r4, r4, #2
    8446:	58e1      	ldr	r1, [r4, r3]
    8448:	2280      	movs	r2, #128	; 0x80
    844a:	0052      	lsls	r2, r2, #1
    844c:	430a      	orrs	r2, r1
    844e:	50e2      	str	r2, [r4, r3]
F:\WorkSpace\AHL-GEC-EXP\Temp\UART_发送01字符控制灯亮_不使用组帧\Debug/srcc/gpio.c:47
	if(dir == 1)  //输出引脚
    8450:	2f01      	cmp	r7, #1
    8452:	d008      	beq.n	8466 <gpio_init+0x56>
F:\WorkSpace\AHL-GEC-EXP\Temp\UART_发送01字符控制灯亮_不使用组帧\Debug/srcc/gpio.c:56
		BCLR(pin,GPIO_PDDR_REG(gpio_ptr));//数据方向寄存器的pin位=0，定义为输入
    8454:	6943      	ldr	r3, [r0, #20]
    8456:	466a      	mov	r2, sp
    8458:	7991      	ldrb	r1, [r2, #6]
    845a:	2201      	movs	r2, #1
    845c:	408a      	lsls	r2, r1
    845e:	4393      	bics	r3, r2
    8460:	6143      	str	r3, [r0, #20]
F:\WorkSpace\AHL-GEC-EXP\Temp\UART_发送01字符控制灯亮_不使用组帧\Debug/srcc/gpio.c:58
}
    8462:	b003      	add	sp, #12
    8464:	bdf0      	pop	{r4, r5, r6, r7, pc}
F:\WorkSpace\AHL-GEC-EXP\Temp\UART_发送01字符控制灯亮_不使用组帧\Debug/srcc/gpio.c:50
		BSET(pin,GPIO_PDDR_REG(gpio_ptr));
    8466:	6943      	ldr	r3, [r0, #20]
    8468:	466a      	mov	r2, sp
    846a:	7991      	ldrb	r1, [r2, #6]
    846c:	2201      	movs	r2, #1
    846e:	408a      	lsls	r2, r1
    8470:	4313      	orrs	r3, r2
    8472:	6143      	str	r3, [r0, #20]
F:\WorkSpace\AHL-GEC-EXP\Temp\UART_发送01字符控制灯亮_不使用组帧\Debug/srcc/gpio.c:52
		gpio_set(port_pin,state);   
    8474:	0029      	movs	r1, r5
    8476:	0030      	movs	r0, r6
    8478:	f7ff ffa8 	bl	83cc <gpio_set>
    847c:	e7f1      	b.n	8462 <gpio_init+0x52>
    847e:	46c0      	nop			; (mov r8, r8)
    8480:	00009074 	.word	0x00009074
    8484:	00009060 	.word	0x00009060
    8488:	fffff8ff 	.word	0xfffff8ff

0000848c <Vectors_Init>:
Vectors_Init():
F:\WorkSpace\AHL-GEC-EXP\Temp\UART_发送01字符控制灯亮_不使用组帧\Debug/srcc/gec.c:15
//参数说明：无
//功能概要：User对BIOS中断向量表的部分继承,构件库函数指针初始化
//修改信息：WYH，20200805，规范
//======================================================================
void  Vectors_Init()
{
    848c:	b580      	push	{r7, lr}
    848e:	4f1e      	ldr	r7, [pc, #120]	; (8508 <Vectors_Init+0x7c>)
    8490:	44bd      	add	sp, r7
F:\WorkSpace\AHL-GEC-EXP\Temp\UART_发送01字符控制灯亮_不使用组帧\Debug/srcc/gec.c:19
    //有用户程序，编译本段代码
    #if (GEC_USER_SECTOR_START!=0)   
    //（1）若Flash倒数2扇区的前24字节为空，则写入设备序列号及软件版本号初值
    if(flash_isempty(MCU_SECTOR_NUM-1,24))
    8492:	2118      	movs	r1, #24
    8494:	203f      	movs	r0, #63	; 0x3f
    8496:	f7ff ff07 	bl	82a8 <flash_isempty>
    849a:	2800      	cmp	r0, #0
    849c:	d11a      	bne.n	84d4 <Vectors_Init+0x48>
F:\WorkSpace\AHL-GEC-EXP\Temp\UART_发送01字符控制灯亮_不使用组帧\Debug/srcc/gec.c:28
    }
    //（2）继承BIOS的串口中断              
    void ** bios=MCU_FLASH_ADDR_START;   //向量表起始地址  
    uint32_t user[MCU_SECTORSIZE/4];     //向量表变量数组
    //读取USER中断向量表各中断处理程序地址赋给user数组
    flash_read_physical((uint8_t *)user,GEC_USER_SECTOR_START*
    849e:	2280      	movs	r2, #128	; 0x80
    84a0:	21d0      	movs	r1, #208	; 0xd0
    84a2:	00d2      	lsls	r2, r2, #3
    84a4:	01c9      	lsls	r1, r1, #7
    84a6:	a802      	add	r0, sp, #8
    84a8:	f7ff fefa 	bl	82a0 <flash_read_physical>
F:\WorkSpace\AHL-GEC-EXP\Temp\UART_发送01字符控制灯亮_不使用组帧\Debug/srcc/gec.c:32
    MCU_SECTORSIZE+MCU_FLASH_ADDR_START,MCU_SECTORSIZE);
    //判断USER中串口更新中断是否为BIOS对应中断地址。若是，则不作操作；否则修改
    //为BIOS对应中断地址
    if(user[BIOS_UART_UPDATE_IRQn] != (uint32_t)bios[BIOS_UART_UPDATE_IRQn])
    84ac:	2378      	movs	r3, #120	; 0x78
    84ae:	681b      	ldr	r3, [r3, #0]
    84b0:	9a20      	ldr	r2, [sp, #128]	; 0x80
    84b2:	429a      	cmp	r2, r3
    84b4:	d115      	bne.n	84e2 <Vectors_Init+0x56>
F:\WorkSpace\AHL-GEC-EXP\Temp\UART_发送01字符控制灯亮_不使用组帧\Debug/srcc/gec.c:44
        flash_write_physical(GEC_USER_SECTOR_START*MCU_SECTORSIZE+
        MCU_FLASH_ADDR_START,MCU_SECTORSIZE,(uint8_t *)user);
    }
    
    //（3）中断向量表指针重定向到USER程序的中断向量表
    SCB->VTOR = (uint32_t)(GEC_USER_SECTOR_START*MCU_SECTORSIZE+
    84b6:	4b15      	ldr	r3, [pc, #84]	; (850c <Vectors_Init+0x80>)
    84b8:	22d0      	movs	r2, #208	; 0xd0
    84ba:	01d2      	lsls	r2, r2, #7
    84bc:	609a      	str	r2, [r3, #8]
F:\WorkSpace\AHL-GEC-EXP\Temp\UART_发送01字符控制灯亮_不使用组帧\Debug/srcc/gec.c:47
    MCU_FLASH_ADDR_START);  
    //（4）给component_fun赋值，SYSTEM_FUNCTION函数用
    component_fun=(void **)(MCU_FLASH_ADDR_START+
    84be:	4b14      	ldr	r3, [pc, #80]	; (8510 <Vectors_Init+0x84>)
    84c0:	22e0      	movs	r2, #224	; 0xe0
    84c2:	0192      	lsls	r2, r2, #6
    84c4:	601a      	str	r2, [r3, #0]
F:\WorkSpace\AHL-GEC-EXP\Temp\UART_发送01字符控制灯亮_不使用组帧\Debug/srcc/gec.c:50
    GEC_COMPONENT_LST_START*MCU_SECTORSIZE); 
    //（5）printf提示             
    printf("  【User提示】：将进入User的main()执行...\r\n");
    84c6:	4813      	ldr	r0, [pc, #76]	; (8514 <Vectors_Init+0x88>)
    84c8:	f000 fd86 	bl	8fd8 <myprintf>
F:\WorkSpace\AHL-GEC-EXP\Temp\UART_发送01字符控制灯亮_不使用组帧\Debug/srcc/gec.c:53
    
    #endif
}
    84cc:	2381      	movs	r3, #129	; 0x81
    84ce:	00db      	lsls	r3, r3, #3
    84d0:	449d      	add	sp, r3
    84d2:	bd80      	pop	{r7, pc}
F:\WorkSpace\AHL-GEC-EXP\Temp\UART_发送01字符控制灯亮_不使用组帧\Debug/srcc/gec.c:21
        flash_write_physical((MCU_SECTOR_NUM-1)*MCU_SECTORSIZE+
    84d4:	20fc      	movs	r0, #252	; 0xfc
    84d6:	4a10      	ldr	r2, [pc, #64]	; (8518 <Vectors_Init+0x8c>)
    84d8:	2118      	movs	r1, #24
    84da:	0200      	lsls	r0, r0, #8
    84dc:	f7ff ff48 	bl	8370 <flash_write_physical>
    84e0:	e7dd      	b.n	849e <Vectors_Init+0x12>
F:\WorkSpace\AHL-GEC-EXP\Temp\UART_发送01字符控制灯亮_不使用组帧\Debug/srcc/gec.c:35
        flash_erase(GEC_USER_SECTOR_START);
    84e2:	201a      	movs	r0, #26
    84e4:	f7ff ff12 	bl	830c <flash_erase>
F:\WorkSpace\AHL-GEC-EXP\Temp\UART_发送01字符控制灯亮_不使用组帧\Debug/srcc/gec.c:37
        user[2]=(uint32_t)bios[2];     //【20200903】
    84e8:	2308      	movs	r3, #8
    84ea:	681b      	ldr	r3, [r3, #0]
    84ec:	9304      	str	r3, [sp, #16]
F:\WorkSpace\AHL-GEC-EXP\Temp\UART_发送01字符控制灯亮_不使用组帧\Debug/srcc/gec.c:38
        user[BIOS_UART_UPDATE_IRQn]=(uint32_t)bios[BIOS_UART_UPDATE_IRQn];
    84ee:	2378      	movs	r3, #120	; 0x78
    84f0:	681b      	ldr	r3, [r3, #0]
    84f2:	9301      	str	r3, [sp, #4]
    84f4:	9320      	str	r3, [sp, #128]	; 0x80
F:\WorkSpace\AHL-GEC-EXP\Temp\UART_发送01字符控制灯亮_不使用组帧\Debug/srcc/gec.c:39
        flash_write_physical(GEC_USER_SECTOR_START*MCU_SECTORSIZE+
    84f6:	2180      	movs	r1, #128	; 0x80
    84f8:	20d0      	movs	r0, #208	; 0xd0
    84fa:	aa02      	add	r2, sp, #8
    84fc:	00c9      	lsls	r1, r1, #3
    84fe:	01c0      	lsls	r0, r0, #7
    8500:	f7ff ff36 	bl	8370 <flash_write_physical>
    8504:	e7d7      	b.n	84b6 <Vectors_Init+0x2a>
    8506:	46c0      	nop			; (mov r8, r8)
    8508:	fffffbf8 	.word	0xfffffbf8
    850c:	e000ed00 	.word	0xe000ed00
    8510:	20000424 	.word	0x20000424
    8514:	000090a4 	.word	0x000090a4
    8518:	00009088 	.word	0x00009088

0000851c <uart_is_uartNo>:
uart_is_uartNo():
F:\WorkSpace\AHL-GEC-EXP\Temp\UART_发送01字符控制灯亮_不使用组帧\Debug/srcc/uart.c:539
//参数说明：串口号uartNo  :UART_0、UART_1、UART_2
//功能概要：为程序健壮性而判断uartNo是否在串口数字范围内
//=====================================================================
uint8_t uart_is_uartNo(uint8_t uartNo)
{
    if(uartNo < UART_0 || uartNo > UART_2)
    851c:	2802      	cmp	r0, #2
    851e:	d901      	bls.n	8524 <uart_is_uartNo+0x8>
F:\WorkSpace\AHL-GEC-EXP\Temp\UART_发送01字符控制灯亮_不使用组帧\Debug/srcc/uart.c:540
        return 0;
    8520:	2000      	movs	r0, #0
F:\WorkSpace\AHL-GEC-EXP\Temp\UART_发送01字符控制灯亮_不使用组帧\Debug/srcc/uart.c:543
    else
        return 1;
}
    8522:	4770      	bx	lr
F:\WorkSpace\AHL-GEC-EXP\Temp\UART_发送01字符控制灯亮_不使用组帧\Debug/srcc/uart.c:542
        return 1;
    8524:	2001      	movs	r0, #1
    8526:	e7fc      	b.n	8522 <uart_is_uartNo+0x6>

00008528 <uart_init>:
uart_init():
F:\WorkSpace\AHL-GEC-EXP\Temp\UART_发送01字符控制灯亮_不使用组帧\Debug/srcc/uart.c:24
{
    8528:	b570      	push	{r4, r5, r6, lr}
    852a:	0004      	movs	r4, r0
    852c:	000d      	movs	r5, r1
F:\WorkSpace\AHL-GEC-EXP\Temp\UART_发送01字符控制灯亮_不使用组帧\Debug/srcc/uart.c:32
    if(!uart_is_uartNo(uartNo))
    852e:	f7ff fff5 	bl	851c <uart_is_uartNo>
    8532:	2800      	cmp	r0, #0
    8534:	d048      	beq.n	85c8 <uart_init+0xa0>
F:\WorkSpace\AHL-GEC-EXP\Temp\UART_发送01字符控制灯亮_不使用组帧\Debug/srcc/uart.c:38
    if(uartNo==0)
    8536:	2c00      	cmp	r4, #0
    8538:	d147      	bne.n	85ca <uart_init+0xa2>
F:\WorkSpace\AHL-GEC-EXP\Temp\UART_发送01字符控制灯亮_不使用组帧\Debug/srcc/uart.c:41
        SIM_SOPT2 |= SIM_SOPT2_UART0SRC(0x1);
    853a:	4a46      	ldr	r2, [pc, #280]	; (8654 <uart_init+0x12c>)
    853c:	4b46      	ldr	r3, [pc, #280]	; (8658 <uart_init+0x130>)
    853e:	58d0      	ldr	r0, [r2, r3]
    8540:	2180      	movs	r1, #128	; 0x80
    8542:	04c9      	lsls	r1, r1, #19
    8544:	4301      	orrs	r1, r0
    8546:	50d1      	str	r1, [r2, r3]
F:\WorkSpace\AHL-GEC-EXP\Temp\UART_发送01字符控制灯亮_不使用组帧\Debug/srcc/uart.c:42
        SIM_SOPT2 &= ~SIM_SOPT2_PLLFLLSEL_MASK;
    8548:	58d1      	ldr	r1, [r2, r3]
    854a:	4844      	ldr	r0, [pc, #272]	; (865c <uart_init+0x134>)
    854c:	4001      	ands	r1, r0
    854e:	50d1      	str	r1, [r2, r3]
F:\WorkSpace\AHL-GEC-EXP\Temp\UART_发送01字符控制灯亮_不使用组帧\Debug/srcc/uart.c:48
            PORTE_PCR20 |= PORT_PCR_MUX(0x4);    //使能UART0_TXD
    8550:	4943      	ldr	r1, [pc, #268]	; (8660 <uart_init+0x138>)
    8552:	6d08      	ldr	r0, [r1, #80]	; 0x50
    8554:	2380      	movs	r3, #128	; 0x80
    8556:	00db      	lsls	r3, r3, #3
    8558:	4318      	orrs	r0, r3
    855a:	6508      	str	r0, [r1, #80]	; 0x50
F:\WorkSpace\AHL-GEC-EXP\Temp\UART_发送01字符控制灯亮_不使用组帧\Debug/srcc/uart.c:49
            PORTE_PCR21 |= PORT_PCR_MUX(0x4);    //使能UART0_RXD
    855c:	6d48      	ldr	r0, [r1, #84]	; 0x54
    855e:	4318      	orrs	r0, r3
    8560:	6548      	str	r0, [r1, #84]	; 0x54
F:\WorkSpace\AHL-GEC-EXP\Temp\UART_发送01字符控制灯亮_不使用组帧\Debug/srcc/uart.c:66
        SIM_SCGC4 |= SIM_SCGC4_UART0_MASK;    //启动串口0时钟
    8562:	4940      	ldr	r1, [pc, #256]	; (8664 <uart_init+0x13c>)
    8564:	5850      	ldr	r0, [r2, r1]
    8566:	4303      	orrs	r3, r0
    8568:	5053      	str	r3, [r2, r1]
F:\WorkSpace\AHL-GEC-EXP\Temp\UART_发送01字符控制灯亮_不使用组帧\Debug/srcc/uart.c:69
        UART0_C2_REG(UART_2h_0) &= ~(UART0_C2_TE_MASK | UART0_C2_RE_MASK);
    856a:	4c3f      	ldr	r4, [pc, #252]	; (8668 <uart_init+0x140>)
    856c:	78e3      	ldrb	r3, [r4, #3]
    856e:	220c      	movs	r2, #12
    8570:	4393      	bics	r3, r2
    8572:	70e3      	strb	r3, [r4, #3]
F:\WorkSpace\AHL-GEC-EXP\Temp\UART_发送01字符控制灯亮_不使用组帧\Debug/srcc/uart.c:72
        sbr = (uint16_t)((SystemCoreClock)/(baud_rate * 16));
    8574:	0129      	lsls	r1, r5, #4
    8576:	4b3d      	ldr	r3, [pc, #244]	; (866c <uart_init+0x144>)
    8578:	6818      	ldr	r0, [r3, #0]
    857a:	f7fe fb95 	bl	6ca8 <__udivsi3>
F:\WorkSpace\AHL-GEC-EXP\Temp\UART_发送01字符控制灯亮_不使用组帧\Debug/srcc/uart.c:73
        temp = UART0_BDH_REG(UART_2h_0) & ~(UART0_BDH_SBR(0x1F));
    857e:	7823      	ldrb	r3, [r4, #0]
    8580:	221f      	movs	r2, #31
    8582:	4393      	bics	r3, r2
F:\WorkSpace\AHL-GEC-EXP\Temp\UART_发送01字符控制灯亮_不使用组帧\Debug/srcc/uart.c:74
        UART0_BDH_REG(UART_2h_0) = temp | UART0_BDH_SBR(((sbr & 0x1F00) >> 8));
    8584:	1202      	asrs	r2, r0, #8
    8586:	211f      	movs	r1, #31
    8588:	400a      	ands	r2, r1
    858a:	4313      	orrs	r3, r2
    858c:	7023      	strb	r3, [r4, #0]
F:\WorkSpace\AHL-GEC-EXP\Temp\UART_发送01字符控制灯亮_不使用组帧\Debug/srcc/uart.c:75
        UART0_BDL_REG(UART_2h_0) = (uint8_t)(sbr & UART0_BDL_SBR_MASK);
    858e:	b2c0      	uxtb	r0, r0
    8590:	7060      	strb	r0, [r4, #1]
F:\WorkSpace\AHL-GEC-EXP\Temp\UART_发送01字符控制灯亮_不使用组帧\Debug/srcc/uart.c:78
        UART0_C4_REG(UART_2h_0) = 0x0F;
    8592:	230f      	movs	r3, #15
    8594:	72a3      	strb	r3, [r4, #10]
F:\WorkSpace\AHL-GEC-EXP\Temp\UART_发送01字符控制灯亮_不使用组帧\Debug/srcc/uart.c:79
        UART0_C1_REG(UART_2h_0) = 0x00;
    8596:	2300      	movs	r3, #0
    8598:	70a3      	strb	r3, [r4, #2]
F:\WorkSpace\AHL-GEC-EXP\Temp\UART_发送01字符控制灯亮_不使用组帧\Debug/srcc/uart.c:80
        UART0_C3_REG(UART_2h_0) = 0x00;
    859a:	71a3      	strb	r3, [r4, #6]
F:\WorkSpace\AHL-GEC-EXP\Temp\UART_发送01字符控制灯亮_不使用组帧\Debug/srcc/uart.c:81
        UART0_MA1_REG(UART_2h_0) = 0x00;
    859c:	7223      	strb	r3, [r4, #8]
F:\WorkSpace\AHL-GEC-EXP\Temp\UART_发送01字符控制灯亮_不使用组帧\Debug/srcc/uart.c:82
        UART0_MA2_REG(UART_2h_0) = 0x00;
    859e:	7263      	strb	r3, [r4, #9]
F:\WorkSpace\AHL-GEC-EXP\Temp\UART_发送01字符控制灯亮_不使用组帧\Debug/srcc/uart.c:83
        UART0_S1_REG(UART_2h_0) |= 0x1F;
    85a0:	7923      	ldrb	r3, [r4, #4]
    85a2:	221f      	movs	r2, #31
    85a4:	4313      	orrs	r3, r2
    85a6:	b2db      	uxtb	r3, r3
    85a8:	7123      	strb	r3, [r4, #4]
F:\WorkSpace\AHL-GEC-EXP\Temp\UART_发送01字符控制灯亮_不使用组帧\Debug/srcc/uart.c:84
        UART0_S2_REG(UART_2h_0) |= 0xC0;
    85aa:	7963      	ldrb	r3, [r4, #5]
    85ac:	2240      	movs	r2, #64	; 0x40
    85ae:	4252      	negs	r2, r2
    85b0:	4313      	orrs	r3, r2
    85b2:	b2db      	uxtb	r3, r3
    85b4:	7163      	strb	r3, [r4, #5]
F:\WorkSpace\AHL-GEC-EXP\Temp\UART_发送01字符控制灯亮_不使用组帧\Debug/srcc/uart.c:86
        UART0_C2_REG(UART_2h_0) &= ~UART0_C2_TIE_MASK;
    85b6:	78e3      	ldrb	r3, [r4, #3]
    85b8:	32bf      	adds	r2, #191	; 0xbf
    85ba:	4013      	ands	r3, r2
    85bc:	70e3      	strb	r3, [r4, #3]
F:\WorkSpace\AHL-GEC-EXP\Temp\UART_发送01字符控制灯亮_不使用组帧\Debug/srcc/uart.c:88
        UART0_C2_REG(UART_2h_0) |= (UART0_C2_TE_MASK | UART0_C2_RE_MASK);
    85be:	78e3      	ldrb	r3, [r4, #3]
    85c0:	220c      	movs	r2, #12
    85c2:	4313      	orrs	r3, r2
    85c4:	b2db      	uxtb	r3, r3
    85c6:	70e3      	strb	r3, [r4, #3]
F:\WorkSpace\AHL-GEC-EXP\Temp\UART_发送01字符控制灯亮_不使用组帧\Debug/srcc/uart.c:164
}
    85c8:	bd70      	pop	{r4, r5, r6, pc}
F:\WorkSpace\AHL-GEC-EXP\Temp\UART_发送01字符控制灯亮_不使用组帧\Debug/srcc/uart.c:92
    	switch (uartNo)
    85ca:	2c01      	cmp	r4, #1
    85cc:	d027      	beq.n	861e <uart_init+0xf6>
    85ce:	2c02      	cmp	r4, #2
    85d0:	d032      	beq.n	8638 <uart_init+0x110>
F:\WorkSpace\AHL-GEC-EXP\Temp\UART_发送01字符控制灯亮_不使用组帧\Debug/srcc/uart.c:142
        UART_2h_1_2 = UART_ARR[uartNo-1]; //获得UART1、2模块相应口基地址
    85d2:	3c01      	subs	r4, #1
    85d4:	00a4      	lsls	r4, r4, #2
    85d6:	4b26      	ldr	r3, [pc, #152]	; (8670 <uart_init+0x148>)
    85d8:	58e4      	ldr	r4, [r4, r3]
F:\WorkSpace\AHL-GEC-EXP\Temp\UART_发送01字符控制灯亮_不使用组帧\Debug/srcc/uart.c:145
        UART_C2_REG(UART_2h_1_2) &= ~(UART_C2_TE_MASK | UART_C2_RE_MASK);
    85da:	78e3      	ldrb	r3, [r4, #3]
    85dc:	220c      	movs	r2, #12
    85de:	4393      	bics	r3, r2
    85e0:	70e3      	strb	r3, [r4, #3]
F:\WorkSpace\AHL-GEC-EXP\Temp\UART_发送01字符控制灯亮_不使用组帧\Debug/srcc/uart.c:150
        sbr = (uint16_t)((SystemCoreClock/2)/(baud_rate * 16));
    85e2:	4b22      	ldr	r3, [pc, #136]	; (866c <uart_init+0x144>)
    85e4:	6818      	ldr	r0, [r3, #0]
    85e6:	0840      	lsrs	r0, r0, #1
    85e8:	0129      	lsls	r1, r5, #4
    85ea:	f7fe fb5d 	bl	6ca8 <__udivsi3>
F:\WorkSpace\AHL-GEC-EXP\Temp\UART_发送01字符控制灯亮_不使用组帧\Debug/srcc/uart.c:151
        temp = UART_BDH_REG(UART_2h_1_2) & ~(UART_BDH_SBR(0x1F));
    85ee:	7823      	ldrb	r3, [r4, #0]
    85f0:	221f      	movs	r2, #31
    85f2:	4393      	bics	r3, r2
F:\WorkSpace\AHL-GEC-EXP\Temp\UART_发送01字符控制灯亮_不使用组帧\Debug/srcc/uart.c:152
        UART_BDH_REG(UART_2h_1_2) = temp |  UART_BDH_SBR(((sbr & 0x1F00) >> 8));
    85f4:	1202      	asrs	r2, r0, #8
    85f6:	211f      	movs	r1, #31
    85f8:	400a      	ands	r2, r1
    85fa:	4313      	orrs	r3, r2
    85fc:	7023      	strb	r3, [r4, #0]
F:\WorkSpace\AHL-GEC-EXP\Temp\UART_发送01字符控制灯亮_不使用组帧\Debug/srcc/uart.c:153
        UART_BDL_REG(UART_2h_1_2) = (uint8_t)(sbr & UART_BDL_SBR_MASK);
    85fe:	b2c0      	uxtb	r0, r0
    8600:	7060      	strb	r0, [r4, #1]
F:\WorkSpace\AHL-GEC-EXP\Temp\UART_发送01字符控制灯亮_不使用组帧\Debug/srcc/uart.c:156
        UART_C1_REG(UART_2h_1_2)=0x00;
    8602:	2300      	movs	r3, #0
    8604:	70a3      	strb	r3, [r4, #2]
F:\WorkSpace\AHL-GEC-EXP\Temp\UART_发送01字符控制灯亮_不使用组帧\Debug/srcc/uart.c:157
        UART_C3_REG(UART_2h_1_2)=0x00;
    8606:	71a3      	strb	r3, [r4, #6]
F:\WorkSpace\AHL-GEC-EXP\Temp\UART_发送01字符控制灯亮_不使用组帧\Debug/srcc/uart.c:158
        UART_S2_REG(UART_2h_1_2)=0x00;
    8608:	7163      	strb	r3, [r4, #5]
F:\WorkSpace\AHL-GEC-EXP\Temp\UART_发送01字符控制灯亮_不使用组帧\Debug/srcc/uart.c:160
        UART_C2_REG(UART_2h_1_2) &= ~UART_C2_TIE_MASK;
    860a:	78e3      	ldrb	r3, [r4, #3]
    860c:	227f      	movs	r2, #127	; 0x7f
    860e:	4013      	ands	r3, r2
    8610:	70e3      	strb	r3, [r4, #3]
F:\WorkSpace\AHL-GEC-EXP\Temp\UART_发送01字符控制灯亮_不使用组帧\Debug/srcc/uart.c:162
        UART_C2_REG(UART_2h_1_2)|= (UART_C2_TE_MASK | UART_C2_RE_MASK);
    8612:	78e3      	ldrb	r3, [r4, #3]
    8614:	220c      	movs	r2, #12
    8616:	4313      	orrs	r3, r2
    8618:	b2db      	uxtb	r3, r3
    861a:	70e3      	strb	r3, [r4, #3]
    861c:	e7d4      	b.n	85c8 <uart_init+0xa0>
F:\WorkSpace\AHL-GEC-EXP\Temp\UART_发送01字符控制灯亮_不使用组帧\Debug/srcc/uart.c:99
    			PORTE_PCR0 = PORT_PCR_MUX(0x3);    //使能UART1_TXD
    861e:	4b10      	ldr	r3, [pc, #64]	; (8660 <uart_init+0x138>)
    8620:	22c0      	movs	r2, #192	; 0xc0
    8622:	0092      	lsls	r2, r2, #2
    8624:	601a      	str	r2, [r3, #0]
F:\WorkSpace\AHL-GEC-EXP\Temp\UART_发送01字符控制灯亮_不使用组帧\Debug/srcc/uart.c:100
    			PORTE_PCR1 = PORT_PCR_MUX(0x3);    //使能UART1_RXD
    8626:	605a      	str	r2, [r3, #4]
F:\WorkSpace\AHL-GEC-EXP\Temp\UART_发送01字符控制灯亮_不使用组帧\Debug/srcc/uart.c:113
    		SIM_SCGC4 |= SIM_SCGC4_UART1_MASK; //启动串口1时钟
    8628:	490a      	ldr	r1, [pc, #40]	; (8654 <uart_init+0x12c>)
    862a:	4a0e      	ldr	r2, [pc, #56]	; (8664 <uart_init+0x13c>)
    862c:	5888      	ldr	r0, [r1, r2]
    862e:	2380      	movs	r3, #128	; 0x80
    8630:	011b      	lsls	r3, r3, #4
    8632:	4303      	orrs	r3, r0
    8634:	508b      	str	r3, [r1, r2]
F:\WorkSpace\AHL-GEC-EXP\Temp\UART_发送01字符控制灯亮_不使用组帧\Debug/srcc/uart.c:114
    		break;
    8636:	e7cc      	b.n	85d2 <uart_init+0xaa>
F:\WorkSpace\AHL-GEC-EXP\Temp\UART_发送01字符控制灯亮_不使用组帧\Debug/srcc/uart.c:120
    				PORTE_PCR16 = PORT_PCR_MUX(0x3); //使能UART2_TXD
    8638:	4b09      	ldr	r3, [pc, #36]	; (8660 <uart_init+0x138>)
    863a:	22c0      	movs	r2, #192	; 0xc0
    863c:	0092      	lsls	r2, r2, #2
    863e:	641a      	str	r2, [r3, #64]	; 0x40
F:\WorkSpace\AHL-GEC-EXP\Temp\UART_发送01字符控制灯亮_不使用组帧\Debug/srcc/uart.c:121
    				PORTE_PCR17 = PORT_PCR_MUX(0x3); //使能UART2_RXD
    8640:	645a      	str	r2, [r3, #68]	; 0x44
F:\WorkSpace\AHL-GEC-EXP\Temp\UART_发送01字符控制灯亮_不使用组帧\Debug/srcc/uart.c:137
    			SIM_SCGC4 |= SIM_SCGC4_UART2_MASK;//启动串口2时钟
    8642:	4904      	ldr	r1, [pc, #16]	; (8654 <uart_init+0x12c>)
    8644:	4a07      	ldr	r2, [pc, #28]	; (8664 <uart_init+0x13c>)
    8646:	5888      	ldr	r0, [r1, r2]
    8648:	2380      	movs	r3, #128	; 0x80
    864a:	015b      	lsls	r3, r3, #5
    864c:	4303      	orrs	r3, r0
    864e:	508b      	str	r3, [r1, r2]
F:\WorkSpace\AHL-GEC-EXP\Temp\UART_发送01字符控制灯亮_不使用组帧\Debug/srcc/uart.c:138
    			break;
    8650:	e7bf      	b.n	85d2 <uart_init+0xaa>
    8652:	46c0      	nop			; (mov r8, r8)
    8654:	40047000 	.word	0x40047000
    8658:	00001004 	.word	0x00001004
    865c:	fffeffff 	.word	0xfffeffff
    8660:	4004d000 	.word	0x4004d000
    8664:	00001034 	.word	0x00001034
    8668:	4006a000 	.word	0x4006a000
    866c:	20000400 	.word	0x20000400
    8670:	000090d0 	.word	0x000090d0

00008674 <uart_send1>:
uart_send1():
F:\WorkSpace\AHL-GEC-EXP\Temp\UART_发送01字符控制灯亮_不使用组帧\Debug/srcc/uart.c:173
{
    8674:	b570      	push	{r4, r5, r6, lr}
    8676:	0005      	movs	r5, r0
    8678:	000c      	movs	r4, r1
F:\WorkSpace\AHL-GEC-EXP\Temp\UART_发送01字符控制灯亮_不使用组帧\Debug/srcc/uart.c:177
    UART_MemMapPtr UART_2h_1_2 = UART_ARR[uartNo-1]; //获取UART1或者2基地址
    867a:	1e43      	subs	r3, r0, #1
    867c:	009b      	lsls	r3, r3, #2
    867e:	4a11      	ldr	r2, [pc, #68]	; (86c4 <uart_send1+0x50>)
    8680:	589e      	ldr	r6, [r3, r2]
F:\WorkSpace\AHL-GEC-EXP\Temp\UART_发送01字符控制灯亮_不使用组帧\Debug/srcc/uart.c:185
    if(!uart_is_uartNo(uartNo))
    8682:	f7ff ff4b 	bl	851c <uart_is_uartNo>
    8686:	2800      	cmp	r0, #0
    8688:	d016      	beq.n	86b8 <uart_send1+0x44>
F:\WorkSpace\AHL-GEC-EXP\Temp\UART_发送01字符控制灯亮_不使用组帧\Debug/srcc/uart.c:190
    for (t = 0; t < 0xFBBB; t++)//查询指定次数
    868a:	2300      	movs	r3, #0
    868c:	e004      	b.n	8698 <uart_send1+0x24>
F:\WorkSpace\AHL-GEC-EXP\Temp\UART_发送01字符控制灯亮_不使用组帧\Debug/srcc/uart.c:204
            if (UART_S1_REG(UART_2h_1_2) & UART_S1_TDRE_MASK )
    868e:	7932      	ldrb	r2, [r6, #4]
    8690:	b252      	sxtb	r2, r2
    8692:	2a00      	cmp	r2, #0
    8694:	db11      	blt.n	86ba <uart_send1+0x46>
F:\WorkSpace\AHL-GEC-EXP\Temp\UART_发送01字符控制灯亮_不使用组帧\Debug/srcc/uart.c:190 (discriminator 2)
    for (t = 0; t < 0xFBBB; t++)//查询指定次数
    8696:	3301      	adds	r3, #1
F:\WorkSpace\AHL-GEC-EXP\Temp\UART_发送01字符控制灯亮_不使用组帧\Debug/srcc/uart.c:190 (discriminator 1)
    8698:	4a0b      	ldr	r2, [pc, #44]	; (86c8 <uart_send1+0x54>)
    869a:	4293      	cmp	r3, r2
    869c:	d808      	bhi.n	86b0 <uart_send1+0x3c>
F:\WorkSpace\AHL-GEC-EXP\Temp\UART_发送01字符控制灯亮_不使用组帧\Debug/srcc/uart.c:192
        if(0==uartNo)     //判断使用的哪个串口
    869e:	2d00      	cmp	r5, #0
    86a0:	d1f5      	bne.n	868e <uart_send1+0x1a>
F:\WorkSpace\AHL-GEC-EXP\Temp\UART_发送01字符控制灯亮_不使用组帧\Debug/srcc/uart.c:195
            if ( UART0_S1_REG(UART_2h_0) & UART0_S1_TDRE_MASK )
    86a2:	4a0a      	ldr	r2, [pc, #40]	; (86cc <uart_send1+0x58>)
    86a4:	7912      	ldrb	r2, [r2, #4]
    86a6:	b252      	sxtb	r2, r2
    86a8:	2a00      	cmp	r2, #0
    86aa:	daf4      	bge.n	8696 <uart_send1+0x22>
F:\WorkSpace\AHL-GEC-EXP\Temp\UART_发送01字符控制灯亮_不使用组帧\Debug/srcc/uart.c:197
                UART0_D_REG(UART_2h_0) = ch;
    86ac:	4a07      	ldr	r2, [pc, #28]	; (86cc <uart_send1+0x58>)
    86ae:	71d4      	strb	r4, [r2, #7]
F:\WorkSpace\AHL-GEC-EXP\Temp\UART_发送01字符控制灯亮_不使用组帧\Debug/srcc/uart.c:217
    if (t >= 0xFBBB)
    86b0:	4a05      	ldr	r2, [pc, #20]	; (86c8 <uart_send1+0x54>)
    86b2:	4293      	cmp	r3, r2
    86b4:	d903      	bls.n	86be <uart_send1+0x4a>
F:\WorkSpace\AHL-GEC-EXP\Temp\UART_发送01字符控制灯亮_不使用组帧\Debug/srcc/uart.c:218
        return 0; //发送超时，发送失败
    86b6:	2000      	movs	r0, #0
F:\WorkSpace\AHL-GEC-EXP\Temp\UART_发送01字符控制灯亮_不使用组帧\Debug/srcc/uart.c:221
}
    86b8:	bd70      	pop	{r4, r5, r6, pc}
F:\WorkSpace\AHL-GEC-EXP\Temp\UART_发送01字符控制灯亮_不使用组帧\Debug/srcc/uart.c:206
                UART_D_REG(UART_2h_1_2) = ch;
    86ba:	71f4      	strb	r4, [r6, #7]
F:\WorkSpace\AHL-GEC-EXP\Temp\UART_发送01字符控制灯亮_不使用组帧\Debug/srcc/uart.c:207
                break;
    86bc:	e7f8      	b.n	86b0 <uart_send1+0x3c>
F:\WorkSpace\AHL-GEC-EXP\Temp\UART_发送01字符控制灯亮_不使用组帧\Debug/srcc/uart.c:220
        return 1; //成功发送
    86be:	2001      	movs	r0, #1
    86c0:	e7fa      	b.n	86b8 <uart_send1+0x44>
    86c2:	46c0      	nop			; (mov r8, r8)
    86c4:	000090d0 	.word	0x000090d0
    86c8:	0000fbba 	.word	0x0000fbba
    86cc:	4006a000 	.word	0x4006a000

000086d0 <uart_re1>:
uart_re1():
F:\WorkSpace\AHL-GEC-EXP\Temp\UART_发送01字符控制灯亮_不使用组帧\Debug/srcc/uart.c:285
{
    86d0:	b570      	push	{r4, r5, r6, lr}
    86d2:	0004      	movs	r4, r0
    86d4:	000e      	movs	r6, r1
F:\WorkSpace\AHL-GEC-EXP\Temp\UART_发送01字符控制灯亮_不使用组帧\Debug/srcc/uart.c:289
    UART_MemMapPtr UART_2h_1_2 = UART_ARR[uartNo-1]; //获取UART1或者2基地址
    86d6:	1e43      	subs	r3, r0, #1
    86d8:	009b      	lsls	r3, r3, #2
    86da:	4a15      	ldr	r2, [pc, #84]	; (8730 <uart_re1+0x60>)
    86dc:	589d      	ldr	r5, [r3, r2]
F:\WorkSpace\AHL-GEC-EXP\Temp\UART_发送01字符控制灯亮_不使用组帧\Debug/srcc/uart.c:292
    if(!uart_is_uartNo(uartNo))
    86de:	f7ff ff1d 	bl	851c <uart_is_uartNo>
    86e2:	2800      	cmp	r0, #0
    86e4:	d001      	beq.n	86ea <uart_re1+0x1a>
F:\WorkSpace\AHL-GEC-EXP\Temp\UART_发送01字符控制灯亮_不使用组帧\Debug/srcc/uart.c:298
    for (t = 0; t < 0xFBBB; t++)//查询指定次数
    86e6:	2300      	movs	r3, #0
    86e8:	e006      	b.n	86f8 <uart_re1+0x28>
F:\WorkSpace\AHL-GEC-EXP\Temp\UART_发送01字符控制灯亮_不使用组帧\Debug/srcc/uart.c:294
        *fp=0;
    86ea:	2300      	movs	r3, #0
    86ec:	7033      	strb	r3, [r6, #0]
F:\WorkSpace\AHL-GEC-EXP\Temp\UART_发送01字符控制灯亮_不使用组帧\Debug/srcc/uart.c:295
        return 0;
    86ee:	e014      	b.n	871a <uart_re1+0x4a>
F:\WorkSpace\AHL-GEC-EXP\Temp\UART_发送01字符控制灯亮_不使用组帧\Debug/srcc/uart.c:313
            if(UART_S1_REG(UART_2h_1_2) & UART_S1_RDRF_MASK)
    86f0:	792a      	ldrb	r2, [r5, #4]
    86f2:	0692      	lsls	r2, r2, #26
    86f4:	d412      	bmi.n	871c <uart_re1+0x4c>
F:\WorkSpace\AHL-GEC-EXP\Temp\UART_发送01字符控制灯亮_不使用组帧\Debug/srcc/uart.c:298 (discriminator 2)
    for (t = 0; t < 0xFBBB; t++)//查询指定次数
    86f6:	3301      	adds	r3, #1
F:\WorkSpace\AHL-GEC-EXP\Temp\UART_发送01字符控制灯亮_不使用组帧\Debug/srcc/uart.c:298 (discriminator 1)
    86f8:	4a0e      	ldr	r2, [pc, #56]	; (8734 <uart_re1+0x64>)
    86fa:	4293      	cmp	r3, r2
    86fc:	d80a      	bhi.n	8714 <uart_re1+0x44>
F:\WorkSpace\AHL-GEC-EXP\Temp\UART_发送01字符控制灯亮_不使用组帧\Debug/srcc/uart.c:300
        if(0==uartNo)  //判断使用的哪个串口
    86fe:	2c00      	cmp	r4, #0
    8700:	d1f6      	bne.n	86f0 <uart_re1+0x20>
F:\WorkSpace\AHL-GEC-EXP\Temp\UART_发送01字符控制灯亮_不使用组帧\Debug/srcc/uart.c:303
        if (UART0_S1_REG(UART_2h_0) & UART0_S1_RDRF_MASK)
    8702:	4a0d      	ldr	r2, [pc, #52]	; (8738 <uart_re1+0x68>)
    8704:	7912      	ldrb	r2, [r2, #4]
    8706:	0692      	lsls	r2, r2, #26
    8708:	d5f5      	bpl.n	86f6 <uart_re1+0x26>
F:\WorkSpace\AHL-GEC-EXP\Temp\UART_发送01字符控制灯亮_不使用组帧\Debug/srcc/uart.c:305
                dat=UART0_D_REG(UART_2h_0);    //获取数据,清接收中断位
    870a:	4a0b      	ldr	r2, [pc, #44]	; (8738 <uart_re1+0x68>)
    870c:	79d0      	ldrb	r0, [r2, #7]
    870e:	b2c0      	uxtb	r0, r0
F:\WorkSpace\AHL-GEC-EXP\Temp\UART_发送01字符控制灯亮_不使用组帧\Debug/srcc/uart.c:306
                *fp = 1;  //接收成功
    8710:	2201      	movs	r2, #1
    8712:	7032      	strb	r2, [r6, #0]
F:\WorkSpace\AHL-GEC-EXP\Temp\UART_发送01字符控制灯亮_不使用组帧\Debug/srcc/uart.c:321
    if(t >= 0xFBBB) 
    8714:	4a07      	ldr	r2, [pc, #28]	; (8734 <uart_re1+0x64>)
    8716:	4293      	cmp	r3, r2
    8718:	d805      	bhi.n	8726 <uart_re1+0x56>
F:\WorkSpace\AHL-GEC-EXP\Temp\UART_发送01字符控制灯亮_不使用组帧\Debug/srcc/uart.c:327
}
    871a:	bd70      	pop	{r4, r5, r6, pc}
F:\WorkSpace\AHL-GEC-EXP\Temp\UART_发送01字符控制灯亮_不使用组帧\Debug/srcc/uart.c:315
                dat=UART_D_REG(UART_2h_1_2);    //获取数据,清接收中断位
    871c:	79e8      	ldrb	r0, [r5, #7]
    871e:	b2c0      	uxtb	r0, r0
F:\WorkSpace\AHL-GEC-EXP\Temp\UART_发送01字符控制灯亮_不使用组帧\Debug/srcc/uart.c:316
                *fp= 1;  //接收成功
    8720:	2201      	movs	r2, #1
    8722:	7032      	strb	r2, [r6, #0]
F:\WorkSpace\AHL-GEC-EXP\Temp\UART_发送01字符控制灯亮_不使用组帧\Debug/srcc/uart.c:317
                break;
    8724:	e7f6      	b.n	8714 <uart_re1+0x44>
F:\WorkSpace\AHL-GEC-EXP\Temp\UART_发送01字符控制灯亮_不使用组帧\Debug/srcc/uart.c:324
        *fp = 0;    //未收到数据
    8726:	2300      	movs	r3, #0
    8728:	7033      	strb	r3, [r6, #0]
F:\WorkSpace\AHL-GEC-EXP\Temp\UART_发送01字符控制灯亮_不使用组帧\Debug/srcc/uart.c:323
        dat = 0xFF; 
    872a:	20ff      	movs	r0, #255	; 0xff
    872c:	e7f5      	b.n	871a <uart_re1+0x4a>
    872e:	46c0      	nop			; (mov r8, r8)
    8730:	000090d0 	.word	0x000090d0
    8734:	0000fbba 	.word	0x0000fbba
    8738:	4006a000 	.word	0x4006a000

0000873c <uart_enable_re_int>:
uart_enable_re_int():
F:\WorkSpace\AHL-GEC-EXP\Temp\UART_发送01字符控制灯亮_不使用组帧\Debug/srcc/uart.c:364
{
    873c:	b570      	push	{r4, r5, r6, lr}
    873e:	0004      	movs	r4, r0
F:\WorkSpace\AHL-GEC-EXP\Temp\UART_发送01字符控制灯亮_不使用组帧\Debug/srcc/uart.c:366
    UART_MemMapPtr UART_2h_1_2 = UART_ARR[uartNo-1]; //获取UART1或者2基地址
    8740:	1e43      	subs	r3, r0, #1
    8742:	009b      	lsls	r3, r3, #2
    8744:	4a0e      	ldr	r2, [pc, #56]	; (8780 <uart_enable_re_int+0x44>)
    8746:	589d      	ldr	r5, [r3, r2]
F:\WorkSpace\AHL-GEC-EXP\Temp\UART_发送01字符控制灯亮_不使用组帧\Debug/srcc/uart.c:369
    if(!uart_is_uartNo(uartNo))
    8748:	f7ff fee8 	bl	851c <uart_is_uartNo>
    874c:	2800      	cmp	r0, #0
    874e:	d00f      	beq.n	8770 <uart_enable_re_int+0x34>
F:\WorkSpace\AHL-GEC-EXP\Temp\UART_发送01字符控制灯亮_不使用组帧\Debug/srcc/uart.c:374
    if(0 == uartNo)
    8750:	2c00      	cmp	r4, #0
    8752:	d10e      	bne.n	8772 <uart_enable_re_int+0x36>
F:\WorkSpace\AHL-GEC-EXP\Temp\UART_发送01字符控制灯亮_不使用组帧\Debug/srcc/uart.c:375
        UART0_C2_REG(UART_2h_0) |= UART0_C2_RIE_MASK;    //开放UART接收中断
    8754:	4a0b      	ldr	r2, [pc, #44]	; (8784 <uart_enable_re_int+0x48>)
    8756:	78d3      	ldrb	r3, [r2, #3]
    8758:	2120      	movs	r1, #32
    875a:	430b      	orrs	r3, r1
    875c:	b2db      	uxtb	r3, r3
    875e:	70d3      	strb	r3, [r2, #3]
NVIC_EnableIRQ():
F:\WorkSpace\AHL-GEC-EXP\Temp\UART_发送01字符控制灯亮_不使用组帧\02_CPU/core_cm0plus.h:685

    \param [in]      IRQn  External interrupt number. Value cannot be negative.
 */
__STATIC_INLINE void NVIC_EnableIRQ(IRQn_Type IRQn)
{
  NVIC->ISER[0] = (uint32_t)(1UL << (((uint32_t)(int32_t)IRQn) & 0x1FUL));
    8760:	4b09      	ldr	r3, [pc, #36]	; (8788 <uart_enable_re_int+0x4c>)
    8762:	5d1b      	ldrb	r3, [r3, r4]
    8764:	221f      	movs	r2, #31
    8766:	401a      	ands	r2, r3
    8768:	2301      	movs	r3, #1
    876a:	4093      	lsls	r3, r2
    876c:	4a07      	ldr	r2, [pc, #28]	; (878c <uart_enable_re_int+0x50>)
    876e:	6013      	str	r3, [r2, #0]
uart_enable_re_int():
F:\WorkSpace\AHL-GEC-EXP\Temp\UART_发送01字符控制灯亮_不使用组帧\Debug/srcc/uart.c:379
}
    8770:	bd70      	pop	{r4, r5, r6, pc}
F:\WorkSpace\AHL-GEC-EXP\Temp\UART_发送01字符控制灯亮_不使用组帧\Debug/srcc/uart.c:377
        UART_C2_REG(UART_2h_1_2) |= UART_C2_RIE_MASK;    //开放UART接收中断
    8772:	78eb      	ldrb	r3, [r5, #3]
    8774:	2220      	movs	r2, #32
    8776:	4313      	orrs	r3, r2
    8778:	b2db      	uxtb	r3, r3
    877a:	70eb      	strb	r3, [r5, #3]
    877c:	e7f0      	b.n	8760 <uart_enable_re_int+0x24>
    877e:	46c0      	nop			; (mov r8, r8)
    8780:	000090d0 	.word	0x000090d0
    8784:	4006a000 	.word	0x4006a000
    8788:	20000404 	.word	0x20000404
    878c:	e000e100 	.word	0xe000e100

00008790 <UART0_IRQHandler>:
UART0_IRQHandler():
F:\WorkSpace\AHL-GEC-EXP\Temp\UART_发送01字符控制灯亮_不使用组帧\Debug/srcc/isr.c:16
//功    能：收到一个字节，直接返回该字节
//备    注：进入本程序后，可使用uart_get_re_int函数可再进行中断标志判断
//          （1-有UART接收中断，0-没有UART接收中断）
//======================================================================
void UART_User_Handler(void)
{
    8790:	b530      	push	{r4, r5, lr}
    8792:	b083      	sub	sp, #12
F:\WorkSpace\AHL-GEC-EXP\Temp\UART_发送01字符控制灯亮_不使用组帧\Debug/srcc/isr.c:19
	uint8_t ch;
	uint8_t flag;
	DISABLE_INTERRUPTS; //关总中断
    8794:	b672      	cpsid	i
F:\WorkSpace\AHL-GEC-EXP\Temp\UART_发送01字符控制灯亮_不使用组帧\Debug/srcc/isr.c:22
	//------------------------------------------------------------------
	//接收一个字节
	ch = uart_re1(UART_User, &flag); //调用接收一个字节的函数，清接收中断位
    8796:	466b      	mov	r3, sp
    8798:	1ddd      	adds	r5, r3, #7
    879a:	0029      	movs	r1, r5
    879c:	2000      	movs	r0, #0
    879e:	f7ff ff97 	bl	86d0 <uart_re1>
    87a2:	0004      	movs	r4, r0
F:\WorkSpace\AHL-GEC-EXP\Temp\UART_发送01字符控制灯亮_不使用组帧\Debug/srcc/isr.c:23
	if (flag)						 //有数据
    87a4:	782b      	ldrb	r3, [r5, #0]
    87a6:	2b00      	cmp	r3, #0
    87a8:	d009      	beq.n	87be <UART0_IRQHandler+0x2e>
F:\WorkSpace\AHL-GEC-EXP\Temp\UART_发送01字符控制灯亮_不使用组帧\Debug/srcc/isr.c:25
	{
		if (ch == '0')
    87aa:	2830      	cmp	r0, #48	; 0x30
    87ac:	d00a      	beq.n	87c4 <UART0_IRQHandler+0x34>
F:\WorkSpace\AHL-GEC-EXP\Temp\UART_发送01字符控制灯亮_不使用组帧\Debug/srcc/isr.c:31
		{
			gpio_set(LIGHT_BLUE, LIGHT_OFF);
		}
		else
		{
			gpio_set(LIGHT_BLUE, LIGHT_ON);
    87ae:	2100      	movs	r1, #0
    87b0:	200d      	movs	r0, #13
    87b2:	f7ff fe0b 	bl	83cc <gpio_set>
F:\WorkSpace\AHL-GEC-EXP\Temp\UART_发送01字符控制灯亮_不使用组帧\Debug/srcc/isr.c:33
		}
		uart_send1(UART_User, ch); //回发接收到的字节
    87b6:	0021      	movs	r1, r4
    87b8:	2000      	movs	r0, #0
    87ba:	f7ff ff5b 	bl	8674 <uart_send1>
F:\WorkSpace\AHL-GEC-EXP\Temp\UART_发送01字符控制灯亮_不使用组帧\Debug/srcc/isr.c:36
	}
	//------------------------------------------------------------------
	ENABLE_INTERRUPTS; //开总中断
    87be:	b662      	cpsie	i
F:\WorkSpace\AHL-GEC-EXP\Temp\UART_发送01字符控制灯亮_不使用组帧\Debug/srcc/isr.c:37
}
    87c0:	b003      	add	sp, #12
    87c2:	bd30      	pop	{r4, r5, pc}
F:\WorkSpace\AHL-GEC-EXP\Temp\UART_发送01字符控制灯亮_不使用组帧\Debug/srcc/isr.c:27
			gpio_set(LIGHT_BLUE, LIGHT_OFF);
    87c4:	2101      	movs	r1, #1
    87c6:	200d      	movs	r0, #13
    87c8:	f7ff fe00 	bl	83cc <gpio_set>
    87cc:	e7f3      	b.n	87b6 <UART0_IRQHandler+0x26>

000087ce <printk_putc>:
printk_putc():
F:\WorkSpace\AHL-GEC-EXP\Temp\UART_发送01字符控制灯亮_不使用组帧\Debug/srcc/printf.c:26
//功能概要：通过串口打出一个字符
//参数说明：data:数据：通过串口发送的一字节数据
//函数返回：无
//======================================================================
static void printk_putc(int c, int *count, PRINTK_INFO *info)
{
    87ce:	b510      	push	{r4, lr}
    87d0:	000c      	movs	r4, r1
F:\WorkSpace\AHL-GEC-EXP\Temp\UART_发送01字符控制灯亮_不使用组帧\Debug/srcc/printf.c:27
	switch (info->dest) {
    87d2:	6813      	ldr	r3, [r2, #0]
    87d4:	2b01      	cmp	r3, #1
    87d6:	d005      	beq.n	87e4 <printk_putc+0x16>
    87d8:	2b02      	cmp	r3, #2
    87da:	d007      	beq.n	87ec <printk_putc+0x1e>
F:\WorkSpace\AHL-GEC-EXP\Temp\UART_发送01字符控制灯亮_不使用组帧\Debug/srcc/printf.c:38
		++(info->loc);
		break;
	default:
		break;
	}
	*count += 1;
    87dc:	6823      	ldr	r3, [r4, #0]
    87de:	3301      	adds	r3, #1
    87e0:	6023      	str	r3, [r4, #0]
F:\WorkSpace\AHL-GEC-EXP\Temp\UART_发送01字符控制灯亮_不使用组帧\Debug/srcc/printf.c:39
}
    87e2:	bd10      	pop	{r4, pc}
F:\WorkSpace\AHL-GEC-EXP\Temp\UART_发送01字符控制灯亮_不使用组帧\Debug/srcc/printf.c:29
		info->func((char) c);
    87e4:	6853      	ldr	r3, [r2, #4]
    87e6:	b240      	sxtb	r0, r0
    87e8:	4798      	blx	r3
F:\WorkSpace\AHL-GEC-EXP\Temp\UART_发送01字符控制灯亮_不使用组帧\Debug/srcc/printf.c:30
		break;
    87ea:	e7f7      	b.n	87dc <printk_putc+0xe>
F:\WorkSpace\AHL-GEC-EXP\Temp\UART_发送01字符控制灯亮_不使用组帧\Debug/srcc/printf.c:32
		*(info->loc) = (unsigned char) c;
    87ec:	6893      	ldr	r3, [r2, #8]
    87ee:	7018      	strb	r0, [r3, #0]
F:\WorkSpace\AHL-GEC-EXP\Temp\UART_发送01字符控制灯亮_不使用组帧\Debug/srcc/printf.c:33
		++(info->loc);
    87f0:	6893      	ldr	r3, [r2, #8]
    87f2:	3301      	adds	r3, #1
    87f4:	6093      	str	r3, [r2, #8]
F:\WorkSpace\AHL-GEC-EXP\Temp\UART_发送01字符控制灯亮_不使用组帧\Debug/srcc/printf.c:34
		break;
    87f6:	e7f1      	b.n	87dc <printk_putc+0xe>

000087f8 <printk_mknumstr>:
printk_mknumstr():
F:\WorkSpace\AHL-GEC-EXP\Temp\UART_发送01字符控制灯亮_不使用组帧\Debug/srcc/printf.c:126
//       neg:有无符号:判断数据时有符号还是无符号整形
//       radix:格式选择:确定输出格式例如：十进制或十六进制...
//函数返回：无
//======================================================================
static int printk_mknumstr(char *numstr, void *nump, int neg, int radix)
{
    87f8:	b5f0      	push	{r4, r5, r6, r7, lr}
    87fa:	b083      	sub	sp, #12
    87fc:	0017      	movs	r7, r2
    87fe:	001e      	movs	r6, r3
F:\WorkSpace\AHL-GEC-EXP\Temp\UART_发送01字符控制灯亮_不使用组帧\Debug/srcc/printf.c:134
	int nlen;
	char *nstrp;

	nlen = 0;
	nstrp = numstr;
	*nstrp++ = '\0';
    8800:	1c45      	adds	r5, r0, #1
    8802:	2300      	movs	r3, #0
    8804:	7003      	strb	r3, [r0, #0]
F:\WorkSpace\AHL-GEC-EXP\Temp\UART_发送01字符控制灯亮_不使用组帧\Debug/srcc/printf.c:136

	if (neg) {
    8806:	2a00      	cmp	r2, #0
    8808:	d01d      	beq.n	8846 <printk_mknumstr+0x4e>
F:\WorkSpace\AHL-GEC-EXP\Temp\UART_发送01字符控制灯亮_不使用组帧\Debug/srcc/printf.c:137
		a = *(int *) nump;
    880a:	680f      	ldr	r7, [r1, #0]
F:\WorkSpace\AHL-GEC-EXP\Temp\UART_发送01字符控制灯亮_不使用组帧\Debug/srcc/printf.c:138
		if (a == 0) {
    880c:	2f00      	cmp	r7, #0
    880e:	d001      	beq.n	8814 <printk_mknumstr+0x1c>
F:\WorkSpace\AHL-GEC-EXP\Temp\UART_发送01字符控制灯亮_不使用组帧\Debug/srcc/printf.c:132
	nlen = 0;
    8810:	2400      	movs	r4, #0
    8812:	e009      	b.n	8828 <printk_mknumstr+0x30>
F:\WorkSpace\AHL-GEC-EXP\Temp\UART_发送01字符控制灯亮_不使用组帧\Debug/srcc/printf.c:139
			*nstrp = '0';
    8814:	3330      	adds	r3, #48	; 0x30
    8816:	7043      	strb	r3, [r0, #1]
F:\WorkSpace\AHL-GEC-EXP\Temp\UART_发送01字符控制灯亮_不使用组帧\Debug/srcc/printf.c:140
			++nlen;
    8818:	2401      	movs	r4, #1
F:\WorkSpace\AHL-GEC-EXP\Temp\UART_发送01字符控制灯亮_不使用组帧\Debug/srcc/printf.c:141
			goto done;
    881a:	e02e      	b.n	887a <printk_mknumstr+0x82>
F:\WorkSpace\AHL-GEC-EXP\Temp\UART_发送01字符控制灯亮_不使用组帧\Debug/srcc/printf.c:147
		}
		while (a != 0) {
			b = (int) a / (int) radix;
			c = (int) a - ((int) b * (int) radix);
			if (c < 0) {
				c = ~c + 1 + '0';
    881c:	2330      	movs	r3, #48	; 0x30
    881e:	1a59      	subs	r1, r3, r1
F:\WorkSpace\AHL-GEC-EXP\Temp\UART_发送01字符控制灯亮_不使用组帧\Debug/srcc/printf.c:152
			} else {
				c = c + '0';
			}
			a = b;
			*nstrp++ = (char) c;
    8820:	7029      	strb	r1, [r5, #0]
F:\WorkSpace\AHL-GEC-EXP\Temp\UART_发送01字符控制灯亮_不使用组帧\Debug/srcc/printf.c:153
			++nlen;
    8822:	3401      	adds	r4, #1
F:\WorkSpace\AHL-GEC-EXP\Temp\UART_发送01字符控制灯亮_不使用组帧\Debug/srcc/printf.c:152
			*nstrp++ = (char) c;
    8824:	3501      	adds	r5, #1
F:\WorkSpace\AHL-GEC-EXP\Temp\UART_发送01字符控制灯亮_不使用组帧\Debug/srcc/printf.c:151
			a = b;
    8826:	9f01      	ldr	r7, [sp, #4]
F:\WorkSpace\AHL-GEC-EXP\Temp\UART_发送01字符控制灯亮_不使用组帧\Debug/srcc/printf.c:143
		while (a != 0) {
    8828:	2f00      	cmp	r7, #0
    882a:	d026      	beq.n	887a <printk_mknumstr+0x82>
F:\WorkSpace\AHL-GEC-EXP\Temp\UART_发送01字符控制灯亮_不使用组帧\Debug/srcc/printf.c:144
			b = (int) a / (int) radix;
    882c:	0031      	movs	r1, r6
    882e:	0038      	movs	r0, r7
    8830:	f7fe fac4 	bl	6dbc <__divsi3>
    8834:	9001      	str	r0, [sp, #4]
F:\WorkSpace\AHL-GEC-EXP\Temp\UART_发送01字符控制灯亮_不使用组帧\Debug/srcc/printf.c:145
			c = (int) a - ((int) b * (int) radix);
    8836:	0031      	movs	r1, r6
    8838:	0038      	movs	r0, r7
    883a:	f7fe fba5 	bl	6f88 <__aeabi_idivmod>
F:\WorkSpace\AHL-GEC-EXP\Temp\UART_发送01字符控制灯亮_不使用组帧\Debug/srcc/printf.c:146
			if (c < 0) {
    883e:	2900      	cmp	r1, #0
    8840:	dbec      	blt.n	881c <printk_mknumstr+0x24>
F:\WorkSpace\AHL-GEC-EXP\Temp\UART_发送01字符控制灯亮_不使用组帧\Debug/srcc/printf.c:149
				c = c + '0';
    8842:	3130      	adds	r1, #48	; 0x30
    8844:	e7ec      	b.n	8820 <printk_mknumstr+0x28>
F:\WorkSpace\AHL-GEC-EXP\Temp\UART_发送01字符控制灯亮_不使用组帧\Debug/srcc/printf.c:156
		}
	} else {
		ua = *(unsigned int *) nump;
    8846:	680c      	ldr	r4, [r1, #0]
F:\WorkSpace\AHL-GEC-EXP\Temp\UART_发送01字符控制灯亮_不使用组帧\Debug/srcc/printf.c:157
		if (ua == 0) {
    8848:	2c00      	cmp	r4, #0
    884a:	d108      	bne.n	885e <printk_mknumstr+0x66>
F:\WorkSpace\AHL-GEC-EXP\Temp\UART_发送01字符控制灯亮_不使用组帧\Debug/srcc/printf.c:158
			*nstrp = '0';
    884c:	2330      	movs	r3, #48	; 0x30
    884e:	7043      	strb	r3, [r0, #1]
F:\WorkSpace\AHL-GEC-EXP\Temp\UART_发送01字符控制灯亮_不使用组帧\Debug/srcc/printf.c:159
			++nlen;
    8850:	3401      	adds	r4, #1
F:\WorkSpace\AHL-GEC-EXP\Temp\UART_发送01字符控制灯亮_不使用组帧\Debug/srcc/printf.c:160
			goto done;
    8852:	e012      	b.n	887a <printk_mknumstr+0x82>
F:\WorkSpace\AHL-GEC-EXP\Temp\UART_发送01字符控制灯亮_不使用组帧\Debug/srcc/printf.c:168
			ub = (unsigned int) ua / (unsigned int) radix;
			uc = (unsigned int) ua - ((unsigned int) ub * (unsigned int) radix);
			if (uc < 10) {
				uc = uc + '0';
			} else {
				uc = uc - 10 + 'A';
    8854:	3437      	adds	r4, #55	; 0x37
F:\WorkSpace\AHL-GEC-EXP\Temp\UART_发送01字符控制灯亮_不使用组帧\Debug/srcc/printf.c:171
			}
			ua = ub;
			*nstrp++ = (char) uc;
    8856:	702c      	strb	r4, [r5, #0]
F:\WorkSpace\AHL-GEC-EXP\Temp\UART_发送01字符控制灯亮_不使用组帧\Debug/srcc/printf.c:172
			++nlen;
    8858:	3701      	adds	r7, #1
F:\WorkSpace\AHL-GEC-EXP\Temp\UART_发送01字符控制灯亮_不使用组帧\Debug/srcc/printf.c:171
			*nstrp++ = (char) uc;
    885a:	3501      	adds	r5, #1
F:\WorkSpace\AHL-GEC-EXP\Temp\UART_发送01字符控制灯亮_不使用组帧\Debug/srcc/printf.c:170
			ua = ub;
    885c:	0004      	movs	r4, r0
F:\WorkSpace\AHL-GEC-EXP\Temp\UART_发送01字符控制灯亮_不使用组帧\Debug/srcc/printf.c:162
		while (ua != 0) {
    885e:	2c00      	cmp	r4, #0
    8860:	d00a      	beq.n	8878 <printk_mknumstr+0x80>
F:\WorkSpace\AHL-GEC-EXP\Temp\UART_发送01字符控制灯亮_不使用组帧\Debug/srcc/printf.c:163
			ub = (unsigned int) ua / (unsigned int) radix;
    8862:	0031      	movs	r1, r6
    8864:	0020      	movs	r0, r4
    8866:	f7fe fa1f 	bl	6ca8 <__udivsi3>
F:\WorkSpace\AHL-GEC-EXP\Temp\UART_发送01字符控制灯亮_不使用组帧\Debug/srcc/printf.c:164
			uc = (unsigned int) ua - ((unsigned int) ub * (unsigned int) radix);
    886a:	0003      	movs	r3, r0
    886c:	4373      	muls	r3, r6
    886e:	1ae4      	subs	r4, r4, r3
F:\WorkSpace\AHL-GEC-EXP\Temp\UART_发送01字符控制灯亮_不使用组帧\Debug/srcc/printf.c:165
			if (uc < 10) {
    8870:	2c09      	cmp	r4, #9
    8872:	d8ef      	bhi.n	8854 <printk_mknumstr+0x5c>
F:\WorkSpace\AHL-GEC-EXP\Temp\UART_发送01字符控制灯亮_不使用组帧\Debug/srcc/printf.c:166
				uc = uc + '0';
    8874:	3430      	adds	r4, #48	; 0x30
    8876:	e7ee      	b.n	8856 <printk_mknumstr+0x5e>
F:\WorkSpace\AHL-GEC-EXP\Temp\UART_发送01字符控制灯亮_不使用组帧\Debug/srcc/printf.c:175
		}
	}
	done: return nlen;
    8878:	003c      	movs	r4, r7
F:\WorkSpace\AHL-GEC-EXP\Temp\UART_发送01字符控制灯亮_不使用组帧\Debug/srcc/printf.c:176
}
    887a:	0020      	movs	r0, r4
    887c:	b003      	add	sp, #12
    887e:	bdf0      	pop	{r4, r5, r6, r7, pc}

00008880 <printk_pad_zero>:
printk_pad_zero():
F:\WorkSpace\AHL-GEC-EXP\Temp\UART_发送01字符控制灯亮_不使用组帧\Debug/srcc/printf.c:179
/********************************************************************/
static void printk_pad_zero(int curlen, int field_width, int *count,
		PRINTK_INFO *info) {
    8880:	b5f8      	push	{r3, r4, r5, r6, r7, lr}
    8882:	0004      	movs	r4, r0
    8884:	000d      	movs	r5, r1
    8886:	0017      	movs	r7, r2
    8888:	001e      	movs	r6, r3
F:\WorkSpace\AHL-GEC-EXP\Temp\UART_发送01字符控制灯亮_不使用组帧\Debug/srcc/printf.c:182 (discriminator 1)
	int i;

	for (i = curlen; i < field_width; i++) {
    888a:	42ac      	cmp	r4, r5
    888c:	da06      	bge.n	889c <printk_pad_zero+0x1c>
F:\WorkSpace\AHL-GEC-EXP\Temp\UART_发送01字符控制灯亮_不使用组帧\Debug/srcc/printf.c:183 (discriminator 3)
		printk_putc('0', count, info);
    888e:	0032      	movs	r2, r6
    8890:	0039      	movs	r1, r7
    8892:	2030      	movs	r0, #48	; 0x30
    8894:	f7ff ff9b 	bl	87ce <printk_putc>
F:\WorkSpace\AHL-GEC-EXP\Temp\UART_发送01字符控制灯亮_不使用组帧\Debug/srcc/printf.c:182 (discriminator 3)
	for (i = curlen; i < field_width; i++) {
    8898:	3401      	adds	r4, #1
    889a:	e7f6      	b.n	888a <printk_pad_zero+0xa>
F:\WorkSpace\AHL-GEC-EXP\Temp\UART_发送01字符控制灯亮_不使用组帧\Debug/srcc/printf.c:185
	}
}
    889c:	bdf8      	pop	{r3, r4, r5, r6, r7, pc}

0000889e <printk_pad_space>:
printk_pad_space():
F:\WorkSpace\AHL-GEC-EXP\Temp\UART_发送01字符控制灯亮_不使用组帧\Debug/srcc/printf.c:189

/********************************************************************/
static void printk_pad_space(int curlen, int field_width, int *count,
		PRINTK_INFO *info) {
    889e:	b5f8      	push	{r3, r4, r5, r6, r7, lr}
    88a0:	0004      	movs	r4, r0
    88a2:	000d      	movs	r5, r1
    88a4:	0017      	movs	r7, r2
    88a6:	001e      	movs	r6, r3
F:\WorkSpace\AHL-GEC-EXP\Temp\UART_发送01字符控制灯亮_不使用组帧\Debug/srcc/printf.c:192 (discriminator 1)
	int i;

	for (i = curlen; i < field_width; i++) {
    88a8:	42ac      	cmp	r4, r5
    88aa:	da06      	bge.n	88ba <printk_pad_space+0x1c>
F:\WorkSpace\AHL-GEC-EXP\Temp\UART_发送01字符控制灯亮_不使用组帧\Debug/srcc/printf.c:193 (discriminator 3)
		printk_putc(' ', count, info);
    88ac:	0032      	movs	r2, r6
    88ae:	0039      	movs	r1, r7
    88b0:	2020      	movs	r0, #32
    88b2:	f7ff ff8c 	bl	87ce <printk_putc>
F:\WorkSpace\AHL-GEC-EXP\Temp\UART_发送01字符控制灯亮_不使用组帧\Debug/srcc/printf.c:192 (discriminator 3)
	for (i = curlen; i < field_width; i++) {
    88b6:	3401      	adds	r4, #1
    88b8:	e7f6      	b.n	88a8 <printk_pad_space+0xa>
F:\WorkSpace\AHL-GEC-EXP\Temp\UART_发送01字符控制灯亮_不使用组帧\Debug/srcc/printf.c:195
	}
}
    88ba:	bdf8      	pop	{r3, r4, r5, r6, r7, pc}

000088bc <out_char>:
out_char():
F:\WorkSpace\AHL-GEC-EXP\Temp\UART_发送01字符控制灯亮_不使用组帧\Debug/srcc/printf.c:17
void out_char(char data) {
    88bc:	b510      	push	{r4, lr}
F:\WorkSpace\AHL-GEC-EXP\Temp\UART_发送01字符控制灯亮_不使用组帧\Debug/srcc/printf.c:18
	uart_send1(UART_printf, data);
    88be:	b2c1      	uxtb	r1, r0
    88c0:	2002      	movs	r0, #2
    88c2:	f7ff fed7 	bl	8674 <uart_send1>
F:\WorkSpace\AHL-GEC-EXP\Temp\UART_发送01字符控制灯亮_不使用组帧\Debug/srcc/printf.c:19
}
    88c6:	bd10      	pop	{r4, pc}

000088c8 <printk_mkfloatstr>:
printk_mkfloatstr():
F:\WorkSpace\AHL-GEC-EXP\Temp\UART_发送01字符控制灯亮_不使用组帧\Debug/srcc/printf.c:47
{
    88c8:	b5f0      	push	{r4, r5, r6, r7, lr}
    88ca:	46d6      	mov	lr, sl
    88cc:	464f      	mov	r7, r9
    88ce:	4646      	mov	r6, r8
    88d0:	b5c0      	push	{r6, r7, lr}
    88d2:	b098      	sub	sp, #96	; 0x60
    88d4:	0004      	movs	r4, r0
    88d6:	4688      	mov	r8, r1
    88d8:	0016      	movs	r6, r2
F:\WorkSpace\AHL-GEC-EXP\Temp\UART_发送01字符控制灯亮_不使用组帧\Debug/srcc/printf.c:48
	uint32_t p,i,j,k,a[5]={0},b[19]={0};
    88da:	2214      	movs	r2, #20
    88dc:	2100      	movs	r1, #0
    88de:	a813      	add	r0, sp, #76	; 0x4c
    88e0:	f000 fb95 	bl	900e <memset>
    88e4:	224c      	movs	r2, #76	; 0x4c
    88e6:	2100      	movs	r1, #0
    88e8:	4668      	mov	r0, sp
    88ea:	f000 fb90 	bl	900e <memset>
F:\WorkSpace\AHL-GEC-EXP\Temp\UART_发送01字符控制灯亮_不使用组帧\Debug/srcc/printf.c:55
	p=(uint32_t)*f;//整数部分
    88ee:	6865      	ldr	r5, [r4, #4]
    88f0:	6824      	ldr	r4, [r4, #0]
    88f2:	0020      	movs	r0, r4
    88f4:	0029      	movs	r1, r5
    88f6:	f7fe fbab 	bl	7050 <__aeabi_d2uiz>
    88fa:	4681      	mov	r9, r0
F:\WorkSpace\AHL-GEC-EXP\Temp\UART_发送01字符控制灯亮_不使用组帧\Debug/srcc/printf.c:56
	tempf=(*f-p);
    88fc:	f7ff fc02 	bl	8104 <__aeabi_ui2d>
    8900:	0002      	movs	r2, r0
    8902:	000b      	movs	r3, r1
    8904:	0020      	movs	r0, r4
    8906:	0029      	movs	r1, r5
    8908:	f7ff f834 	bl	7974 <__aeabi_dsub>
    890c:	0004      	movs	r4, r0
    890e:	000d      	movs	r5, r1
F:\WorkSpace\AHL-GEC-EXP\Temp\UART_发送01字符控制灯亮_不使用组帧\Debug/srcc/printf.c:57
	if(precision_width==0)
    8910:	2e00      	cmp	r6, #0
    8912:	d10a      	bne.n	892a <printk_mkfloatstr+0x62>
F:\WorkSpace\AHL-GEC-EXP\Temp\UART_发送01字符控制灯亮_不使用组帧\Debug/srcc/printf.c:58
	q=(*f-p)*100000000000000000;//小数部分
    8914:	4a51      	ldr	r2, [pc, #324]	; (8a5c <printk_mkfloatstr+0x194>)
    8916:	4b52      	ldr	r3, [pc, #328]	; (8a60 <printk_mkfloatstr+0x198>)
    8918:	f7fe fdc0 	bl	749c <__aeabi_dmul>
    891c:	f7fe fbb6 	bl	708c <__aeabi_d2ulz>
    8920:	0006      	movs	r6, r0
    8922:	000f      	movs	r7, r1
F:\WorkSpace\AHL-GEC-EXP\Temp\UART_发送01字符控制灯亮_不使用组帧\Debug/srcc/printf.c:66
	k=0;
    8924:	2300      	movs	r3, #0
    8926:	469a      	mov	sl, r3
F:\WorkSpace\AHL-GEC-EXP\Temp\UART_发送01字符控制灯亮_不使用组帧\Debug/srcc/printf.c:67
	while(m<1)
    8928:	e018      	b.n	895c <printk_mkfloatstr+0x94>
F:\WorkSpace\AHL-GEC-EXP\Temp\UART_发送01字符控制灯亮_不使用组帧\Debug/srcc/printf.c:61
		while(precision_width--)
    892a:	1e77      	subs	r7, r6, #1
    892c:	2e00      	cmp	r6, #0
    892e:	d005      	beq.n	893c <printk_mkfloatstr+0x74>
F:\WorkSpace\AHL-GEC-EXP\Temp\UART_发送01字符控制灯亮_不使用组帧\Debug/srcc/printf.c:62
		tempf*=10;
    8930:	2200      	movs	r2, #0
    8932:	4b4c      	ldr	r3, [pc, #304]	; (8a64 <printk_mkfloatstr+0x19c>)
    8934:	f7fe fdb2 	bl	749c <__aeabi_dmul>
F:\WorkSpace\AHL-GEC-EXP\Temp\UART_发送01字符控制灯亮_不使用组帧\Debug/srcc/printf.c:61
		while(precision_width--)
    8938:	003e      	movs	r6, r7
    893a:	e7f6      	b.n	892a <printk_mkfloatstr+0x62>
F:\WorkSpace\AHL-GEC-EXP\Temp\UART_发送01字符控制灯亮_不使用组帧\Debug/srcc/printf.c:63
		q=tempf;
    893c:	f7fe fba6 	bl	708c <__aeabi_d2ulz>
    8940:	0006      	movs	r6, r0
    8942:	000f      	movs	r7, r1
    8944:	e7ee      	b.n	8924 <printk_mkfloatstr+0x5c>
F:\WorkSpace\AHL-GEC-EXP\Temp\UART_发送01字符控制灯亮_不使用组帧\Debug/srcc/printf.c:69
		m=m*10;
    8946:	2200      	movs	r2, #0
    8948:	4b46      	ldr	r3, [pc, #280]	; (8a64 <printk_mkfloatstr+0x19c>)
    894a:	0020      	movs	r0, r4
    894c:	0029      	movs	r1, r5
    894e:	f7fe fda5 	bl	749c <__aeabi_dmul>
    8952:	0004      	movs	r4, r0
    8954:	000d      	movs	r5, r1
F:\WorkSpace\AHL-GEC-EXP\Temp\UART_发送01字符控制灯亮_不使用组帧\Debug/srcc/printf.c:70
		k++;
    8956:	2301      	movs	r3, #1
    8958:	469c      	mov	ip, r3
    895a:	44e2      	add	sl, ip
F:\WorkSpace\AHL-GEC-EXP\Temp\UART_发送01字符控制灯亮_不使用组帧\Debug/srcc/printf.c:67
	while(m<1)
    895c:	2200      	movs	r2, #0
    895e:	4b42      	ldr	r3, [pc, #264]	; (8a68 <printk_mkfloatstr+0x1a0>)
    8960:	0020      	movs	r0, r4
    8962:	0029      	movs	r1, r5
    8964:	f7fe fb2c 	bl	6fc0 <__aeabi_dcmplt>
    8968:	2800      	cmp	r0, #0
    896a:	d1ec      	bne.n	8946 <printk_mkfloatstr+0x7e>
F:\WorkSpace\AHL-GEC-EXP\Temp\UART_发送01字符控制灯亮_不使用组帧\Debug/srcc/printf.c:72
	k--;          //记录小数点后到第一位不为零的小数之前 有多少个0.
    896c:	4655      	mov	r5, sl
    896e:	3d01      	subs	r5, #1
F:\WorkSpace\AHL-GEC-EXP\Temp\UART_发送01字符控制灯亮_不使用组帧\Debug/srcc/printf.c:75
	if(0==p)     //整数部分为0
    8970:	464b      	mov	r3, r9
    8972:	2b00      	cmp	r3, #0
    8974:	d132      	bne.n	89dc <printk_mkfloatstr+0x114>
F:\WorkSpace\AHL-GEC-EXP\Temp\UART_发送01字符控制灯亮_不使用组帧\Debug/srcc/printf.c:76
		c[i++]='0';
    8976:	3330      	adds	r3, #48	; 0x30
    8978:	4642      	mov	r2, r8
    897a:	7013      	strb	r3, [r2, #0]
    897c:	3b2f      	subs	r3, #47	; 0x2f
    897e:	4699      	mov	r9, r3
F:\WorkSpace\AHL-GEC-EXP\Temp\UART_发送01字符控制灯亮_不使用组帧\Debug/srcc/printf.c:91
	c[i++]='.';     //小数点
    8980:	2301      	movs	r3, #1
    8982:	444b      	add	r3, r9
    8984:	469a      	mov	sl, r3
    8986:	232e      	movs	r3, #46	; 0x2e
    8988:	4642      	mov	r2, r8
    898a:	4649      	mov	r1, r9
    898c:	5453      	strb	r3, [r2, r1]
F:\WorkSpace\AHL-GEC-EXP\Temp\UART_发送01字符控制灯亮_不使用组帧\Debug/srcc/printf.c:92
	if(0==q)        //小数部分为0
    898e:	0033      	movs	r3, r6
    8990:	433b      	orrs	r3, r7
    8992:	d133      	bne.n	89fc <printk_mkfloatstr+0x134>
F:\WorkSpace\AHL-GEC-EXP\Temp\UART_发送01字符控制灯亮_不使用组帧\Debug/srcc/printf.c:93
		c[i++]='0';
    8994:	3330      	adds	r3, #48	; 0x30
    8996:	4651      	mov	r1, sl
    8998:	5453      	strb	r3, [r2, r1]
    899a:	3b2e      	subs	r3, #46	; 0x2e
    899c:	444b      	add	r3, r9
    899e:	469a      	mov	sl, r3
F:\WorkSpace\AHL-GEC-EXP\Temp\UART_发送01字符控制灯亮_不使用组帧\Debug/srcc/printf.c:114
	c[i]='\0';
    89a0:	4641      	mov	r1, r8
    89a2:	4451      	add	r1, sl
    89a4:	2300      	movs	r3, #0
    89a6:	700b      	strb	r3, [r1, #0]
F:\WorkSpace\AHL-GEC-EXP\Temp\UART_发送01字符控制灯亮_不使用组帧\Debug/srcc/printf.c:116
}
    89a8:	4650      	mov	r0, sl
    89aa:	b018      	add	sp, #96	; 0x60
    89ac:	bce0      	pop	{r5, r6, r7}
    89ae:	46ba      	mov	sl, r7
    89b0:	46b1      	mov	r9, r6
    89b2:	46a8      	mov	r8, r5
    89b4:	bdf0      	pop	{r4, r5, r6, r7, pc}
F:\WorkSpace\AHL-GEC-EXP\Temp\UART_发送01字符控制灯亮_不使用组帧\Debug/srcc/printf.c:82
			a[j++]=p%10;
    89b6:	1c63      	adds	r3, r4, #1
    89b8:	469a      	mov	sl, r3
    89ba:	210a      	movs	r1, #10
    89bc:	4648      	mov	r0, r9
    89be:	f7fe f9f9 	bl	6db4 <__aeabi_uidivmod>
    89c2:	00a4      	lsls	r4, r4, #2
    89c4:	ab13      	add	r3, sp, #76	; 0x4c
    89c6:	5119      	str	r1, [r3, r4]
F:\WorkSpace\AHL-GEC-EXP\Temp\UART_发送01字符控制灯亮_不使用组帧\Debug/srcc/printf.c:83
			p/=10;
    89c8:	210a      	movs	r1, #10
    89ca:	4648      	mov	r0, r9
    89cc:	f7fe f96c 	bl	6ca8 <__udivsi3>
    89d0:	4681      	mov	r9, r0
F:\WorkSpace\AHL-GEC-EXP\Temp\UART_发送01字符控制灯亮_不使用组帧\Debug/srcc/printf.c:82
			a[j++]=p%10;
    89d2:	4654      	mov	r4, sl
F:\WorkSpace\AHL-GEC-EXP\Temp\UART_发送01字符控制灯亮_不使用组帧\Debug/srcc/printf.c:80
		while(p!=0)//倒序的数字
    89d4:	464b      	mov	r3, r9
    89d6:	2b00      	cmp	r3, #0
    89d8:	d1ed      	bne.n	89b6 <printk_mkfloatstr+0xee>
    89da:	e00c      	b.n	89f6 <printk_mkfloatstr+0x12e>
F:\WorkSpace\AHL-GEC-EXP\Temp\UART_发送01字符控制灯亮_不使用组帧\Debug/srcc/printf.c:79
		j=0;
    89dc:	2400      	movs	r4, #0
    89de:	e7f9      	b.n	89d4 <printk_mkfloatstr+0x10c>
F:\WorkSpace\AHL-GEC-EXP\Temp\UART_发送01字符控制灯亮_不使用组帧\Debug/srcc/printf.c:87
			c[i++]=a[j-1]+'0';
    89e0:	3c01      	subs	r4, #1
    89e2:	00a2      	lsls	r2, r4, #2
    89e4:	ab13      	add	r3, sp, #76	; 0x4c
    89e6:	58d3      	ldr	r3, [r2, r3]
    89e8:	3330      	adds	r3, #48	; 0x30
    89ea:	4642      	mov	r2, r8
    89ec:	4649      	mov	r1, r9
    89ee:	5453      	strb	r3, [r2, r1]
    89f0:	2301      	movs	r3, #1
    89f2:	469c      	mov	ip, r3
    89f4:	44e1      	add	r9, ip
F:\WorkSpace\AHL-GEC-EXP\Temp\UART_发送01字符控制灯亮_不使用组帧\Debug/srcc/printf.c:85
		while(j>0)//将倒序数字转为正序，并转换为对应的字符形式
    89f6:	2c00      	cmp	r4, #0
    89f8:	d1f2      	bne.n	89e0 <printk_mkfloatstr+0x118>
    89fa:	e7c1      	b.n	8980 <printk_mkfloatstr+0xb8>
F:\WorkSpace\AHL-GEC-EXP\Temp\UART_发送01字符控制灯亮_不使用组帧\Debug/srcc/printf.c:96
		j=0;
    89fc:	2400      	movs	r4, #0
F:\WorkSpace\AHL-GEC-EXP\Temp\UART_发送01字符控制灯亮_不使用组帧\Debug/srcc/printf.c:98
		while(q!=0)//倒序的数字
    89fe:	0033      	movs	r3, r6
    8a00:	433b      	orrs	r3, r7
    8a02:	d01a      	beq.n	8a3a <printk_mkfloatstr+0x172>
F:\WorkSpace\AHL-GEC-EXP\Temp\UART_发送01字符控制灯亮_不使用组帧\Debug/srcc/printf.c:100
			b[j++]=q%10;
    8a04:	220a      	movs	r2, #10
    8a06:	2300      	movs	r3, #0
    8a08:	0030      	movs	r0, r6
    8a0a:	0039      	movs	r1, r7
    8a0c:	f7fe fb00 	bl	7010 <__aeabi_uldivmod>
    8a10:	1c63      	adds	r3, r4, #1
    8a12:	4699      	mov	r9, r3
    8a14:	00a4      	lsls	r4, r4, #2
    8a16:	466b      	mov	r3, sp
    8a18:	511a      	str	r2, [r3, r4]
F:\WorkSpace\AHL-GEC-EXP\Temp\UART_发送01字符控制灯亮_不使用组帧\Debug/srcc/printf.c:101
			q/=10;
    8a1a:	220a      	movs	r2, #10
    8a1c:	2300      	movs	r3, #0
    8a1e:	0030      	movs	r0, r6
    8a20:	0039      	movs	r1, r7
    8a22:	f7fe faf5 	bl	7010 <__aeabi_uldivmod>
    8a26:	0006      	movs	r6, r0
    8a28:	000f      	movs	r7, r1
F:\WorkSpace\AHL-GEC-EXP\Temp\UART_发送01字符控制灯亮_不使用组帧\Debug/srcc/printf.c:100
			b[j++]=q%10;
    8a2a:	464c      	mov	r4, r9
    8a2c:	e7e7      	b.n	89fe <printk_mkfloatstr+0x136>
F:\WorkSpace\AHL-GEC-EXP\Temp\UART_发送01字符控制灯亮_不使用组帧\Debug/srcc/printf.c:105
			b[j++]=0;
    8a2e:	00a3      	lsls	r3, r4, #2
    8a30:	2200      	movs	r2, #0
    8a32:	4669      	mov	r1, sp
    8a34:	505a      	str	r2, [r3, r1]
F:\WorkSpace\AHL-GEC-EXP\Temp\UART_发送01字符控制灯亮_不使用组帧\Debug/srcc/printf.c:106
			k--;
    8a36:	3d01      	subs	r5, #1
F:\WorkSpace\AHL-GEC-EXP\Temp\UART_发送01字符控制灯亮_不使用组帧\Debug/srcc/printf.c:105
			b[j++]=0;
    8a38:	3401      	adds	r4, #1
F:\WorkSpace\AHL-GEC-EXP\Temp\UART_发送01字符控制灯亮_不使用组帧\Debug/srcc/printf.c:103
		while(k!=0)
    8a3a:	2d00      	cmp	r5, #0
    8a3c:	d1f7      	bne.n	8a2e <printk_mkfloatstr+0x166>
F:\WorkSpace\AHL-GEC-EXP\Temp\UART_发送01字符控制灯亮_不使用组帧\Debug/srcc/printf.c:108
		while(j>0)//将倒序数字转为正序，并转换为对应的字符形式
    8a3e:	2c00      	cmp	r4, #0
    8a40:	d0ae      	beq.n	89a0 <printk_mkfloatstr+0xd8>
F:\WorkSpace\AHL-GEC-EXP\Temp\UART_发送01字符控制灯亮_不使用组帧\Debug/srcc/printf.c:110
			c[i++]=b[j-1]+'0';
    8a42:	3c01      	subs	r4, #1
    8a44:	00a3      	lsls	r3, r4, #2
    8a46:	466a      	mov	r2, sp
    8a48:	589b      	ldr	r3, [r3, r2]
    8a4a:	3330      	adds	r3, #48	; 0x30
    8a4c:	4642      	mov	r2, r8
    8a4e:	4651      	mov	r1, sl
    8a50:	5453      	strb	r3, [r2, r1]
    8a52:	2301      	movs	r3, #1
    8a54:	469c      	mov	ip, r3
    8a56:	44e2      	add	sl, ip
    8a58:	e7f1      	b.n	8a3e <printk_mkfloatstr+0x176>
    8a5a:	46c0      	nop			; (mov r8, r8)
    8a5c:	85d8a000 	.word	0x85d8a000
    8a60:	43763457 	.word	0x43763457
    8a64:	40240000 	.word	0x40240000
    8a68:	3ff00000 	.word	0x3ff00000

00008a6c <printk>:
printk():
F:\WorkSpace\AHL-GEC-EXP\Temp\UART_发送01字符控制灯亮_不使用组帧\Debug/srcc/printf.c:204
//       fmt:输出格式信息
//       ap:va_list指针指向格式信息输出
//函数返回：无
//======================================================================
int printk(PRINTK_INFO *info, const char *fmt, char * ap)
{
    8a6c:	b5f0      	push	{r4, r5, r6, r7, lr}
    8a6e:	46de      	mov	lr, fp
    8a70:	4657      	mov	r7, sl
    8a72:	464e      	mov	r6, r9
    8a74:	4645      	mov	r5, r8
    8a76:	b5e0      	push	{r5, r6, r7, lr}
    8a78:	b095      	sub	sp, #84	; 0x54
    8a7a:	4682      	mov	sl, r0
    8a7c:	000c      	movs	r4, r1
    8a7e:	9200      	str	r2, [sp, #0]
F:\WorkSpace\AHL-GEC-EXP\Temp\UART_发送01字符控制灯亮_不使用组帧\Debug/srcc/printf.c:228

	}un1;*/
	char *p;
	int c;
	//char temp1;
	char vstr[33]={'0'};
    8a80:	2330      	movs	r3, #48	; 0x30
    8a82:	930b      	str	r3, [sp, #44]	; 0x2c
    8a84:	221d      	movs	r2, #29
    8a86:	2100      	movs	r1, #0
    8a88:	a80c      	add	r0, sp, #48	; 0x30
    8a8a:	f000 fac0 	bl	900e <memset>
F:\WorkSpace\AHL-GEC-EXP\Temp\UART_发送01字符控制灯亮_不使用组帧\Debug/srcc/printf.c:249
	int *ivalp;
	char *sval;
	int cval;
	unsigned int uval;

	count = 0;
    8a8e:	2300      	movs	r3, #0
    8a90:	930a      	str	r3, [sp, #40]	; 0x28
F:\WorkSpace\AHL-GEC-EXP\Temp\UART_发送01字符控制灯亮_不使用组帧\Debug/srcc/printf.c:251
	length_modifier=0;
	precision_used=TRUE;
    8a92:	3301      	adds	r3, #1
    8a94:	9302      	str	r3, [sp, #8]
F:\WorkSpace\AHL-GEC-EXP\Temp\UART_发送01字符控制灯亮_不使用组帧\Debug/srcc/printf.c:250
	length_modifier=0;
    8a96:	2300      	movs	r3, #0
    8a98:	9301      	str	r3, [sp, #4]
F:\WorkSpace\AHL-GEC-EXP\Temp\UART_发送01字符控制灯亮_不使用组帧\Debug/srcc/printf.c:253
	//从格式字符串第一个字符开始格式化输出数据
	for (p = (char *) fmt; (c = *p) != 0; p++)
    8a9a:	e004      	b.n	8aa6 <printk+0x3a>
F:\WorkSpace\AHL-GEC-EXP\Temp\UART_发送01字符控制灯亮_不使用组帧\Debug/srcc/printf.c:261
		if (c != '%')
		{
#ifndef UNIX_DEBUG
			//%之前的字符
			if (c != '\n') {
				printk_putc(c, &count, info);
    8a9c:	4652      	mov	r2, sl
    8a9e:	a90a      	add	r1, sp, #40	; 0x28
    8aa0:	f7ff fe95 	bl	87ce <printk_putc>
F:\WorkSpace\AHL-GEC-EXP\Temp\UART_发送01字符控制灯亮_不使用组帧\Debug/srcc/printf.c:253 (discriminator 2)
	for (p = (char *) fmt; (c = *p) != 0; p++)
    8aa4:	3401      	adds	r4, #1
F:\WorkSpace\AHL-GEC-EXP\Temp\UART_发送01字符控制灯亮_不使用组帧\Debug/srcc/printf.c:253 (discriminator 1)
    8aa6:	2000      	movs	r0, #0
    8aa8:	5620      	ldrsb	r0, [r4, r0]
    8aaa:	2800      	cmp	r0, #0
    8aac:	d100      	bne.n	8ab0 <printk+0x44>
    8aae:	e28a      	b.n	8fc6 <printk+0x55a>
F:\WorkSpace\AHL-GEC-EXP\Temp\UART_发送01字符控制灯亮_不使用组帧\Debug/srcc/printf.c:256
		if (c != '%')
    8ab0:	2825      	cmp	r0, #37	; 0x25
    8ab2:	d028      	beq.n	8b06 <printk+0x9a>
F:\WorkSpace\AHL-GEC-EXP\Temp\UART_发送01字符控制灯亮_不使用组帧\Debug/srcc/printf.c:260
			if (c != '\n') {
    8ab4:	280a      	cmp	r0, #10
    8ab6:	d1f1      	bne.n	8a9c <printk+0x30>
F:\WorkSpace\AHL-GEC-EXP\Temp\UART_发送01字符控制灯亮_不使用组帧\Debug/srcc/printf.c:265
			}
			//输出换行符
			else {
				printk_putc(0x0D /* CR */, &count, info);
    8ab8:	4652      	mov	r2, sl
    8aba:	a90a      	add	r1, sp, #40	; 0x28
    8abc:	200d      	movs	r0, #13
    8abe:	f7ff fe86 	bl	87ce <printk_putc>
F:\WorkSpace\AHL-GEC-EXP\Temp\UART_发送01字符控制灯亮_不使用组帧\Debug/srcc/printf.c:266
				printk_putc(0x0A /* LF */, &count, info);
    8ac2:	4652      	mov	r2, sl
    8ac4:	a90a      	add	r1, sp, #40	; 0x28
    8ac6:	200a      	movs	r0, #10
    8ac8:	f7ff fe81 	bl	87ce <printk_putc>
F:\WorkSpace\AHL-GEC-EXP\Temp\UART_发送01字符控制灯亮_不使用组帧\Debug/srcc/printf.c:272
			}
#else
			printk_putc(c, &count, info);
#endif

			continue;
    8acc:	e7ea      	b.n	8aa4 <printk+0x38>
F:\WorkSpace\AHL-GEC-EXP\Temp\UART_发送01字符控制灯亮_不使用组帧\Debug/srcc/printf.c:283
		flags_used = 0;
		done = FALSE;
		while (!done) {
			switch (/* c = */*++p) {
			case '-':
				flags_used |= FLAGS_MINUS;
    8ace:	2301      	movs	r3, #1
    8ad0:	431e      	orrs	r6, r3
F:\WorkSpace\AHL-GEC-EXP\Temp\UART_发送01字符控制灯亮_不使用组帧\Debug/srcc/printf.c:204
{
    8ad2:	000c      	movs	r4, r1
F:\WorkSpace\AHL-GEC-EXP\Temp\UART_发送01字符控制灯亮_不使用组帧\Debug/srcc/printf.c:280
		while (!done) {
    8ad4:	2800      	cmp	r0, #0
    8ad6:	d11b      	bne.n	8b10 <printk+0xa4>
F:\WorkSpace\AHL-GEC-EXP\Temp\UART_发送01字符控制灯亮_不使用组帧\Debug/srcc/printf.c:281
			switch (/* c = */*++p) {
    8ad8:	1c61      	adds	r1, r4, #1
    8ada:	2301      	movs	r3, #1
    8adc:	56e3      	ldrsb	r3, [r4, r3]
    8ade:	3b20      	subs	r3, #32
    8ae0:	b2da      	uxtb	r2, r3
    8ae2:	2a10      	cmp	r2, #16
    8ae4:	d812      	bhi.n	8b0c <printk+0xa0>
    8ae6:	0093      	lsls	r3, r2, #2
    8ae8:	4ac0      	ldr	r2, [pc, #768]	; (8dec <printk+0x380>)
    8aea:	58d3      	ldr	r3, [r2, r3]
    8aec:	469f      	mov	pc, r3
F:\WorkSpace\AHL-GEC-EXP\Temp\UART_发送01字符控制灯亮_不使用组帧\Debug/srcc/printf.c:286
				break;
			case '+':
				flags_used |= FLAGS_PLUS;
    8aee:	2302      	movs	r3, #2
    8af0:	431e      	orrs	r6, r3
F:\WorkSpace\AHL-GEC-EXP\Temp\UART_发送01字符控制灯亮_不使用组帧\Debug/srcc/printf.c:287
				break;
    8af2:	e7ee      	b.n	8ad2 <printk+0x66>
F:\WorkSpace\AHL-GEC-EXP\Temp\UART_发送01字符控制灯亮_不使用组帧\Debug/srcc/printf.c:289
			case ' ':
				flags_used |= FLAGS_SPACE;
    8af4:	2304      	movs	r3, #4
    8af6:	431e      	orrs	r6, r3
F:\WorkSpace\AHL-GEC-EXP\Temp\UART_发送01字符控制灯亮_不使用组帧\Debug/srcc/printf.c:290
				break;
    8af8:	e7eb      	b.n	8ad2 <printk+0x66>
F:\WorkSpace\AHL-GEC-EXP\Temp\UART_发送01字符控制灯亮_不使用组帧\Debug/srcc/printf.c:292
			case '0':
				flags_used |= FLAGS_ZERO;
    8afa:	2308      	movs	r3, #8
    8afc:	431e      	orrs	r6, r3
F:\WorkSpace\AHL-GEC-EXP\Temp\UART_发送01字符控制灯亮_不使用组帧\Debug/srcc/printf.c:293
				break;
    8afe:	e7e8      	b.n	8ad2 <printk+0x66>
F:\WorkSpace\AHL-GEC-EXP\Temp\UART_发送01字符控制灯亮_不使用组帧\Debug/srcc/printf.c:295
			case '#':
				flags_used |= FLAGS_POUND;
    8b00:	2310      	movs	r3, #16
    8b02:	431e      	orrs	r6, r3
F:\WorkSpace\AHL-GEC-EXP\Temp\UART_发送01字符控制灯亮_不使用组帧\Debug/srcc/printf.c:296
				break;
    8b04:	e7e5      	b.n	8ad2 <printk+0x66>
F:\WorkSpace\AHL-GEC-EXP\Temp\UART_发送01字符控制灯亮_不使用组帧\Debug/srcc/printf.c:278
		flags_used = 0;
    8b06:	2600      	movs	r6, #0
F:\WorkSpace\AHL-GEC-EXP\Temp\UART_发送01字符控制灯亮_不使用组帧\Debug/srcc/printf.c:279
		done = FALSE;
    8b08:	2000      	movs	r0, #0
    8b0a:	e7e3      	b.n	8ad4 <printk+0x68>
F:\WorkSpace\AHL-GEC-EXP\Temp\UART_发送01字符控制灯亮_不使用组帧\Debug/srcc/printf.c:281
			switch (/* c = */*++p) {
    8b0c:	2001      	movs	r0, #1
    8b0e:	e7e1      	b.n	8ad4 <printk+0x68>
F:\WorkSpace\AHL-GEC-EXP\Temp\UART_发送01字符控制灯亮_不使用组帧\Debug/srcc/printf.c:307
			}
		}


		//检查%后再下一个字符 确定输出长度
		field_width = 0;
    8b10:	2500      	movs	r5, #0
F:\WorkSpace\AHL-GEC-EXP\Temp\UART_发送01字符控制灯亮_不使用组帧\Debug/srcc/printf.c:308
		done = FALSE;
    8b12:	2700      	movs	r7, #0
    8b14:	e000      	b.n	8b18 <printk+0xac>
F:\WorkSpace\AHL-GEC-EXP\Temp\UART_发送01字符控制灯亮_不使用组帧\Debug/srcc/printf.c:326
				field_width = (field_width * 10) + (c - '0');
				break;
			default:
				/* we've gone one char too far */
				--p;
				done = TRUE;
    8b16:	0007      	movs	r7, r0
F:\WorkSpace\AHL-GEC-EXP\Temp\UART_发送01字符控制灯亮_不使用组帧\Debug/srcc/printf.c:309
		while (!done) {
    8b18:	2f00      	cmp	r7, #0
    8b1a:	d10d      	bne.n	8b38 <printk+0xcc>
F:\WorkSpace\AHL-GEC-EXP\Temp\UART_发送01字符控制灯亮_不使用组帧\Debug/srcc/printf.c:310
			switch (c = *++p) {
    8b1c:	1c61      	adds	r1, r4, #1
    8b1e:	2201      	movs	r2, #1
    8b20:	56a2      	ldrsb	r2, [r4, r2]
    8b22:	0013      	movs	r3, r2
    8b24:	3b30      	subs	r3, #48	; 0x30
    8b26:	2b09      	cmp	r3, #9
    8b28:	d8f5      	bhi.n	8b16 <printk+0xaa>
F:\WorkSpace\AHL-GEC-EXP\Temp\UART_发送01字符控制灯亮_不使用组帧\Debug/srcc/printf.c:321
				field_width = (field_width * 10) + (c - '0');
    8b2a:	00ab      	lsls	r3, r5, #2
    8b2c:	195d      	adds	r5, r3, r5
    8b2e:	006d      	lsls	r5, r5, #1
    8b30:	3a30      	subs	r2, #48	; 0x30
    8b32:	18ad      	adds	r5, r5, r2
F:\WorkSpace\AHL-GEC-EXP\Temp\UART_发送01字符控制灯亮_不使用组帧\Debug/srcc/printf.c:310
			switch (c = *++p) {
    8b34:	000c      	movs	r4, r1
F:\WorkSpace\AHL-GEC-EXP\Temp\UART_发送01字符控制灯亮_不使用组帧\Debug/srcc/printf.c:322
				break;
    8b36:	e7ef      	b.n	8b18 <printk+0xac>
F:\WorkSpace\AHL-GEC-EXP\Temp\UART_发送01字符控制灯亮_不使用组帧\Debug/srcc/printf.c:331
				break;
			}
		}
		//此时字符为%看是否有.输入
		if (/* (c = *++p) */*++p == '.') {
    8b38:	1c62      	adds	r2, r4, #1
    8b3a:	2301      	movs	r3, #1
    8b3c:	56e3      	ldrsb	r3, [r4, r3]
    8b3e:	2b2e      	cmp	r3, #46	; 0x2e
    8b40:	d019      	beq.n	8b76 <printk+0x10a>
F:\WorkSpace\AHL-GEC-EXP\Temp\UART_发送01字符控制灯亮_不使用组帧\Debug/srcc/printf.c:368
		} else {
			/* we've gone one char too far */
			--p;
#if 1
			precision_used = FALSE;
			precision_width = 0;
    8b42:	2300      	movs	r3, #0
    8b44:	4698      	mov	r8, r3
F:\WorkSpace\AHL-GEC-EXP\Temp\UART_发送01字符控制灯亮_不使用组帧\Debug/srcc/printf.c:367
			precision_used = FALSE;
    8b46:	9302      	str	r3, [sp, #8]
F:\WorkSpace\AHL-GEC-EXP\Temp\UART_发送01字符控制灯亮_不使用组帧\Debug/srcc/printf.c:372
#endif
		}
		//判断 输出的是否有lf、LF等
		switch (/* c = */*++p) {
    8b48:	1c62      	adds	r2, r4, #1
    8b4a:	2301      	movs	r3, #1
    8b4c:	56e3      	ldrsb	r3, [r4, r3]
    8b4e:	2b68      	cmp	r3, #104	; 0x68
    8b50:	d004      	beq.n	8b5c <printk+0xf0>
    8b52:	2b6c      	cmp	r3, #108	; 0x6c
    8b54:	d02b      	beq.n	8bae <printk+0x142>
    8b56:	2b4c      	cmp	r3, #76	; 0x4c
    8b58:	d02e      	beq.n	8bb8 <printk+0x14c>
F:\WorkSpace\AHL-GEC-EXP\Temp\UART_发送01字符控制灯亮_不使用组帧\Debug/srcc/printf.c:384
		case 'L':
			 length_modifier |= LENMOD_L;
			break;
		default:
			/* we've gone one char too far */
			--p;
    8b5a:	0022      	movs	r2, r4
F:\WorkSpace\AHL-GEC-EXP\Temp\UART_发送01字符控制灯亮_不使用组帧\Debug/srcc/printf.c:389
			break;
		}

		//p为格式字符串的首地址
		switch (c = *++p) {
    8b5c:	1c54      	adds	r4, r2, #1
    8b5e:	2001      	movs	r0, #1
    8b60:	5610      	ldrsb	r0, [r2, r0]
    8b62:	0003      	movs	r3, r0
    8b64:	3b58      	subs	r3, #88	; 0x58
    8b66:	b2da      	uxtb	r2, r3
    8b68:	2a20      	cmp	r2, #32
    8b6a:	d900      	bls.n	8b6e <printk+0x102>
    8b6c:	e224      	b.n	8fb8 <printk+0x54c>
    8b6e:	0093      	lsls	r3, r2, #2
    8b70:	4a9f      	ldr	r2, [pc, #636]	; (8df0 <printk+0x384>)
    8b72:	58d3      	ldr	r3, [r2, r3]
    8b74:	469f      	mov	pc, r3
F:\WorkSpace\AHL-GEC-EXP\Temp\UART_发送01字符控制灯亮_不使用组帧\Debug/srcc/printf.c:337
			precision_width = 0;
    8b76:	2300      	movs	r3, #0
F:\WorkSpace\AHL-GEC-EXP\Temp\UART_发送01字符控制灯亮_不使用组帧\Debug/srcc/printf.c:338
			done = FALSE;
    8b78:	2000      	movs	r0, #0
    8b7a:	46ac      	mov	ip, r5
    8b7c:	0005      	movs	r5, r0
    8b7e:	0019      	movs	r1, r3
    8b80:	e000      	b.n	8b84 <printk+0x118>
F:\WorkSpace\AHL-GEC-EXP\Temp\UART_发送01字符控制灯亮_不使用组帧\Debug/srcc/printf.c:359
					done = TRUE;
    8b82:	003d      	movs	r5, r7
F:\WorkSpace\AHL-GEC-EXP\Temp\UART_发送01字符控制灯亮_不使用组帧\Debug/srcc/printf.c:339
			while (!done) {
    8b84:	2d00      	cmp	r5, #0
    8b86:	d10e      	bne.n	8ba6 <printk+0x13a>
F:\WorkSpace\AHL-GEC-EXP\Temp\UART_发送01字符控制灯亮_不使用组帧\Debug/srcc/printf.c:340
				switch ( c = *++p) {
    8b88:	1c50      	adds	r0, r2, #1
    8b8a:	2401      	movs	r4, #1
    8b8c:	5714      	ldrsb	r4, [r2, r4]
    8b8e:	0023      	movs	r3, r4
    8b90:	3b30      	subs	r3, #48	; 0x30
    8b92:	2b09      	cmp	r3, #9
    8b94:	d8f5      	bhi.n	8b82 <printk+0x116>
F:\WorkSpace\AHL-GEC-EXP\Temp\UART_发送01字符控制灯亮_不使用组帧\Debug/srcc/printf.c:352
				precision_width = (precision_width * 10) +	(c - '0');
    8b96:	008b      	lsls	r3, r1, #2
    8b98:	185b      	adds	r3, r3, r1
    8b9a:	005b      	lsls	r3, r3, #1
    8b9c:	0021      	movs	r1, r4
    8b9e:	3930      	subs	r1, #48	; 0x30
    8ba0:	1859      	adds	r1, r3, r1
F:\WorkSpace\AHL-GEC-EXP\Temp\UART_发送01字符控制灯亮_不使用组帧\Debug/srcc/printf.c:340
				switch ( c = *++p) {
    8ba2:	0002      	movs	r2, r0
F:\WorkSpace\AHL-GEC-EXP\Temp\UART_发送01字符控制灯亮_不使用组帧\Debug/srcc/printf.c:355
					break;
    8ba4:	e7ee      	b.n	8b84 <printk+0x118>
    8ba6:	4665      	mov	r5, ip
    8ba8:	4688      	mov	r8, r1
    8baa:	0014      	movs	r4, r2
    8bac:	e7cc      	b.n	8b48 <printk+0xdc>
F:\WorkSpace\AHL-GEC-EXP\Temp\UART_发送01字符控制灯亮_不使用组帧\Debug/srcc/printf.c:377
			 length_modifier |= LENMOD_l;
    8bae:	2301      	movs	r3, #1
    8bb0:	9901      	ldr	r1, [sp, #4]
    8bb2:	4319      	orrs	r1, r3
    8bb4:	9101      	str	r1, [sp, #4]
F:\WorkSpace\AHL-GEC-EXP\Temp\UART_发送01字符控制灯亮_不使用组帧\Debug/srcc/printf.c:378
			break;
    8bb6:	e7d1      	b.n	8b5c <printk+0xf0>
F:\WorkSpace\AHL-GEC-EXP\Temp\UART_发送01字符控制灯亮_不使用组帧\Debug/srcc/printf.c:380
			 length_modifier |= LENMOD_L;
    8bb8:	2302      	movs	r3, #2
    8bba:	9901      	ldr	r1, [sp, #4]
    8bbc:	4319      	orrs	r1, r3
    8bbe:	9101      	str	r1, [sp, #4]
F:\WorkSpace\AHL-GEC-EXP\Temp\UART_发送01字符控制灯亮_不使用组帧\Debug/srcc/printf.c:381
			break;
    8bc0:	e7cc      	b.n	8b5c <printk+0xf0>
F:\WorkSpace\AHL-GEC-EXP\Temp\UART_发送01字符控制灯亮_不使用组帧\Debug/srcc/printf.c:394
		case 'd':
		case 'i':
			//此时ap为指向可变参数列表的第一个参数
			//返回当前参数，并将ap指向下一个参数
			ival = (int) va_arg(ap, int);  
    8bc2:	9f00      	ldr	r7, [sp, #0]
    8bc4:	cf08      	ldmia	r7!, {r3}
    8bc6:	9309      	str	r3, [sp, #36]	; 0x24
F:\WorkSpace\AHL-GEC-EXP\Temp\UART_发送01字符控制灯亮_不使用组帧\Debug/srcc/printf.c:396
			//将整型转换成字符型保存在vstr中，返回字符数vlen
			vlen = printk_mknumstr(vstr, &ival, TRUE, 10);
    8bc8:	230a      	movs	r3, #10
    8bca:	2201      	movs	r2, #1
    8bcc:	a909      	add	r1, sp, #36	; 0x24
    8bce:	a80b      	add	r0, sp, #44	; 0x2c
    8bd0:	f7ff fe12 	bl	87f8 <printk_mknumstr>
    8bd4:	4681      	mov	r9, r0
F:\WorkSpace\AHL-GEC-EXP\Temp\UART_发送01字符控制灯亮_不使用组帧\Debug/srcc/printf.c:398
			//指向转换后的最后一个字符
			vstrp = &vstr[vlen];  
    8bd6:	ab0b      	add	r3, sp, #44	; 0x2c
    8bd8:	444b      	add	r3, r9
    8bda:	4698      	mov	r8, r3
F:\WorkSpace\AHL-GEC-EXP\Temp\UART_发送01字符控制灯亮_不使用组帧\Debug/srcc/printf.c:401

			//若参数小于0，添加'-'号，并将字符长度加1
			if (ival < 0) {
    8bdc:	9b09      	ldr	r3, [sp, #36]	; 0x24
    8bde:	2b00      	cmp	r3, #0
    8be0:	db07      	blt.n	8bf2 <printk+0x186>
F:\WorkSpace\AHL-GEC-EXP\Temp\UART_发送01字符控制灯亮_不使用组帧\Debug/srcc/printf.c:407
				schar = '-';
				++vlen;
			}
			//若参数不小于0，添加‘+’号或者‘ ’或者为0，并将字符长度加1
			else {
				if (IS_FLAG_PLUS(flags_used)) {
    8be2:	07b3      	lsls	r3, r6, #30
    8be4:	d51b      	bpl.n	8c1e <printk+0x1b2>
F:\WorkSpace\AHL-GEC-EXP\Temp\UART_发送01字符控制灯亮_不使用组帧\Debug/srcc/printf.c:409
					schar = '+';
					++vlen;
    8be6:	2301      	movs	r3, #1
    8be8:	469c      	mov	ip, r3
    8bea:	44e1      	add	r9, ip
F:\WorkSpace\AHL-GEC-EXP\Temp\UART_发送01字符控制灯亮_不使用组帧\Debug/srcc/printf.c:408
					schar = '+';
    8bec:	332a      	adds	r3, #42	; 0x2a
    8bee:	469b      	mov	fp, r3
    8bf0:	e004      	b.n	8bfc <printk+0x190>
F:\WorkSpace\AHL-GEC-EXP\Temp\UART_发送01字符控制灯亮_不使用组帧\Debug/srcc/printf.c:403
				++vlen;
    8bf2:	2301      	movs	r3, #1
    8bf4:	469c      	mov	ip, r3
    8bf6:	44e1      	add	r9, ip
F:\WorkSpace\AHL-GEC-EXP\Temp\UART_发送01字符控制灯亮_不使用组帧\Debug/srcc/printf.c:402
				schar = '-';
    8bf8:	332c      	adds	r3, #44	; 0x2c
    8bfa:	469b      	mov	fp, r3
F:\WorkSpace\AHL-GEC-EXP\Temp\UART_发送01字符控制灯亮_不使用组帧\Debug/srcc/printf.c:424
			dschar = FALSE;

			/*
			 * do the ZERO pad.
			 */
			if (IS_FLAG_ZERO(flags_used)) {
    8bfc:	0733      	lsls	r3, r6, #28
    8bfe:	d520      	bpl.n	8c42 <printk+0x1d6>
F:\WorkSpace\AHL-GEC-EXP\Temp\UART_发送01字符控制灯亮_不使用组帧\Debug/srcc/printf.c:425
				if (schar)
    8c00:	465b      	mov	r3, fp
    8c02:	2b00      	cmp	r3, #0
    8c04:	d117      	bne.n	8c36 <printk+0x1ca>
F:\WorkSpace\AHL-GEC-EXP\Temp\UART_发送01字符控制灯亮_不使用组帧\Debug/srcc/printf.c:428
					printk_putc(schar, &count, info);  //输出符号
				dschar = TRUE;
				printk_pad_zero(vlen, field_width, &count, info);
    8c06:	4653      	mov	r3, sl
    8c08:	aa0a      	add	r2, sp, #40	; 0x28
    8c0a:	0029      	movs	r1, r5
    8c0c:	4648      	mov	r0, r9
    8c0e:	f7ff fe37 	bl	8880 <printk_pad_zero>
F:\WorkSpace\AHL-GEC-EXP\Temp\UART_发送01字符控制灯亮_不使用组帧\Debug/srcc/printf.c:429
				vlen = field_width;
    8c12:	46a9      	mov	r9, r5
F:\WorkSpace\AHL-GEC-EXP\Temp\UART_发送01字符控制灯亮_不使用组帧\Debug/srcc/printf.c:394
			ival = (int) va_arg(ap, int);  
    8c14:	9700      	str	r7, [sp, #0]
    8c16:	4647      	mov	r7, r8
    8c18:	46a0      	mov	r8, r4
    8c1a:	4654      	mov	r4, sl
F:\WorkSpace\AHL-GEC-EXP\Temp\UART_发送01字符控制灯亮_不使用组帧\Debug/srcc/printf.c:445
			/* the string was built in reverse order, now display in */
			/* correct order */
			if (!dschar && schar) {
				printk_putc(schar, &count, info);
			}
			goto cont_xd;  //开始跳转
    8c1c:	e16c      	b.n	8ef8 <printk+0x48c>
F:\WorkSpace\AHL-GEC-EXP\Temp\UART_发送01字符控制灯亮_不使用组帧\Debug/srcc/printf.c:411
					if (IS_FLAG_SPACE(flags_used)) {
    8c1e:	2304      	movs	r3, #4
    8c20:	001a      	movs	r2, r3
    8c22:	4032      	ands	r2, r6
    8c24:	4693      	mov	fp, r2
    8c26:	4233      	tst	r3, r6
    8c28:	d0e8      	beq.n	8bfc <printk+0x190>
F:\WorkSpace\AHL-GEC-EXP\Temp\UART_发送01字符控制灯亮_不使用组帧\Debug/srcc/printf.c:413
						++vlen;
    8c2a:	3b03      	subs	r3, #3
    8c2c:	469c      	mov	ip, r3
    8c2e:	44e1      	add	r9, ip
F:\WorkSpace\AHL-GEC-EXP\Temp\UART_发送01字符控制灯亮_不使用组帧\Debug/srcc/printf.c:412
						schar = ' ';
    8c30:	331f      	adds	r3, #31
    8c32:	469b      	mov	fp, r3
    8c34:	e7e2      	b.n	8bfc <printk+0x190>
F:\WorkSpace\AHL-GEC-EXP\Temp\UART_发送01字符控制灯亮_不使用组帧\Debug/srcc/printf.c:426
					printk_putc(schar, &count, info);  //输出符号
    8c36:	4652      	mov	r2, sl
    8c38:	a90a      	add	r1, sp, #40	; 0x28
    8c3a:	4658      	mov	r0, fp
    8c3c:	f7ff fdc7 	bl	87ce <printk_putc>
    8c40:	e7e1      	b.n	8c06 <printk+0x19a>
F:\WorkSpace\AHL-GEC-EXP\Temp\UART_发送01字符控制灯亮_不使用组帧\Debug/srcc/printf.c:431
				if (!IS_FLAG_MINUS(flags_used)) {
    8c42:	07f3      	lsls	r3, r6, #31
    8c44:	d508      	bpl.n	8c58 <printk+0x1ec>
F:\WorkSpace\AHL-GEC-EXP\Temp\UART_发送01字符控制灯亮_不使用组帧\Debug/srcc/printf.c:442
			if (!dschar && schar) {
    8c46:	465b      	mov	r3, fp
    8c48:	2b00      	cmp	r3, #0
    8c4a:	d0e3      	beq.n	8c14 <printk+0x1a8>
F:\WorkSpace\AHL-GEC-EXP\Temp\UART_发送01字符控制灯亮_不使用组帧\Debug/srcc/printf.c:443
				printk_putc(schar, &count, info);
    8c4c:	4652      	mov	r2, sl
    8c4e:	a90a      	add	r1, sp, #40	; 0x28
    8c50:	4658      	mov	r0, fp
    8c52:	f7ff fdbc 	bl	87ce <printk_putc>
    8c56:	e7dd      	b.n	8c14 <printk+0x1a8>
F:\WorkSpace\AHL-GEC-EXP\Temp\UART_发送01字符控制灯亮_不使用组帧\Debug/srcc/printf.c:432
					printk_pad_space(vlen, field_width, &count, info);  //输出空格
    8c58:	4653      	mov	r3, sl
    8c5a:	aa0a      	add	r2, sp, #40	; 0x28
    8c5c:	0029      	movs	r1, r5
    8c5e:	4648      	mov	r0, r9
    8c60:	f7ff fe1d 	bl	889e <printk_pad_space>
F:\WorkSpace\AHL-GEC-EXP\Temp\UART_发送01字符控制灯亮_不使用组帧\Debug/srcc/printf.c:434
					if (schar)
    8c64:	465b      	mov	r3, fp
    8c66:	2b00      	cmp	r3, #0
    8c68:	d0d4      	beq.n	8c14 <printk+0x1a8>
F:\WorkSpace\AHL-GEC-EXP\Temp\UART_发送01字符控制灯亮_不使用组帧\Debug/srcc/printf.c:435
						printk_putc(schar, &count, info);
    8c6a:	4652      	mov	r2, sl
    8c6c:	a90a      	add	r1, sp, #40	; 0x28
    8c6e:	4658      	mov	r0, fp
    8c70:	f7ff fdad 	bl	87ce <printk_putc>
    8c74:	e7ce      	b.n	8c14 <printk+0x1a8>
F:\WorkSpace\AHL-GEC-EXP\Temp\UART_发送01字符控制灯亮_不使用组帧\Debug/srcc/printf.c:457
			//实际传入变参数 函数后 浮点数变为:0x6000000040091EB8 实际是将其转化为double型数据
			//但是顺序反了，我们要做的是将后四字节提前，然后把0x60移到紧接着前四个字节后的位置。
			
			//【20200816】  XSX，解决浮点数不优化问题
			ap=ap+4;
			fval= (double)va_arg(ap,double);
    8c76:	9b00      	ldr	r3, [sp, #0]
    8c78:	001a      	movs	r2, r3
    8c7a:	320c      	adds	r2, #12
    8c7c:	9200      	str	r2, [sp, #0]
    8c7e:	6859      	ldr	r1, [r3, #4]
    8c80:	689f      	ldr	r7, [r3, #8]
    8c82:	9103      	str	r1, [sp, #12]
    8c84:	000a      	movs	r2, r1
    8c86:	003b      	movs	r3, r7
    8c88:	9206      	str	r2, [sp, #24]
    8c8a:	9307      	str	r3, [sp, #28]
F:\WorkSpace\AHL-GEC-EXP\Temp\UART_发送01字符控制灯亮_不使用组帧\Debug/srcc/printf.c:461
			
			//【20200816】  XSX，解决负数的浮点数输出问题
			//若参数小于0，添加'-'号，并将字符长度加1
			if (fval < 0) {
    8c8c:	2200      	movs	r2, #0
    8c8e:	2300      	movs	r3, #0
    8c90:	9803      	ldr	r0, [sp, #12]
    8c92:	0039      	movs	r1, r7
    8c94:	f7fe f994 	bl	6fc0 <__aeabi_dcmplt>
    8c98:	2800      	cmp	r0, #0
    8c9a:	d108      	bne.n	8cae <printk+0x242>
F:\WorkSpace\AHL-GEC-EXP\Temp\UART_发送01字符控制灯亮_不使用组帧\Debug/srcc/printf.c:468
				fval = -fval;				//负数取它的正数
				++vlen;
			}
			//若参数不小于0，添加‘+’号或者‘ ’或者为0，并将字符长度加1
			else {
				if (IS_FLAG_PLUS(flags_used)) {
    8c9c:	07b3      	lsls	r3, r6, #30
    8c9e:	d428      	bmi.n	8cf2 <printk+0x286>
F:\WorkSpace\AHL-GEC-EXP\Temp\UART_发送01字符控制灯亮_不使用组帧\Debug/srcc/printf.c:472
					schar = '+';
					++vlen;
				} else {
					if (IS_FLAG_SPACE(flags_used)) {
    8ca0:	2304      	movs	r3, #4
    8ca2:	001f      	movs	r7, r3
    8ca4:	4037      	ands	r7, r6
    8ca6:	4233      	tst	r3, r6
    8ca8:	d008      	beq.n	8cbc <printk+0x250>
F:\WorkSpace\AHL-GEC-EXP\Temp\UART_发送01字符控制灯亮_不使用组帧\Debug/srcc/printf.c:473
						schar = ' ';
    8caa:	2720      	movs	r7, #32
    8cac:	e006      	b.n	8cbc <printk+0x250>
F:\WorkSpace\AHL-GEC-EXP\Temp\UART_发送01字符控制灯亮_不使用组帧\Debug/srcc/printf.c:463
				fval = -fval;				//负数取它的正数
    8cae:	9a03      	ldr	r2, [sp, #12]
    8cb0:	2180      	movs	r1, #128	; 0x80
    8cb2:	0609      	lsls	r1, r1, #24
    8cb4:	187b      	adds	r3, r7, r1
    8cb6:	9206      	str	r2, [sp, #24]
    8cb8:	9307      	str	r3, [sp, #28]
F:\WorkSpace\AHL-GEC-EXP\Temp\UART_发送01字符控制灯亮_不使用组帧\Debug/srcc/printf.c:462
				schar = '-';
    8cba:	272d      	movs	r7, #45	; 0x2d
F:\WorkSpace\AHL-GEC-EXP\Temp\UART_发送01字符控制灯亮_不使用组帧\Debug/srcc/printf.c:483
				}
			}
			dschar = FALSE;
			
			//确定是否使用小数点精度数值
			if(precision_used)
    8cbc:	9b02      	ldr	r3, [sp, #8]
    8cbe:	2b00      	cmp	r3, #0
    8cc0:	d119      	bne.n	8cf6 <printk+0x28a>
F:\WorkSpace\AHL-GEC-EXP\Temp\UART_发送01字符控制灯亮_不使用组帧\Debug/srcc/printf.c:491
				vlen = printk_mkfloatstr(&fval,vstr,precision_width);
				vstrp = &vstr[0];  //指向转换后的第一个字符
			}
			else
			{	//浮点型精度到小数点后8位
				if(length_modifier==0)   
    8cc2:	9b01      	ldr	r3, [sp, #4]
    8cc4:	2b00      	cmp	r3, #0
    8cc6:	d11d      	bne.n	8d04 <printk+0x298>
F:\WorkSpace\AHL-GEC-EXP\Temp\UART_发送01字符控制灯亮_不使用组帧\Debug/srcc/printf.c:493
				{	//将整型转换成字符型保存在vstr中，返回字符数vlen
					vlen = printk_mkfloatstr(&fval,vstr,8);
    8cc8:	2208      	movs	r2, #8
    8cca:	a90b      	add	r1, sp, #44	; 0x2c
    8ccc:	a806      	add	r0, sp, #24
    8cce:	f7ff fdfb 	bl	88c8 <printk_mkfloatstr>
    8cd2:	4680      	mov	r8, r0
F:\WorkSpace\AHL-GEC-EXP\Temp\UART_发送01字符控制灯亮_不使用组帧\Debug/srcc/printf.c:511
			

			/*
			 * do the ZERO pad.
			 */
			if (IS_FLAG_ZERO(flags_used)) {
    8cd4:	0733      	lsls	r3, r6, #28
    8cd6:	d522      	bpl.n	8d1e <printk+0x2b2>
F:\WorkSpace\AHL-GEC-EXP\Temp\UART_发送01字符控制灯亮_不使用组帧\Debug/srcc/printf.c:512
				if (schar)
    8cd8:	2f00      	cmp	r7, #0
    8cda:	d11a      	bne.n	8d12 <printk+0x2a6>
F:\WorkSpace\AHL-GEC-EXP\Temp\UART_发送01字符控制灯亮_不使用组帧\Debug/srcc/printf.c:515
					printk_putc(schar, &count, info);  //输出符号
				dschar = TRUE;
				printk_pad_zero(vlen, field_width, &count, info);
    8cdc:	4653      	mov	r3, sl
    8cde:	aa0a      	add	r2, sp, #40	; 0x28
    8ce0:	0029      	movs	r1, r5
    8ce2:	4640      	mov	r0, r8
    8ce4:	f7ff fdcc 	bl	8880 <printk_pad_zero>
F:\WorkSpace\AHL-GEC-EXP\Temp\UART_发送01字符控制灯亮_不使用组帧\Debug/srcc/printf.c:516
				vlen = field_width;
    8ce8:	46a8      	mov	r8, r5
    8cea:	af0b      	add	r7, sp, #44	; 0x2c
    8cec:	46a1      	mov	r9, r4
    8cee:	4654      	mov	r4, sl
    8cf0:	e032      	b.n	8d58 <printk+0x2ec>
F:\WorkSpace\AHL-GEC-EXP\Temp\UART_发送01字符控制灯亮_不使用组帧\Debug/srcc/printf.c:469
					schar = '+';
    8cf2:	272b      	movs	r7, #43	; 0x2b
    8cf4:	e7e2      	b.n	8cbc <printk+0x250>
F:\WorkSpace\AHL-GEC-EXP\Temp\UART_发送01字符控制灯亮_不使用组帧\Debug/srcc/printf.c:486
				vlen = printk_mkfloatstr(&fval,vstr,precision_width);
    8cf6:	4642      	mov	r2, r8
    8cf8:	a90b      	add	r1, sp, #44	; 0x2c
    8cfa:	a806      	add	r0, sp, #24
    8cfc:	f7ff fde4 	bl	88c8 <printk_mkfloatstr>
    8d00:	4680      	mov	r8, r0
F:\WorkSpace\AHL-GEC-EXP\Temp\UART_发送01字符控制灯亮_不使用组帧\Debug/srcc/printf.c:487
				vstrp = &vstr[0];  //指向转换后的第一个字符
    8d02:	e7e7      	b.n	8cd4 <printk+0x268>
F:\WorkSpace\AHL-GEC-EXP\Temp\UART_发送01字符控制灯亮_不使用组帧\Debug/srcc/printf.c:499
					vlen = printk_mkfloatstr(&fval,vstr,precision_width);
    8d04:	4642      	mov	r2, r8
    8d06:	a90b      	add	r1, sp, #44	; 0x2c
    8d08:	a806      	add	r0, sp, #24
    8d0a:	f7ff fddd 	bl	88c8 <printk_mkfloatstr>
    8d0e:	4680      	mov	r8, r0
F:\WorkSpace\AHL-GEC-EXP\Temp\UART_发送01字符控制灯亮_不使用组帧\Debug/srcc/printf.c:501
					vstrp = &vstr[0];  
    8d10:	e7e0      	b.n	8cd4 <printk+0x268>
F:\WorkSpace\AHL-GEC-EXP\Temp\UART_发送01字符控制灯亮_不使用组帧\Debug/srcc/printf.c:513
					printk_putc(schar, &count, info);  //输出符号
    8d12:	4652      	mov	r2, sl
    8d14:	a90a      	add	r1, sp, #40	; 0x28
    8d16:	0038      	movs	r0, r7
    8d18:	f7ff fd59 	bl	87ce <printk_putc>
    8d1c:	e7de      	b.n	8cdc <printk+0x270>
F:\WorkSpace\AHL-GEC-EXP\Temp\UART_发送01字符控制灯亮_不使用组帧\Debug/srcc/printf.c:518
			} else {
				if (!IS_FLAG_MINUS(flags_used)) {
    8d1e:	07f3      	lsls	r3, r6, #31
    8d20:	d507      	bpl.n	8d32 <printk+0x2c6>
F:\WorkSpace\AHL-GEC-EXP\Temp\UART_发送01字符控制灯亮_不使用组帧\Debug/srcc/printf.c:529
				}
			}

			/* the string was built in reverse order, now display in */
			/* correct order */
			if (!dschar && schar) {
    8d22:	2f00      	cmp	r7, #0
    8d24:	d0e1      	beq.n	8cea <printk+0x27e>
F:\WorkSpace\AHL-GEC-EXP\Temp\UART_发送01字符控制灯亮_不使用组帧\Debug/srcc/printf.c:530
				printk_putc(schar, &count, info);
    8d26:	4652      	mov	r2, sl
    8d28:	a90a      	add	r1, sp, #40	; 0x28
    8d2a:	0038      	movs	r0, r7
    8d2c:	f7ff fd4f 	bl	87ce <printk_putc>
    8d30:	e7db      	b.n	8cea <printk+0x27e>
F:\WorkSpace\AHL-GEC-EXP\Temp\UART_发送01字符控制灯亮_不使用组帧\Debug/srcc/printf.c:519
					printk_pad_space(vlen, field_width, &count, info);  //输出空格
    8d32:	4653      	mov	r3, sl
    8d34:	aa0a      	add	r2, sp, #40	; 0x28
    8d36:	0029      	movs	r1, r5
    8d38:	4640      	mov	r0, r8
    8d3a:	f7ff fdb0 	bl	889e <printk_pad_space>
F:\WorkSpace\AHL-GEC-EXP\Temp\UART_发送01字符控制灯亮_不使用组帧\Debug/srcc/printf.c:521
					if (schar)
    8d3e:	2f00      	cmp	r7, #0
    8d40:	d0d3      	beq.n	8cea <printk+0x27e>
F:\WorkSpace\AHL-GEC-EXP\Temp\UART_发送01字符控制灯亮_不使用组帧\Debug/srcc/printf.c:522
						printk_putc(schar, &count, info);
    8d42:	4652      	mov	r2, sl
    8d44:	a90a      	add	r1, sp, #40	; 0x28
    8d46:	0038      	movs	r0, r7
    8d48:	f7ff fd41 	bl	87ce <printk_putc>
    8d4c:	e7cd      	b.n	8cea <printk+0x27e>
F:\WorkSpace\AHL-GEC-EXP\Temp\UART_发送01字符控制灯亮_不使用组帧\Debug/srcc/printf.c:533
			}
			while (*vstrp)
				printk_putc(*vstrp++, &count, info);
    8d4e:	3701      	adds	r7, #1
    8d50:	0022      	movs	r2, r4
    8d52:	a90a      	add	r1, sp, #40	; 0x28
    8d54:	f7ff fd3b 	bl	87ce <printk_putc>
F:\WorkSpace\AHL-GEC-EXP\Temp\UART_发送01字符控制灯亮_不使用组帧\Debug/srcc/printf.c:532
			while (*vstrp)
    8d58:	2000      	movs	r0, #0
    8d5a:	5638      	ldrsb	r0, [r7, r0]
    8d5c:	2800      	cmp	r0, #0
    8d5e:	d1f6      	bne.n	8d4e <printk+0x2e2>
    8d60:	46a2      	mov	sl, r4
    8d62:	464c      	mov	r4, r9
F:\WorkSpace\AHL-GEC-EXP\Temp\UART_发送01字符控制灯亮_不使用组帧\Debug/srcc/printf.c:534
			if (IS_FLAG_MINUS(flags_used)) {
    8d64:	07f3      	lsls	r3, r6, #31
    8d66:	d400      	bmi.n	8d6a <printk+0x2fe>
    8d68:	e69c      	b.n	8aa4 <printk+0x38>
F:\WorkSpace\AHL-GEC-EXP\Temp\UART_发送01字符控制灯亮_不使用组帧\Debug/srcc/printf.c:535
				printk_pad_space(vlen, field_width, &count, info);
    8d6a:	4653      	mov	r3, sl
    8d6c:	aa0a      	add	r2, sp, #40	; 0x28
    8d6e:	0029      	movs	r1, r5
    8d70:	4640      	mov	r0, r8
    8d72:	f7ff fd94 	bl	889e <printk_pad_space>
    8d76:	e695      	b.n	8aa4 <printk+0x38>
F:\WorkSpace\AHL-GEC-EXP\Temp\UART_发送01字符控制灯亮_不使用组帧\Debug/srcc/printf.c:541
			}
            break;
        //以下是16进制整形输出
		case 'x':
		case 'X':
			uval = (unsigned int) va_arg(ap, unsigned int);
    8d78:	9b00      	ldr	r3, [sp, #0]
    8d7a:	001a      	movs	r2, r3
    8d7c:	ca08      	ldmia	r2!, {r3}
    8d7e:	4693      	mov	fp, r2
    8d80:	9305      	str	r3, [sp, #20]
F:\WorkSpace\AHL-GEC-EXP\Temp\UART_发送01字符控制灯亮_不使用组帧\Debug/srcc/printf.c:542
			vlen = printk_mknumstr(vstr, &uval, FALSE, 16);
    8d82:	2310      	movs	r3, #16
    8d84:	2200      	movs	r2, #0
    8d86:	a905      	add	r1, sp, #20
    8d88:	a80b      	add	r0, sp, #44	; 0x2c
    8d8a:	f7ff fd35 	bl	87f8 <printk_mknumstr>
    8d8e:	4681      	mov	r9, r0
F:\WorkSpace\AHL-GEC-EXP\Temp\UART_发送01字符控制灯亮_不使用组帧\Debug/srcc/printf.c:543
			vstrp = &vstr[vlen];
    8d90:	ab0b      	add	r3, sp, #44	; 0x2c
    8d92:	444b      	add	r3, r9
    8d94:	4698      	mov	r8, r3
F:\WorkSpace\AHL-GEC-EXP\Temp\UART_发送01字符控制灯亮_不使用组帧\Debug/srcc/printf.c:546

			dschar = FALSE;
			if (IS_FLAG_ZERO(flags_used)) {
    8d96:	2308      	movs	r3, #8
    8d98:	001a      	movs	r2, r3
    8d9a:	4032      	ands	r2, r6
    8d9c:	9200      	str	r2, [sp, #0]
    8d9e:	4233      	tst	r3, r6
    8da0:	d028      	beq.n	8df4 <printk+0x388>
F:\WorkSpace\AHL-GEC-EXP\Temp\UART_发送01字符控制灯亮_不使用组帧\Debug/srcc/printf.c:547
				if (IS_FLAG_POUND(flags_used)) {
    8da2:	3308      	adds	r3, #8
    8da4:	001a      	movs	r2, r3
    8da6:	4032      	ands	r2, r6
    8da8:	9200      	str	r2, [sp, #0]
    8daa:	4233      	tst	r3, r6
    8dac:	d111      	bne.n	8dd2 <printk+0x366>
F:\WorkSpace\AHL-GEC-EXP\Temp\UART_发送01字符控制灯亮_不使用组帧\Debug/srcc/printf.c:553
					printk_putc('0', &count, info);
					printk_putc('x', &count, info);
					/*vlen += 2;*/
					dschar = TRUE;
				}
				printk_pad_zero(vlen, field_width, &count, info);
    8dae:	4653      	mov	r3, sl
    8db0:	aa0a      	add	r2, sp, #40	; 0x28
    8db2:	0029      	movs	r1, r5
    8db4:	4648      	mov	r0, r9
    8db6:	f7ff fd63 	bl	8880 <printk_pad_zero>
F:\WorkSpace\AHL-GEC-EXP\Temp\UART_发送01字符控制灯亮_不使用组帧\Debug/srcc/printf.c:554
				vlen = field_width;
    8dba:	46a9      	mov	r9, r5
F:\WorkSpace\AHL-GEC-EXP\Temp\UART_发送01字符控制灯亮_不使用组帧\Debug/srcc/printf.c:569
						dschar = TRUE;
					}
				}
			}

			if ((IS_FLAG_POUND(flags_used)) && !dschar) {
    8dbc:	06f3      	lsls	r3, r6, #27
    8dbe:	d502      	bpl.n	8dc6 <printk+0x35a>
F:\WorkSpace\AHL-GEC-EXP\Temp\UART_发送01字符控制灯亮_不使用组帧\Debug/srcc/printf.c:569 (discriminator 1)
    8dc0:	9b00      	ldr	r3, [sp, #0]
    8dc2:	2b00      	cmp	r3, #0
    8dc4:	d036      	beq.n	8e34 <printk+0x3c8>
F:\WorkSpace\AHL-GEC-EXP\Temp\UART_发送01字符控制灯亮_不使用组帧\Debug/srcc/printf.c:541
			uval = (unsigned int) va_arg(ap, unsigned int);
    8dc6:	465b      	mov	r3, fp
    8dc8:	9300      	str	r3, [sp, #0]
    8dca:	4647      	mov	r7, r8
    8dcc:	46a0      	mov	r8, r4
    8dce:	4654      	mov	r4, sl
F:\WorkSpace\AHL-GEC-EXP\Temp\UART_发送01字符控制灯亮_不使用组帧\Debug/srcc/printf.c:574
				printk_putc('0', &count, info);
				printk_putc('x', &count, info);
				vlen += 2;
			}
			goto cont_xd;
    8dd0:	e092      	b.n	8ef8 <printk+0x48c>
F:\WorkSpace\AHL-GEC-EXP\Temp\UART_发送01字符控制灯亮_不使用组帧\Debug/srcc/printf.c:548
					printk_putc('0', &count, info);
    8dd2:	4652      	mov	r2, sl
    8dd4:	a90a      	add	r1, sp, #40	; 0x28
    8dd6:	2030      	movs	r0, #48	; 0x30
    8dd8:	f7ff fcf9 	bl	87ce <printk_putc>
F:\WorkSpace\AHL-GEC-EXP\Temp\UART_发送01字符控制灯亮_不使用组帧\Debug/srcc/printf.c:549
					printk_putc('x', &count, info);
    8ddc:	4652      	mov	r2, sl
    8dde:	a90a      	add	r1, sp, #40	; 0x28
    8de0:	2078      	movs	r0, #120	; 0x78
    8de2:	f7ff fcf4 	bl	87ce <printk_putc>
F:\WorkSpace\AHL-GEC-EXP\Temp\UART_发送01字符控制灯亮_不使用组帧\Debug/srcc/printf.c:551
					dschar = TRUE;
    8de6:	9700      	str	r7, [sp, #0]
    8de8:	e7e1      	b.n	8dae <printk+0x342>
    8dea:	46c0      	nop			; (mov r8, r8)
    8dec:	000090d8 	.word	0x000090d8
    8df0:	0000911c 	.word	0x0000911c
F:\WorkSpace\AHL-GEC-EXP\Temp\UART_发送01字符控制灯亮_不使用组帧\Debug/srcc/printf.c:556
				if (!IS_FLAG_MINUS(flags_used)) {
    8df4:	07f3      	lsls	r3, r6, #31
    8df6:	d4e1      	bmi.n	8dbc <printk+0x350>
F:\WorkSpace\AHL-GEC-EXP\Temp\UART_发送01字符控制灯亮_不使用组帧\Debug/srcc/printf.c:557
					if (IS_FLAG_POUND(flags_used)) {
    8df8:	2310      	movs	r3, #16
    8dfa:	001a      	movs	r2, r3
    8dfc:	4032      	ands	r2, r6
    8dfe:	9200      	str	r2, [sp, #0]
    8e00:	4233      	tst	r3, r6
    8e02:	d002      	beq.n	8e0a <printk+0x39e>
F:\WorkSpace\AHL-GEC-EXP\Temp\UART_发送01字符控制灯亮_不使用组帧\Debug/srcc/printf.c:558
						vlen += 2;
    8e04:	3b0e      	subs	r3, #14
    8e06:	469c      	mov	ip, r3
    8e08:	44e1      	add	r9, ip
F:\WorkSpace\AHL-GEC-EXP\Temp\UART_发送01字符控制灯亮_不使用组帧\Debug/srcc/printf.c:560
					printk_pad_space(vlen, field_width, &count, info);
    8e0a:	4653      	mov	r3, sl
    8e0c:	aa0a      	add	r2, sp, #40	; 0x28
    8e0e:	0029      	movs	r1, r5
    8e10:	4648      	mov	r0, r9
    8e12:	f7ff fd44 	bl	889e <printk_pad_space>
F:\WorkSpace\AHL-GEC-EXP\Temp\UART_发送01字符控制灯亮_不使用组帧\Debug/srcc/printf.c:561
					if (IS_FLAG_POUND(flags_used)) {
    8e16:	9b00      	ldr	r3, [sp, #0]
    8e18:	2b00      	cmp	r3, #0
    8e1a:	d0cf      	beq.n	8dbc <printk+0x350>
F:\WorkSpace\AHL-GEC-EXP\Temp\UART_发送01字符控制灯亮_不使用组帧\Debug/srcc/printf.c:562
						printk_putc('0', &count, info);
    8e1c:	4652      	mov	r2, sl
    8e1e:	a90a      	add	r1, sp, #40	; 0x28
    8e20:	2030      	movs	r0, #48	; 0x30
    8e22:	f7ff fcd4 	bl	87ce <printk_putc>
F:\WorkSpace\AHL-GEC-EXP\Temp\UART_发送01字符控制灯亮_不使用组帧\Debug/srcc/printf.c:563
						printk_putc('x', &count, info);
    8e26:	4652      	mov	r2, sl
    8e28:	a90a      	add	r1, sp, #40	; 0x28
    8e2a:	2078      	movs	r0, #120	; 0x78
    8e2c:	f7ff fccf 	bl	87ce <printk_putc>
F:\WorkSpace\AHL-GEC-EXP\Temp\UART_发送01字符控制灯亮_不使用组帧\Debug/srcc/printf.c:564
						dschar = TRUE;
    8e30:	9700      	str	r7, [sp, #0]
    8e32:	e7c3      	b.n	8dbc <printk+0x350>
F:\WorkSpace\AHL-GEC-EXP\Temp\UART_发送01字符控制灯亮_不使用组帧\Debug/srcc/printf.c:570
				printk_putc('0', &count, info);
    8e34:	4652      	mov	r2, sl
    8e36:	a90a      	add	r1, sp, #40	; 0x28
    8e38:	2030      	movs	r0, #48	; 0x30
    8e3a:	f7ff fcc8 	bl	87ce <printk_putc>
F:\WorkSpace\AHL-GEC-EXP\Temp\UART_发送01字符控制灯亮_不使用组帧\Debug/srcc/printf.c:571
				printk_putc('x', &count, info);
    8e3e:	4652      	mov	r2, sl
    8e40:	a90a      	add	r1, sp, #40	; 0x28
    8e42:	2078      	movs	r0, #120	; 0x78
    8e44:	f7ff fcc3 	bl	87ce <printk_putc>
F:\WorkSpace\AHL-GEC-EXP\Temp\UART_发送01字符控制灯亮_不使用组帧\Debug/srcc/printf.c:572
				vlen += 2;
    8e48:	2302      	movs	r3, #2
    8e4a:	469c      	mov	ip, r3
    8e4c:	44e1      	add	r9, ip
    8e4e:	e7ba      	b.n	8dc6 <printk+0x35a>
F:\WorkSpace\AHL-GEC-EXP\Temp\UART_发送01字符控制灯亮_不使用组帧\Debug/srcc/printf.c:577
		//无符号以八进制表示的整数输出
		case 'o':
			uval = (unsigned int) va_arg(ap, unsigned int);
    8e50:	9f00      	ldr	r7, [sp, #0]
    8e52:	cf08      	ldmia	r7!, {r3}
    8e54:	9305      	str	r3, [sp, #20]
F:\WorkSpace\AHL-GEC-EXP\Temp\UART_发送01字符控制灯亮_不使用组帧\Debug/srcc/printf.c:578
			vlen = printk_mknumstr(vstr, &uval, FALSE, 8);
    8e56:	2308      	movs	r3, #8
    8e58:	2200      	movs	r2, #0
    8e5a:	a905      	add	r1, sp, #20
    8e5c:	a80b      	add	r0, sp, #44	; 0x2c
    8e5e:	f7ff fccb 	bl	87f8 <printk_mknumstr>
    8e62:	4681      	mov	r9, r0
F:\WorkSpace\AHL-GEC-EXP\Temp\UART_发送01字符控制灯亮_不使用组帧\Debug/srcc/printf.c:577
			uval = (unsigned int) va_arg(ap, unsigned int);
    8e64:	9700      	str	r7, [sp, #0]
F:\WorkSpace\AHL-GEC-EXP\Temp\UART_发送01字符控制灯亮_不使用组帧\Debug/srcc/printf.c:594
			goto cont_u;
		case 'u':
			uval = (unsigned int) va_arg(ap, unsigned int);
			vlen = printk_mknumstr(vstr, &uval, FALSE, 10);

			cont_u: vstrp = &vstr[vlen];
    8e66:	ab0b      	add	r3, sp, #44	; 0x2c
    8e68:	444b      	add	r3, r9
    8e6a:	4698      	mov	r8, r3
F:\WorkSpace\AHL-GEC-EXP\Temp\UART_发送01字符控制灯亮_不使用组帧\Debug/srcc/printf.c:596

			if (IS_FLAG_ZERO(flags_used)) {
    8e6c:	0733      	lsls	r3, r6, #28
    8e6e:	d429      	bmi.n	8ec4 <printk+0x458>
F:\WorkSpace\AHL-GEC-EXP\Temp\UART_发送01字符控制灯亮_不使用组帧\Debug/srcc/printf.c:600
				printk_pad_zero(vlen, field_width, &count, info);
				vlen = field_width;
			} else {
				if (!IS_FLAG_MINUS(flags_used)) {
    8e70:	07f3      	lsls	r3, r6, #31
    8e72:	d532      	bpl.n	8eda <printk+0x46e>
    8e74:	4647      	mov	r7, r8
    8e76:	46a0      	mov	r8, r4
    8e78:	4654      	mov	r4, sl
    8e7a:	e03d      	b.n	8ef8 <printk+0x48c>
F:\WorkSpace\AHL-GEC-EXP\Temp\UART_发送01字符控制灯亮_不使用组帧\Debug/srcc/printf.c:582
			uval = (unsigned int) va_arg(ap, unsigned int);
    8e7c:	9f00      	ldr	r7, [sp, #0]
    8e7e:	cf08      	ldmia	r7!, {r3}
    8e80:	9305      	str	r3, [sp, #20]
F:\WorkSpace\AHL-GEC-EXP\Temp\UART_发送01字符控制灯亮_不使用组帧\Debug/srcc/printf.c:583
			vlen = printk_mknumstr(vstr, &uval, FALSE, 2);
    8e82:	2302      	movs	r3, #2
    8e84:	2200      	movs	r2, #0
    8e86:	a905      	add	r1, sp, #20
    8e88:	a80b      	add	r0, sp, #44	; 0x2c
    8e8a:	f7ff fcb5 	bl	87f8 <printk_mknumstr>
    8e8e:	4681      	mov	r9, r0
F:\WorkSpace\AHL-GEC-EXP\Temp\UART_发送01字符控制灯亮_不使用组帧\Debug/srcc/printf.c:582
			uval = (unsigned int) va_arg(ap, unsigned int);
    8e90:	9700      	str	r7, [sp, #0]
F:\WorkSpace\AHL-GEC-EXP\Temp\UART_发送01字符控制灯亮_不使用组帧\Debug/srcc/printf.c:584
			goto cont_u;
    8e92:	e7e8      	b.n	8e66 <printk+0x3fa>
F:\WorkSpace\AHL-GEC-EXP\Temp\UART_发送01字符控制灯亮_不使用组帧\Debug/srcc/printf.c:587
			uval = (unsigned int) va_arg(ap, void *);
    8e94:	9f00      	ldr	r7, [sp, #0]
    8e96:	cf08      	ldmia	r7!, {r3}
    8e98:	9305      	str	r3, [sp, #20]
F:\WorkSpace\AHL-GEC-EXP\Temp\UART_发送01字符控制灯亮_不使用组帧\Debug/srcc/printf.c:588
			vlen = printk_mknumstr(vstr, &uval, FALSE, 16);
    8e9a:	2310      	movs	r3, #16
    8e9c:	2200      	movs	r2, #0
    8e9e:	a905      	add	r1, sp, #20
    8ea0:	a80b      	add	r0, sp, #44	; 0x2c
    8ea2:	f7ff fca9 	bl	87f8 <printk_mknumstr>
    8ea6:	4681      	mov	r9, r0
F:\WorkSpace\AHL-GEC-EXP\Temp\UART_发送01字符控制灯亮_不使用组帧\Debug/srcc/printf.c:587
			uval = (unsigned int) va_arg(ap, void *);
    8ea8:	9700      	str	r7, [sp, #0]
F:\WorkSpace\AHL-GEC-EXP\Temp\UART_发送01字符控制灯亮_不使用组帧\Debug/srcc/printf.c:589
			goto cont_u;
    8eaa:	e7dc      	b.n	8e66 <printk+0x3fa>
F:\WorkSpace\AHL-GEC-EXP\Temp\UART_发送01字符控制灯亮_不使用组帧\Debug/srcc/printf.c:591
			uval = (unsigned int) va_arg(ap, unsigned int);
    8eac:	9f00      	ldr	r7, [sp, #0]
    8eae:	cf08      	ldmia	r7!, {r3}
    8eb0:	9305      	str	r3, [sp, #20]
F:\WorkSpace\AHL-GEC-EXP\Temp\UART_发送01字符控制灯亮_不使用组帧\Debug/srcc/printf.c:592
			vlen = printk_mknumstr(vstr, &uval, FALSE, 10);
    8eb2:	230a      	movs	r3, #10
    8eb4:	2200      	movs	r2, #0
    8eb6:	a905      	add	r1, sp, #20
    8eb8:	a80b      	add	r0, sp, #44	; 0x2c
    8eba:	f7ff fc9d 	bl	87f8 <printk_mknumstr>
    8ebe:	4681      	mov	r9, r0
F:\WorkSpace\AHL-GEC-EXP\Temp\UART_发送01字符控制灯亮_不使用组帧\Debug/srcc/printf.c:591
			uval = (unsigned int) va_arg(ap, unsigned int);
    8ec0:	9700      	str	r7, [sp, #0]
    8ec2:	e7d0      	b.n	8e66 <printk+0x3fa>
F:\WorkSpace\AHL-GEC-EXP\Temp\UART_发送01字符控制灯亮_不使用组帧\Debug/srcc/printf.c:597
				printk_pad_zero(vlen, field_width, &count, info);
    8ec4:	4653      	mov	r3, sl
    8ec6:	aa0a      	add	r2, sp, #40	; 0x28
    8ec8:	0029      	movs	r1, r5
    8eca:	4648      	mov	r0, r9
    8ecc:	f7ff fcd8 	bl	8880 <printk_pad_zero>
F:\WorkSpace\AHL-GEC-EXP\Temp\UART_发送01字符控制灯亮_不使用组帧\Debug/srcc/printf.c:598
				vlen = field_width;
    8ed0:	46a9      	mov	r9, r5
    8ed2:	4647      	mov	r7, r8
    8ed4:	46a0      	mov	r8, r4
    8ed6:	4654      	mov	r4, sl
    8ed8:	e00e      	b.n	8ef8 <printk+0x48c>
F:\WorkSpace\AHL-GEC-EXP\Temp\UART_发送01字符控制灯亮_不使用组帧\Debug/srcc/printf.c:601
					printk_pad_space(vlen, field_width, &count, info);
    8eda:	4653      	mov	r3, sl
    8edc:	aa0a      	add	r2, sp, #40	; 0x28
    8ede:	0029      	movs	r1, r5
    8ee0:	4648      	mov	r0, r9
    8ee2:	f7ff fcdc 	bl	889e <printk_pad_space>
    8ee6:	4647      	mov	r7, r8
    8ee8:	46a0      	mov	r8, r4
    8eea:	4654      	mov	r4, sl
    8eec:	e004      	b.n	8ef8 <printk+0x48c>
F:\WorkSpace\AHL-GEC-EXP\Temp\UART_发送01字符控制灯亮_不使用组帧\Debug/srcc/printf.c:606
				}
			}

			cont_xd: while (*vstrp)
				printk_putc(*vstrp--, &count, info);
    8eee:	3f01      	subs	r7, #1
    8ef0:	0022      	movs	r2, r4
    8ef2:	a90a      	add	r1, sp, #40	; 0x28
    8ef4:	f7ff fc6b 	bl	87ce <printk_putc>
F:\WorkSpace\AHL-GEC-EXP\Temp\UART_发送01字符控制灯亮_不使用组帧\Debug/srcc/printf.c:605 (discriminator 1)
			cont_xd: while (*vstrp)
    8ef8:	2000      	movs	r0, #0
    8efa:	5638      	ldrsb	r0, [r7, r0]
    8efc:	2800      	cmp	r0, #0
    8efe:	d1f6      	bne.n	8eee <printk+0x482>
    8f00:	46a2      	mov	sl, r4
    8f02:	4644      	mov	r4, r8
F:\WorkSpace\AHL-GEC-EXP\Temp\UART_发送01字符控制灯亮_不使用组帧\Debug/srcc/printf.c:608

			if (IS_FLAG_MINUS(flags_used)) {
    8f04:	07f3      	lsls	r3, r6, #31
    8f06:	d400      	bmi.n	8f0a <printk+0x49e>
    8f08:	e5cc      	b.n	8aa4 <printk+0x38>
F:\WorkSpace\AHL-GEC-EXP\Temp\UART_发送01字符控制灯亮_不使用组帧\Debug/srcc/printf.c:609
				printk_pad_space(vlen, field_width, &count, info);
    8f0a:	4653      	mov	r3, sl
    8f0c:	aa0a      	add	r2, sp, #40	; 0x28
    8f0e:	0029      	movs	r1, r5
    8f10:	4648      	mov	r0, r9
    8f12:	f7ff fcc4 	bl	889e <printk_pad_space>
    8f16:	e5c5      	b.n	8aa4 <printk+0x38>
F:\WorkSpace\AHL-GEC-EXP\Temp\UART_发送01字符控制灯亮_不使用组帧\Debug/srcc/printf.c:615
			}

			break;
        //字符型输出
		case 'c':
			cval = (char) va_arg(ap, unsigned int);
    8f18:	9d00      	ldr	r5, [sp, #0]
    8f1a:	cd01      	ldmia	r5!, {r0}
    8f1c:	b240      	sxtb	r0, r0
F:\WorkSpace\AHL-GEC-EXP\Temp\UART_发送01字符控制灯亮_不使用组帧\Debug/srcc/printf.c:616
			printk_putc(cval, &count, info);
    8f1e:	4652      	mov	r2, sl
    8f20:	a90a      	add	r1, sp, #40	; 0x28
    8f22:	f7ff fc54 	bl	87ce <printk_putc>
F:\WorkSpace\AHL-GEC-EXP\Temp\UART_发送01字符控制灯亮_不使用组帧\Debug/srcc/printf.c:615
			cval = (char) va_arg(ap, unsigned int);
    8f26:	9500      	str	r5, [sp, #0]
F:\WorkSpace\AHL-GEC-EXP\Temp\UART_发送01字符控制灯亮_不使用组帧\Debug/srcc/printf.c:617
			break;
    8f28:	e5bc      	b.n	8aa4 <printk+0x38>
F:\WorkSpace\AHL-GEC-EXP\Temp\UART_发送01字符控制灯亮_不使用组帧\Debug/srcc/printf.c:619
		case 's':
			sval = (char *) va_arg(ap, char *);
    8f2a:	9b00      	ldr	r3, [sp, #0]
    8f2c:	cb80      	ldmia	r3!, {r7}
    8f2e:	4699      	mov	r9, r3
F:\WorkSpace\AHL-GEC-EXP\Temp\UART_发送01字符控制灯亮_不使用组帧\Debug/srcc/printf.c:620
			if (sval) {
    8f30:	2f00      	cmp	r7, #0
    8f32:	d046      	beq.n	8fc2 <printk+0x556>
F:\WorkSpace\AHL-GEC-EXP\Temp\UART_发送01字符控制灯亮_不使用组帧\Debug/srcc/printf.c:621
				vlen = strlen(sval);
    8f34:	0038      	movs	r0, r7
    8f36:	f7ff f935 	bl	81a4 <strlen>
    8f3a:	9000      	str	r0, [sp, #0]
F:\WorkSpace\AHL-GEC-EXP\Temp\UART_发送01字符控制灯亮_不使用组帧\Debug/srcc/printf.c:622
				if (!IS_FLAG_MINUS(flags_used)) {
    8f3c:	2301      	movs	r3, #1
    8f3e:	001a      	movs	r2, r3
    8f40:	4032      	ands	r2, r6
    8f42:	4693      	mov	fp, r2
    8f44:	4233      	tst	r3, r6
    8f46:	d004      	beq.n	8f52 <printk+0x4e6>
F:\WorkSpace\AHL-GEC-EXP\Temp\UART_发送01字符控制灯亮_不使用组帧\Debug/srcc/printf.c:625
					printk_pad_space(vlen, field_width, &count, info);
				}
				if(precision_width!=0)
    8f48:	4643      	mov	r3, r8
    8f4a:	2b00      	cmp	r3, #0
    8f4c:	d107      	bne.n	8f5e <printk+0x4f2>
    8f4e:	4656      	mov	r6, sl
    8f50:	e018      	b.n	8f84 <printk+0x518>
F:\WorkSpace\AHL-GEC-EXP\Temp\UART_发送01字符控制灯亮_不使用组帧\Debug/srcc/printf.c:623
					printk_pad_space(vlen, field_width, &count, info);
    8f52:	4653      	mov	r3, sl
    8f54:	aa0a      	add	r2, sp, #40	; 0x28
    8f56:	0029      	movs	r1, r5
    8f58:	f7ff fca1 	bl	889e <printk_pad_space>
    8f5c:	e7f4      	b.n	8f48 <printk+0x4dc>
    8f5e:	4646      	mov	r6, r8
F:\WorkSpace\AHL-GEC-EXP\Temp\UART_发送01字符控制灯亮_不使用组帧\Debug/srcc/printf.c:627
				{
					while (*sval)
    8f60:	2000      	movs	r0, #0
    8f62:	5638      	ldrsb	r0, [r7, r0]
    8f64:	2800      	cmp	r0, #0
    8f66:	d012      	beq.n	8f8e <printk+0x522>
F:\WorkSpace\AHL-GEC-EXP\Temp\UART_发送01字符控制灯亮_不使用组帧\Debug/srcc/printf.c:629
					{
						if(precision_width>=1)
    8f68:	2e00      	cmp	r6, #0
    8f6a:	ddf9      	ble.n	8f60 <printk+0x4f4>
F:\WorkSpace\AHL-GEC-EXP\Temp\UART_发送01字符控制灯亮_不使用组帧\Debug/srcc/printf.c:631
						{
							precision_width--;
    8f6c:	3e01      	subs	r6, #1
F:\WorkSpace\AHL-GEC-EXP\Temp\UART_发送01字符控制灯亮_不使用组帧\Debug/srcc/printf.c:632
							printk_putc(*sval++, &count, info);
    8f6e:	3701      	adds	r7, #1
    8f70:	4652      	mov	r2, sl
    8f72:	a90a      	add	r1, sp, #40	; 0x28
    8f74:	f7ff fc2b 	bl	87ce <printk_putc>
    8f78:	e7f2      	b.n	8f60 <printk+0x4f4>
F:\WorkSpace\AHL-GEC-EXP\Temp\UART_发送01字符控制灯亮_不使用组帧\Debug/srcc/printf.c:639
					}
				}
				else    //precision_width=0情况
				{
					while (*sval)
					   printk_putc(*sval++, &count, info);
    8f7a:	3701      	adds	r7, #1
    8f7c:	0032      	movs	r2, r6
    8f7e:	a90a      	add	r1, sp, #40	; 0x28
    8f80:	f7ff fc25 	bl	87ce <printk_putc>
F:\WorkSpace\AHL-GEC-EXP\Temp\UART_发送01字符控制灯亮_不使用组帧\Debug/srcc/printf.c:638
					while (*sval)
    8f84:	2000      	movs	r0, #0
    8f86:	5638      	ldrsb	r0, [r7, r0]
    8f88:	2800      	cmp	r0, #0
    8f8a:	d1f6      	bne.n	8f7a <printk+0x50e>
    8f8c:	46b2      	mov	sl, r6
F:\WorkSpace\AHL-GEC-EXP\Temp\UART_发送01字符控制灯亮_不使用组帧\Debug/srcc/printf.c:641
				}
				if (IS_FLAG_MINUS(flags_used)) {
    8f8e:	465b      	mov	r3, fp
    8f90:	2b00      	cmp	r3, #0
    8f92:	d102      	bne.n	8f9a <printk+0x52e>
F:\WorkSpace\AHL-GEC-EXP\Temp\UART_发送01字符控制灯亮_不使用组帧\Debug/srcc/printf.c:619
			sval = (char *) va_arg(ap, char *);
    8f94:	464b      	mov	r3, r9
    8f96:	9300      	str	r3, [sp, #0]
    8f98:	e584      	b.n	8aa4 <printk+0x38>
F:\WorkSpace\AHL-GEC-EXP\Temp\UART_发送01字符控制灯亮_不使用组帧\Debug/srcc/printf.c:642
					printk_pad_space(vlen, field_width, &count, info);
    8f9a:	4653      	mov	r3, sl
    8f9c:	aa0a      	add	r2, sp, #40	; 0x28
    8f9e:	0029      	movs	r1, r5
    8fa0:	9800      	ldr	r0, [sp, #0]
    8fa2:	f7ff fc7c 	bl	889e <printk_pad_space>
F:\WorkSpace\AHL-GEC-EXP\Temp\UART_发送01字符控制灯亮_不使用组帧\Debug/srcc/printf.c:619
			sval = (char *) va_arg(ap, char *);
    8fa6:	464b      	mov	r3, r9
    8fa8:	9300      	str	r3, [sp, #0]
    8faa:	e57b      	b.n	8aa4 <printk+0x38>
F:\WorkSpace\AHL-GEC-EXP\Temp\UART_发送01字符控制灯亮_不使用组帧\Debug/srcc/printf.c:647
				}
			}
			break;
		case 'n':
			ivalp = (int *) va_arg(ap, int *);
    8fac:	9b00      	ldr	r3, [sp, #0]
    8fae:	cb04      	ldmia	r3!, {r2}
F:\WorkSpace\AHL-GEC-EXP\Temp\UART_发送01字符控制灯亮_不使用组帧\Debug/srcc/printf.c:648
			*ivalp = count;
    8fb0:	990a      	ldr	r1, [sp, #40]	; 0x28
    8fb2:	6011      	str	r1, [r2, #0]
F:\WorkSpace\AHL-GEC-EXP\Temp\UART_发送01字符控制灯亮_不使用组帧\Debug/srcc/printf.c:647
			ivalp = (int *) va_arg(ap, int *);
    8fb4:	9300      	str	r3, [sp, #0]
F:\WorkSpace\AHL-GEC-EXP\Temp\UART_发送01字符控制灯亮_不使用组帧\Debug/srcc/printf.c:649
			break;
    8fb6:	e575      	b.n	8aa4 <printk+0x38>
F:\WorkSpace\AHL-GEC-EXP\Temp\UART_发送01字符控制灯亮_不使用组帧\Debug/srcc/printf.c:652

		default:
			printk_putc(c, &count, info);
    8fb8:	4652      	mov	r2, sl
    8fba:	a90a      	add	r1, sp, #40	; 0x28
    8fbc:	f7ff fc07 	bl	87ce <printk_putc>
F:\WorkSpace\AHL-GEC-EXP\Temp\UART_发送01字符控制灯亮_不使用组帧\Debug/srcc/printf.c:653
			break;
    8fc0:	e570      	b.n	8aa4 <printk+0x38>
F:\WorkSpace\AHL-GEC-EXP\Temp\UART_发送01字符控制灯亮_不使用组帧\Debug/srcc/printf.c:619
			sval = (char *) va_arg(ap, char *);
    8fc2:	9300      	str	r3, [sp, #0]
    8fc4:	e56e      	b.n	8aa4 <printk+0x38>
F:\WorkSpace\AHL-GEC-EXP\Temp\UART_发送01字符控制灯亮_不使用组帧\Debug/srcc/printf.c:657
		}
	}
	return count;
}
    8fc6:	980a      	ldr	r0, [sp, #40]	; 0x28
    8fc8:	b015      	add	sp, #84	; 0x54
    8fca:	bcf0      	pop	{r4, r5, r6, r7}
    8fcc:	46bb      	mov	fp, r7
    8fce:	46b2      	mov	sl, r6
    8fd0:	46a9      	mov	r9, r5
    8fd2:	46a0      	mov	r8, r4
    8fd4:	bdf0      	pop	{r4, r5, r6, r7, pc}
    8fd6:	46c0      	nop			; (mov r8, r8)

00008fd8 <myprintf>:
myprintf():
F:\WorkSpace\AHL-GEC-EXP\Temp\UART_发送01字符控制灯亮_不使用组帧\Debug/srcc/printf.c:665
//参数说明：const char *:打印参数字符串：对输入的字符串进行解析并按格式输出
//       例如： printf("c=%c\n",c); 将c按char型进行输出
//函数返回：字符串长度
//======================================================================
int myprintf(const char *fmt, ...)
{
    8fd8:	b40f      	push	{r0, r1, r2, r3}
    8fda:	b500      	push	{lr}
    8fdc:	b085      	sub	sp, #20
F:\WorkSpace\AHL-GEC-EXP\Temp\UART_发送01字符控制灯亮_不使用组帧\Debug/srcc/printf.c:669
	char * ap;
	int rvalue;
	PRINTK_INFO info;
	info.dest = DEST_CONSOLE;  //宏定义为1
    8fde:	2301      	movs	r3, #1
    8fe0:	9301      	str	r3, [sp, #4]
F:\WorkSpace\AHL-GEC-EXP\Temp\UART_发送01字符控制灯亮_不使用组帧\Debug/srcc/printf.c:670
	info.func = &out_char;     //调用的串口输出函数
    8fe2:	4b05      	ldr	r3, [pc, #20]	; (8ff8 <myprintf+0x20>)
    8fe4:	9302      	str	r3, [sp, #8]
F:\WorkSpace\AHL-GEC-EXP\Temp\UART_发送01字符控制灯亮_不使用组帧\Debug/srcc/printf.c:673
	//对ap 进行初始化，让它指向可变参数表里面的第一个参数
	va_start(ap, fmt); 
	rvalue = printk(&info, fmt, ap);
    8fe6:	aa06      	add	r2, sp, #24
    8fe8:	ca02      	ldmia	r2!, {r1}
    8fea:	a801      	add	r0, sp, #4
    8fec:	f7ff fd3e 	bl	8a6c <printk>
F:\WorkSpace\AHL-GEC-EXP\Temp\UART_发送01字符控制灯亮_不使用组帧\Debug/srcc/printf.c:678

	va_end(ap);

	return rvalue;
}
    8ff0:	b005      	add	sp, #20
    8ff2:	bc08      	pop	{r3}
    8ff4:	b004      	add	sp, #16
    8ff6:	4718      	bx	r3
    8ff8:	000088bd 	.word	0x000088bd

00008ffc <memcpy>:
memcpy():
    8ffc:	2300      	movs	r3, #0
    8ffe:	b510      	push	{r4, lr}
    9000:	429a      	cmp	r2, r3
    9002:	d100      	bne.n	9006 <memcpy+0xa>
    9004:	bd10      	pop	{r4, pc}
    9006:	5ccc      	ldrb	r4, [r1, r3]
    9008:	54c4      	strb	r4, [r0, r3]
    900a:	3301      	adds	r3, #1
    900c:	e7f8      	b.n	9000 <memcpy+0x4>

0000900e <memset>:
memset():
    900e:	0003      	movs	r3, r0
    9010:	1882      	adds	r2, r0, r2
    9012:	4293      	cmp	r3, r2
    9014:	d100      	bne.n	9018 <memset+0xa>
    9016:	4770      	bx	lr
    9018:	7019      	strb	r1, [r3, #0]
    901a:	3301      	adds	r3, #1
    901c:	e7f9      	b.n	9012 <memset+0x4>
    901e:	0000      	movs	r0, r0
    9020:	00007630 	.word	0x00007630
    9024:	0000755e 	.word	0x0000755e
    9028:	0000755e 	.word	0x0000755e
    902c:	0000755a 	.word	0x0000755a
    9030:	00007564 	.word	0x00007564
    9034:	00007564 	.word	0x00007564
    9038:	00007850 	.word	0x00007850
    903c:	0000755a 	.word	0x0000755a
    9040:	00007564 	.word	0x00007564
    9044:	00007850 	.word	0x00007850
    9048:	00007564 	.word	0x00007564
    904c:	0000755a 	.word	0x0000755a
    9050:	000077ee 	.word	0x000077ee
    9054:	000077ee 	.word	0x000077ee
    9058:	000077ee 	.word	0x000077ee
    905c:	000078ba 	.word	0x000078ba

00009060 <GPIO_ARR>:
    9060:	400ff000 400ff040 400ff080 400ff0c0     ...@@..@...@...@
    9070:	400ff100                                ...@

00009074 <PORT_ARR>:
    9074:	40049000 4004a000 4004b000 4004c000     ...@...@...@...@
    9084:	4004d000 33323130 37363534 42413938     ...@0123456789AB
    9094:	46454443 30323032 36313730 00000000     CDEF20200716....
    90a4:	bea12020 72657355 becae1cc baa3bfa1       ..User........
    90b4:	f8bdabbd 7355ebc8 c4b57265 6e69616d     ......User..main
    90c4:	b4d62928 2e2ed0d0 000a0d2e              ()..........

000090d0 <UART_ARR>:
    90d0:	4006b000 4006c000 00008af4 00008b0c     ...@...@........
    90e0:	00008b0c 00008b00 00008b0c 00008b0c     ................
    90f0:	00008b0c 00008b0c 00008b0c 00008b0c     ................
    9100:	00008b0c 00008aee 00008b0c 00008ace     ................
    9110:	00008b0c 00008b0c 00008afa 00008d78     ............x...
    9120:	00008fb8 00008fb8 00008fb8 00008fb8     ................
    9130:	00008fb8 00008fb8 00008fb8 00008fb8     ................
    9140:	00008fb8 00008e7c 00008f18 00008bc2     ....|...........
    9150:	00008fb8 00008c76 00008fb8 00008fb8     ....v...........
    9160:	00008bc2 00008fb8 00008fb8 00008fb8     ................
    9170:	00008fb8 00008fac 00008e50 00008e94     ........P.......
    9180:	00008fb8 00008fb8 00008f2a 00008fb8     ........*.......
    9190:	00008eac 00008fb8 00008fb8 00008d78     ............x...

000091a0 <_init>:
_init():
    91a0:	b5f8      	push	{r3, r4, r5, r6, r7, lr}
    91a2:	46c0      	nop			; (mov r8, r8)
    91a4:	bcf8      	pop	{r3, r4, r5, r6, r7}
    91a6:	bc08      	pop	{r3}
    91a8:	469e      	mov	lr, r3
    91aa:	4770      	bx	lr

000091ac <_fini>:
_fini():
    91ac:	b5f8      	push	{r3, r4, r5, r6, r7, lr}
    91ae:	46c0      	nop			; (mov r8, r8)
    91b0:	bcf8      	pop	{r3, r4, r5, r6, r7}
    91b2:	bc08      	pop	{r3}
    91b4:	469e      	mov	lr, r3
    91b6:	4770      	bx	lr
