
LCD.elf:     file format elf32-littlearm
LCD.elf
architecture: armv6s-m, flags 0x00000112:
EXEC_P, HAS_SYMS, D_PAGED
start address 0x00006c59

Program Header:
    LOAD off    0x00000000 vaddr 0x00000000 paddr 0x00000000 align 2**16
         filesz 0x000068c0 memsz 0x000068c0 flags r--
    LOAD off    0x00006c00 vaddr 0x00006c00 paddr 0x00006c00 align 2**16
         filesz 0x00000010 memsz 0x00000010 flags r--
    LOAD off    0x00006c10 vaddr 0x00006c10 paddr 0x00006c10 align 2**16
         filesz 0x00004958 memsz 0x00004958 flags rwx
    LOAD off    0x00000400 vaddr 0x20000400 paddr 0x20000400 align 2**16
         filesz 0x00000000 memsz 0x00000388 flags rw-
private flags = 5000200: [Version5 EABI] [soft-float ABI]

Sections:
Idx Name            Size      VMA       LMA       File off  Algn  Flags
  0 .interrupts     000000c0  00006800  00006800  00006800  2**2  CONTENTS, ALLOC, LOAD, READONLY, DATA
  1 .flash_config   00000010  00006c00  00006c00  00006c00  2**0  CONTENTS, ALLOC, LOAD, READONLY, DATA
  2 .text           00004948  00006c10  00006c10  00006c10  2**2  CONTENTS, ALLOC, LOAD, READONLY, CODE
  3 .ARM            00000008  0000b558  0000b558  0000b558  2**2  CONTENTS, ALLOC, LOAD, READONLY, DATA
  4 .init_array     00000004  0000b560  0000b560  0000b560  2**2  CONTENTS, ALLOC, LOAD, DATA
  5 .fini_array     00000004  0000b564  0000b564  0000b564  2**2  CONTENTS, ALLOC, LOAD, DATA
  6 .mtb            00000000  20000400  20000400  0000b568  2**0  CONTENTS
  7 .data           00000000  20000400  20000400  0000b568  2**0  CONTENTS, ALLOC, LOAD, DATA
  8 .bss            00000088  20000400  20000400  00010400  2**2  ALLOC
  9 .heap           00000200  20000488  20000488  00010400  2**0  ALLOC
 10 .stack          00000100  20000688  20000688  00010400  2**0  ALLOC
 11 .ARM.attributes 00000028  00000000  00000000  0000b568  2**0  CONTENTS, READONLY
 12 .debug_info     0000a840  00000000  00000000  0000b590  2**0  CONTENTS, READONLY, DEBUGGING, OCTETS
 13 .debug_abbrev   0000203b  00000000  00000000  00015dd0  2**0  CONTENTS, READONLY, DEBUGGING, OCTETS
 14 .debug_aranges  00000400  00000000  00000000  00017e10  2**3  CONTENTS, READONLY, DEBUGGING, OCTETS
 15 .debug_ranges   00000320  00000000  00000000  00018210  2**0  CONTENTS, READONLY, DEBUGGING, OCTETS
 16 .debug_macro    000024b5  00000000  00000000  00018530  2**0  CONTENTS, READONLY, DEBUGGING, OCTETS
 17 .debug_line     000048cb  00000000  00000000  0001a9e5  2**0  CONTENTS, READONLY, DEBUGGING, OCTETS
 18 .debug_str      0004f381  00000000  00000000  0001f2b0  2**0  CONTENTS, READONLY, DEBUGGING, OCTETS
 19 .comment        0000004c  00000000  00000000  0006e631  2**0  CONTENTS, READONLY
 20 .debug_frame    00000b64  00000000  00000000  0006e680  2**2  CONTENTS, READONLY, DEBUGGING, OCTETS
SYMBOL TABLE:
00006800 l    d  .interrupts	00000000 .interrupts
00006c00 l    d  .flash_config	00000000 .flash_config
00006c10 l    d  .text	00000000 .text
0000b558 l    d  .ARM	00000000 .ARM
0000b560 l    d  .init_array	00000000 .init_array
0000b564 l    d  .fini_array	00000000 .fini_array
20000400 l    d  .mtb	00000000 .mtb
20000400 l    d  .data	00000000 .data
20000400 l    d  .bss	00000000 .bss
20000488 l    d  .heap	00000000 .heap
20000688 l    d  .stack	00000000 .stack
00000000 l    d  .ARM.attributes	00000000 .ARM.attributes
00000000 l    d  .debug_info	00000000 .debug_info
00000000 l    d  .debug_abbrev	00000000 .debug_abbrev
00000000 l    d  .debug_aranges	00000000 .debug_aranges
00000000 l    d  .debug_ranges	00000000 .debug_ranges
00000000 l    d  .debug_macro	00000000 .debug_macro
00000000 l    d  .debug_line	00000000 .debug_line
00000000 l    d  .debug_str	00000000 .debug_str
00000000 l    d  .comment	00000000 .comment
00000000 l    d  .debug_frame	00000000 .debug_frame
00000000 l    df *ABS*	00000000 ./obj/startup_MKL36Z4.o
00000000 l    df *ABS*	00000000 crtstuff.c
0000b540 l     O .text	00000000 __EH_FRAME_BEGIN__
00006c10 l     F .text	00000000 __do_global_dtors_aux
20000400 l       .bss	00000001 completed.8914
0000b564 l     O .fini_array	00000000 __do_global_dtors_aux_fini_array_entry
00006c38 l     F .text	00000000 frame_dummy
20000404 l       .bss	00000018 object.8919
0000b560 l     O .init_array	00000000 __frame_dummy_init_array_entry
00000000 l    df *ABS*	00000000 _udivsi3.o
00006ca8 l       .text	00000000 .udivsi3_skip_div0_test
00000000 l    df *ABS*	00000000 _divsi3.o
00006dbc l       .text	00000000 .divsi3_skip_div0_test
00000000 l    df *ABS*	00000000 _dvmd_tls.o
00000000 l    df *ABS*	00000000 _arm_cmpdf2.o
00000000 l    df *ABS*	00000000 _aeabi_uldivmod.o
00000000 l    df *ABS*	00000000 libgcc2.c
00000000 l    df *ABS*	00000000 libgcc2.c
00000000 l    df *ABS*	00000000 libgcc2.c
00000000 l    df *ABS*	00000000 eqdf2.c
00000000 l    df *ABS*	00000000 gedf2.c
00000000 l    df *ABS*	00000000 ledf2.c
00000000 l    df *ABS*	00000000 muldf3.c
00000000 l    df *ABS*	00000000 subdf3.c
00000000 l    df *ABS*	00000000 fixdfsi.c
00000000 l    df *ABS*	00000000 floatunsidf.c
00000000 l    df *ABS*	00000000 _clzsi2.o
00000000 l    df *ABS*	00000000 _clzdi2.o
00000000 l    df *ABS*	00000000 lib_a-strlen.o
00000000 l    df *ABS*	00000000 system_MKL36Z4.c
00000000 l    df *ABS*	00000000 main.c
00000000 l    df *ABS*	00000000 flash.c
00000000 l    df *ABS*	00000000 gpio.c
00000000 l    df *ABS*	00000000 suart.c
0000875c l     F .text	0000002c NVIC_EnableIRQ
00000000 l    df *ABS*	00000000 wdog.c
00000000 l    df *ABS*	00000000 spi.c
00000000 l    df *ABS*	00000000 gec.c
00000000 l    df *ABS*	00000000 uart.c
00000000 l    df *ABS*	00000000 lcd.c
0000ad24 l     O .text	00000600 nAsciiDot
0000b324 l     O .text	00000154 GB_16
00000000 l    df *ABS*	00000000 isr.c
00000000 l    df *ABS*	00000000 printf.c
0000a058 l     F .text	0000004c printk_putc
0000a31c l     F .text	000000f8 printk_mknumstr
0000a414 l     F .text	00000034 printk_pad_zero
0000a448 l     F .text	00000034 printk_pad_space
00000000 l    df *ABS*	00000000 memcpy-stub.c
00000000 l    df *ABS*	00000000 memset.c
00000000 l    df *ABS*	00000000 d:/tools/armnoneeabi/bin/../lib/gcc/arm-none-eabi/9.3.1/thumb/v6-m/nofp/crti.o
00000000 l    df *ABS*	00000000 d:/tools/armnoneeabi/bin/../lib/gcc/arm-none-eabi/9.3.1/thumb/v6-m/nofp/crtn.o
00000000 l    df *ABS*	00000000 
0000b564 l       .init_array	00000000 __init_array_end
0000b560 l       .init_array	00000000 __preinit_array_end
0000b560 l       .init_array	00000000 __init_array_start
0000b560 l       .init_array	00000000 __preinit_array_start
20000488 g       .heap	00000000 __HeapBase
000097ca g     F .text	0000004c LCD_DrawPoint
00006fd4 g     F .text	00000012 .hidden __aeabi_dcmple
000084b4 g     F .text	00000028 flash_read_physical
00007260 g     F .text	00000078 .hidden __eqdf2
20000400 g       .data	00000000 __data_start__
00000100 g       *ABS*	00000000 STACK_SIZE
00006ca0  w    F .text	00000006 I2C0_IRQHandler
000089b8 g     F .text	00000278 suart_send
0000003e g       *ABS*	00000000 GEC_USER_SECTOR_END
00006ca0  w    F .text	00000006 HardFault_Handler
000088dc g     F .text	0000009c suart_set
00006ca0  w    F .text	00000006 SysTick_Handler
00006ca0  w    F .text	00000006 PendSV_Handler
00006ca0  w    F .text	00000006 NMI_Handler
0000b560 g       .ARM	00000000 __exidx_end
00009ff8 g     F .text	00000040 PORTC_PORTD_IRQHandler
00006ca0  w    F .text	00000006 I2C1_IRQHandler
2000041c g     O .bss	00000064 gReceiveBuff
00006ca0  w    F .text	00000006 UART1_IRQHandler
000072d8 g     F .text	000000e4 .hidden __gtdf2
0000b568 g       .fini_array	00000000 __etext
00006ca0  w    F .text	00000006 DMA2_IRQHandler
00009fcc g     F .text	0000002c LCD_Dly_ms
0000975c g     F .text	0000006e LCD_Clear
00009816 g     F .text	00000058 LCD_DrawPoint_big
00006ca0  w    F .text	00000006 TPM0_IRQHandler
00009e98 g     F .text	0000004c LCD_WR_REG
00006fa4 g     F .text	00000010 .hidden __aeabi_cdcmple
00006ca0  w    F .text	00000006 I2S0_IRQHandler
00006ca0  w    F .text	00000006 LLWU_IRQHandler
00008f94 g     F .text	000000e8 suart_enable_receive_interupt
0000001a g       *ABS*	00000000 GEC_USER_SECTOR_START
00006ca0  w    F .text	00000006 TSI0_IRQHandler
00008788 g     F .text	00000154 suart_init
00006ca0  w    F .text	00000006 UART0_IRQHandler
0000abcc g     F .text	00000012 memcpy
00006f94 g     F .text	00000020 .hidden __aeabi_cdrcmple
000073bc g     F .text	000000e0 .hidden __ltdf2
0000b560 g       .init_array	00000000 __DTOR_END__
00007010 g     F .text	0000003e .hidden __aeabi_uldivmod
00009d48 g     F .text	000000a0 LCD_DrawSurface
00006ca0  w    F .text	00000006 ADC0_IRQHandler
00009c14 g     F .text	00000134 LCD_DrawLine
00006ca8 g     F .text	0000010a .hidden __udivsi3
20000400 g       .bss	00000000 __START_BSS
000090cc g     F .text	000003bc spi_init
00007050 g     F .text	0000003c .hidden __fixunsdfsi
0000991c g     F .text	000000ce LCD_ShowCharactor
20000688 g       .heap	00000000 __HeapLimit
20000400 g       .bss	00000000 __bss_start__
0000838c g     F .text	00000098 flash_erase
00008104 g     F .text	0000004c .hidden __aeabi_ui2d
00006ca0  w    F .text	00000006 SPI1_IRQHandler
000070c8 g     F .text	00000196 .hidden __udivmoddi4
00006ca0  w    F .text	00000006 DefaultISR
00006fc0 g     F .text	00000012 .hidden __aeabi_dcmplt
0000b558 g       .ARM	00000000 __exidx_start
0000749c g     F .text	000004d8 .hidden __aeabi_dmul
0000a0a4 g     F .text	00000278 printk_mkfloatstr
0000b540 g     F .text	00000000 _init
00006ca0  w    F .text	00000006 TPM2_IRQHandler
0000708c g     F .text	0000003c .hidden __aeabi_d2ulz
00006ca0  w    F .text	00000006 RTC_IRQHandler
0000acf4 g     O .text	00000014 PORT_ARR
00000400 g       *ABS*	00000000 MCU_SECTORSIZE
00006c58  w    F .text	00000048 Reset_Handler
00006ca0  w    F .text	00000006 LCD_IRQHandler
00009e34 g     F .text	00000064 LCD_WR_DATA
000073bc g     F .text	000000e0 .hidden __ledf2
200017ff g       *ABS*	00000000 GEC_USER_RAM_END
0000ab90 g     F .text	0000003c myprintf
00006ca0  w    F .text	00000006 RTC_Seconds_IRQHandler
00006dbc g     F .text	00000000 .hidden __aeabi_idiv
00006ca0  w    F .text	00000006 MCG_IRQHandler
00006ca0  w    F .text	00000006 UART2_IRQHandler
20000400 g       .data	00000000 __data_end__
0000b560 g       .init_array	00000000 __CTOR_LIST__
00000200 g       *ABS*	00000000 HEAP_SIZE
00006fe8 g     F .text	00000012 .hidden __aeabi_dcmpgt
00008150 g     F .text	0000003c .hidden __clzsi2
20000488 g       .bss	00000000 __bss_end__
00006ca0  w    F .text	00000006 Reserved20_IRQHandler
00006ffc g     F .text	00000012 .hidden __aeabi_dcmpge
00008550 g     F .text	00000068 flash_cmd_launch
20000480 g     O .bss	00000003 gTime
00007974 g     F .text	00000724 .hidden __aeabi_dsub
20000484 g     O .bss	00000004 component_fun
20000400 g       *ABS*	00000000 GEC_USER_RAM_START
00008c30 g     F .text	00000364 suart_receive
0000ad1c g     O .text	00000008 UART_ARR
00009488 g     F .text	00000074 spi_send1
0000a038 g     F .text	00000020 out_char
0000a47c g     F .text	00000714 printk
00006f90  w    F .text	00000002 .hidden __aeabi_ldiv0
00009de8 g     F .text	0000004c LCD_WR_DATA8
0000969c g     F .text	000000c0 LCD_Init
0000abde g     F .text	00000010 memset
00006800 g       .interrupts	000000c0 __isr_vector
000082cc g     F .text	000000c0 main
0000907c g     F .text	00000030 suart_get_port_pin
00006ca0  w    F .text	00000006 PIT_IRQHandler
00006ca8 g     F .text	00000000 .hidden __aeabi_uidiv
00006ca0  w    F .text	00000006 SVC_Handler
20000400 g       .data	00000000 __DATA_RAM
0000872c g     F .text	00000030 gpio_get_port_pin
20000488 g       .heap	00000000 __end__
00006dbc g     F .text	000001cc .hidden __divsi3
0000b560 g       .init_array	00000000 __CTOR_END__
00006ca0  w    F .text	00000006 DMA3_IRQHandler
0000b560 g       .init_array	00000000 __DTOR_LIST__
20000488 g       .bss	00000000 __END_BSS
000081b4 g     F .text	00000118 SystemInit
00006ca0  w    F .text	00000006 DMA0_IRQHandler
00007260 g     F .text	00000078 .hidden __nedf2
0000708c g     F .text	0000003c .hidden __fixunsdfdi
0000b54c g     F .text	00000000 _fini
00006ca0  w    F .text	00000006 DAC0_IRQHandler
00009ee4 g     F .text	0000002e LCD_WR_REG_DATA
20001800 g       .stack	00000000 __StackTop
00008424 g     F .text	00000090 flash_write_physical
20000400 g       .mtb	00000000 _mtb_end
00008978 g     F .text	00000040 suart_get
0000b568 g       *ABS*	00000000 __DATA_END
000084dc g     F .text	00000072 flash_isempty
00007050 g     F .text	0000003c .hidden __aeabi_d2uiz
00006ca0  w    F .text	00000006 TPM1_IRQHandler
000094fc g     F .text	000000d4 Vectors_Init
20001800 g       *ABS*	00000000 __stack
00006db4 g     F .text	00000008 .hidden __aeabi_uidivmod
00006fb4 g     F .text	0000000c .hidden __aeabi_dcmpeq
00006ca0  w    F .text	00000006 LVD_LVW_IRQHandler
00006ca0  w    F .text	00000006 SPI0_IRQHandler
00006ca0  w    F .text	00000006 PORTA_IRQHandler
00006800 g       .interrupts	00000000 __VECTOR_TABLE
0000b568 g       .fini_array	00000000 __DATA_ROM
20001700 g       *ABS*	00000000 __StackLimit
00006ca0  w    F .text	00000006 FTFA_IRQHandler
00009f12 g     F .text	000000b8 Address_set
0000ad08 g     O .text	00000014 GPIO_ARR
00008098 g     F .text	0000006c .hidden __aeabi_d2iz
20000400 g       .mtb	00000000 _mtb_start
00006ca0  w    F .text	00000006 Reserved40_IRQHandler
00006f90  w    F .text	00000002 .hidden __aeabi_idiv0
000099ec g     F .text	00000228 LCD_ShowString
00006ca0  w    F .text	00000006 LPTMR0_IRQHandler
000081a4 g     F .text	0000000e strlen
00006fa4 g     F .text	00000010 .hidden __aeabi_cdcmpeq
000072d8 g     F .text	000000e4 .hidden __gedf2
000095d0 g     F .text	000000ac uart_send1
000090ac g     F .text	00000020 wdog_stop
0000967c g     F .text	00000020 uart_is_uartNo
000086b0 g     F .text	0000007c gpio_set
000085b8 g     F .text	000000f8 gpio_init
0000818c g     F .text	00000016 .hidden __clzdi2
00006ca0  w    F .text	00000006 CMP0_IRQHandler
00006f88 g     F .text	00000008 .hidden __aeabi_idivmod
00000000 g       *ABS*	00000000 MCU_FLASH_ADDR_START
00006ca0  w    F .text	00000006 DMA1_IRQHandler
0000986e g     F .text	000000ae LCD_DrawRectangle



Disassembly of section .text:

00006c10 <__do_global_dtors_aux>:
__do_global_dtors_aux():
    6c10:	b510      	push	{r4, lr}
    6c12:	4c06      	ldr	r4, [pc, #24]	; (6c2c <__do_global_dtors_aux+0x1c>)
    6c14:	7823      	ldrb	r3, [r4, #0]
    6c16:	2b00      	cmp	r3, #0
    6c18:	d107      	bne.n	6c2a <__do_global_dtors_aux+0x1a>
    6c1a:	4b05      	ldr	r3, [pc, #20]	; (6c30 <__do_global_dtors_aux+0x20>)
    6c1c:	2b00      	cmp	r3, #0
    6c1e:	d002      	beq.n	6c26 <__do_global_dtors_aux+0x16>
    6c20:	4804      	ldr	r0, [pc, #16]	; (6c34 <__do_global_dtors_aux+0x24>)
    6c22:	e000      	b.n	6c26 <__do_global_dtors_aux+0x16>
    6c24:	bf00      	nop
    6c26:	2301      	movs	r3, #1
    6c28:	7023      	strb	r3, [r4, #0]
    6c2a:	bd10      	pop	{r4, pc}
    6c2c:	20000400 	.word	0x20000400
    6c30:	00000000 	.word	0x00000000
    6c34:	0000b540 	.word	0x0000b540

00006c38 <frame_dummy>:
frame_dummy():
    6c38:	4b04      	ldr	r3, [pc, #16]	; (6c4c <frame_dummy+0x14>)
    6c3a:	b510      	push	{r4, lr}
    6c3c:	2b00      	cmp	r3, #0
    6c3e:	d003      	beq.n	6c48 <frame_dummy+0x10>
    6c40:	4903      	ldr	r1, [pc, #12]	; (6c50 <frame_dummy+0x18>)
    6c42:	4804      	ldr	r0, [pc, #16]	; (6c54 <frame_dummy+0x1c>)
    6c44:	e000      	b.n	6c48 <frame_dummy+0x10>
    6c46:	bf00      	nop
    6c48:	bd10      	pop	{r4, pc}
    6c4a:	46c0      	nop			; (mov r8, r8)
    6c4c:	00000000 	.word	0x00000000
    6c50:	20000404 	.word	0x20000404
    6c54:	0000b540 	.word	0x0000b540

00006c58 <Reset_Handler>:
Reset_Handler():
F:\WorkSpace\AHL-GEC-EXP\Temp\LCD\Debug/srcs/startup_MKL36Z4.S:118
    .align 2
    .globl   Reset_Handler
    .weak    Reset_Handler
    .type    Reset_Handler, %function
Reset_Handler:
    cpsid   i               /* Mask interrupts */
    6c58:	b672      	cpsid	i
F:\WorkSpace\AHL-GEC-EXP\Temp\LCD\Debug/srcs/startup_MKL36Z4.S:120
#ifndef __NO_SYSTEM_INIT
    bl SystemInit
    6c5a:	f001 faab 	bl	81b4 <SystemInit>
F:\WorkSpace\AHL-GEC-EXP\Temp\LCD\Debug/srcs/startup_MKL36Z4.S:122
#endif
    cpsie   i               /* Unmask interrupts */
    6c5e:	b662      	cpsie	i
F:\WorkSpace\AHL-GEC-EXP\Temp\LCD\Debug/srcs/startup_MKL36Z4.S:130
 *      linker script.
 *      __etext: End of code section, i.e., begin of data sections to copy from.
 *      __data_start__/__data_end__: RAM address range that data should be
 *      copied to. Both must be aligned to 4 bytes boundary.  */

    ldr    r1, =__etext
    6c60:	490a      	ldr	r1, [pc, #40]	; (6c8c <Reset_Handler+0x34>)
F:\WorkSpace\AHL-GEC-EXP\Temp\LCD\Debug/srcs/startup_MKL36Z4.S:131
    ldr    r2, =__data_start__
    6c62:	4a0b      	ldr	r2, [pc, #44]	; (6c90 <Reset_Handler+0x38>)
F:\WorkSpace\AHL-GEC-EXP\Temp\LCD\Debug/srcs/startup_MKL36Z4.S:132
    ldr    r3, =__data_end__
    6c64:	4b0b      	ldr	r3, [pc, #44]	; (6c94 <Reset_Handler+0x3c>)
F:\WorkSpace\AHL-GEC-EXP\Temp\LCD\Debug/srcs/startup_MKL36Z4.S:134

    subs    r3, r2
    6c66:	1a9b      	subs	r3, r3, r2
F:\WorkSpace\AHL-GEC-EXP\Temp\LCD\Debug/srcs/startup_MKL36Z4.S:135
    ble     .LC0
    6c68:	dd03      	ble.n	6c72 <Reset_Handler+0x1a>
F:\WorkSpace\AHL-GEC-EXP\Temp\LCD\Debug/srcs/startup_MKL36Z4.S:138

.LC1:
    subs    r3, 4
    6c6a:	3b04      	subs	r3, #4
F:\WorkSpace\AHL-GEC-EXP\Temp\LCD\Debug/srcs/startup_MKL36Z4.S:139
    ldr    r0, [r1,r3]
    6c6c:	58c8      	ldr	r0, [r1, r3]
F:\WorkSpace\AHL-GEC-EXP\Temp\LCD\Debug/srcs/startup_MKL36Z4.S:140
    str    r0, [r2,r3]
    6c6e:	50d0      	str	r0, [r2, r3]
F:\WorkSpace\AHL-GEC-EXP\Temp\LCD\Debug/srcs/startup_MKL36Z4.S:141
    bgt    .LC1
    6c70:	dcfb      	bgt.n	6c6a <Reset_Handler+0x12>
F:\WorkSpace\AHL-GEC-EXP\Temp\LCD\Debug/srcs/startup_MKL36Z4.S:154
 *     Loop to zero out BSS section, which uses following symbols
 *     in linker script:
 *      __bss_start__: start of BSS section. Must align to 4
 *      __bss_end__: end of BSS section. Must align to 4
 */
    ldr r1, =__bss_start__
    6c72:	4909      	ldr	r1, [pc, #36]	; (6c98 <Reset_Handler+0x40>)
F:\WorkSpace\AHL-GEC-EXP\Temp\LCD\Debug/srcs/startup_MKL36Z4.S:155
    ldr r2, =__bss_end__
    6c74:	4a09      	ldr	r2, [pc, #36]	; (6c9c <Reset_Handler+0x44>)
F:\WorkSpace\AHL-GEC-EXP\Temp\LCD\Debug/srcs/startup_MKL36Z4.S:157

    subs    r2, r1
    6c76:	1a52      	subs	r2, r2, r1
F:\WorkSpace\AHL-GEC-EXP\Temp\LCD\Debug/srcs/startup_MKL36Z4.S:158
    ble .LC3
    6c78:	dd03      	ble.n	6c82 <Reset_Handler+0x2a>
F:\WorkSpace\AHL-GEC-EXP\Temp\LCD\Debug/srcs/startup_MKL36Z4.S:160

    movs    r0, 0
    6c7a:	2000      	movs	r0, #0
F:\WorkSpace\AHL-GEC-EXP\Temp\LCD\Debug/srcs/startup_MKL36Z4.S:162
.LC2:
    str r0, [r1, r2]
    6c7c:	5088      	str	r0, [r1, r2]
F:\WorkSpace\AHL-GEC-EXP\Temp\LCD\Debug/srcs/startup_MKL36Z4.S:163
    subs    r2, 4
    6c7e:	3a04      	subs	r2, #4
F:\WorkSpace\AHL-GEC-EXP\Temp\LCD\Debug/srcs/startup_MKL36Z4.S:164
    bge .LC2
    6c80:	dafc      	bge.n	6c7c <Reset_Handler+0x24>
F:\WorkSpace\AHL-GEC-EXP\Temp\LCD\Debug/srcs/startup_MKL36Z4.S:173
#define __START _start
#endif


/*【User程序修改处1】*/
	bl	 Vectors_Init  
    6c82:	f002 fc3b 	bl	94fc <Vectors_Init>
F:\WorkSpace\AHL-GEC-EXP\Temp\LCD\Debug/srcs/startup_MKL36Z4.S:175
  //  bl    __START
   bl main
    6c86:	f001 fb21 	bl	82cc <main>
    6c8a:	0000      	.short	0x0000
F:\WorkSpace\AHL-GEC-EXP\Temp\LCD\Debug/srcs/startup_MKL36Z4.S:130
    ldr    r1, =__etext
    6c8c:	0000b568 	.word	0x0000b568
F:\WorkSpace\AHL-GEC-EXP\Temp\LCD\Debug/srcs/startup_MKL36Z4.S:131
    ldr    r2, =__data_start__
    6c90:	20000400 	.word	0x20000400
F:\WorkSpace\AHL-GEC-EXP\Temp\LCD\Debug/srcs/startup_MKL36Z4.S:132
    ldr    r3, =__data_end__
    6c94:	20000400 	.word	0x20000400
F:\WorkSpace\AHL-GEC-EXP\Temp\LCD\Debug/srcs/startup_MKL36Z4.S:154
    ldr r1, =__bss_start__
    6c98:	20000400 	.word	0x20000400
F:\WorkSpace\AHL-GEC-EXP\Temp\LCD\Debug/srcs/startup_MKL36Z4.S:155
    ldr r2, =__bss_end__
    6c9c:	20000488 	.word	0x20000488

00006ca0 <ADC0_IRQHandler>:
I2C0_IRQHandler():
F:\WorkSpace\AHL-GEC-EXP\Temp\LCD\Debug/srcs/startup_MKL36Z4.S:186
    .weak DefaultISR
    .type DefaultISR, %function
DefaultISR:    
    //ldr	r0, =DefaultISR   //误中断，进入无限循环
    //bx r0
       push  {lr}        //【20200326】WYH改，误中断，回原处
    6ca0:	b500      	push	{lr}
F:\WorkSpace\AHL-GEC-EXP\Temp\LCD\Debug/srcs/startup_MKL36Z4.S:187
       nop
    6ca2:	46c0      	nop			; (mov r8, r8)
F:\WorkSpace\AHL-GEC-EXP\Temp\LCD\Debug/srcs/startup_MKL36Z4.S:188
       pop   {pc}
    6ca4:	bd00      	pop	{pc}
    6ca6:	46c0      	nop			; (mov r8, r8)

00006ca8 <__udivsi3>:
__udivsi3():
    6ca8:	2200      	movs	r2, #0
    6caa:	0843      	lsrs	r3, r0, #1
    6cac:	428b      	cmp	r3, r1
    6cae:	d374      	bcc.n	6d9a <__udivsi3+0xf2>
    6cb0:	0903      	lsrs	r3, r0, #4
    6cb2:	428b      	cmp	r3, r1
    6cb4:	d35f      	bcc.n	6d76 <__udivsi3+0xce>
    6cb6:	0a03      	lsrs	r3, r0, #8
    6cb8:	428b      	cmp	r3, r1
    6cba:	d344      	bcc.n	6d46 <__udivsi3+0x9e>
    6cbc:	0b03      	lsrs	r3, r0, #12
    6cbe:	428b      	cmp	r3, r1
    6cc0:	d328      	bcc.n	6d14 <__udivsi3+0x6c>
    6cc2:	0c03      	lsrs	r3, r0, #16
    6cc4:	428b      	cmp	r3, r1
    6cc6:	d30d      	bcc.n	6ce4 <__udivsi3+0x3c>
    6cc8:	22ff      	movs	r2, #255	; 0xff
    6cca:	0209      	lsls	r1, r1, #8
    6ccc:	ba12      	rev	r2, r2
    6cce:	0c03      	lsrs	r3, r0, #16
    6cd0:	428b      	cmp	r3, r1
    6cd2:	d302      	bcc.n	6cda <__udivsi3+0x32>
    6cd4:	1212      	asrs	r2, r2, #8
    6cd6:	0209      	lsls	r1, r1, #8
    6cd8:	d065      	beq.n	6da6 <__udivsi3+0xfe>
    6cda:	0b03      	lsrs	r3, r0, #12
    6cdc:	428b      	cmp	r3, r1
    6cde:	d319      	bcc.n	6d14 <__udivsi3+0x6c>
    6ce0:	e000      	b.n	6ce4 <__udivsi3+0x3c>
    6ce2:	0a09      	lsrs	r1, r1, #8
    6ce4:	0bc3      	lsrs	r3, r0, #15
    6ce6:	428b      	cmp	r3, r1
    6ce8:	d301      	bcc.n	6cee <__udivsi3+0x46>
    6cea:	03cb      	lsls	r3, r1, #15
    6cec:	1ac0      	subs	r0, r0, r3
    6cee:	4152      	adcs	r2, r2
    6cf0:	0b83      	lsrs	r3, r0, #14
    6cf2:	428b      	cmp	r3, r1
    6cf4:	d301      	bcc.n	6cfa <__udivsi3+0x52>
    6cf6:	038b      	lsls	r3, r1, #14
    6cf8:	1ac0      	subs	r0, r0, r3
    6cfa:	4152      	adcs	r2, r2
    6cfc:	0b43      	lsrs	r3, r0, #13
    6cfe:	428b      	cmp	r3, r1
    6d00:	d301      	bcc.n	6d06 <__udivsi3+0x5e>
    6d02:	034b      	lsls	r3, r1, #13
    6d04:	1ac0      	subs	r0, r0, r3
    6d06:	4152      	adcs	r2, r2
    6d08:	0b03      	lsrs	r3, r0, #12
    6d0a:	428b      	cmp	r3, r1
    6d0c:	d301      	bcc.n	6d12 <__udivsi3+0x6a>
    6d0e:	030b      	lsls	r3, r1, #12
    6d10:	1ac0      	subs	r0, r0, r3
    6d12:	4152      	adcs	r2, r2
    6d14:	0ac3      	lsrs	r3, r0, #11
    6d16:	428b      	cmp	r3, r1
    6d18:	d301      	bcc.n	6d1e <__udivsi3+0x76>
    6d1a:	02cb      	lsls	r3, r1, #11
    6d1c:	1ac0      	subs	r0, r0, r3
    6d1e:	4152      	adcs	r2, r2
    6d20:	0a83      	lsrs	r3, r0, #10
    6d22:	428b      	cmp	r3, r1
    6d24:	d301      	bcc.n	6d2a <__udivsi3+0x82>
    6d26:	028b      	lsls	r3, r1, #10
    6d28:	1ac0      	subs	r0, r0, r3
    6d2a:	4152      	adcs	r2, r2
    6d2c:	0a43      	lsrs	r3, r0, #9
    6d2e:	428b      	cmp	r3, r1
    6d30:	d301      	bcc.n	6d36 <__udivsi3+0x8e>
    6d32:	024b      	lsls	r3, r1, #9
    6d34:	1ac0      	subs	r0, r0, r3
    6d36:	4152      	adcs	r2, r2
    6d38:	0a03      	lsrs	r3, r0, #8
    6d3a:	428b      	cmp	r3, r1
    6d3c:	d301      	bcc.n	6d42 <__udivsi3+0x9a>
    6d3e:	020b      	lsls	r3, r1, #8
    6d40:	1ac0      	subs	r0, r0, r3
    6d42:	4152      	adcs	r2, r2
    6d44:	d2cd      	bcs.n	6ce2 <__udivsi3+0x3a>
    6d46:	09c3      	lsrs	r3, r0, #7
    6d48:	428b      	cmp	r3, r1
    6d4a:	d301      	bcc.n	6d50 <__udivsi3+0xa8>
    6d4c:	01cb      	lsls	r3, r1, #7
    6d4e:	1ac0      	subs	r0, r0, r3
    6d50:	4152      	adcs	r2, r2
    6d52:	0983      	lsrs	r3, r0, #6
    6d54:	428b      	cmp	r3, r1
    6d56:	d301      	bcc.n	6d5c <__udivsi3+0xb4>
    6d58:	018b      	lsls	r3, r1, #6
    6d5a:	1ac0      	subs	r0, r0, r3
    6d5c:	4152      	adcs	r2, r2
    6d5e:	0943      	lsrs	r3, r0, #5
    6d60:	428b      	cmp	r3, r1
    6d62:	d301      	bcc.n	6d68 <__udivsi3+0xc0>
    6d64:	014b      	lsls	r3, r1, #5
    6d66:	1ac0      	subs	r0, r0, r3
    6d68:	4152      	adcs	r2, r2
    6d6a:	0903      	lsrs	r3, r0, #4
    6d6c:	428b      	cmp	r3, r1
    6d6e:	d301      	bcc.n	6d74 <__udivsi3+0xcc>
    6d70:	010b      	lsls	r3, r1, #4
    6d72:	1ac0      	subs	r0, r0, r3
    6d74:	4152      	adcs	r2, r2
    6d76:	08c3      	lsrs	r3, r0, #3
    6d78:	428b      	cmp	r3, r1
    6d7a:	d301      	bcc.n	6d80 <__udivsi3+0xd8>
    6d7c:	00cb      	lsls	r3, r1, #3
    6d7e:	1ac0      	subs	r0, r0, r3
    6d80:	4152      	adcs	r2, r2
    6d82:	0883      	lsrs	r3, r0, #2
    6d84:	428b      	cmp	r3, r1
    6d86:	d301      	bcc.n	6d8c <__udivsi3+0xe4>
    6d88:	008b      	lsls	r3, r1, #2
    6d8a:	1ac0      	subs	r0, r0, r3
    6d8c:	4152      	adcs	r2, r2
    6d8e:	0843      	lsrs	r3, r0, #1
    6d90:	428b      	cmp	r3, r1
    6d92:	d301      	bcc.n	6d98 <__udivsi3+0xf0>
    6d94:	004b      	lsls	r3, r1, #1
    6d96:	1ac0      	subs	r0, r0, r3
    6d98:	4152      	adcs	r2, r2
    6d9a:	1a41      	subs	r1, r0, r1
    6d9c:	d200      	bcs.n	6da0 <__udivsi3+0xf8>
    6d9e:	4601      	mov	r1, r0
    6da0:	4152      	adcs	r2, r2
    6da2:	4610      	mov	r0, r2
    6da4:	4770      	bx	lr
    6da6:	e7ff      	b.n	6da8 <__udivsi3+0x100>
    6da8:	b501      	push	{r0, lr}
    6daa:	2000      	movs	r0, #0
    6dac:	f000 f8f0 	bl	6f90 <__aeabi_idiv0>
    6db0:	bd02      	pop	{r1, pc}
    6db2:	46c0      	nop			; (mov r8, r8)

00006db4 <__aeabi_uidivmod>:
__aeabi_uidivmod():
    6db4:	2900      	cmp	r1, #0
    6db6:	d0f7      	beq.n	6da8 <__udivsi3+0x100>
    6db8:	e776      	b.n	6ca8 <__udivsi3>
    6dba:	4770      	bx	lr

00006dbc <__divsi3>:
__divsi3():
    6dbc:	4603      	mov	r3, r0
    6dbe:	430b      	orrs	r3, r1
    6dc0:	d47f      	bmi.n	6ec2 <__divsi3+0x106>
    6dc2:	2200      	movs	r2, #0
    6dc4:	0843      	lsrs	r3, r0, #1
    6dc6:	428b      	cmp	r3, r1
    6dc8:	d374      	bcc.n	6eb4 <__divsi3+0xf8>
    6dca:	0903      	lsrs	r3, r0, #4
    6dcc:	428b      	cmp	r3, r1
    6dce:	d35f      	bcc.n	6e90 <__divsi3+0xd4>
    6dd0:	0a03      	lsrs	r3, r0, #8
    6dd2:	428b      	cmp	r3, r1
    6dd4:	d344      	bcc.n	6e60 <__divsi3+0xa4>
    6dd6:	0b03      	lsrs	r3, r0, #12
    6dd8:	428b      	cmp	r3, r1
    6dda:	d328      	bcc.n	6e2e <__divsi3+0x72>
    6ddc:	0c03      	lsrs	r3, r0, #16
    6dde:	428b      	cmp	r3, r1
    6de0:	d30d      	bcc.n	6dfe <__divsi3+0x42>
    6de2:	22ff      	movs	r2, #255	; 0xff
    6de4:	0209      	lsls	r1, r1, #8
    6de6:	ba12      	rev	r2, r2
    6de8:	0c03      	lsrs	r3, r0, #16
    6dea:	428b      	cmp	r3, r1
    6dec:	d302      	bcc.n	6df4 <__divsi3+0x38>
    6dee:	1212      	asrs	r2, r2, #8
    6df0:	0209      	lsls	r1, r1, #8
    6df2:	d065      	beq.n	6ec0 <__divsi3+0x104>
    6df4:	0b03      	lsrs	r3, r0, #12
    6df6:	428b      	cmp	r3, r1
    6df8:	d319      	bcc.n	6e2e <__divsi3+0x72>
    6dfa:	e000      	b.n	6dfe <__divsi3+0x42>
    6dfc:	0a09      	lsrs	r1, r1, #8
    6dfe:	0bc3      	lsrs	r3, r0, #15
    6e00:	428b      	cmp	r3, r1
    6e02:	d301      	bcc.n	6e08 <__divsi3+0x4c>
    6e04:	03cb      	lsls	r3, r1, #15
    6e06:	1ac0      	subs	r0, r0, r3
    6e08:	4152      	adcs	r2, r2
    6e0a:	0b83      	lsrs	r3, r0, #14
    6e0c:	428b      	cmp	r3, r1
    6e0e:	d301      	bcc.n	6e14 <__divsi3+0x58>
    6e10:	038b      	lsls	r3, r1, #14
    6e12:	1ac0      	subs	r0, r0, r3
    6e14:	4152      	adcs	r2, r2
    6e16:	0b43      	lsrs	r3, r0, #13
    6e18:	428b      	cmp	r3, r1
    6e1a:	d301      	bcc.n	6e20 <__divsi3+0x64>
    6e1c:	034b      	lsls	r3, r1, #13
    6e1e:	1ac0      	subs	r0, r0, r3
    6e20:	4152      	adcs	r2, r2
    6e22:	0b03      	lsrs	r3, r0, #12
    6e24:	428b      	cmp	r3, r1
    6e26:	d301      	bcc.n	6e2c <__divsi3+0x70>
    6e28:	030b      	lsls	r3, r1, #12
    6e2a:	1ac0      	subs	r0, r0, r3
    6e2c:	4152      	adcs	r2, r2
    6e2e:	0ac3      	lsrs	r3, r0, #11
    6e30:	428b      	cmp	r3, r1
    6e32:	d301      	bcc.n	6e38 <__divsi3+0x7c>
    6e34:	02cb      	lsls	r3, r1, #11
    6e36:	1ac0      	subs	r0, r0, r3
    6e38:	4152      	adcs	r2, r2
    6e3a:	0a83      	lsrs	r3, r0, #10
    6e3c:	428b      	cmp	r3, r1
    6e3e:	d301      	bcc.n	6e44 <__divsi3+0x88>
    6e40:	028b      	lsls	r3, r1, #10
    6e42:	1ac0      	subs	r0, r0, r3
    6e44:	4152      	adcs	r2, r2
    6e46:	0a43      	lsrs	r3, r0, #9
    6e48:	428b      	cmp	r3, r1
    6e4a:	d301      	bcc.n	6e50 <__divsi3+0x94>
    6e4c:	024b      	lsls	r3, r1, #9
    6e4e:	1ac0      	subs	r0, r0, r3
    6e50:	4152      	adcs	r2, r2
    6e52:	0a03      	lsrs	r3, r0, #8
    6e54:	428b      	cmp	r3, r1
    6e56:	d301      	bcc.n	6e5c <__divsi3+0xa0>
    6e58:	020b      	lsls	r3, r1, #8
    6e5a:	1ac0      	subs	r0, r0, r3
    6e5c:	4152      	adcs	r2, r2
    6e5e:	d2cd      	bcs.n	6dfc <__divsi3+0x40>
    6e60:	09c3      	lsrs	r3, r0, #7
    6e62:	428b      	cmp	r3, r1
    6e64:	d301      	bcc.n	6e6a <__divsi3+0xae>
    6e66:	01cb      	lsls	r3, r1, #7
    6e68:	1ac0      	subs	r0, r0, r3
    6e6a:	4152      	adcs	r2, r2
    6e6c:	0983      	lsrs	r3, r0, #6
    6e6e:	428b      	cmp	r3, r1
    6e70:	d301      	bcc.n	6e76 <__divsi3+0xba>
    6e72:	018b      	lsls	r3, r1, #6
    6e74:	1ac0      	subs	r0, r0, r3
    6e76:	4152      	adcs	r2, r2
    6e78:	0943      	lsrs	r3, r0, #5
    6e7a:	428b      	cmp	r3, r1
    6e7c:	d301      	bcc.n	6e82 <__divsi3+0xc6>
    6e7e:	014b      	lsls	r3, r1, #5
    6e80:	1ac0      	subs	r0, r0, r3
    6e82:	4152      	adcs	r2, r2
    6e84:	0903      	lsrs	r3, r0, #4
    6e86:	428b      	cmp	r3, r1
    6e88:	d301      	bcc.n	6e8e <__divsi3+0xd2>
    6e8a:	010b      	lsls	r3, r1, #4
    6e8c:	1ac0      	subs	r0, r0, r3
    6e8e:	4152      	adcs	r2, r2
    6e90:	08c3      	lsrs	r3, r0, #3
    6e92:	428b      	cmp	r3, r1
    6e94:	d301      	bcc.n	6e9a <__divsi3+0xde>
    6e96:	00cb      	lsls	r3, r1, #3
    6e98:	1ac0      	subs	r0, r0, r3
    6e9a:	4152      	adcs	r2, r2
    6e9c:	0883      	lsrs	r3, r0, #2
    6e9e:	428b      	cmp	r3, r1
    6ea0:	d301      	bcc.n	6ea6 <__divsi3+0xea>
    6ea2:	008b      	lsls	r3, r1, #2
    6ea4:	1ac0      	subs	r0, r0, r3
    6ea6:	4152      	adcs	r2, r2
    6ea8:	0843      	lsrs	r3, r0, #1
    6eaa:	428b      	cmp	r3, r1
    6eac:	d301      	bcc.n	6eb2 <__divsi3+0xf6>
    6eae:	004b      	lsls	r3, r1, #1
    6eb0:	1ac0      	subs	r0, r0, r3
    6eb2:	4152      	adcs	r2, r2
    6eb4:	1a41      	subs	r1, r0, r1
    6eb6:	d200      	bcs.n	6eba <__divsi3+0xfe>
    6eb8:	4601      	mov	r1, r0
    6eba:	4152      	adcs	r2, r2
    6ebc:	4610      	mov	r0, r2
    6ebe:	4770      	bx	lr
    6ec0:	e05d      	b.n	6f7e <__divsi3+0x1c2>
    6ec2:	0fca      	lsrs	r2, r1, #31
    6ec4:	d000      	beq.n	6ec8 <__divsi3+0x10c>
    6ec6:	4249      	negs	r1, r1
    6ec8:	1003      	asrs	r3, r0, #32
    6eca:	d300      	bcc.n	6ece <__divsi3+0x112>
    6ecc:	4240      	negs	r0, r0
    6ece:	4053      	eors	r3, r2
    6ed0:	2200      	movs	r2, #0
    6ed2:	469c      	mov	ip, r3
    6ed4:	0903      	lsrs	r3, r0, #4
    6ed6:	428b      	cmp	r3, r1
    6ed8:	d32d      	bcc.n	6f36 <__divsi3+0x17a>
    6eda:	0a03      	lsrs	r3, r0, #8
    6edc:	428b      	cmp	r3, r1
    6ede:	d312      	bcc.n	6f06 <__divsi3+0x14a>
    6ee0:	22fc      	movs	r2, #252	; 0xfc
    6ee2:	0189      	lsls	r1, r1, #6
    6ee4:	ba12      	rev	r2, r2
    6ee6:	0a03      	lsrs	r3, r0, #8
    6ee8:	428b      	cmp	r3, r1
    6eea:	d30c      	bcc.n	6f06 <__divsi3+0x14a>
    6eec:	0189      	lsls	r1, r1, #6
    6eee:	1192      	asrs	r2, r2, #6
    6ef0:	428b      	cmp	r3, r1
    6ef2:	d308      	bcc.n	6f06 <__divsi3+0x14a>
    6ef4:	0189      	lsls	r1, r1, #6
    6ef6:	1192      	asrs	r2, r2, #6
    6ef8:	428b      	cmp	r3, r1
    6efa:	d304      	bcc.n	6f06 <__divsi3+0x14a>
    6efc:	0189      	lsls	r1, r1, #6
    6efe:	d03a      	beq.n	6f76 <__divsi3+0x1ba>
    6f00:	1192      	asrs	r2, r2, #6
    6f02:	e000      	b.n	6f06 <__divsi3+0x14a>
    6f04:	0989      	lsrs	r1, r1, #6
    6f06:	09c3      	lsrs	r3, r0, #7
    6f08:	428b      	cmp	r3, r1
    6f0a:	d301      	bcc.n	6f10 <__divsi3+0x154>
    6f0c:	01cb      	lsls	r3, r1, #7
    6f0e:	1ac0      	subs	r0, r0, r3
    6f10:	4152      	adcs	r2, r2
    6f12:	0983      	lsrs	r3, r0, #6
    6f14:	428b      	cmp	r3, r1
    6f16:	d301      	bcc.n	6f1c <__divsi3+0x160>
    6f18:	018b      	lsls	r3, r1, #6
    6f1a:	1ac0      	subs	r0, r0, r3
    6f1c:	4152      	adcs	r2, r2
    6f1e:	0943      	lsrs	r3, r0, #5
    6f20:	428b      	cmp	r3, r1
    6f22:	d301      	bcc.n	6f28 <__divsi3+0x16c>
    6f24:	014b      	lsls	r3, r1, #5
    6f26:	1ac0      	subs	r0, r0, r3
    6f28:	4152      	adcs	r2, r2
    6f2a:	0903      	lsrs	r3, r0, #4
    6f2c:	428b      	cmp	r3, r1
    6f2e:	d301      	bcc.n	6f34 <__divsi3+0x178>
    6f30:	010b      	lsls	r3, r1, #4
    6f32:	1ac0      	subs	r0, r0, r3
    6f34:	4152      	adcs	r2, r2
    6f36:	08c3      	lsrs	r3, r0, #3
    6f38:	428b      	cmp	r3, r1
    6f3a:	d301      	bcc.n	6f40 <__divsi3+0x184>
    6f3c:	00cb      	lsls	r3, r1, #3
    6f3e:	1ac0      	subs	r0, r0, r3
    6f40:	4152      	adcs	r2, r2
    6f42:	0883      	lsrs	r3, r0, #2
    6f44:	428b      	cmp	r3, r1
    6f46:	d301      	bcc.n	6f4c <__divsi3+0x190>
    6f48:	008b      	lsls	r3, r1, #2
    6f4a:	1ac0      	subs	r0, r0, r3
    6f4c:	4152      	adcs	r2, r2
    6f4e:	d2d9      	bcs.n	6f04 <__divsi3+0x148>
    6f50:	0843      	lsrs	r3, r0, #1
    6f52:	428b      	cmp	r3, r1
    6f54:	d301      	bcc.n	6f5a <__divsi3+0x19e>
    6f56:	004b      	lsls	r3, r1, #1
    6f58:	1ac0      	subs	r0, r0, r3
    6f5a:	4152      	adcs	r2, r2
    6f5c:	1a41      	subs	r1, r0, r1
    6f5e:	d200      	bcs.n	6f62 <__divsi3+0x1a6>
    6f60:	4601      	mov	r1, r0
    6f62:	4663      	mov	r3, ip
    6f64:	4152      	adcs	r2, r2
    6f66:	105b      	asrs	r3, r3, #1
    6f68:	4610      	mov	r0, r2
    6f6a:	d301      	bcc.n	6f70 <__divsi3+0x1b4>
    6f6c:	4240      	negs	r0, r0
    6f6e:	2b00      	cmp	r3, #0
    6f70:	d500      	bpl.n	6f74 <__divsi3+0x1b8>
    6f72:	4249      	negs	r1, r1
    6f74:	4770      	bx	lr
    6f76:	4663      	mov	r3, ip
    6f78:	105b      	asrs	r3, r3, #1
    6f7a:	d300      	bcc.n	6f7e <__divsi3+0x1c2>
    6f7c:	4240      	negs	r0, r0
    6f7e:	b501      	push	{r0, lr}
    6f80:	2000      	movs	r0, #0
    6f82:	f000 f805 	bl	6f90 <__aeabi_idiv0>
    6f86:	bd02      	pop	{r1, pc}

00006f88 <__aeabi_idivmod>:
__aeabi_idivmod():
    6f88:	2900      	cmp	r1, #0
    6f8a:	d0f8      	beq.n	6f7e <__divsi3+0x1c2>
    6f8c:	e716      	b.n	6dbc <__divsi3>
    6f8e:	4770      	bx	lr

00006f90 <__aeabi_idiv0>:
__aeabi_ldiv0():
    6f90:	4770      	bx	lr
    6f92:	46c0      	nop			; (mov r8, r8)

00006f94 <__aeabi_cdrcmple>:
__aeabi_cdrcmple():
    6f94:	4684      	mov	ip, r0
    6f96:	1c10      	adds	r0, r2, #0
    6f98:	4662      	mov	r2, ip
    6f9a:	468c      	mov	ip, r1
    6f9c:	1c19      	adds	r1, r3, #0
    6f9e:	4663      	mov	r3, ip
    6fa0:	e000      	b.n	6fa4 <__aeabi_cdcmpeq>
    6fa2:	46c0      	nop			; (mov r8, r8)

00006fa4 <__aeabi_cdcmpeq>:
    6fa4:	b51f      	push	{r0, r1, r2, r3, r4, lr}
    6fa6:	f000 fa09 	bl	73bc <__ledf2>
    6faa:	2800      	cmp	r0, #0
    6fac:	d401      	bmi.n	6fb2 <__aeabi_cdcmpeq+0xe>
    6fae:	2100      	movs	r1, #0
    6fb0:	42c8      	cmn	r0, r1
    6fb2:	bd1f      	pop	{r0, r1, r2, r3, r4, pc}

00006fb4 <__aeabi_dcmpeq>:
__aeabi_dcmpeq():
    6fb4:	b510      	push	{r4, lr}
    6fb6:	f000 f953 	bl	7260 <__eqdf2>
    6fba:	4240      	negs	r0, r0
    6fbc:	3001      	adds	r0, #1
    6fbe:	bd10      	pop	{r4, pc}

00006fc0 <__aeabi_dcmplt>:
__aeabi_dcmplt():
    6fc0:	b510      	push	{r4, lr}
    6fc2:	f000 f9fb 	bl	73bc <__ledf2>
    6fc6:	2800      	cmp	r0, #0
    6fc8:	db01      	blt.n	6fce <__aeabi_dcmplt+0xe>
    6fca:	2000      	movs	r0, #0
    6fcc:	bd10      	pop	{r4, pc}
    6fce:	2001      	movs	r0, #1
    6fd0:	bd10      	pop	{r4, pc}
    6fd2:	46c0      	nop			; (mov r8, r8)

00006fd4 <__aeabi_dcmple>:
__aeabi_dcmple():
    6fd4:	b510      	push	{r4, lr}
    6fd6:	f000 f9f1 	bl	73bc <__ledf2>
    6fda:	2800      	cmp	r0, #0
    6fdc:	dd01      	ble.n	6fe2 <__aeabi_dcmple+0xe>
    6fde:	2000      	movs	r0, #0
    6fe0:	bd10      	pop	{r4, pc}
    6fe2:	2001      	movs	r0, #1
    6fe4:	bd10      	pop	{r4, pc}
    6fe6:	46c0      	nop			; (mov r8, r8)

00006fe8 <__aeabi_dcmpgt>:
__aeabi_dcmpgt():
    6fe8:	b510      	push	{r4, lr}
    6fea:	f000 f975 	bl	72d8 <__gedf2>
    6fee:	2800      	cmp	r0, #0
    6ff0:	dc01      	bgt.n	6ff6 <__aeabi_dcmpgt+0xe>
    6ff2:	2000      	movs	r0, #0
    6ff4:	bd10      	pop	{r4, pc}
    6ff6:	2001      	movs	r0, #1
    6ff8:	bd10      	pop	{r4, pc}
    6ffa:	46c0      	nop			; (mov r8, r8)

00006ffc <__aeabi_dcmpge>:
__aeabi_dcmpge():
    6ffc:	b510      	push	{r4, lr}
    6ffe:	f000 f96b 	bl	72d8 <__gedf2>
    7002:	2800      	cmp	r0, #0
    7004:	da01      	bge.n	700a <__aeabi_dcmpge+0xe>
    7006:	2000      	movs	r0, #0
    7008:	bd10      	pop	{r4, pc}
    700a:	2001      	movs	r0, #1
    700c:	bd10      	pop	{r4, pc}
    700e:	46c0      	nop			; (mov r8, r8)

00007010 <__aeabi_uldivmod>:
__aeabi_uldivmod():
    7010:	2b00      	cmp	r3, #0
    7012:	d111      	bne.n	7038 <__aeabi_uldivmod+0x28>
    7014:	2a00      	cmp	r2, #0
    7016:	d10f      	bne.n	7038 <__aeabi_uldivmod+0x28>
    7018:	2900      	cmp	r1, #0
    701a:	d100      	bne.n	701e <__aeabi_uldivmod+0xe>
    701c:	2800      	cmp	r0, #0
    701e:	d002      	beq.n	7026 <__aeabi_uldivmod+0x16>
    7020:	2100      	movs	r1, #0
    7022:	43c9      	mvns	r1, r1
    7024:	1c08      	adds	r0, r1, #0
    7026:	b407      	push	{r0, r1, r2}
    7028:	4802      	ldr	r0, [pc, #8]	; (7034 <__aeabi_uldivmod+0x24>)
    702a:	a102      	add	r1, pc, #8	; (adr r1, 7034 <__aeabi_uldivmod+0x24>)
    702c:	1840      	adds	r0, r0, r1
    702e:	9002      	str	r0, [sp, #8]
    7030:	bd03      	pop	{r0, r1, pc}
    7032:	46c0      	nop			; (mov r8, r8)
    7034:	ffffff5d 	.word	0xffffff5d
    7038:	b403      	push	{r0, r1}
    703a:	4668      	mov	r0, sp
    703c:	b501      	push	{r0, lr}
    703e:	9802      	ldr	r0, [sp, #8]
    7040:	f000 f842 	bl	70c8 <__udivmoddi4>
    7044:	9b01      	ldr	r3, [sp, #4]
    7046:	469e      	mov	lr, r3
    7048:	b002      	add	sp, #8
    704a:	bc0c      	pop	{r2, r3}
    704c:	4770      	bx	lr
    704e:	46c0      	nop			; (mov r8, r8)

00007050 <__aeabi_d2uiz>:
__fixunsdfsi():
    7050:	b570      	push	{r4, r5, r6, lr}
    7052:	2200      	movs	r2, #0
    7054:	4b0c      	ldr	r3, [pc, #48]	; (7088 <__aeabi_d2uiz+0x38>)
    7056:	0004      	movs	r4, r0
    7058:	000d      	movs	r5, r1
    705a:	f7ff ffcf 	bl	6ffc <__aeabi_dcmpge>
    705e:	2800      	cmp	r0, #0
    7060:	d104      	bne.n	706c <__aeabi_d2uiz+0x1c>
    7062:	0020      	movs	r0, r4
    7064:	0029      	movs	r1, r5
    7066:	f001 f817 	bl	8098 <__aeabi_d2iz>
    706a:	bd70      	pop	{r4, r5, r6, pc}
    706c:	4b06      	ldr	r3, [pc, #24]	; (7088 <__aeabi_d2uiz+0x38>)
    706e:	2200      	movs	r2, #0
    7070:	0020      	movs	r0, r4
    7072:	0029      	movs	r1, r5
    7074:	f000 fc7e 	bl	7974 <__aeabi_dsub>
    7078:	f001 f80e 	bl	8098 <__aeabi_d2iz>
    707c:	2380      	movs	r3, #128	; 0x80
    707e:	061b      	lsls	r3, r3, #24
    7080:	469c      	mov	ip, r3
    7082:	4460      	add	r0, ip
    7084:	e7f1      	b.n	706a <__aeabi_d2uiz+0x1a>
    7086:	46c0      	nop			; (mov r8, r8)
    7088:	41e00000 	.word	0x41e00000

0000708c <__aeabi_d2ulz>:
__aeabi_d2ulz():
    708c:	b570      	push	{r4, r5, r6, lr}
    708e:	2200      	movs	r2, #0
    7090:	4b0b      	ldr	r3, [pc, #44]	; (70c0 <__aeabi_d2ulz+0x34>)
    7092:	000d      	movs	r5, r1
    7094:	0004      	movs	r4, r0
    7096:	f000 fa01 	bl	749c <__aeabi_dmul>
    709a:	f7ff ffd9 	bl	7050 <__aeabi_d2uiz>
    709e:	0006      	movs	r6, r0
    70a0:	f001 f830 	bl	8104 <__aeabi_ui2d>
    70a4:	2200      	movs	r2, #0
    70a6:	4b07      	ldr	r3, [pc, #28]	; (70c4 <__aeabi_d2ulz+0x38>)
    70a8:	f000 f9f8 	bl	749c <__aeabi_dmul>
    70ac:	0002      	movs	r2, r0
    70ae:	000b      	movs	r3, r1
    70b0:	0020      	movs	r0, r4
    70b2:	0029      	movs	r1, r5
    70b4:	f000 fc5e 	bl	7974 <__aeabi_dsub>
    70b8:	f7ff ffca 	bl	7050 <__aeabi_d2uiz>
    70bc:	0031      	movs	r1, r6
    70be:	bd70      	pop	{r4, r5, r6, pc}
    70c0:	3df00000 	.word	0x3df00000
    70c4:	41f00000 	.word	0x41f00000

000070c8 <__udivmoddi4>:
__udivmoddi4():
    70c8:	b5f0      	push	{r4, r5, r6, r7, lr}
    70ca:	4657      	mov	r7, sl
    70cc:	464e      	mov	r6, r9
    70ce:	4645      	mov	r5, r8
    70d0:	46de      	mov	lr, fp
    70d2:	b5e0      	push	{r5, r6, r7, lr}
    70d4:	0004      	movs	r4, r0
    70d6:	000d      	movs	r5, r1
    70d8:	4692      	mov	sl, r2
    70da:	4699      	mov	r9, r3
    70dc:	b083      	sub	sp, #12
    70de:	428b      	cmp	r3, r1
    70e0:	d830      	bhi.n	7144 <__udivmoddi4+0x7c>
    70e2:	d02d      	beq.n	7140 <__udivmoddi4+0x78>
    70e4:	4649      	mov	r1, r9
    70e6:	4650      	mov	r0, sl
    70e8:	f001 f850 	bl	818c <__clzdi2>
    70ec:	0029      	movs	r1, r5
    70ee:	0006      	movs	r6, r0
    70f0:	0020      	movs	r0, r4
    70f2:	f001 f84b 	bl	818c <__clzdi2>
    70f6:	1a33      	subs	r3, r6, r0
    70f8:	4698      	mov	r8, r3
    70fa:	3b20      	subs	r3, #32
    70fc:	469b      	mov	fp, r3
    70fe:	d433      	bmi.n	7168 <__udivmoddi4+0xa0>
    7100:	465a      	mov	r2, fp
    7102:	4653      	mov	r3, sl
    7104:	4093      	lsls	r3, r2
    7106:	4642      	mov	r2, r8
    7108:	001f      	movs	r7, r3
    710a:	4653      	mov	r3, sl
    710c:	4093      	lsls	r3, r2
    710e:	001e      	movs	r6, r3
    7110:	42af      	cmp	r7, r5
    7112:	d83a      	bhi.n	718a <__udivmoddi4+0xc2>
    7114:	42af      	cmp	r7, r5
    7116:	d100      	bne.n	711a <__udivmoddi4+0x52>
    7118:	e078      	b.n	720c <__udivmoddi4+0x144>
    711a:	465b      	mov	r3, fp
    711c:	1ba4      	subs	r4, r4, r6
    711e:	41bd      	sbcs	r5, r7
    7120:	2b00      	cmp	r3, #0
    7122:	da00      	bge.n	7126 <__udivmoddi4+0x5e>
    7124:	e075      	b.n	7212 <__udivmoddi4+0x14a>
    7126:	2200      	movs	r2, #0
    7128:	2300      	movs	r3, #0
    712a:	9200      	str	r2, [sp, #0]
    712c:	9301      	str	r3, [sp, #4]
    712e:	2301      	movs	r3, #1
    7130:	465a      	mov	r2, fp
    7132:	4093      	lsls	r3, r2
    7134:	9301      	str	r3, [sp, #4]
    7136:	2301      	movs	r3, #1
    7138:	4642      	mov	r2, r8
    713a:	4093      	lsls	r3, r2
    713c:	9300      	str	r3, [sp, #0]
    713e:	e028      	b.n	7192 <__udivmoddi4+0xca>
    7140:	4282      	cmp	r2, r0
    7142:	d9cf      	bls.n	70e4 <__udivmoddi4+0x1c>
    7144:	2200      	movs	r2, #0
    7146:	2300      	movs	r3, #0
    7148:	9200      	str	r2, [sp, #0]
    714a:	9301      	str	r3, [sp, #4]
    714c:	9b0c      	ldr	r3, [sp, #48]	; 0x30
    714e:	2b00      	cmp	r3, #0
    7150:	d001      	beq.n	7156 <__udivmoddi4+0x8e>
    7152:	601c      	str	r4, [r3, #0]
    7154:	605d      	str	r5, [r3, #4]
    7156:	9800      	ldr	r0, [sp, #0]
    7158:	9901      	ldr	r1, [sp, #4]
    715a:	b003      	add	sp, #12
    715c:	bcf0      	pop	{r4, r5, r6, r7}
    715e:	46bb      	mov	fp, r7
    7160:	46b2      	mov	sl, r6
    7162:	46a9      	mov	r9, r5
    7164:	46a0      	mov	r8, r4
    7166:	bdf0      	pop	{r4, r5, r6, r7, pc}
    7168:	4642      	mov	r2, r8
    716a:	2320      	movs	r3, #32
    716c:	1a9b      	subs	r3, r3, r2
    716e:	4652      	mov	r2, sl
    7170:	40da      	lsrs	r2, r3
    7172:	4641      	mov	r1, r8
    7174:	0013      	movs	r3, r2
    7176:	464a      	mov	r2, r9
    7178:	408a      	lsls	r2, r1
    717a:	0017      	movs	r7, r2
    717c:	4642      	mov	r2, r8
    717e:	431f      	orrs	r7, r3
    7180:	4653      	mov	r3, sl
    7182:	4093      	lsls	r3, r2
    7184:	001e      	movs	r6, r3
    7186:	42af      	cmp	r7, r5
    7188:	d9c4      	bls.n	7114 <__udivmoddi4+0x4c>
    718a:	2200      	movs	r2, #0
    718c:	2300      	movs	r3, #0
    718e:	9200      	str	r2, [sp, #0]
    7190:	9301      	str	r3, [sp, #4]
    7192:	4643      	mov	r3, r8
    7194:	2b00      	cmp	r3, #0
    7196:	d0d9      	beq.n	714c <__udivmoddi4+0x84>
    7198:	07fb      	lsls	r3, r7, #31
    719a:	0872      	lsrs	r2, r6, #1
    719c:	431a      	orrs	r2, r3
    719e:	4646      	mov	r6, r8
    71a0:	087b      	lsrs	r3, r7, #1
    71a2:	e00e      	b.n	71c2 <__udivmoddi4+0xfa>
    71a4:	42ab      	cmp	r3, r5
    71a6:	d101      	bne.n	71ac <__udivmoddi4+0xe4>
    71a8:	42a2      	cmp	r2, r4
    71aa:	d80c      	bhi.n	71c6 <__udivmoddi4+0xfe>
    71ac:	1aa4      	subs	r4, r4, r2
    71ae:	419d      	sbcs	r5, r3
    71b0:	2001      	movs	r0, #1
    71b2:	1924      	adds	r4, r4, r4
    71b4:	416d      	adcs	r5, r5
    71b6:	2100      	movs	r1, #0
    71b8:	3e01      	subs	r6, #1
    71ba:	1824      	adds	r4, r4, r0
    71bc:	414d      	adcs	r5, r1
    71be:	2e00      	cmp	r6, #0
    71c0:	d006      	beq.n	71d0 <__udivmoddi4+0x108>
    71c2:	42ab      	cmp	r3, r5
    71c4:	d9ee      	bls.n	71a4 <__udivmoddi4+0xdc>
    71c6:	3e01      	subs	r6, #1
    71c8:	1924      	adds	r4, r4, r4
    71ca:	416d      	adcs	r5, r5
    71cc:	2e00      	cmp	r6, #0
    71ce:	d1f8      	bne.n	71c2 <__udivmoddi4+0xfa>
    71d0:	9800      	ldr	r0, [sp, #0]
    71d2:	9901      	ldr	r1, [sp, #4]
    71d4:	465b      	mov	r3, fp
    71d6:	1900      	adds	r0, r0, r4
    71d8:	4169      	adcs	r1, r5
    71da:	2b00      	cmp	r3, #0
    71dc:	db24      	blt.n	7228 <__udivmoddi4+0x160>
    71de:	002b      	movs	r3, r5
    71e0:	465a      	mov	r2, fp
    71e2:	4644      	mov	r4, r8
    71e4:	40d3      	lsrs	r3, r2
    71e6:	002a      	movs	r2, r5
    71e8:	40e2      	lsrs	r2, r4
    71ea:	001c      	movs	r4, r3
    71ec:	465b      	mov	r3, fp
    71ee:	0015      	movs	r5, r2
    71f0:	2b00      	cmp	r3, #0
    71f2:	db2a      	blt.n	724a <__udivmoddi4+0x182>
    71f4:	0026      	movs	r6, r4
    71f6:	409e      	lsls	r6, r3
    71f8:	0033      	movs	r3, r6
    71fa:	0026      	movs	r6, r4
    71fc:	4647      	mov	r7, r8
    71fe:	40be      	lsls	r6, r7
    7200:	0032      	movs	r2, r6
    7202:	1a80      	subs	r0, r0, r2
    7204:	4199      	sbcs	r1, r3
    7206:	9000      	str	r0, [sp, #0]
    7208:	9101      	str	r1, [sp, #4]
    720a:	e79f      	b.n	714c <__udivmoddi4+0x84>
    720c:	42a3      	cmp	r3, r4
    720e:	d8bc      	bhi.n	718a <__udivmoddi4+0xc2>
    7210:	e783      	b.n	711a <__udivmoddi4+0x52>
    7212:	4642      	mov	r2, r8
    7214:	2320      	movs	r3, #32
    7216:	2100      	movs	r1, #0
    7218:	1a9b      	subs	r3, r3, r2
    721a:	2200      	movs	r2, #0
    721c:	9100      	str	r1, [sp, #0]
    721e:	9201      	str	r2, [sp, #4]
    7220:	2201      	movs	r2, #1
    7222:	40da      	lsrs	r2, r3
    7224:	9201      	str	r2, [sp, #4]
    7226:	e786      	b.n	7136 <__udivmoddi4+0x6e>
    7228:	4642      	mov	r2, r8
    722a:	2320      	movs	r3, #32
    722c:	1a9b      	subs	r3, r3, r2
    722e:	002a      	movs	r2, r5
    7230:	4646      	mov	r6, r8
    7232:	409a      	lsls	r2, r3
    7234:	0023      	movs	r3, r4
    7236:	40f3      	lsrs	r3, r6
    7238:	4644      	mov	r4, r8
    723a:	4313      	orrs	r3, r2
    723c:	002a      	movs	r2, r5
    723e:	40e2      	lsrs	r2, r4
    7240:	001c      	movs	r4, r3
    7242:	465b      	mov	r3, fp
    7244:	0015      	movs	r5, r2
    7246:	2b00      	cmp	r3, #0
    7248:	dad4      	bge.n	71f4 <__udivmoddi4+0x12c>
    724a:	4642      	mov	r2, r8
    724c:	002f      	movs	r7, r5
    724e:	2320      	movs	r3, #32
    7250:	0026      	movs	r6, r4
    7252:	4097      	lsls	r7, r2
    7254:	1a9b      	subs	r3, r3, r2
    7256:	40de      	lsrs	r6, r3
    7258:	003b      	movs	r3, r7
    725a:	4333      	orrs	r3, r6
    725c:	e7cd      	b.n	71fa <__udivmoddi4+0x132>
    725e:	46c0      	nop			; (mov r8, r8)

00007260 <__eqdf2>:
__eqdf2():
    7260:	b5f0      	push	{r4, r5, r6, r7, lr}
    7262:	464f      	mov	r7, r9
    7264:	4646      	mov	r6, r8
    7266:	46d6      	mov	lr, sl
    7268:	4694      	mov	ip, r2
    726a:	4691      	mov	r9, r2
    726c:	031a      	lsls	r2, r3, #12
    726e:	0b12      	lsrs	r2, r2, #12
    7270:	4d18      	ldr	r5, [pc, #96]	; (72d4 <__eqdf2+0x74>)
    7272:	b5c0      	push	{r6, r7, lr}
    7274:	004c      	lsls	r4, r1, #1
    7276:	030f      	lsls	r7, r1, #12
    7278:	4692      	mov	sl, r2
    727a:	005a      	lsls	r2, r3, #1
    727c:	0006      	movs	r6, r0
    727e:	4680      	mov	r8, r0
    7280:	0b3f      	lsrs	r7, r7, #12
    7282:	2001      	movs	r0, #1
    7284:	0d64      	lsrs	r4, r4, #21
    7286:	0fc9      	lsrs	r1, r1, #31
    7288:	0d52      	lsrs	r2, r2, #21
    728a:	0fdb      	lsrs	r3, r3, #31
    728c:	42ac      	cmp	r4, r5
    728e:	d00a      	beq.n	72a6 <__eqdf2+0x46>
    7290:	42aa      	cmp	r2, r5
    7292:	d003      	beq.n	729c <__eqdf2+0x3c>
    7294:	4294      	cmp	r4, r2
    7296:	d101      	bne.n	729c <__eqdf2+0x3c>
    7298:	4557      	cmp	r7, sl
    729a:	d00d      	beq.n	72b8 <__eqdf2+0x58>
    729c:	bce0      	pop	{r5, r6, r7}
    729e:	46ba      	mov	sl, r7
    72a0:	46b1      	mov	r9, r6
    72a2:	46a8      	mov	r8, r5
    72a4:	bdf0      	pop	{r4, r5, r6, r7, pc}
    72a6:	003d      	movs	r5, r7
    72a8:	4335      	orrs	r5, r6
    72aa:	d1f7      	bne.n	729c <__eqdf2+0x3c>
    72ac:	42a2      	cmp	r2, r4
    72ae:	d1f5      	bne.n	729c <__eqdf2+0x3c>
    72b0:	4652      	mov	r2, sl
    72b2:	4665      	mov	r5, ip
    72b4:	432a      	orrs	r2, r5
    72b6:	d1f1      	bne.n	729c <__eqdf2+0x3c>
    72b8:	2001      	movs	r0, #1
    72ba:	45c8      	cmp	r8, r9
    72bc:	d1ee      	bne.n	729c <__eqdf2+0x3c>
    72be:	4299      	cmp	r1, r3
    72c0:	d006      	beq.n	72d0 <__eqdf2+0x70>
    72c2:	2c00      	cmp	r4, #0
    72c4:	d1ea      	bne.n	729c <__eqdf2+0x3c>
    72c6:	433e      	orrs	r6, r7
    72c8:	0030      	movs	r0, r6
    72ca:	1e46      	subs	r6, r0, #1
    72cc:	41b0      	sbcs	r0, r6
    72ce:	e7e5      	b.n	729c <__eqdf2+0x3c>
    72d0:	2000      	movs	r0, #0
    72d2:	e7e3      	b.n	729c <__eqdf2+0x3c>
    72d4:	000007ff 	.word	0x000007ff

000072d8 <__gedf2>:
__gtdf2():
    72d8:	b5f0      	push	{r4, r5, r6, r7, lr}
    72da:	464e      	mov	r6, r9
    72dc:	4645      	mov	r5, r8
    72de:	4657      	mov	r7, sl
    72e0:	46de      	mov	lr, fp
    72e2:	0004      	movs	r4, r0
    72e4:	0018      	movs	r0, r3
    72e6:	b5e0      	push	{r5, r6, r7, lr}
    72e8:	0016      	movs	r6, r2
    72ea:	031b      	lsls	r3, r3, #12
    72ec:	0b1b      	lsrs	r3, r3, #12
    72ee:	4d32      	ldr	r5, [pc, #200]	; (73b8 <__gedf2+0xe0>)
    72f0:	030f      	lsls	r7, r1, #12
    72f2:	004a      	lsls	r2, r1, #1
    72f4:	4699      	mov	r9, r3
    72f6:	0043      	lsls	r3, r0, #1
    72f8:	46a4      	mov	ip, r4
    72fa:	46b0      	mov	r8, r6
    72fc:	0b3f      	lsrs	r7, r7, #12
    72fe:	0d52      	lsrs	r2, r2, #21
    7300:	0fc9      	lsrs	r1, r1, #31
    7302:	0d5b      	lsrs	r3, r3, #21
    7304:	0fc0      	lsrs	r0, r0, #31
    7306:	42aa      	cmp	r2, r5
    7308:	d029      	beq.n	735e <__gedf2+0x86>
    730a:	42ab      	cmp	r3, r5
    730c:	d018      	beq.n	7340 <__gedf2+0x68>
    730e:	2a00      	cmp	r2, #0
    7310:	d12a      	bne.n	7368 <__gedf2+0x90>
    7312:	433c      	orrs	r4, r7
    7314:	46a3      	mov	fp, r4
    7316:	4265      	negs	r5, r4
    7318:	4165      	adcs	r5, r4
    731a:	2b00      	cmp	r3, #0
    731c:	d102      	bne.n	7324 <__gedf2+0x4c>
    731e:	464c      	mov	r4, r9
    7320:	4326      	orrs	r6, r4
    7322:	d027      	beq.n	7374 <__gedf2+0x9c>
    7324:	2d00      	cmp	r5, #0
    7326:	d115      	bne.n	7354 <__gedf2+0x7c>
    7328:	4281      	cmp	r1, r0
    732a:	d028      	beq.n	737e <__gedf2+0xa6>
    732c:	2002      	movs	r0, #2
    732e:	3901      	subs	r1, #1
    7330:	4008      	ands	r0, r1
    7332:	3801      	subs	r0, #1
    7334:	bcf0      	pop	{r4, r5, r6, r7}
    7336:	46bb      	mov	fp, r7
    7338:	46b2      	mov	sl, r6
    733a:	46a9      	mov	r9, r5
    733c:	46a0      	mov	r8, r4
    733e:	bdf0      	pop	{r4, r5, r6, r7, pc}
    7340:	464d      	mov	r5, r9
    7342:	432e      	orrs	r6, r5
    7344:	d12f      	bne.n	73a6 <__gedf2+0xce>
    7346:	2a00      	cmp	r2, #0
    7348:	d1ee      	bne.n	7328 <__gedf2+0x50>
    734a:	433c      	orrs	r4, r7
    734c:	4265      	negs	r5, r4
    734e:	4165      	adcs	r5, r4
    7350:	2d00      	cmp	r5, #0
    7352:	d0e9      	beq.n	7328 <__gedf2+0x50>
    7354:	2800      	cmp	r0, #0
    7356:	d1ed      	bne.n	7334 <__gedf2+0x5c>
    7358:	2001      	movs	r0, #1
    735a:	4240      	negs	r0, r0
    735c:	e7ea      	b.n	7334 <__gedf2+0x5c>
    735e:	003d      	movs	r5, r7
    7360:	4325      	orrs	r5, r4
    7362:	d120      	bne.n	73a6 <__gedf2+0xce>
    7364:	4293      	cmp	r3, r2
    7366:	d0eb      	beq.n	7340 <__gedf2+0x68>
    7368:	2b00      	cmp	r3, #0
    736a:	d1dd      	bne.n	7328 <__gedf2+0x50>
    736c:	464c      	mov	r4, r9
    736e:	4326      	orrs	r6, r4
    7370:	d1da      	bne.n	7328 <__gedf2+0x50>
    7372:	e7db      	b.n	732c <__gedf2+0x54>
    7374:	465b      	mov	r3, fp
    7376:	2000      	movs	r0, #0
    7378:	2b00      	cmp	r3, #0
    737a:	d0db      	beq.n	7334 <__gedf2+0x5c>
    737c:	e7d6      	b.n	732c <__gedf2+0x54>
    737e:	429a      	cmp	r2, r3
    7380:	dc0a      	bgt.n	7398 <__gedf2+0xc0>
    7382:	dbe7      	blt.n	7354 <__gedf2+0x7c>
    7384:	454f      	cmp	r7, r9
    7386:	d8d1      	bhi.n	732c <__gedf2+0x54>
    7388:	d010      	beq.n	73ac <__gedf2+0xd4>
    738a:	2000      	movs	r0, #0
    738c:	454f      	cmp	r7, r9
    738e:	d2d1      	bcs.n	7334 <__gedf2+0x5c>
    7390:	2900      	cmp	r1, #0
    7392:	d0e1      	beq.n	7358 <__gedf2+0x80>
    7394:	0008      	movs	r0, r1
    7396:	e7cd      	b.n	7334 <__gedf2+0x5c>
    7398:	4243      	negs	r3, r0
    739a:	4158      	adcs	r0, r3
    739c:	2302      	movs	r3, #2
    739e:	4240      	negs	r0, r0
    73a0:	4018      	ands	r0, r3
    73a2:	3801      	subs	r0, #1
    73a4:	e7c6      	b.n	7334 <__gedf2+0x5c>
    73a6:	2002      	movs	r0, #2
    73a8:	4240      	negs	r0, r0
    73aa:	e7c3      	b.n	7334 <__gedf2+0x5c>
    73ac:	45c4      	cmp	ip, r8
    73ae:	d8bd      	bhi.n	732c <__gedf2+0x54>
    73b0:	2000      	movs	r0, #0
    73b2:	45c4      	cmp	ip, r8
    73b4:	d2be      	bcs.n	7334 <__gedf2+0x5c>
    73b6:	e7eb      	b.n	7390 <__gedf2+0xb8>
    73b8:	000007ff 	.word	0x000007ff

000073bc <__ledf2>:
__ltdf2():
    73bc:	b5f0      	push	{r4, r5, r6, r7, lr}
    73be:	464e      	mov	r6, r9
    73c0:	4645      	mov	r5, r8
    73c2:	4657      	mov	r7, sl
    73c4:	46de      	mov	lr, fp
    73c6:	0004      	movs	r4, r0
    73c8:	0018      	movs	r0, r3
    73ca:	b5e0      	push	{r5, r6, r7, lr}
    73cc:	0016      	movs	r6, r2
    73ce:	031b      	lsls	r3, r3, #12
    73d0:	0b1b      	lsrs	r3, r3, #12
    73d2:	4d31      	ldr	r5, [pc, #196]	; (7498 <__ledf2+0xdc>)
    73d4:	030f      	lsls	r7, r1, #12
    73d6:	004a      	lsls	r2, r1, #1
    73d8:	4699      	mov	r9, r3
    73da:	0043      	lsls	r3, r0, #1
    73dc:	46a4      	mov	ip, r4
    73de:	46b0      	mov	r8, r6
    73e0:	0b3f      	lsrs	r7, r7, #12
    73e2:	0d52      	lsrs	r2, r2, #21
    73e4:	0fc9      	lsrs	r1, r1, #31
    73e6:	0d5b      	lsrs	r3, r3, #21
    73e8:	0fc0      	lsrs	r0, r0, #31
    73ea:	42aa      	cmp	r2, r5
    73ec:	d011      	beq.n	7412 <__ledf2+0x56>
    73ee:	42ab      	cmp	r3, r5
    73f0:	d014      	beq.n	741c <__ledf2+0x60>
    73f2:	2a00      	cmp	r2, #0
    73f4:	d12f      	bne.n	7456 <__ledf2+0x9a>
    73f6:	433c      	orrs	r4, r7
    73f8:	46a3      	mov	fp, r4
    73fa:	4265      	negs	r5, r4
    73fc:	4165      	adcs	r5, r4
    73fe:	2b00      	cmp	r3, #0
    7400:	d114      	bne.n	742c <__ledf2+0x70>
    7402:	464c      	mov	r4, r9
    7404:	4326      	orrs	r6, r4
    7406:	d111      	bne.n	742c <__ledf2+0x70>
    7408:	465b      	mov	r3, fp
    740a:	2000      	movs	r0, #0
    740c:	2b00      	cmp	r3, #0
    740e:	d017      	beq.n	7440 <__ledf2+0x84>
    7410:	e010      	b.n	7434 <__ledf2+0x78>
    7412:	003d      	movs	r5, r7
    7414:	4325      	orrs	r5, r4
    7416:	d112      	bne.n	743e <__ledf2+0x82>
    7418:	4293      	cmp	r3, r2
    741a:	d11c      	bne.n	7456 <__ledf2+0x9a>
    741c:	464d      	mov	r5, r9
    741e:	432e      	orrs	r6, r5
    7420:	d10d      	bne.n	743e <__ledf2+0x82>
    7422:	2a00      	cmp	r2, #0
    7424:	d104      	bne.n	7430 <__ledf2+0x74>
    7426:	433c      	orrs	r4, r7
    7428:	4265      	negs	r5, r4
    742a:	4165      	adcs	r5, r4
    742c:	2d00      	cmp	r5, #0
    742e:	d10d      	bne.n	744c <__ledf2+0x90>
    7430:	4281      	cmp	r1, r0
    7432:	d016      	beq.n	7462 <__ledf2+0xa6>
    7434:	2002      	movs	r0, #2
    7436:	3901      	subs	r1, #1
    7438:	4008      	ands	r0, r1
    743a:	3801      	subs	r0, #1
    743c:	e000      	b.n	7440 <__ledf2+0x84>
    743e:	2002      	movs	r0, #2
    7440:	bcf0      	pop	{r4, r5, r6, r7}
    7442:	46bb      	mov	fp, r7
    7444:	46b2      	mov	sl, r6
    7446:	46a9      	mov	r9, r5
    7448:	46a0      	mov	r8, r4
    744a:	bdf0      	pop	{r4, r5, r6, r7, pc}
    744c:	2800      	cmp	r0, #0
    744e:	d1f7      	bne.n	7440 <__ledf2+0x84>
    7450:	2001      	movs	r0, #1
    7452:	4240      	negs	r0, r0
    7454:	e7f4      	b.n	7440 <__ledf2+0x84>
    7456:	2b00      	cmp	r3, #0
    7458:	d1ea      	bne.n	7430 <__ledf2+0x74>
    745a:	464c      	mov	r4, r9
    745c:	4326      	orrs	r6, r4
    745e:	d1e7      	bne.n	7430 <__ledf2+0x74>
    7460:	e7e8      	b.n	7434 <__ledf2+0x78>
    7462:	429a      	cmp	r2, r3
    7464:	dd06      	ble.n	7474 <__ledf2+0xb8>
    7466:	4243      	negs	r3, r0
    7468:	4158      	adcs	r0, r3
    746a:	2302      	movs	r3, #2
    746c:	4240      	negs	r0, r0
    746e:	4018      	ands	r0, r3
    7470:	3801      	subs	r0, #1
    7472:	e7e5      	b.n	7440 <__ledf2+0x84>
    7474:	429a      	cmp	r2, r3
    7476:	dbe9      	blt.n	744c <__ledf2+0x90>
    7478:	454f      	cmp	r7, r9
    747a:	d8db      	bhi.n	7434 <__ledf2+0x78>
    747c:	d006      	beq.n	748c <__ledf2+0xd0>
    747e:	2000      	movs	r0, #0
    7480:	454f      	cmp	r7, r9
    7482:	d2dd      	bcs.n	7440 <__ledf2+0x84>
    7484:	2900      	cmp	r1, #0
    7486:	d0e3      	beq.n	7450 <__ledf2+0x94>
    7488:	0008      	movs	r0, r1
    748a:	e7d9      	b.n	7440 <__ledf2+0x84>
    748c:	45c4      	cmp	ip, r8
    748e:	d8d1      	bhi.n	7434 <__ledf2+0x78>
    7490:	2000      	movs	r0, #0
    7492:	45c4      	cmp	ip, r8
    7494:	d2d4      	bcs.n	7440 <__ledf2+0x84>
    7496:	e7f5      	b.n	7484 <__ledf2+0xc8>
    7498:	000007ff 	.word	0x000007ff

0000749c <__aeabi_dmul>:
__aeabi_dmul():
    749c:	b5f0      	push	{r4, r5, r6, r7, lr}
    749e:	4657      	mov	r7, sl
    74a0:	464e      	mov	r6, r9
    74a2:	4645      	mov	r5, r8
    74a4:	46de      	mov	lr, fp
    74a6:	b5e0      	push	{r5, r6, r7, lr}
    74a8:	4698      	mov	r8, r3
    74aa:	030c      	lsls	r4, r1, #12
    74ac:	004b      	lsls	r3, r1, #1
    74ae:	0006      	movs	r6, r0
    74b0:	4692      	mov	sl, r2
    74b2:	b087      	sub	sp, #28
    74b4:	0b24      	lsrs	r4, r4, #12
    74b6:	0d5b      	lsrs	r3, r3, #21
    74b8:	0fcf      	lsrs	r7, r1, #31
    74ba:	2b00      	cmp	r3, #0
    74bc:	d06c      	beq.n	7598 <__aeabi_dmul+0xfc>
    74be:	4add      	ldr	r2, [pc, #884]	; (7834 <__aeabi_dmul+0x398>)
    74c0:	4293      	cmp	r3, r2
    74c2:	d100      	bne.n	74c6 <__aeabi_dmul+0x2a>
    74c4:	e086      	b.n	75d4 <__aeabi_dmul+0x138>
    74c6:	0f42      	lsrs	r2, r0, #29
    74c8:	00e4      	lsls	r4, r4, #3
    74ca:	4314      	orrs	r4, r2
    74cc:	2280      	movs	r2, #128	; 0x80
    74ce:	0412      	lsls	r2, r2, #16
    74d0:	4314      	orrs	r4, r2
    74d2:	4ad9      	ldr	r2, [pc, #868]	; (7838 <__aeabi_dmul+0x39c>)
    74d4:	00c5      	lsls	r5, r0, #3
    74d6:	4694      	mov	ip, r2
    74d8:	4463      	add	r3, ip
    74da:	9300      	str	r3, [sp, #0]
    74dc:	2300      	movs	r3, #0
    74de:	4699      	mov	r9, r3
    74e0:	469b      	mov	fp, r3
    74e2:	4643      	mov	r3, r8
    74e4:	4642      	mov	r2, r8
    74e6:	031e      	lsls	r6, r3, #12
    74e8:	0fd2      	lsrs	r2, r2, #31
    74ea:	005b      	lsls	r3, r3, #1
    74ec:	4650      	mov	r0, sl
    74ee:	4690      	mov	r8, r2
    74f0:	0b36      	lsrs	r6, r6, #12
    74f2:	0d5b      	lsrs	r3, r3, #21
    74f4:	d100      	bne.n	74f8 <__aeabi_dmul+0x5c>
    74f6:	e078      	b.n	75ea <__aeabi_dmul+0x14e>
    74f8:	4ace      	ldr	r2, [pc, #824]	; (7834 <__aeabi_dmul+0x398>)
    74fa:	4293      	cmp	r3, r2
    74fc:	d01d      	beq.n	753a <__aeabi_dmul+0x9e>
    74fe:	49ce      	ldr	r1, [pc, #824]	; (7838 <__aeabi_dmul+0x39c>)
    7500:	0f42      	lsrs	r2, r0, #29
    7502:	468c      	mov	ip, r1
    7504:	9900      	ldr	r1, [sp, #0]
    7506:	4463      	add	r3, ip
    7508:	00f6      	lsls	r6, r6, #3
    750a:	468c      	mov	ip, r1
    750c:	4316      	orrs	r6, r2
    750e:	2280      	movs	r2, #128	; 0x80
    7510:	449c      	add	ip, r3
    7512:	0412      	lsls	r2, r2, #16
    7514:	4663      	mov	r3, ip
    7516:	4316      	orrs	r6, r2
    7518:	00c2      	lsls	r2, r0, #3
    751a:	2000      	movs	r0, #0
    751c:	9300      	str	r3, [sp, #0]
    751e:	9900      	ldr	r1, [sp, #0]
    7520:	4643      	mov	r3, r8
    7522:	3101      	adds	r1, #1
    7524:	468c      	mov	ip, r1
    7526:	4649      	mov	r1, r9
    7528:	407b      	eors	r3, r7
    752a:	9301      	str	r3, [sp, #4]
    752c:	290f      	cmp	r1, #15
    752e:	d900      	bls.n	7532 <__aeabi_dmul+0x96>
    7530:	e07e      	b.n	7630 <__aeabi_dmul+0x194>
    7532:	4bc2      	ldr	r3, [pc, #776]	; (783c <__aeabi_dmul+0x3a0>)
    7534:	0089      	lsls	r1, r1, #2
    7536:	5859      	ldr	r1, [r3, r1]
    7538:	468f      	mov	pc, r1
    753a:	4652      	mov	r2, sl
    753c:	9b00      	ldr	r3, [sp, #0]
    753e:	4332      	orrs	r2, r6
    7540:	d000      	beq.n	7544 <__aeabi_dmul+0xa8>
    7542:	e156      	b.n	77f2 <__aeabi_dmul+0x356>
    7544:	49bb      	ldr	r1, [pc, #748]	; (7834 <__aeabi_dmul+0x398>)
    7546:	2600      	movs	r6, #0
    7548:	468c      	mov	ip, r1
    754a:	4463      	add	r3, ip
    754c:	4649      	mov	r1, r9
    754e:	9300      	str	r3, [sp, #0]
    7550:	2302      	movs	r3, #2
    7552:	4319      	orrs	r1, r3
    7554:	4689      	mov	r9, r1
    7556:	2002      	movs	r0, #2
    7558:	e7e1      	b.n	751e <__aeabi_dmul+0x82>
    755a:	4643      	mov	r3, r8
    755c:	9301      	str	r3, [sp, #4]
    755e:	0034      	movs	r4, r6
    7560:	0015      	movs	r5, r2
    7562:	4683      	mov	fp, r0
    7564:	465b      	mov	r3, fp
    7566:	2b02      	cmp	r3, #2
    7568:	d05e      	beq.n	7628 <__aeabi_dmul+0x18c>
    756a:	2b03      	cmp	r3, #3
    756c:	d100      	bne.n	7570 <__aeabi_dmul+0xd4>
    756e:	e1f3      	b.n	7958 <__aeabi_dmul+0x4bc>
    7570:	2b01      	cmp	r3, #1
    7572:	d000      	beq.n	7576 <__aeabi_dmul+0xda>
    7574:	e118      	b.n	77a8 <__aeabi_dmul+0x30c>
    7576:	2200      	movs	r2, #0
    7578:	2400      	movs	r4, #0
    757a:	2500      	movs	r5, #0
    757c:	9b01      	ldr	r3, [sp, #4]
    757e:	0512      	lsls	r2, r2, #20
    7580:	4322      	orrs	r2, r4
    7582:	07db      	lsls	r3, r3, #31
    7584:	431a      	orrs	r2, r3
    7586:	0028      	movs	r0, r5
    7588:	0011      	movs	r1, r2
    758a:	b007      	add	sp, #28
    758c:	bcf0      	pop	{r4, r5, r6, r7}
    758e:	46bb      	mov	fp, r7
    7590:	46b2      	mov	sl, r6
    7592:	46a9      	mov	r9, r5
    7594:	46a0      	mov	r8, r4
    7596:	bdf0      	pop	{r4, r5, r6, r7, pc}
    7598:	0025      	movs	r5, r4
    759a:	4305      	orrs	r5, r0
    759c:	d100      	bne.n	75a0 <__aeabi_dmul+0x104>
    759e:	e141      	b.n	7824 <__aeabi_dmul+0x388>
    75a0:	2c00      	cmp	r4, #0
    75a2:	d100      	bne.n	75a6 <__aeabi_dmul+0x10a>
    75a4:	e1ad      	b.n	7902 <__aeabi_dmul+0x466>
    75a6:	0020      	movs	r0, r4
    75a8:	f000 fdd2 	bl	8150 <__clzsi2>
    75ac:	0001      	movs	r1, r0
    75ae:	0002      	movs	r2, r0
    75b0:	390b      	subs	r1, #11
    75b2:	231d      	movs	r3, #29
    75b4:	0010      	movs	r0, r2
    75b6:	1a5b      	subs	r3, r3, r1
    75b8:	0031      	movs	r1, r6
    75ba:	0035      	movs	r5, r6
    75bc:	3808      	subs	r0, #8
    75be:	4084      	lsls	r4, r0
    75c0:	40d9      	lsrs	r1, r3
    75c2:	4085      	lsls	r5, r0
    75c4:	430c      	orrs	r4, r1
    75c6:	489e      	ldr	r0, [pc, #632]	; (7840 <__aeabi_dmul+0x3a4>)
    75c8:	1a83      	subs	r3, r0, r2
    75ca:	9300      	str	r3, [sp, #0]
    75cc:	2300      	movs	r3, #0
    75ce:	4699      	mov	r9, r3
    75d0:	469b      	mov	fp, r3
    75d2:	e786      	b.n	74e2 <__aeabi_dmul+0x46>
    75d4:	0005      	movs	r5, r0
    75d6:	4325      	orrs	r5, r4
    75d8:	d000      	beq.n	75dc <__aeabi_dmul+0x140>
    75da:	e11c      	b.n	7816 <__aeabi_dmul+0x37a>
    75dc:	2208      	movs	r2, #8
    75de:	9300      	str	r3, [sp, #0]
    75e0:	2302      	movs	r3, #2
    75e2:	2400      	movs	r4, #0
    75e4:	4691      	mov	r9, r2
    75e6:	469b      	mov	fp, r3
    75e8:	e77b      	b.n	74e2 <__aeabi_dmul+0x46>
    75ea:	4652      	mov	r2, sl
    75ec:	4332      	orrs	r2, r6
    75ee:	d100      	bne.n	75f2 <__aeabi_dmul+0x156>
    75f0:	e10a      	b.n	7808 <__aeabi_dmul+0x36c>
    75f2:	2e00      	cmp	r6, #0
    75f4:	d100      	bne.n	75f8 <__aeabi_dmul+0x15c>
    75f6:	e176      	b.n	78e6 <__aeabi_dmul+0x44a>
    75f8:	0030      	movs	r0, r6
    75fa:	f000 fda9 	bl	8150 <__clzsi2>
    75fe:	0002      	movs	r2, r0
    7600:	3a0b      	subs	r2, #11
    7602:	231d      	movs	r3, #29
    7604:	0001      	movs	r1, r0
    7606:	1a9b      	subs	r3, r3, r2
    7608:	4652      	mov	r2, sl
    760a:	3908      	subs	r1, #8
    760c:	40da      	lsrs	r2, r3
    760e:	408e      	lsls	r6, r1
    7610:	4316      	orrs	r6, r2
    7612:	4652      	mov	r2, sl
    7614:	408a      	lsls	r2, r1
    7616:	9b00      	ldr	r3, [sp, #0]
    7618:	4989      	ldr	r1, [pc, #548]	; (7840 <__aeabi_dmul+0x3a4>)
    761a:	1a18      	subs	r0, r3, r0
    761c:	0003      	movs	r3, r0
    761e:	468c      	mov	ip, r1
    7620:	4463      	add	r3, ip
    7622:	2000      	movs	r0, #0
    7624:	9300      	str	r3, [sp, #0]
    7626:	e77a      	b.n	751e <__aeabi_dmul+0x82>
    7628:	2400      	movs	r4, #0
    762a:	2500      	movs	r5, #0
    762c:	4a81      	ldr	r2, [pc, #516]	; (7834 <__aeabi_dmul+0x398>)
    762e:	e7a5      	b.n	757c <__aeabi_dmul+0xe0>
    7630:	0c2f      	lsrs	r7, r5, #16
    7632:	042d      	lsls	r5, r5, #16
    7634:	0c2d      	lsrs	r5, r5, #16
    7636:	002b      	movs	r3, r5
    7638:	0c11      	lsrs	r1, r2, #16
    763a:	0412      	lsls	r2, r2, #16
    763c:	0c12      	lsrs	r2, r2, #16
    763e:	4353      	muls	r3, r2
    7640:	4698      	mov	r8, r3
    7642:	0013      	movs	r3, r2
    7644:	0028      	movs	r0, r5
    7646:	437b      	muls	r3, r7
    7648:	4699      	mov	r9, r3
    764a:	4348      	muls	r0, r1
    764c:	4448      	add	r0, r9
    764e:	4683      	mov	fp, r0
    7650:	4640      	mov	r0, r8
    7652:	000b      	movs	r3, r1
    7654:	0c00      	lsrs	r0, r0, #16
    7656:	4682      	mov	sl, r0
    7658:	4658      	mov	r0, fp
    765a:	437b      	muls	r3, r7
    765c:	4450      	add	r0, sl
    765e:	9302      	str	r3, [sp, #8]
    7660:	4581      	cmp	r9, r0
    7662:	d906      	bls.n	7672 <__aeabi_dmul+0x1d6>
    7664:	469a      	mov	sl, r3
    7666:	2380      	movs	r3, #128	; 0x80
    7668:	025b      	lsls	r3, r3, #9
    766a:	4699      	mov	r9, r3
    766c:	44ca      	add	sl, r9
    766e:	4653      	mov	r3, sl
    7670:	9302      	str	r3, [sp, #8]
    7672:	0c03      	lsrs	r3, r0, #16
    7674:	469b      	mov	fp, r3
    7676:	4643      	mov	r3, r8
    7678:	041b      	lsls	r3, r3, #16
    767a:	0400      	lsls	r0, r0, #16
    767c:	0c1b      	lsrs	r3, r3, #16
    767e:	4698      	mov	r8, r3
    7680:	0003      	movs	r3, r0
    7682:	4443      	add	r3, r8
    7684:	9304      	str	r3, [sp, #16]
    7686:	0c33      	lsrs	r3, r6, #16
    7688:	4699      	mov	r9, r3
    768a:	002b      	movs	r3, r5
    768c:	0436      	lsls	r6, r6, #16
    768e:	0c36      	lsrs	r6, r6, #16
    7690:	4373      	muls	r3, r6
    7692:	4698      	mov	r8, r3
    7694:	0033      	movs	r3, r6
    7696:	437b      	muls	r3, r7
    7698:	469a      	mov	sl, r3
    769a:	464b      	mov	r3, r9
    769c:	435d      	muls	r5, r3
    769e:	435f      	muls	r7, r3
    76a0:	4643      	mov	r3, r8
    76a2:	4455      	add	r5, sl
    76a4:	0c18      	lsrs	r0, r3, #16
    76a6:	1940      	adds	r0, r0, r5
    76a8:	4582      	cmp	sl, r0
    76aa:	d903      	bls.n	76b4 <__aeabi_dmul+0x218>
    76ac:	2380      	movs	r3, #128	; 0x80
    76ae:	025b      	lsls	r3, r3, #9
    76b0:	469a      	mov	sl, r3
    76b2:	4457      	add	r7, sl
    76b4:	0c05      	lsrs	r5, r0, #16
    76b6:	19eb      	adds	r3, r5, r7
    76b8:	9305      	str	r3, [sp, #20]
    76ba:	4643      	mov	r3, r8
    76bc:	041d      	lsls	r5, r3, #16
    76be:	0c2d      	lsrs	r5, r5, #16
    76c0:	0400      	lsls	r0, r0, #16
    76c2:	1940      	adds	r0, r0, r5
    76c4:	0c25      	lsrs	r5, r4, #16
    76c6:	0424      	lsls	r4, r4, #16
    76c8:	0c24      	lsrs	r4, r4, #16
    76ca:	0027      	movs	r7, r4
    76cc:	4357      	muls	r7, r2
    76ce:	436a      	muls	r2, r5
    76d0:	4690      	mov	r8, r2
    76d2:	002a      	movs	r2, r5
    76d4:	0c3b      	lsrs	r3, r7, #16
    76d6:	469a      	mov	sl, r3
    76d8:	434a      	muls	r2, r1
    76da:	4361      	muls	r1, r4
    76dc:	4441      	add	r1, r8
    76de:	4451      	add	r1, sl
    76e0:	4483      	add	fp, r0
    76e2:	4588      	cmp	r8, r1
    76e4:	d903      	bls.n	76ee <__aeabi_dmul+0x252>
    76e6:	2380      	movs	r3, #128	; 0x80
    76e8:	025b      	lsls	r3, r3, #9
    76ea:	4698      	mov	r8, r3
    76ec:	4442      	add	r2, r8
    76ee:	043f      	lsls	r7, r7, #16
    76f0:	0c0b      	lsrs	r3, r1, #16
    76f2:	0c3f      	lsrs	r7, r7, #16
    76f4:	0409      	lsls	r1, r1, #16
    76f6:	19c9      	adds	r1, r1, r7
    76f8:	0027      	movs	r7, r4
    76fa:	4698      	mov	r8, r3
    76fc:	464b      	mov	r3, r9
    76fe:	4377      	muls	r7, r6
    7700:	435c      	muls	r4, r3
    7702:	436e      	muls	r6, r5
    7704:	435d      	muls	r5, r3
    7706:	0c3b      	lsrs	r3, r7, #16
    7708:	4699      	mov	r9, r3
    770a:	19a4      	adds	r4, r4, r6
    770c:	444c      	add	r4, r9
    770e:	4442      	add	r2, r8
    7710:	9503      	str	r5, [sp, #12]
    7712:	42a6      	cmp	r6, r4
    7714:	d904      	bls.n	7720 <__aeabi_dmul+0x284>
    7716:	2380      	movs	r3, #128	; 0x80
    7718:	025b      	lsls	r3, r3, #9
    771a:	4698      	mov	r8, r3
    771c:	4445      	add	r5, r8
    771e:	9503      	str	r5, [sp, #12]
    7720:	9b02      	ldr	r3, [sp, #8]
    7722:	043f      	lsls	r7, r7, #16
    7724:	445b      	add	r3, fp
    7726:	001e      	movs	r6, r3
    7728:	4283      	cmp	r3, r0
    772a:	4180      	sbcs	r0, r0
    772c:	0423      	lsls	r3, r4, #16
    772e:	4698      	mov	r8, r3
    7730:	9b05      	ldr	r3, [sp, #20]
    7732:	0c3f      	lsrs	r7, r7, #16
    7734:	4447      	add	r7, r8
    7736:	4698      	mov	r8, r3
    7738:	1876      	adds	r6, r6, r1
    773a:	428e      	cmp	r6, r1
    773c:	4189      	sbcs	r1, r1
    773e:	4447      	add	r7, r8
    7740:	4240      	negs	r0, r0
    7742:	183d      	adds	r5, r7, r0
    7744:	46a8      	mov	r8, r5
    7746:	4693      	mov	fp, r2
    7748:	4249      	negs	r1, r1
    774a:	468a      	mov	sl, r1
    774c:	44c3      	add	fp, r8
    774e:	429f      	cmp	r7, r3
    7750:	41bf      	sbcs	r7, r7
    7752:	4580      	cmp	r8, r0
    7754:	4180      	sbcs	r0, r0
    7756:	9b03      	ldr	r3, [sp, #12]
    7758:	44da      	add	sl, fp
    775a:	4698      	mov	r8, r3
    775c:	4653      	mov	r3, sl
    775e:	4240      	negs	r0, r0
    7760:	427f      	negs	r7, r7
    7762:	4307      	orrs	r7, r0
    7764:	0c24      	lsrs	r4, r4, #16
    7766:	4593      	cmp	fp, r2
    7768:	4192      	sbcs	r2, r2
    776a:	458a      	cmp	sl, r1
    776c:	4189      	sbcs	r1, r1
    776e:	193f      	adds	r7, r7, r4
    7770:	0ddc      	lsrs	r4, r3, #23
    7772:	9b04      	ldr	r3, [sp, #16]
    7774:	0275      	lsls	r5, r6, #9
    7776:	431d      	orrs	r5, r3
    7778:	1e68      	subs	r0, r5, #1
    777a:	4185      	sbcs	r5, r0
    777c:	4653      	mov	r3, sl
    777e:	4252      	negs	r2, r2
    7780:	4249      	negs	r1, r1
    7782:	430a      	orrs	r2, r1
    7784:	18bf      	adds	r7, r7, r2
    7786:	4447      	add	r7, r8
    7788:	0df6      	lsrs	r6, r6, #23
    778a:	027f      	lsls	r7, r7, #9
    778c:	4335      	orrs	r5, r6
    778e:	025a      	lsls	r2, r3, #9
    7790:	433c      	orrs	r4, r7
    7792:	4315      	orrs	r5, r2
    7794:	01fb      	lsls	r3, r7, #7
    7796:	d400      	bmi.n	779a <__aeabi_dmul+0x2fe>
    7798:	e0c1      	b.n	791e <__aeabi_dmul+0x482>
    779a:	2101      	movs	r1, #1
    779c:	086a      	lsrs	r2, r5, #1
    779e:	400d      	ands	r5, r1
    77a0:	4315      	orrs	r5, r2
    77a2:	07e2      	lsls	r2, r4, #31
    77a4:	4315      	orrs	r5, r2
    77a6:	0864      	lsrs	r4, r4, #1
    77a8:	4926      	ldr	r1, [pc, #152]	; (7844 <__aeabi_dmul+0x3a8>)
    77aa:	4461      	add	r1, ip
    77ac:	2900      	cmp	r1, #0
    77ae:	dd56      	ble.n	785e <__aeabi_dmul+0x3c2>
    77b0:	076b      	lsls	r3, r5, #29
    77b2:	d009      	beq.n	77c8 <__aeabi_dmul+0x32c>
    77b4:	220f      	movs	r2, #15
    77b6:	402a      	ands	r2, r5
    77b8:	2a04      	cmp	r2, #4
    77ba:	d005      	beq.n	77c8 <__aeabi_dmul+0x32c>
    77bc:	1d2a      	adds	r2, r5, #4
    77be:	42aa      	cmp	r2, r5
    77c0:	41ad      	sbcs	r5, r5
    77c2:	426d      	negs	r5, r5
    77c4:	1964      	adds	r4, r4, r5
    77c6:	0015      	movs	r5, r2
    77c8:	01e3      	lsls	r3, r4, #7
    77ca:	d504      	bpl.n	77d6 <__aeabi_dmul+0x33a>
    77cc:	2180      	movs	r1, #128	; 0x80
    77ce:	4a1e      	ldr	r2, [pc, #120]	; (7848 <__aeabi_dmul+0x3ac>)
    77d0:	00c9      	lsls	r1, r1, #3
    77d2:	4014      	ands	r4, r2
    77d4:	4461      	add	r1, ip
    77d6:	4a1d      	ldr	r2, [pc, #116]	; (784c <__aeabi_dmul+0x3b0>)
    77d8:	4291      	cmp	r1, r2
    77da:	dd00      	ble.n	77de <__aeabi_dmul+0x342>
    77dc:	e724      	b.n	7628 <__aeabi_dmul+0x18c>
    77de:	0762      	lsls	r2, r4, #29
    77e0:	08ed      	lsrs	r5, r5, #3
    77e2:	0264      	lsls	r4, r4, #9
    77e4:	0549      	lsls	r1, r1, #21
    77e6:	4315      	orrs	r5, r2
    77e8:	0b24      	lsrs	r4, r4, #12
    77ea:	0d4a      	lsrs	r2, r1, #21
    77ec:	e6c6      	b.n	757c <__aeabi_dmul+0xe0>
    77ee:	9701      	str	r7, [sp, #4]
    77f0:	e6b8      	b.n	7564 <__aeabi_dmul+0xc8>
    77f2:	4a10      	ldr	r2, [pc, #64]	; (7834 <__aeabi_dmul+0x398>)
    77f4:	2003      	movs	r0, #3
    77f6:	4694      	mov	ip, r2
    77f8:	4463      	add	r3, ip
    77fa:	464a      	mov	r2, r9
    77fc:	9300      	str	r3, [sp, #0]
    77fe:	2303      	movs	r3, #3
    7800:	431a      	orrs	r2, r3
    7802:	4691      	mov	r9, r2
    7804:	4652      	mov	r2, sl
    7806:	e68a      	b.n	751e <__aeabi_dmul+0x82>
    7808:	4649      	mov	r1, r9
    780a:	2301      	movs	r3, #1
    780c:	4319      	orrs	r1, r3
    780e:	4689      	mov	r9, r1
    7810:	2600      	movs	r6, #0
    7812:	2001      	movs	r0, #1
    7814:	e683      	b.n	751e <__aeabi_dmul+0x82>
    7816:	220c      	movs	r2, #12
    7818:	9300      	str	r3, [sp, #0]
    781a:	2303      	movs	r3, #3
    781c:	0005      	movs	r5, r0
    781e:	4691      	mov	r9, r2
    7820:	469b      	mov	fp, r3
    7822:	e65e      	b.n	74e2 <__aeabi_dmul+0x46>
    7824:	2304      	movs	r3, #4
    7826:	4699      	mov	r9, r3
    7828:	2300      	movs	r3, #0
    782a:	9300      	str	r3, [sp, #0]
    782c:	3301      	adds	r3, #1
    782e:	2400      	movs	r4, #0
    7830:	469b      	mov	fp, r3
    7832:	e656      	b.n	74e2 <__aeabi_dmul+0x46>
    7834:	000007ff 	.word	0x000007ff
    7838:	fffffc01 	.word	0xfffffc01
    783c:	0000acb4 	.word	0x0000acb4
    7840:	fffffc0d 	.word	0xfffffc0d
    7844:	000003ff 	.word	0x000003ff
    7848:	feffffff 	.word	0xfeffffff
    784c:	000007fe 	.word	0x000007fe
    7850:	2300      	movs	r3, #0
    7852:	2480      	movs	r4, #128	; 0x80
    7854:	2500      	movs	r5, #0
    7856:	4a44      	ldr	r2, [pc, #272]	; (7968 <__aeabi_dmul+0x4cc>)
    7858:	9301      	str	r3, [sp, #4]
    785a:	0324      	lsls	r4, r4, #12
    785c:	e68e      	b.n	757c <__aeabi_dmul+0xe0>
    785e:	2001      	movs	r0, #1
    7860:	1a40      	subs	r0, r0, r1
    7862:	2838      	cmp	r0, #56	; 0x38
    7864:	dd00      	ble.n	7868 <__aeabi_dmul+0x3cc>
    7866:	e686      	b.n	7576 <__aeabi_dmul+0xda>
    7868:	281f      	cmp	r0, #31
    786a:	dd5b      	ble.n	7924 <__aeabi_dmul+0x488>
    786c:	221f      	movs	r2, #31
    786e:	0023      	movs	r3, r4
    7870:	4252      	negs	r2, r2
    7872:	1a51      	subs	r1, r2, r1
    7874:	40cb      	lsrs	r3, r1
    7876:	0019      	movs	r1, r3
    7878:	2820      	cmp	r0, #32
    787a:	d003      	beq.n	7884 <__aeabi_dmul+0x3e8>
    787c:	4a3b      	ldr	r2, [pc, #236]	; (796c <__aeabi_dmul+0x4d0>)
    787e:	4462      	add	r2, ip
    7880:	4094      	lsls	r4, r2
    7882:	4325      	orrs	r5, r4
    7884:	1e6a      	subs	r2, r5, #1
    7886:	4195      	sbcs	r5, r2
    7888:	002a      	movs	r2, r5
    788a:	430a      	orrs	r2, r1
    788c:	2107      	movs	r1, #7
    788e:	000d      	movs	r5, r1
    7890:	2400      	movs	r4, #0
    7892:	4015      	ands	r5, r2
    7894:	4211      	tst	r1, r2
    7896:	d05b      	beq.n	7950 <__aeabi_dmul+0x4b4>
    7898:	210f      	movs	r1, #15
    789a:	2400      	movs	r4, #0
    789c:	4011      	ands	r1, r2
    789e:	2904      	cmp	r1, #4
    78a0:	d053      	beq.n	794a <__aeabi_dmul+0x4ae>
    78a2:	1d11      	adds	r1, r2, #4
    78a4:	4291      	cmp	r1, r2
    78a6:	4192      	sbcs	r2, r2
    78a8:	4252      	negs	r2, r2
    78aa:	18a4      	adds	r4, r4, r2
    78ac:	000a      	movs	r2, r1
    78ae:	0223      	lsls	r3, r4, #8
    78b0:	d54b      	bpl.n	794a <__aeabi_dmul+0x4ae>
    78b2:	2201      	movs	r2, #1
    78b4:	2400      	movs	r4, #0
    78b6:	2500      	movs	r5, #0
    78b8:	e660      	b.n	757c <__aeabi_dmul+0xe0>
    78ba:	2380      	movs	r3, #128	; 0x80
    78bc:	031b      	lsls	r3, r3, #12
    78be:	421c      	tst	r4, r3
    78c0:	d009      	beq.n	78d6 <__aeabi_dmul+0x43a>
    78c2:	421e      	tst	r6, r3
    78c4:	d107      	bne.n	78d6 <__aeabi_dmul+0x43a>
    78c6:	4333      	orrs	r3, r6
    78c8:	031c      	lsls	r4, r3, #12
    78ca:	4643      	mov	r3, r8
    78cc:	0015      	movs	r5, r2
    78ce:	0b24      	lsrs	r4, r4, #12
    78d0:	4a25      	ldr	r2, [pc, #148]	; (7968 <__aeabi_dmul+0x4cc>)
    78d2:	9301      	str	r3, [sp, #4]
    78d4:	e652      	b.n	757c <__aeabi_dmul+0xe0>
    78d6:	2280      	movs	r2, #128	; 0x80
    78d8:	0312      	lsls	r2, r2, #12
    78da:	4314      	orrs	r4, r2
    78dc:	0324      	lsls	r4, r4, #12
    78de:	4a22      	ldr	r2, [pc, #136]	; (7968 <__aeabi_dmul+0x4cc>)
    78e0:	0b24      	lsrs	r4, r4, #12
    78e2:	9701      	str	r7, [sp, #4]
    78e4:	e64a      	b.n	757c <__aeabi_dmul+0xe0>
    78e6:	f000 fc33 	bl	8150 <__clzsi2>
    78ea:	0003      	movs	r3, r0
    78ec:	001a      	movs	r2, r3
    78ee:	3215      	adds	r2, #21
    78f0:	3020      	adds	r0, #32
    78f2:	2a1c      	cmp	r2, #28
    78f4:	dc00      	bgt.n	78f8 <__aeabi_dmul+0x45c>
    78f6:	e684      	b.n	7602 <__aeabi_dmul+0x166>
    78f8:	4656      	mov	r6, sl
    78fa:	3b08      	subs	r3, #8
    78fc:	2200      	movs	r2, #0
    78fe:	409e      	lsls	r6, r3
    7900:	e689      	b.n	7616 <__aeabi_dmul+0x17a>
    7902:	f000 fc25 	bl	8150 <__clzsi2>
    7906:	0001      	movs	r1, r0
    7908:	0002      	movs	r2, r0
    790a:	3115      	adds	r1, #21
    790c:	3220      	adds	r2, #32
    790e:	291c      	cmp	r1, #28
    7910:	dc00      	bgt.n	7914 <__aeabi_dmul+0x478>
    7912:	e64e      	b.n	75b2 <__aeabi_dmul+0x116>
    7914:	0034      	movs	r4, r6
    7916:	3808      	subs	r0, #8
    7918:	2500      	movs	r5, #0
    791a:	4084      	lsls	r4, r0
    791c:	e653      	b.n	75c6 <__aeabi_dmul+0x12a>
    791e:	9b00      	ldr	r3, [sp, #0]
    7920:	469c      	mov	ip, r3
    7922:	e741      	b.n	77a8 <__aeabi_dmul+0x30c>
    7924:	4912      	ldr	r1, [pc, #72]	; (7970 <__aeabi_dmul+0x4d4>)
    7926:	0022      	movs	r2, r4
    7928:	4461      	add	r1, ip
    792a:	002e      	movs	r6, r5
    792c:	408d      	lsls	r5, r1
    792e:	408a      	lsls	r2, r1
    7930:	40c6      	lsrs	r6, r0
    7932:	1e69      	subs	r1, r5, #1
    7934:	418d      	sbcs	r5, r1
    7936:	4332      	orrs	r2, r6
    7938:	432a      	orrs	r2, r5
    793a:	40c4      	lsrs	r4, r0
    793c:	0753      	lsls	r3, r2, #29
    793e:	d0b6      	beq.n	78ae <__aeabi_dmul+0x412>
    7940:	210f      	movs	r1, #15
    7942:	4011      	ands	r1, r2
    7944:	2904      	cmp	r1, #4
    7946:	d1ac      	bne.n	78a2 <__aeabi_dmul+0x406>
    7948:	e7b1      	b.n	78ae <__aeabi_dmul+0x412>
    794a:	0765      	lsls	r5, r4, #29
    794c:	0264      	lsls	r4, r4, #9
    794e:	0b24      	lsrs	r4, r4, #12
    7950:	08d2      	lsrs	r2, r2, #3
    7952:	4315      	orrs	r5, r2
    7954:	2200      	movs	r2, #0
    7956:	e611      	b.n	757c <__aeabi_dmul+0xe0>
    7958:	2280      	movs	r2, #128	; 0x80
    795a:	0312      	lsls	r2, r2, #12
    795c:	4314      	orrs	r4, r2
    795e:	0324      	lsls	r4, r4, #12
    7960:	4a01      	ldr	r2, [pc, #4]	; (7968 <__aeabi_dmul+0x4cc>)
    7962:	0b24      	lsrs	r4, r4, #12
    7964:	e60a      	b.n	757c <__aeabi_dmul+0xe0>
    7966:	46c0      	nop			; (mov r8, r8)
    7968:	000007ff 	.word	0x000007ff
    796c:	0000043e 	.word	0x0000043e
    7970:	0000041e 	.word	0x0000041e

00007974 <__aeabi_dsub>:
__aeabi_dsub():
    7974:	b5f8      	push	{r3, r4, r5, r6, r7, lr}
    7976:	4657      	mov	r7, sl
    7978:	464e      	mov	r6, r9
    797a:	4645      	mov	r5, r8
    797c:	46de      	mov	lr, fp
    797e:	0004      	movs	r4, r0
    7980:	b5e0      	push	{r5, r6, r7, lr}
    7982:	001f      	movs	r7, r3
    7984:	0010      	movs	r0, r2
    7986:	030b      	lsls	r3, r1, #12
    7988:	0f62      	lsrs	r2, r4, #29
    798a:	004e      	lsls	r6, r1, #1
    798c:	0fcd      	lsrs	r5, r1, #31
    798e:	0a5b      	lsrs	r3, r3, #9
    7990:	0339      	lsls	r1, r7, #12
    7992:	4313      	orrs	r3, r2
    7994:	0a49      	lsrs	r1, r1, #9
    7996:	00e2      	lsls	r2, r4, #3
    7998:	0f44      	lsrs	r4, r0, #29
    799a:	4321      	orrs	r1, r4
    799c:	4cc2      	ldr	r4, [pc, #776]	; (7ca8 <__aeabi_dsub+0x334>)
    799e:	4691      	mov	r9, r2
    79a0:	4692      	mov	sl, r2
    79a2:	00c0      	lsls	r0, r0, #3
    79a4:	007a      	lsls	r2, r7, #1
    79a6:	4680      	mov	r8, r0
    79a8:	0d76      	lsrs	r6, r6, #21
    79aa:	0d52      	lsrs	r2, r2, #21
    79ac:	0fff      	lsrs	r7, r7, #31
    79ae:	42a2      	cmp	r2, r4
    79b0:	d100      	bne.n	79b4 <__aeabi_dsub+0x40>
    79b2:	e0b4      	b.n	7b1e <__aeabi_dsub+0x1aa>
    79b4:	2401      	movs	r4, #1
    79b6:	4067      	eors	r7, r4
    79b8:	46bb      	mov	fp, r7
    79ba:	42bd      	cmp	r5, r7
    79bc:	d100      	bne.n	79c0 <__aeabi_dsub+0x4c>
    79be:	e088      	b.n	7ad2 <__aeabi_dsub+0x15e>
    79c0:	1ab4      	subs	r4, r6, r2
    79c2:	46a4      	mov	ip, r4
    79c4:	2c00      	cmp	r4, #0
    79c6:	dc00      	bgt.n	79ca <__aeabi_dsub+0x56>
    79c8:	e0b2      	b.n	7b30 <__aeabi_dsub+0x1bc>
    79ca:	2a00      	cmp	r2, #0
    79cc:	d100      	bne.n	79d0 <__aeabi_dsub+0x5c>
    79ce:	e0c5      	b.n	7b5c <__aeabi_dsub+0x1e8>
    79d0:	4ab5      	ldr	r2, [pc, #724]	; (7ca8 <__aeabi_dsub+0x334>)
    79d2:	4296      	cmp	r6, r2
    79d4:	d100      	bne.n	79d8 <__aeabi_dsub+0x64>
    79d6:	e28b      	b.n	7ef0 <__aeabi_dsub+0x57c>
    79d8:	2280      	movs	r2, #128	; 0x80
    79da:	0412      	lsls	r2, r2, #16
    79dc:	4311      	orrs	r1, r2
    79de:	4662      	mov	r2, ip
    79e0:	2a38      	cmp	r2, #56	; 0x38
    79e2:	dd00      	ble.n	79e6 <__aeabi_dsub+0x72>
    79e4:	e1a1      	b.n	7d2a <__aeabi_dsub+0x3b6>
    79e6:	2a1f      	cmp	r2, #31
    79e8:	dd00      	ble.n	79ec <__aeabi_dsub+0x78>
    79ea:	e216      	b.n	7e1a <__aeabi_dsub+0x4a6>
    79ec:	2720      	movs	r7, #32
    79ee:	000c      	movs	r4, r1
    79f0:	1abf      	subs	r7, r7, r2
    79f2:	40bc      	lsls	r4, r7
    79f4:	0002      	movs	r2, r0
    79f6:	46a0      	mov	r8, r4
    79f8:	4664      	mov	r4, ip
    79fa:	40b8      	lsls	r0, r7
    79fc:	40e2      	lsrs	r2, r4
    79fe:	4644      	mov	r4, r8
    7a00:	4314      	orrs	r4, r2
    7a02:	0002      	movs	r2, r0
    7a04:	1e50      	subs	r0, r2, #1
    7a06:	4182      	sbcs	r2, r0
    7a08:	4660      	mov	r0, ip
    7a0a:	40c1      	lsrs	r1, r0
    7a0c:	4322      	orrs	r2, r4
    7a0e:	1a5b      	subs	r3, r3, r1
    7a10:	4649      	mov	r1, r9
    7a12:	1a8c      	subs	r4, r1, r2
    7a14:	45a1      	cmp	r9, r4
    7a16:	4192      	sbcs	r2, r2
    7a18:	4252      	negs	r2, r2
    7a1a:	1a9b      	subs	r3, r3, r2
    7a1c:	4698      	mov	r8, r3
    7a1e:	4643      	mov	r3, r8
    7a20:	021b      	lsls	r3, r3, #8
    7a22:	d400      	bmi.n	7a26 <__aeabi_dsub+0xb2>
    7a24:	e117      	b.n	7c56 <__aeabi_dsub+0x2e2>
    7a26:	4643      	mov	r3, r8
    7a28:	025b      	lsls	r3, r3, #9
    7a2a:	0a5b      	lsrs	r3, r3, #9
    7a2c:	4698      	mov	r8, r3
    7a2e:	4643      	mov	r3, r8
    7a30:	2b00      	cmp	r3, #0
    7a32:	d100      	bne.n	7a36 <__aeabi_dsub+0xc2>
    7a34:	e16c      	b.n	7d10 <__aeabi_dsub+0x39c>
    7a36:	4640      	mov	r0, r8
    7a38:	f000 fb8a 	bl	8150 <__clzsi2>
    7a3c:	0002      	movs	r2, r0
    7a3e:	3a08      	subs	r2, #8
    7a40:	2120      	movs	r1, #32
    7a42:	0020      	movs	r0, r4
    7a44:	4643      	mov	r3, r8
    7a46:	1a89      	subs	r1, r1, r2
    7a48:	4093      	lsls	r3, r2
    7a4a:	40c8      	lsrs	r0, r1
    7a4c:	4094      	lsls	r4, r2
    7a4e:	4303      	orrs	r3, r0
    7a50:	4296      	cmp	r6, r2
    7a52:	dd00      	ble.n	7a56 <__aeabi_dsub+0xe2>
    7a54:	e157      	b.n	7d06 <__aeabi_dsub+0x392>
    7a56:	1b96      	subs	r6, r2, r6
    7a58:	1c71      	adds	r1, r6, #1
    7a5a:	291f      	cmp	r1, #31
    7a5c:	dd00      	ble.n	7a60 <__aeabi_dsub+0xec>
    7a5e:	e1cb      	b.n	7df8 <__aeabi_dsub+0x484>
    7a60:	2220      	movs	r2, #32
    7a62:	0018      	movs	r0, r3
    7a64:	0026      	movs	r6, r4
    7a66:	1a52      	subs	r2, r2, r1
    7a68:	4094      	lsls	r4, r2
    7a6a:	4090      	lsls	r0, r2
    7a6c:	40ce      	lsrs	r6, r1
    7a6e:	40cb      	lsrs	r3, r1
    7a70:	1e62      	subs	r2, r4, #1
    7a72:	4194      	sbcs	r4, r2
    7a74:	4330      	orrs	r0, r6
    7a76:	4698      	mov	r8, r3
    7a78:	2600      	movs	r6, #0
    7a7a:	4304      	orrs	r4, r0
    7a7c:	0763      	lsls	r3, r4, #29
    7a7e:	d009      	beq.n	7a94 <__aeabi_dsub+0x120>
    7a80:	230f      	movs	r3, #15
    7a82:	4023      	ands	r3, r4
    7a84:	2b04      	cmp	r3, #4
    7a86:	d005      	beq.n	7a94 <__aeabi_dsub+0x120>
    7a88:	1d23      	adds	r3, r4, #4
    7a8a:	42a3      	cmp	r3, r4
    7a8c:	41a4      	sbcs	r4, r4
    7a8e:	4264      	negs	r4, r4
    7a90:	44a0      	add	r8, r4
    7a92:	001c      	movs	r4, r3
    7a94:	4643      	mov	r3, r8
    7a96:	021b      	lsls	r3, r3, #8
    7a98:	d400      	bmi.n	7a9c <__aeabi_dsub+0x128>
    7a9a:	e0df      	b.n	7c5c <__aeabi_dsub+0x2e8>
    7a9c:	4b82      	ldr	r3, [pc, #520]	; (7ca8 <__aeabi_dsub+0x334>)
    7a9e:	3601      	adds	r6, #1
    7aa0:	429e      	cmp	r6, r3
    7aa2:	d100      	bne.n	7aa6 <__aeabi_dsub+0x132>
    7aa4:	e0fb      	b.n	7c9e <__aeabi_dsub+0x32a>
    7aa6:	4642      	mov	r2, r8
    7aa8:	4b80      	ldr	r3, [pc, #512]	; (7cac <__aeabi_dsub+0x338>)
    7aaa:	08e4      	lsrs	r4, r4, #3
    7aac:	401a      	ands	r2, r3
    7aae:	0013      	movs	r3, r2
    7ab0:	0571      	lsls	r1, r6, #21
    7ab2:	0752      	lsls	r2, r2, #29
    7ab4:	025b      	lsls	r3, r3, #9
    7ab6:	4322      	orrs	r2, r4
    7ab8:	0b1b      	lsrs	r3, r3, #12
    7aba:	0d49      	lsrs	r1, r1, #21
    7abc:	0509      	lsls	r1, r1, #20
    7abe:	07ed      	lsls	r5, r5, #31
    7ac0:	4319      	orrs	r1, r3
    7ac2:	4329      	orrs	r1, r5
    7ac4:	0010      	movs	r0, r2
    7ac6:	bcf0      	pop	{r4, r5, r6, r7}
    7ac8:	46bb      	mov	fp, r7
    7aca:	46b2      	mov	sl, r6
    7acc:	46a9      	mov	r9, r5
    7ace:	46a0      	mov	r8, r4
    7ad0:	bdf8      	pop	{r3, r4, r5, r6, r7, pc}
    7ad2:	1ab4      	subs	r4, r6, r2
    7ad4:	46a4      	mov	ip, r4
    7ad6:	2c00      	cmp	r4, #0
    7ad8:	dd58      	ble.n	7b8c <__aeabi_dsub+0x218>
    7ada:	2a00      	cmp	r2, #0
    7adc:	d100      	bne.n	7ae0 <__aeabi_dsub+0x16c>
    7ade:	e09e      	b.n	7c1e <__aeabi_dsub+0x2aa>
    7ae0:	4a71      	ldr	r2, [pc, #452]	; (7ca8 <__aeabi_dsub+0x334>)
    7ae2:	4296      	cmp	r6, r2
    7ae4:	d100      	bne.n	7ae8 <__aeabi_dsub+0x174>
    7ae6:	e13b      	b.n	7d60 <__aeabi_dsub+0x3ec>
    7ae8:	2280      	movs	r2, #128	; 0x80
    7aea:	0412      	lsls	r2, r2, #16
    7aec:	4311      	orrs	r1, r2
    7aee:	4662      	mov	r2, ip
    7af0:	2a38      	cmp	r2, #56	; 0x38
    7af2:	dd00      	ble.n	7af6 <__aeabi_dsub+0x182>
    7af4:	e0c1      	b.n	7c7a <__aeabi_dsub+0x306>
    7af6:	2a1f      	cmp	r2, #31
    7af8:	dc00      	bgt.n	7afc <__aeabi_dsub+0x188>
    7afa:	e1bb      	b.n	7e74 <__aeabi_dsub+0x500>
    7afc:	000c      	movs	r4, r1
    7afe:	3a20      	subs	r2, #32
    7b00:	40d4      	lsrs	r4, r2
    7b02:	0022      	movs	r2, r4
    7b04:	4664      	mov	r4, ip
    7b06:	2c20      	cmp	r4, #32
    7b08:	d004      	beq.n	7b14 <__aeabi_dsub+0x1a0>
    7b0a:	2740      	movs	r7, #64	; 0x40
    7b0c:	1b3f      	subs	r7, r7, r4
    7b0e:	40b9      	lsls	r1, r7
    7b10:	4308      	orrs	r0, r1
    7b12:	4680      	mov	r8, r0
    7b14:	4644      	mov	r4, r8
    7b16:	1e61      	subs	r1, r4, #1
    7b18:	418c      	sbcs	r4, r1
    7b1a:	4314      	orrs	r4, r2
    7b1c:	e0b1      	b.n	7c82 <__aeabi_dsub+0x30e>
    7b1e:	000c      	movs	r4, r1
    7b20:	4304      	orrs	r4, r0
    7b22:	d02a      	beq.n	7b7a <__aeabi_dsub+0x206>
    7b24:	46bb      	mov	fp, r7
    7b26:	42bd      	cmp	r5, r7
    7b28:	d02d      	beq.n	7b86 <__aeabi_dsub+0x212>
    7b2a:	4c61      	ldr	r4, [pc, #388]	; (7cb0 <__aeabi_dsub+0x33c>)
    7b2c:	46a4      	mov	ip, r4
    7b2e:	44b4      	add	ip, r6
    7b30:	4664      	mov	r4, ip
    7b32:	2c00      	cmp	r4, #0
    7b34:	d05c      	beq.n	7bf0 <__aeabi_dsub+0x27c>
    7b36:	1b94      	subs	r4, r2, r6
    7b38:	46a4      	mov	ip, r4
    7b3a:	2e00      	cmp	r6, #0
    7b3c:	d000      	beq.n	7b40 <__aeabi_dsub+0x1cc>
    7b3e:	e115      	b.n	7d6c <__aeabi_dsub+0x3f8>
    7b40:	464d      	mov	r5, r9
    7b42:	431d      	orrs	r5, r3
    7b44:	d100      	bne.n	7b48 <__aeabi_dsub+0x1d4>
    7b46:	e1c3      	b.n	7ed0 <__aeabi_dsub+0x55c>
    7b48:	1e65      	subs	r5, r4, #1
    7b4a:	2c01      	cmp	r4, #1
    7b4c:	d100      	bne.n	7b50 <__aeabi_dsub+0x1dc>
    7b4e:	e20c      	b.n	7f6a <__aeabi_dsub+0x5f6>
    7b50:	4e55      	ldr	r6, [pc, #340]	; (7ca8 <__aeabi_dsub+0x334>)
    7b52:	42b4      	cmp	r4, r6
    7b54:	d100      	bne.n	7b58 <__aeabi_dsub+0x1e4>
    7b56:	e1f8      	b.n	7f4a <__aeabi_dsub+0x5d6>
    7b58:	46ac      	mov	ip, r5
    7b5a:	e10e      	b.n	7d7a <__aeabi_dsub+0x406>
    7b5c:	000a      	movs	r2, r1
    7b5e:	4302      	orrs	r2, r0
    7b60:	d100      	bne.n	7b64 <__aeabi_dsub+0x1f0>
    7b62:	e136      	b.n	7dd2 <__aeabi_dsub+0x45e>
    7b64:	0022      	movs	r2, r4
    7b66:	3a01      	subs	r2, #1
    7b68:	2c01      	cmp	r4, #1
    7b6a:	d100      	bne.n	7b6e <__aeabi_dsub+0x1fa>
    7b6c:	e1c6      	b.n	7efc <__aeabi_dsub+0x588>
    7b6e:	4c4e      	ldr	r4, [pc, #312]	; (7ca8 <__aeabi_dsub+0x334>)
    7b70:	45a4      	cmp	ip, r4
    7b72:	d100      	bne.n	7b76 <__aeabi_dsub+0x202>
    7b74:	e0f4      	b.n	7d60 <__aeabi_dsub+0x3ec>
    7b76:	4694      	mov	ip, r2
    7b78:	e731      	b.n	79de <__aeabi_dsub+0x6a>
    7b7a:	2401      	movs	r4, #1
    7b7c:	4067      	eors	r7, r4
    7b7e:	46bb      	mov	fp, r7
    7b80:	42bd      	cmp	r5, r7
    7b82:	d000      	beq.n	7b86 <__aeabi_dsub+0x212>
    7b84:	e71c      	b.n	79c0 <__aeabi_dsub+0x4c>
    7b86:	4c4a      	ldr	r4, [pc, #296]	; (7cb0 <__aeabi_dsub+0x33c>)
    7b88:	46a4      	mov	ip, r4
    7b8a:	44b4      	add	ip, r6
    7b8c:	4664      	mov	r4, ip
    7b8e:	2c00      	cmp	r4, #0
    7b90:	d100      	bne.n	7b94 <__aeabi_dsub+0x220>
    7b92:	e0cf      	b.n	7d34 <__aeabi_dsub+0x3c0>
    7b94:	1b94      	subs	r4, r2, r6
    7b96:	46a4      	mov	ip, r4
    7b98:	2e00      	cmp	r6, #0
    7b9a:	d100      	bne.n	7b9e <__aeabi_dsub+0x22a>
    7b9c:	e15c      	b.n	7e58 <__aeabi_dsub+0x4e4>
    7b9e:	4e42      	ldr	r6, [pc, #264]	; (7ca8 <__aeabi_dsub+0x334>)
    7ba0:	42b2      	cmp	r2, r6
    7ba2:	d100      	bne.n	7ba6 <__aeabi_dsub+0x232>
    7ba4:	e1ec      	b.n	7f80 <__aeabi_dsub+0x60c>
    7ba6:	2680      	movs	r6, #128	; 0x80
    7ba8:	0436      	lsls	r6, r6, #16
    7baa:	4333      	orrs	r3, r6
    7bac:	4664      	mov	r4, ip
    7bae:	2c38      	cmp	r4, #56	; 0x38
    7bb0:	dd00      	ble.n	7bb4 <__aeabi_dsub+0x240>
    7bb2:	e1b3      	b.n	7f1c <__aeabi_dsub+0x5a8>
    7bb4:	2c1f      	cmp	r4, #31
    7bb6:	dd00      	ble.n	7bba <__aeabi_dsub+0x246>
    7bb8:	e238      	b.n	802c <__aeabi_dsub+0x6b8>
    7bba:	2620      	movs	r6, #32
    7bbc:	1b36      	subs	r6, r6, r4
    7bbe:	001c      	movs	r4, r3
    7bc0:	40b4      	lsls	r4, r6
    7bc2:	464f      	mov	r7, r9
    7bc4:	46a0      	mov	r8, r4
    7bc6:	4664      	mov	r4, ip
    7bc8:	40e7      	lsrs	r7, r4
    7bca:	4644      	mov	r4, r8
    7bcc:	433c      	orrs	r4, r7
    7bce:	464f      	mov	r7, r9
    7bd0:	40b7      	lsls	r7, r6
    7bd2:	003e      	movs	r6, r7
    7bd4:	1e77      	subs	r7, r6, #1
    7bd6:	41be      	sbcs	r6, r7
    7bd8:	4334      	orrs	r4, r6
    7bda:	4666      	mov	r6, ip
    7bdc:	40f3      	lsrs	r3, r6
    7bde:	18c9      	adds	r1, r1, r3
    7be0:	1824      	adds	r4, r4, r0
    7be2:	4284      	cmp	r4, r0
    7be4:	419b      	sbcs	r3, r3
    7be6:	425b      	negs	r3, r3
    7be8:	4698      	mov	r8, r3
    7bea:	0016      	movs	r6, r2
    7bec:	4488      	add	r8, r1
    7bee:	e04e      	b.n	7c8e <__aeabi_dsub+0x31a>
    7bf0:	4a30      	ldr	r2, [pc, #192]	; (7cb4 <__aeabi_dsub+0x340>)
    7bf2:	1c74      	adds	r4, r6, #1
    7bf4:	4214      	tst	r4, r2
    7bf6:	d000      	beq.n	7bfa <__aeabi_dsub+0x286>
    7bf8:	e0d6      	b.n	7da8 <__aeabi_dsub+0x434>
    7bfa:	464a      	mov	r2, r9
    7bfc:	431a      	orrs	r2, r3
    7bfe:	2e00      	cmp	r6, #0
    7c00:	d000      	beq.n	7c04 <__aeabi_dsub+0x290>
    7c02:	e15b      	b.n	7ebc <__aeabi_dsub+0x548>
    7c04:	2a00      	cmp	r2, #0
    7c06:	d100      	bne.n	7c0a <__aeabi_dsub+0x296>
    7c08:	e1a5      	b.n	7f56 <__aeabi_dsub+0x5e2>
    7c0a:	000a      	movs	r2, r1
    7c0c:	4302      	orrs	r2, r0
    7c0e:	d000      	beq.n	7c12 <__aeabi_dsub+0x29e>
    7c10:	e1bb      	b.n	7f8a <__aeabi_dsub+0x616>
    7c12:	464a      	mov	r2, r9
    7c14:	0759      	lsls	r1, r3, #29
    7c16:	08d2      	lsrs	r2, r2, #3
    7c18:	430a      	orrs	r2, r1
    7c1a:	08db      	lsrs	r3, r3, #3
    7c1c:	e027      	b.n	7c6e <__aeabi_dsub+0x2fa>
    7c1e:	000a      	movs	r2, r1
    7c20:	4302      	orrs	r2, r0
    7c22:	d100      	bne.n	7c26 <__aeabi_dsub+0x2b2>
    7c24:	e174      	b.n	7f10 <__aeabi_dsub+0x59c>
    7c26:	0022      	movs	r2, r4
    7c28:	3a01      	subs	r2, #1
    7c2a:	2c01      	cmp	r4, #1
    7c2c:	d005      	beq.n	7c3a <__aeabi_dsub+0x2c6>
    7c2e:	4c1e      	ldr	r4, [pc, #120]	; (7ca8 <__aeabi_dsub+0x334>)
    7c30:	45a4      	cmp	ip, r4
    7c32:	d100      	bne.n	7c36 <__aeabi_dsub+0x2c2>
    7c34:	e094      	b.n	7d60 <__aeabi_dsub+0x3ec>
    7c36:	4694      	mov	ip, r2
    7c38:	e759      	b.n	7aee <__aeabi_dsub+0x17a>
    7c3a:	4448      	add	r0, r9
    7c3c:	4548      	cmp	r0, r9
    7c3e:	4192      	sbcs	r2, r2
    7c40:	185b      	adds	r3, r3, r1
    7c42:	4698      	mov	r8, r3
    7c44:	0004      	movs	r4, r0
    7c46:	4252      	negs	r2, r2
    7c48:	4490      	add	r8, r2
    7c4a:	4643      	mov	r3, r8
    7c4c:	2602      	movs	r6, #2
    7c4e:	021b      	lsls	r3, r3, #8
    7c50:	d500      	bpl.n	7c54 <__aeabi_dsub+0x2e0>
    7c52:	e0c4      	b.n	7dde <__aeabi_dsub+0x46a>
    7c54:	3e01      	subs	r6, #1
    7c56:	0763      	lsls	r3, r4, #29
    7c58:	d000      	beq.n	7c5c <__aeabi_dsub+0x2e8>
    7c5a:	e711      	b.n	7a80 <__aeabi_dsub+0x10c>
    7c5c:	4643      	mov	r3, r8
    7c5e:	46b4      	mov	ip, r6
    7c60:	0759      	lsls	r1, r3, #29
    7c62:	08e2      	lsrs	r2, r4, #3
    7c64:	430a      	orrs	r2, r1
    7c66:	08db      	lsrs	r3, r3, #3
    7c68:	490f      	ldr	r1, [pc, #60]	; (7ca8 <__aeabi_dsub+0x334>)
    7c6a:	458c      	cmp	ip, r1
    7c6c:	d040      	beq.n	7cf0 <__aeabi_dsub+0x37c>
    7c6e:	4661      	mov	r1, ip
    7c70:	031b      	lsls	r3, r3, #12
    7c72:	0549      	lsls	r1, r1, #21
    7c74:	0b1b      	lsrs	r3, r3, #12
    7c76:	0d49      	lsrs	r1, r1, #21
    7c78:	e720      	b.n	7abc <__aeabi_dsub+0x148>
    7c7a:	4301      	orrs	r1, r0
    7c7c:	000c      	movs	r4, r1
    7c7e:	1e61      	subs	r1, r4, #1
    7c80:	418c      	sbcs	r4, r1
    7c82:	444c      	add	r4, r9
    7c84:	454c      	cmp	r4, r9
    7c86:	4192      	sbcs	r2, r2
    7c88:	4252      	negs	r2, r2
    7c8a:	4690      	mov	r8, r2
    7c8c:	4498      	add	r8, r3
    7c8e:	4643      	mov	r3, r8
    7c90:	021b      	lsls	r3, r3, #8
    7c92:	d5e0      	bpl.n	7c56 <__aeabi_dsub+0x2e2>
    7c94:	4b04      	ldr	r3, [pc, #16]	; (7ca8 <__aeabi_dsub+0x334>)
    7c96:	3601      	adds	r6, #1
    7c98:	429e      	cmp	r6, r3
    7c9a:	d000      	beq.n	7c9e <__aeabi_dsub+0x32a>
    7c9c:	e09f      	b.n	7dde <__aeabi_dsub+0x46a>
    7c9e:	0031      	movs	r1, r6
    7ca0:	2300      	movs	r3, #0
    7ca2:	2200      	movs	r2, #0
    7ca4:	e70a      	b.n	7abc <__aeabi_dsub+0x148>
    7ca6:	46c0      	nop			; (mov r8, r8)
    7ca8:	000007ff 	.word	0x000007ff
    7cac:	ff7fffff 	.word	0xff7fffff
    7cb0:	fffff801 	.word	0xfffff801
    7cb4:	000007fe 	.word	0x000007fe
    7cb8:	2a00      	cmp	r2, #0
    7cba:	d100      	bne.n	7cbe <__aeabi_dsub+0x34a>
    7cbc:	e160      	b.n	7f80 <__aeabi_dsub+0x60c>
    7cbe:	000a      	movs	r2, r1
    7cc0:	4302      	orrs	r2, r0
    7cc2:	d04d      	beq.n	7d60 <__aeabi_dsub+0x3ec>
    7cc4:	464a      	mov	r2, r9
    7cc6:	075c      	lsls	r4, r3, #29
    7cc8:	08d2      	lsrs	r2, r2, #3
    7cca:	4322      	orrs	r2, r4
    7ccc:	2480      	movs	r4, #128	; 0x80
    7cce:	08db      	lsrs	r3, r3, #3
    7cd0:	0324      	lsls	r4, r4, #12
    7cd2:	4223      	tst	r3, r4
    7cd4:	d007      	beq.n	7ce6 <__aeabi_dsub+0x372>
    7cd6:	08ce      	lsrs	r6, r1, #3
    7cd8:	4226      	tst	r6, r4
    7cda:	d104      	bne.n	7ce6 <__aeabi_dsub+0x372>
    7cdc:	465d      	mov	r5, fp
    7cde:	0033      	movs	r3, r6
    7ce0:	08c2      	lsrs	r2, r0, #3
    7ce2:	0749      	lsls	r1, r1, #29
    7ce4:	430a      	orrs	r2, r1
    7ce6:	0f51      	lsrs	r1, r2, #29
    7ce8:	00d2      	lsls	r2, r2, #3
    7cea:	08d2      	lsrs	r2, r2, #3
    7cec:	0749      	lsls	r1, r1, #29
    7cee:	430a      	orrs	r2, r1
    7cf0:	0011      	movs	r1, r2
    7cf2:	4319      	orrs	r1, r3
    7cf4:	d100      	bne.n	7cf8 <__aeabi_dsub+0x384>
    7cf6:	e1c8      	b.n	808a <__aeabi_dsub+0x716>
    7cf8:	2180      	movs	r1, #128	; 0x80
    7cfa:	0309      	lsls	r1, r1, #12
    7cfc:	430b      	orrs	r3, r1
    7cfe:	031b      	lsls	r3, r3, #12
    7d00:	49d5      	ldr	r1, [pc, #852]	; (8058 <__aeabi_dsub+0x6e4>)
    7d02:	0b1b      	lsrs	r3, r3, #12
    7d04:	e6da      	b.n	7abc <__aeabi_dsub+0x148>
    7d06:	49d5      	ldr	r1, [pc, #852]	; (805c <__aeabi_dsub+0x6e8>)
    7d08:	1ab6      	subs	r6, r6, r2
    7d0a:	400b      	ands	r3, r1
    7d0c:	4698      	mov	r8, r3
    7d0e:	e6b5      	b.n	7a7c <__aeabi_dsub+0x108>
    7d10:	0020      	movs	r0, r4
    7d12:	f000 fa1d 	bl	8150 <__clzsi2>
    7d16:	0002      	movs	r2, r0
    7d18:	3218      	adds	r2, #24
    7d1a:	2a1f      	cmp	r2, #31
    7d1c:	dc00      	bgt.n	7d20 <__aeabi_dsub+0x3ac>
    7d1e:	e68f      	b.n	7a40 <__aeabi_dsub+0xcc>
    7d20:	0023      	movs	r3, r4
    7d22:	3808      	subs	r0, #8
    7d24:	4083      	lsls	r3, r0
    7d26:	2400      	movs	r4, #0
    7d28:	e692      	b.n	7a50 <__aeabi_dsub+0xdc>
    7d2a:	4308      	orrs	r0, r1
    7d2c:	0002      	movs	r2, r0
    7d2e:	1e50      	subs	r0, r2, #1
    7d30:	4182      	sbcs	r2, r0
    7d32:	e66d      	b.n	7a10 <__aeabi_dsub+0x9c>
    7d34:	4cca      	ldr	r4, [pc, #808]	; (8060 <__aeabi_dsub+0x6ec>)
    7d36:	1c72      	adds	r2, r6, #1
    7d38:	4222      	tst	r2, r4
    7d3a:	d000      	beq.n	7d3e <__aeabi_dsub+0x3ca>
    7d3c:	e0ad      	b.n	7e9a <__aeabi_dsub+0x526>
    7d3e:	464a      	mov	r2, r9
    7d40:	431a      	orrs	r2, r3
    7d42:	2e00      	cmp	r6, #0
    7d44:	d1b8      	bne.n	7cb8 <__aeabi_dsub+0x344>
    7d46:	2a00      	cmp	r2, #0
    7d48:	d100      	bne.n	7d4c <__aeabi_dsub+0x3d8>
    7d4a:	e158      	b.n	7ffe <__aeabi_dsub+0x68a>
    7d4c:	000a      	movs	r2, r1
    7d4e:	4302      	orrs	r2, r0
    7d50:	d000      	beq.n	7d54 <__aeabi_dsub+0x3e0>
    7d52:	e159      	b.n	8008 <__aeabi_dsub+0x694>
    7d54:	464a      	mov	r2, r9
    7d56:	0759      	lsls	r1, r3, #29
    7d58:	08d2      	lsrs	r2, r2, #3
    7d5a:	430a      	orrs	r2, r1
    7d5c:	08db      	lsrs	r3, r3, #3
    7d5e:	e786      	b.n	7c6e <__aeabi_dsub+0x2fa>
    7d60:	464a      	mov	r2, r9
    7d62:	0759      	lsls	r1, r3, #29
    7d64:	08d2      	lsrs	r2, r2, #3
    7d66:	430a      	orrs	r2, r1
    7d68:	08db      	lsrs	r3, r3, #3
    7d6a:	e7c1      	b.n	7cf0 <__aeabi_dsub+0x37c>
    7d6c:	4dba      	ldr	r5, [pc, #744]	; (8058 <__aeabi_dsub+0x6e4>)
    7d6e:	42aa      	cmp	r2, r5
    7d70:	d100      	bne.n	7d74 <__aeabi_dsub+0x400>
    7d72:	e11e      	b.n	7fb2 <__aeabi_dsub+0x63e>
    7d74:	2580      	movs	r5, #128	; 0x80
    7d76:	042d      	lsls	r5, r5, #16
    7d78:	432b      	orrs	r3, r5
    7d7a:	4664      	mov	r4, ip
    7d7c:	2c38      	cmp	r4, #56	; 0x38
    7d7e:	dc5d      	bgt.n	7e3c <__aeabi_dsub+0x4c8>
    7d80:	2c1f      	cmp	r4, #31
    7d82:	dd00      	ble.n	7d86 <__aeabi_dsub+0x412>
    7d84:	e0d0      	b.n	7f28 <__aeabi_dsub+0x5b4>
    7d86:	2520      	movs	r5, #32
    7d88:	4667      	mov	r7, ip
    7d8a:	1b2d      	subs	r5, r5, r4
    7d8c:	464e      	mov	r6, r9
    7d8e:	001c      	movs	r4, r3
    7d90:	40fe      	lsrs	r6, r7
    7d92:	40ac      	lsls	r4, r5
    7d94:	4334      	orrs	r4, r6
    7d96:	464e      	mov	r6, r9
    7d98:	40ae      	lsls	r6, r5
    7d9a:	0035      	movs	r5, r6
    7d9c:	40fb      	lsrs	r3, r7
    7d9e:	1e6e      	subs	r6, r5, #1
    7da0:	41b5      	sbcs	r5, r6
    7da2:	1ac9      	subs	r1, r1, r3
    7da4:	432c      	orrs	r4, r5
    7da6:	e04e      	b.n	7e46 <__aeabi_dsub+0x4d2>
    7da8:	464a      	mov	r2, r9
    7daa:	1a14      	subs	r4, r2, r0
    7dac:	45a1      	cmp	r9, r4
    7dae:	4192      	sbcs	r2, r2
    7db0:	4252      	negs	r2, r2
    7db2:	4690      	mov	r8, r2
    7db4:	1a5f      	subs	r7, r3, r1
    7db6:	003a      	movs	r2, r7
    7db8:	4647      	mov	r7, r8
    7dba:	1bd2      	subs	r2, r2, r7
    7dbc:	4690      	mov	r8, r2
    7dbe:	0212      	lsls	r2, r2, #8
    7dc0:	d500      	bpl.n	7dc4 <__aeabi_dsub+0x450>
    7dc2:	e08b      	b.n	7edc <__aeabi_dsub+0x568>
    7dc4:	4642      	mov	r2, r8
    7dc6:	4322      	orrs	r2, r4
    7dc8:	d000      	beq.n	7dcc <__aeabi_dsub+0x458>
    7dca:	e630      	b.n	7a2e <__aeabi_dsub+0xba>
    7dcc:	2300      	movs	r3, #0
    7dce:	2500      	movs	r5, #0
    7dd0:	e74d      	b.n	7c6e <__aeabi_dsub+0x2fa>
    7dd2:	464a      	mov	r2, r9
    7dd4:	0759      	lsls	r1, r3, #29
    7dd6:	08d2      	lsrs	r2, r2, #3
    7dd8:	430a      	orrs	r2, r1
    7dda:	08db      	lsrs	r3, r3, #3
    7ddc:	e744      	b.n	7c68 <__aeabi_dsub+0x2f4>
    7dde:	4642      	mov	r2, r8
    7de0:	4b9e      	ldr	r3, [pc, #632]	; (805c <__aeabi_dsub+0x6e8>)
    7de2:	0861      	lsrs	r1, r4, #1
    7de4:	401a      	ands	r2, r3
    7de6:	0013      	movs	r3, r2
    7de8:	2201      	movs	r2, #1
    7dea:	4014      	ands	r4, r2
    7dec:	430c      	orrs	r4, r1
    7dee:	07da      	lsls	r2, r3, #31
    7df0:	085b      	lsrs	r3, r3, #1
    7df2:	4698      	mov	r8, r3
    7df4:	4314      	orrs	r4, r2
    7df6:	e641      	b.n	7a7c <__aeabi_dsub+0x108>
    7df8:	001a      	movs	r2, r3
    7dfa:	3e1f      	subs	r6, #31
    7dfc:	40f2      	lsrs	r2, r6
    7dfe:	0016      	movs	r6, r2
    7e00:	2920      	cmp	r1, #32
    7e02:	d003      	beq.n	7e0c <__aeabi_dsub+0x498>
    7e04:	2240      	movs	r2, #64	; 0x40
    7e06:	1a51      	subs	r1, r2, r1
    7e08:	408b      	lsls	r3, r1
    7e0a:	431c      	orrs	r4, r3
    7e0c:	1e62      	subs	r2, r4, #1
    7e0e:	4194      	sbcs	r4, r2
    7e10:	2300      	movs	r3, #0
    7e12:	4334      	orrs	r4, r6
    7e14:	4698      	mov	r8, r3
    7e16:	2600      	movs	r6, #0
    7e18:	e71d      	b.n	7c56 <__aeabi_dsub+0x2e2>
    7e1a:	000c      	movs	r4, r1
    7e1c:	3a20      	subs	r2, #32
    7e1e:	40d4      	lsrs	r4, r2
    7e20:	0022      	movs	r2, r4
    7e22:	4664      	mov	r4, ip
    7e24:	2c20      	cmp	r4, #32
    7e26:	d004      	beq.n	7e32 <__aeabi_dsub+0x4be>
    7e28:	2740      	movs	r7, #64	; 0x40
    7e2a:	1b3f      	subs	r7, r7, r4
    7e2c:	40b9      	lsls	r1, r7
    7e2e:	4308      	orrs	r0, r1
    7e30:	4680      	mov	r8, r0
    7e32:	4644      	mov	r4, r8
    7e34:	1e61      	subs	r1, r4, #1
    7e36:	418c      	sbcs	r4, r1
    7e38:	4322      	orrs	r2, r4
    7e3a:	e5e9      	b.n	7a10 <__aeabi_dsub+0x9c>
    7e3c:	464c      	mov	r4, r9
    7e3e:	4323      	orrs	r3, r4
    7e40:	001c      	movs	r4, r3
    7e42:	1e63      	subs	r3, r4, #1
    7e44:	419c      	sbcs	r4, r3
    7e46:	1b04      	subs	r4, r0, r4
    7e48:	42a0      	cmp	r0, r4
    7e4a:	419b      	sbcs	r3, r3
    7e4c:	425b      	negs	r3, r3
    7e4e:	1acb      	subs	r3, r1, r3
    7e50:	4698      	mov	r8, r3
    7e52:	465d      	mov	r5, fp
    7e54:	0016      	movs	r6, r2
    7e56:	e5e2      	b.n	7a1e <__aeabi_dsub+0xaa>
    7e58:	464e      	mov	r6, r9
    7e5a:	431e      	orrs	r6, r3
    7e5c:	d100      	bne.n	7e60 <__aeabi_dsub+0x4ec>
    7e5e:	e0ae      	b.n	7fbe <__aeabi_dsub+0x64a>
    7e60:	1e66      	subs	r6, r4, #1
    7e62:	2c01      	cmp	r4, #1
    7e64:	d100      	bne.n	7e68 <__aeabi_dsub+0x4f4>
    7e66:	e0fd      	b.n	8064 <__aeabi_dsub+0x6f0>
    7e68:	4f7b      	ldr	r7, [pc, #492]	; (8058 <__aeabi_dsub+0x6e4>)
    7e6a:	42bc      	cmp	r4, r7
    7e6c:	d100      	bne.n	7e70 <__aeabi_dsub+0x4fc>
    7e6e:	e107      	b.n	8080 <__aeabi_dsub+0x70c>
    7e70:	46b4      	mov	ip, r6
    7e72:	e69b      	b.n	7bac <__aeabi_dsub+0x238>
    7e74:	4664      	mov	r4, ip
    7e76:	2220      	movs	r2, #32
    7e78:	1b12      	subs	r2, r2, r4
    7e7a:	000c      	movs	r4, r1
    7e7c:	4094      	lsls	r4, r2
    7e7e:	0007      	movs	r7, r0
    7e80:	4090      	lsls	r0, r2
    7e82:	46a0      	mov	r8, r4
    7e84:	4664      	mov	r4, ip
    7e86:	1e42      	subs	r2, r0, #1
    7e88:	4190      	sbcs	r0, r2
    7e8a:	4662      	mov	r2, ip
    7e8c:	40e7      	lsrs	r7, r4
    7e8e:	4644      	mov	r4, r8
    7e90:	40d1      	lsrs	r1, r2
    7e92:	433c      	orrs	r4, r7
    7e94:	4304      	orrs	r4, r0
    7e96:	185b      	adds	r3, r3, r1
    7e98:	e6f3      	b.n	7c82 <__aeabi_dsub+0x30e>
    7e9a:	4c6f      	ldr	r4, [pc, #444]	; (8058 <__aeabi_dsub+0x6e4>)
    7e9c:	42a2      	cmp	r2, r4
    7e9e:	d100      	bne.n	7ea2 <__aeabi_dsub+0x52e>
    7ea0:	e0d5      	b.n	804e <__aeabi_dsub+0x6da>
    7ea2:	4448      	add	r0, r9
    7ea4:	185b      	adds	r3, r3, r1
    7ea6:	4548      	cmp	r0, r9
    7ea8:	4189      	sbcs	r1, r1
    7eaa:	4249      	negs	r1, r1
    7eac:	185b      	adds	r3, r3, r1
    7eae:	07dc      	lsls	r4, r3, #31
    7eb0:	0840      	lsrs	r0, r0, #1
    7eb2:	085b      	lsrs	r3, r3, #1
    7eb4:	4698      	mov	r8, r3
    7eb6:	0016      	movs	r6, r2
    7eb8:	4304      	orrs	r4, r0
    7eba:	e6cc      	b.n	7c56 <__aeabi_dsub+0x2e2>
    7ebc:	2a00      	cmp	r2, #0
    7ebe:	d000      	beq.n	7ec2 <__aeabi_dsub+0x54e>
    7ec0:	e082      	b.n	7fc8 <__aeabi_dsub+0x654>
    7ec2:	000a      	movs	r2, r1
    7ec4:	4302      	orrs	r2, r0
    7ec6:	d140      	bne.n	7f4a <__aeabi_dsub+0x5d6>
    7ec8:	2380      	movs	r3, #128	; 0x80
    7eca:	2500      	movs	r5, #0
    7ecc:	031b      	lsls	r3, r3, #12
    7ece:	e713      	b.n	7cf8 <__aeabi_dsub+0x384>
    7ed0:	074b      	lsls	r3, r1, #29
    7ed2:	08c2      	lsrs	r2, r0, #3
    7ed4:	431a      	orrs	r2, r3
    7ed6:	465d      	mov	r5, fp
    7ed8:	08cb      	lsrs	r3, r1, #3
    7eda:	e6c5      	b.n	7c68 <__aeabi_dsub+0x2f4>
    7edc:	464a      	mov	r2, r9
    7ede:	1a84      	subs	r4, r0, r2
    7ee0:	42a0      	cmp	r0, r4
    7ee2:	4192      	sbcs	r2, r2
    7ee4:	1acb      	subs	r3, r1, r3
    7ee6:	4252      	negs	r2, r2
    7ee8:	1a9b      	subs	r3, r3, r2
    7eea:	4698      	mov	r8, r3
    7eec:	465d      	mov	r5, fp
    7eee:	e59e      	b.n	7a2e <__aeabi_dsub+0xba>
    7ef0:	464a      	mov	r2, r9
    7ef2:	0759      	lsls	r1, r3, #29
    7ef4:	08d2      	lsrs	r2, r2, #3
    7ef6:	430a      	orrs	r2, r1
    7ef8:	08db      	lsrs	r3, r3, #3
    7efa:	e6f9      	b.n	7cf0 <__aeabi_dsub+0x37c>
    7efc:	464a      	mov	r2, r9
    7efe:	1a14      	subs	r4, r2, r0
    7f00:	45a1      	cmp	r9, r4
    7f02:	4192      	sbcs	r2, r2
    7f04:	1a5b      	subs	r3, r3, r1
    7f06:	4252      	negs	r2, r2
    7f08:	1a9b      	subs	r3, r3, r2
    7f0a:	4698      	mov	r8, r3
    7f0c:	2601      	movs	r6, #1
    7f0e:	e586      	b.n	7a1e <__aeabi_dsub+0xaa>
    7f10:	464a      	mov	r2, r9
    7f12:	0759      	lsls	r1, r3, #29
    7f14:	08d2      	lsrs	r2, r2, #3
    7f16:	430a      	orrs	r2, r1
    7f18:	08db      	lsrs	r3, r3, #3
    7f1a:	e6a5      	b.n	7c68 <__aeabi_dsub+0x2f4>
    7f1c:	464c      	mov	r4, r9
    7f1e:	4323      	orrs	r3, r4
    7f20:	001c      	movs	r4, r3
    7f22:	1e63      	subs	r3, r4, #1
    7f24:	419c      	sbcs	r4, r3
    7f26:	e65b      	b.n	7be0 <__aeabi_dsub+0x26c>
    7f28:	4665      	mov	r5, ip
    7f2a:	001e      	movs	r6, r3
    7f2c:	3d20      	subs	r5, #32
    7f2e:	40ee      	lsrs	r6, r5
    7f30:	2c20      	cmp	r4, #32
    7f32:	d005      	beq.n	7f40 <__aeabi_dsub+0x5cc>
    7f34:	2540      	movs	r5, #64	; 0x40
    7f36:	1b2d      	subs	r5, r5, r4
    7f38:	40ab      	lsls	r3, r5
    7f3a:	464c      	mov	r4, r9
    7f3c:	431c      	orrs	r4, r3
    7f3e:	46a2      	mov	sl, r4
    7f40:	4654      	mov	r4, sl
    7f42:	1e63      	subs	r3, r4, #1
    7f44:	419c      	sbcs	r4, r3
    7f46:	4334      	orrs	r4, r6
    7f48:	e77d      	b.n	7e46 <__aeabi_dsub+0x4d2>
    7f4a:	074b      	lsls	r3, r1, #29
    7f4c:	08c2      	lsrs	r2, r0, #3
    7f4e:	431a      	orrs	r2, r3
    7f50:	465d      	mov	r5, fp
    7f52:	08cb      	lsrs	r3, r1, #3
    7f54:	e6cc      	b.n	7cf0 <__aeabi_dsub+0x37c>
    7f56:	000a      	movs	r2, r1
    7f58:	4302      	orrs	r2, r0
    7f5a:	d100      	bne.n	7f5e <__aeabi_dsub+0x5ea>
    7f5c:	e736      	b.n	7dcc <__aeabi_dsub+0x458>
    7f5e:	074b      	lsls	r3, r1, #29
    7f60:	08c2      	lsrs	r2, r0, #3
    7f62:	431a      	orrs	r2, r3
    7f64:	465d      	mov	r5, fp
    7f66:	08cb      	lsrs	r3, r1, #3
    7f68:	e681      	b.n	7c6e <__aeabi_dsub+0x2fa>
    7f6a:	464a      	mov	r2, r9
    7f6c:	1a84      	subs	r4, r0, r2
    7f6e:	42a0      	cmp	r0, r4
    7f70:	4192      	sbcs	r2, r2
    7f72:	1acb      	subs	r3, r1, r3
    7f74:	4252      	negs	r2, r2
    7f76:	1a9b      	subs	r3, r3, r2
    7f78:	4698      	mov	r8, r3
    7f7a:	465d      	mov	r5, fp
    7f7c:	2601      	movs	r6, #1
    7f7e:	e54e      	b.n	7a1e <__aeabi_dsub+0xaa>
    7f80:	074b      	lsls	r3, r1, #29
    7f82:	08c2      	lsrs	r2, r0, #3
    7f84:	431a      	orrs	r2, r3
    7f86:	08cb      	lsrs	r3, r1, #3
    7f88:	e6b2      	b.n	7cf0 <__aeabi_dsub+0x37c>
    7f8a:	464a      	mov	r2, r9
    7f8c:	1a14      	subs	r4, r2, r0
    7f8e:	45a1      	cmp	r9, r4
    7f90:	4192      	sbcs	r2, r2
    7f92:	1a5f      	subs	r7, r3, r1
    7f94:	4252      	negs	r2, r2
    7f96:	1aba      	subs	r2, r7, r2
    7f98:	4690      	mov	r8, r2
    7f9a:	0212      	lsls	r2, r2, #8
    7f9c:	d56b      	bpl.n	8076 <__aeabi_dsub+0x702>
    7f9e:	464a      	mov	r2, r9
    7fa0:	1a84      	subs	r4, r0, r2
    7fa2:	42a0      	cmp	r0, r4
    7fa4:	4192      	sbcs	r2, r2
    7fa6:	1acb      	subs	r3, r1, r3
    7fa8:	4252      	negs	r2, r2
    7faa:	1a9b      	subs	r3, r3, r2
    7fac:	4698      	mov	r8, r3
    7fae:	465d      	mov	r5, fp
    7fb0:	e564      	b.n	7a7c <__aeabi_dsub+0x108>
    7fb2:	074b      	lsls	r3, r1, #29
    7fb4:	08c2      	lsrs	r2, r0, #3
    7fb6:	431a      	orrs	r2, r3
    7fb8:	465d      	mov	r5, fp
    7fba:	08cb      	lsrs	r3, r1, #3
    7fbc:	e698      	b.n	7cf0 <__aeabi_dsub+0x37c>
    7fbe:	074b      	lsls	r3, r1, #29
    7fc0:	08c2      	lsrs	r2, r0, #3
    7fc2:	431a      	orrs	r2, r3
    7fc4:	08cb      	lsrs	r3, r1, #3
    7fc6:	e64f      	b.n	7c68 <__aeabi_dsub+0x2f4>
    7fc8:	000a      	movs	r2, r1
    7fca:	4302      	orrs	r2, r0
    7fcc:	d090      	beq.n	7ef0 <__aeabi_dsub+0x57c>
    7fce:	464a      	mov	r2, r9
    7fd0:	075c      	lsls	r4, r3, #29
    7fd2:	08d2      	lsrs	r2, r2, #3
    7fd4:	4314      	orrs	r4, r2
    7fd6:	2280      	movs	r2, #128	; 0x80
    7fd8:	08db      	lsrs	r3, r3, #3
    7fda:	0312      	lsls	r2, r2, #12
    7fdc:	4213      	tst	r3, r2
    7fde:	d008      	beq.n	7ff2 <__aeabi_dsub+0x67e>
    7fe0:	08ce      	lsrs	r6, r1, #3
    7fe2:	4216      	tst	r6, r2
    7fe4:	d105      	bne.n	7ff2 <__aeabi_dsub+0x67e>
    7fe6:	08c0      	lsrs	r0, r0, #3
    7fe8:	0749      	lsls	r1, r1, #29
    7fea:	4308      	orrs	r0, r1
    7fec:	0004      	movs	r4, r0
    7fee:	465d      	mov	r5, fp
    7ff0:	0033      	movs	r3, r6
    7ff2:	0f61      	lsrs	r1, r4, #29
    7ff4:	00e2      	lsls	r2, r4, #3
    7ff6:	0749      	lsls	r1, r1, #29
    7ff8:	08d2      	lsrs	r2, r2, #3
    7ffa:	430a      	orrs	r2, r1
    7ffc:	e678      	b.n	7cf0 <__aeabi_dsub+0x37c>
    7ffe:	074b      	lsls	r3, r1, #29
    8000:	08c2      	lsrs	r2, r0, #3
    8002:	431a      	orrs	r2, r3
    8004:	08cb      	lsrs	r3, r1, #3
    8006:	e632      	b.n	7c6e <__aeabi_dsub+0x2fa>
    8008:	4448      	add	r0, r9
    800a:	185b      	adds	r3, r3, r1
    800c:	4548      	cmp	r0, r9
    800e:	4192      	sbcs	r2, r2
    8010:	4698      	mov	r8, r3
    8012:	4252      	negs	r2, r2
    8014:	4490      	add	r8, r2
    8016:	4643      	mov	r3, r8
    8018:	0004      	movs	r4, r0
    801a:	021b      	lsls	r3, r3, #8
    801c:	d400      	bmi.n	8020 <__aeabi_dsub+0x6ac>
    801e:	e61a      	b.n	7c56 <__aeabi_dsub+0x2e2>
    8020:	4642      	mov	r2, r8
    8022:	4b0e      	ldr	r3, [pc, #56]	; (805c <__aeabi_dsub+0x6e8>)
    8024:	2601      	movs	r6, #1
    8026:	401a      	ands	r2, r3
    8028:	4690      	mov	r8, r2
    802a:	e614      	b.n	7c56 <__aeabi_dsub+0x2e2>
    802c:	4666      	mov	r6, ip
    802e:	001f      	movs	r7, r3
    8030:	3e20      	subs	r6, #32
    8032:	40f7      	lsrs	r7, r6
    8034:	2c20      	cmp	r4, #32
    8036:	d005      	beq.n	8044 <__aeabi_dsub+0x6d0>
    8038:	2640      	movs	r6, #64	; 0x40
    803a:	1b36      	subs	r6, r6, r4
    803c:	40b3      	lsls	r3, r6
    803e:	464c      	mov	r4, r9
    8040:	431c      	orrs	r4, r3
    8042:	46a2      	mov	sl, r4
    8044:	4654      	mov	r4, sl
    8046:	1e63      	subs	r3, r4, #1
    8048:	419c      	sbcs	r4, r3
    804a:	433c      	orrs	r4, r7
    804c:	e5c8      	b.n	7be0 <__aeabi_dsub+0x26c>
    804e:	0011      	movs	r1, r2
    8050:	2300      	movs	r3, #0
    8052:	2200      	movs	r2, #0
    8054:	e532      	b.n	7abc <__aeabi_dsub+0x148>
    8056:	46c0      	nop			; (mov r8, r8)
    8058:	000007ff 	.word	0x000007ff
    805c:	ff7fffff 	.word	0xff7fffff
    8060:	000007fe 	.word	0x000007fe
    8064:	464a      	mov	r2, r9
    8066:	1814      	adds	r4, r2, r0
    8068:	4284      	cmp	r4, r0
    806a:	4192      	sbcs	r2, r2
    806c:	185b      	adds	r3, r3, r1
    806e:	4698      	mov	r8, r3
    8070:	4252      	negs	r2, r2
    8072:	4490      	add	r8, r2
    8074:	e5e9      	b.n	7c4a <__aeabi_dsub+0x2d6>
    8076:	4642      	mov	r2, r8
    8078:	4322      	orrs	r2, r4
    807a:	d100      	bne.n	807e <__aeabi_dsub+0x70a>
    807c:	e6a6      	b.n	7dcc <__aeabi_dsub+0x458>
    807e:	e5ea      	b.n	7c56 <__aeabi_dsub+0x2e2>
    8080:	074b      	lsls	r3, r1, #29
    8082:	08c2      	lsrs	r2, r0, #3
    8084:	431a      	orrs	r2, r3
    8086:	08cb      	lsrs	r3, r1, #3
    8088:	e632      	b.n	7cf0 <__aeabi_dsub+0x37c>
    808a:	2200      	movs	r2, #0
    808c:	4901      	ldr	r1, [pc, #4]	; (8094 <__aeabi_dsub+0x720>)
    808e:	0013      	movs	r3, r2
    8090:	e514      	b.n	7abc <__aeabi_dsub+0x148>
    8092:	46c0      	nop			; (mov r8, r8)
    8094:	000007ff 	.word	0x000007ff

00008098 <__aeabi_d2iz>:
__aeabi_d2iz():
    8098:	000a      	movs	r2, r1
    809a:	b530      	push	{r4, r5, lr}
    809c:	4c13      	ldr	r4, [pc, #76]	; (80ec <__aeabi_d2iz+0x54>)
    809e:	0053      	lsls	r3, r2, #1
    80a0:	0309      	lsls	r1, r1, #12
    80a2:	0005      	movs	r5, r0
    80a4:	0b09      	lsrs	r1, r1, #12
    80a6:	2000      	movs	r0, #0
    80a8:	0d5b      	lsrs	r3, r3, #21
    80aa:	0fd2      	lsrs	r2, r2, #31
    80ac:	42a3      	cmp	r3, r4
    80ae:	dd04      	ble.n	80ba <__aeabi_d2iz+0x22>
    80b0:	480f      	ldr	r0, [pc, #60]	; (80f0 <__aeabi_d2iz+0x58>)
    80b2:	4283      	cmp	r3, r0
    80b4:	dd02      	ble.n	80bc <__aeabi_d2iz+0x24>
    80b6:	4b0f      	ldr	r3, [pc, #60]	; (80f4 <__aeabi_d2iz+0x5c>)
    80b8:	18d0      	adds	r0, r2, r3
    80ba:	bd30      	pop	{r4, r5, pc}
    80bc:	2080      	movs	r0, #128	; 0x80
    80be:	0340      	lsls	r0, r0, #13
    80c0:	4301      	orrs	r1, r0
    80c2:	480d      	ldr	r0, [pc, #52]	; (80f8 <__aeabi_d2iz+0x60>)
    80c4:	1ac0      	subs	r0, r0, r3
    80c6:	281f      	cmp	r0, #31
    80c8:	dd08      	ble.n	80dc <__aeabi_d2iz+0x44>
    80ca:	480c      	ldr	r0, [pc, #48]	; (80fc <__aeabi_d2iz+0x64>)
    80cc:	1ac3      	subs	r3, r0, r3
    80ce:	40d9      	lsrs	r1, r3
    80d0:	000b      	movs	r3, r1
    80d2:	4258      	negs	r0, r3
    80d4:	2a00      	cmp	r2, #0
    80d6:	d1f0      	bne.n	80ba <__aeabi_d2iz+0x22>
    80d8:	0018      	movs	r0, r3
    80da:	e7ee      	b.n	80ba <__aeabi_d2iz+0x22>
    80dc:	4c08      	ldr	r4, [pc, #32]	; (8100 <__aeabi_d2iz+0x68>)
    80de:	40c5      	lsrs	r5, r0
    80e0:	46a4      	mov	ip, r4
    80e2:	4463      	add	r3, ip
    80e4:	4099      	lsls	r1, r3
    80e6:	000b      	movs	r3, r1
    80e8:	432b      	orrs	r3, r5
    80ea:	e7f2      	b.n	80d2 <__aeabi_d2iz+0x3a>
    80ec:	000003fe 	.word	0x000003fe
    80f0:	0000041d 	.word	0x0000041d
    80f4:	7fffffff 	.word	0x7fffffff
    80f8:	00000433 	.word	0x00000433
    80fc:	00000413 	.word	0x00000413
    8100:	fffffbed 	.word	0xfffffbed

00008104 <__aeabi_ui2d>:
__aeabi_ui2d():
    8104:	b510      	push	{r4, lr}
    8106:	1e04      	subs	r4, r0, #0
    8108:	d010      	beq.n	812c <__aeabi_ui2d+0x28>
    810a:	f000 f821 	bl	8150 <__clzsi2>
    810e:	4b0f      	ldr	r3, [pc, #60]	; (814c <__aeabi_ui2d+0x48>)
    8110:	1a1b      	subs	r3, r3, r0
    8112:	280a      	cmp	r0, #10
    8114:	dc11      	bgt.n	813a <__aeabi_ui2d+0x36>
    8116:	220b      	movs	r2, #11
    8118:	0021      	movs	r1, r4
    811a:	1a12      	subs	r2, r2, r0
    811c:	40d1      	lsrs	r1, r2
    811e:	3015      	adds	r0, #21
    8120:	030a      	lsls	r2, r1, #12
    8122:	055b      	lsls	r3, r3, #21
    8124:	4084      	lsls	r4, r0
    8126:	0b12      	lsrs	r2, r2, #12
    8128:	0d5b      	lsrs	r3, r3, #21
    812a:	e001      	b.n	8130 <__aeabi_ui2d+0x2c>
    812c:	2300      	movs	r3, #0
    812e:	2200      	movs	r2, #0
    8130:	051b      	lsls	r3, r3, #20
    8132:	4313      	orrs	r3, r2
    8134:	0020      	movs	r0, r4
    8136:	0019      	movs	r1, r3
    8138:	bd10      	pop	{r4, pc}
    813a:	0022      	movs	r2, r4
    813c:	380b      	subs	r0, #11
    813e:	4082      	lsls	r2, r0
    8140:	055b      	lsls	r3, r3, #21
    8142:	0312      	lsls	r2, r2, #12
    8144:	2400      	movs	r4, #0
    8146:	0b12      	lsrs	r2, r2, #12
    8148:	0d5b      	lsrs	r3, r3, #21
    814a:	e7f1      	b.n	8130 <__aeabi_ui2d+0x2c>
    814c:	0000041e 	.word	0x0000041e

00008150 <__clzsi2>:
__clzsi2():
    8150:	211c      	movs	r1, #28
    8152:	2301      	movs	r3, #1
    8154:	041b      	lsls	r3, r3, #16
    8156:	4298      	cmp	r0, r3
    8158:	d301      	bcc.n	815e <__clzsi2+0xe>
    815a:	0c00      	lsrs	r0, r0, #16
    815c:	3910      	subs	r1, #16
    815e:	0a1b      	lsrs	r3, r3, #8
    8160:	4298      	cmp	r0, r3
    8162:	d301      	bcc.n	8168 <__clzsi2+0x18>
    8164:	0a00      	lsrs	r0, r0, #8
    8166:	3908      	subs	r1, #8
    8168:	091b      	lsrs	r3, r3, #4
    816a:	4298      	cmp	r0, r3
    816c:	d301      	bcc.n	8172 <__clzsi2+0x22>
    816e:	0900      	lsrs	r0, r0, #4
    8170:	3904      	subs	r1, #4
    8172:	a202      	add	r2, pc, #8	; (adr r2, 817c <__clzsi2+0x2c>)
    8174:	5c10      	ldrb	r0, [r2, r0]
    8176:	1840      	adds	r0, r0, r1
    8178:	4770      	bx	lr
    817a:	46c0      	nop			; (mov r8, r8)
    817c:	02020304 	.word	0x02020304
    8180:	01010101 	.word	0x01010101
	...

0000818c <__clzdi2>:
__clzdi2():
    818c:	b510      	push	{r4, lr}
    818e:	2900      	cmp	r1, #0
    8190:	d103      	bne.n	819a <__clzdi2+0xe>
    8192:	f7ff ffdd 	bl	8150 <__clzsi2>
    8196:	3020      	adds	r0, #32
    8198:	e002      	b.n	81a0 <__clzdi2+0x14>
    819a:	1c08      	adds	r0, r1, #0
    819c:	f7ff ffd8 	bl	8150 <__clzsi2>
    81a0:	bd10      	pop	{r4, pc}
    81a2:	46c0      	nop			; (mov r8, r8)

000081a4 <strlen>:
strlen():
    81a4:	2300      	movs	r3, #0
    81a6:	5cc2      	ldrb	r2, [r0, r3]
    81a8:	3301      	adds	r3, #1
    81aa:	2a00      	cmp	r2, #0
    81ac:	d1fb      	bne.n	81a6 <strlen+0x2>
    81ae:	1e58      	subs	r0, r3, #1
    81b0:	4770      	bx	lr
	...

000081b4 <SystemInit>:
SystemInit():
F:\WorkSpace\AHL-GEC-EXP\Temp\LCD\Debug/srcc/system_MKL36Z4.c:112
    //看门狗默认为开启，而且复位之后只能开启或关闭看门狗一次
    //SIM_COPC &= ~SIM_COPC_COPT_MASK;    //DISABLE_WDOG 

    /* System clock initialization */
    /* SIM_CLKDIV1: OUTDIV1=0,??=0,??=0,??=0,??=0,??=0,??=0,??=0,??=0,??=0,OUTDIV4=3,??=0,??=0,??=0,??=0,??=0,??=0,??=0,??=0,??=0,??=0,??=0,??=0,??=0,??=0,??=0,??=0 */
    SIM_CLKDIV1 = (SIM_CLKDIV1_OUTDIV1(0x00) | SIM_CLKDIV1_OUTDIV4(0x03)); /* Set the system prescalers to safe value */
    81b4:	493b      	ldr	r1, [pc, #236]	; (82a4 <SystemInit+0xf0>)
    81b6:	4a3c      	ldr	r2, [pc, #240]	; (82a8 <SystemInit+0xf4>)
    81b8:	23c0      	movs	r3, #192	; 0xc0
    81ba:	029b      	lsls	r3, r3, #10
    81bc:	508b      	str	r3, [r1, r2]
F:\WorkSpace\AHL-GEC-EXP\Temp\LCD\Debug/srcc/system_MKL36Z4.c:114
    /* SIM_SCGC5: PORTA=1 */
    SIM_SCGC5 |= SIM_SCGC5_PORTA_MASK;   /* Enable clock gate for ports to enable pin routing */
    81be:	4a39      	ldr	r2, [pc, #228]	; (82a4 <SystemInit+0xf0>)
    81c0:	4b3a      	ldr	r3, [pc, #232]	; (82ac <SystemInit+0xf8>)
    81c2:	58d3      	ldr	r3, [r2, r3]
    81c4:	4937      	ldr	r1, [pc, #220]	; (82a4 <SystemInit+0xf0>)
    81c6:	2280      	movs	r2, #128	; 0x80
    81c8:	0092      	lsls	r2, r2, #2
    81ca:	4313      	orrs	r3, r2
    81cc:	4a37      	ldr	r2, [pc, #220]	; (82ac <SystemInit+0xf8>)
    81ce:	508b      	str	r3, [r1, r2]
F:\WorkSpace\AHL-GEC-EXP\Temp\LCD\Debug/srcc/system_MKL36Z4.c:115
    if ((PMC_REGSC & PMC_REGSC_ACKISO_MASK) != 0x0U) {
    81d0:	4b37      	ldr	r3, [pc, #220]	; (82b0 <SystemInit+0xfc>)
    81d2:	789b      	ldrb	r3, [r3, #2]
    81d4:	b2db      	uxtb	r3, r3
    81d6:	001a      	movs	r2, r3
    81d8:	2308      	movs	r3, #8
    81da:	4013      	ands	r3, r2
    81dc:	d007      	beq.n	81ee <SystemInit+0x3a>
F:\WorkSpace\AHL-GEC-EXP\Temp\LCD\Debug/srcc/system_MKL36Z4.c:117
        /* PMC_REGSC: ACKISO=1 */
        PMC_REGSC |= PMC_REGSC_ACKISO_MASK; /* Release IO pads after wakeup from VLLS mode. */
    81de:	4b34      	ldr	r3, [pc, #208]	; (82b0 <SystemInit+0xfc>)
    81e0:	789b      	ldrb	r3, [r3, #2]
    81e2:	b2db      	uxtb	r3, r3
    81e4:	4a32      	ldr	r2, [pc, #200]	; (82b0 <SystemInit+0xfc>)
    81e6:	2108      	movs	r1, #8
    81e8:	430b      	orrs	r3, r1
    81ea:	b2db      	uxtb	r3, r3
    81ec:	7093      	strb	r3, [r2, #2]
F:\WorkSpace\AHL-GEC-EXP\Temp\LCD\Debug/srcc/system_MKL36Z4.c:120
    }
    /* SIM_CLKDIV1: OUTDIV1=0,??=0,??=0,??=0,??=0,??=0,??=0,??=0,??=0,??=0,OUTDIV4=1,??=0,??=0,??=0,??=0,??=0,??=0,??=0,??=0,??=0,??=0,??=0,??=0,??=0,??=0,??=0,??=0 */
    SIM_CLKDIV1 = (SIM_CLKDIV1_OUTDIV1(0x00) | SIM_CLKDIV1_OUTDIV4(0x01)); /* Update system prescalers */
    81ee:	492d      	ldr	r1, [pc, #180]	; (82a4 <SystemInit+0xf0>)
    81f0:	4a2d      	ldr	r2, [pc, #180]	; (82a8 <SystemInit+0xf4>)
    81f2:	2380      	movs	r3, #128	; 0x80
    81f4:	025b      	lsls	r3, r3, #9
    81f6:	508b      	str	r3, [r1, r2]
F:\WorkSpace\AHL-GEC-EXP\Temp\LCD\Debug/srcc/system_MKL36Z4.c:122
    /* SIM_SOPT2: ??=0,PLLFLLSEL=0 */
    SIM_SOPT2 &= (uint32_t)~(uint32_t)((SIM_SOPT2_PLLFLLSEL_MASK | 0x00020000U)); /* Select FLL as a clock source for various peripherals */
    81f8:	4a2a      	ldr	r2, [pc, #168]	; (82a4 <SystemInit+0xf0>)
    81fa:	4b2e      	ldr	r3, [pc, #184]	; (82b4 <SystemInit+0x100>)
    81fc:	58d3      	ldr	r3, [r2, r3]
    81fe:	4929      	ldr	r1, [pc, #164]	; (82a4 <SystemInit+0xf0>)
    8200:	4a2d      	ldr	r2, [pc, #180]	; (82b8 <SystemInit+0x104>)
    8202:	4013      	ands	r3, r2
    8204:	4a2b      	ldr	r2, [pc, #172]	; (82b4 <SystemInit+0x100>)
    8206:	508b      	str	r3, [r1, r2]
F:\WorkSpace\AHL-GEC-EXP\Temp\LCD\Debug/srcc/system_MKL36Z4.c:124
    /* SIM_SOPT1: OSC32KSEL=0 */
    SIM_SOPT1 &= (uint32_t)~(uint32_t)(SIM_SOPT1_OSC32KSEL(0x03)); /* System oscillator drives 32 kHz clock for various peripherals */
    8208:	4b26      	ldr	r3, [pc, #152]	; (82a4 <SystemInit+0xf0>)
    820a:	681a      	ldr	r2, [r3, #0]
    820c:	4b25      	ldr	r3, [pc, #148]	; (82a4 <SystemInit+0xf0>)
    820e:	492b      	ldr	r1, [pc, #172]	; (82bc <SystemInit+0x108>)
    8210:	400a      	ands	r2, r1
    8212:	601a      	str	r2, [r3, #0]
F:\WorkSpace\AHL-GEC-EXP\Temp\LCD\Debug/srcc/system_MKL36Z4.c:126
    /* SIM_SOPT2: TPMSRC=1 */
    SIM_SOPT2 = (uint32_t)((SIM_SOPT2 & (uint32_t)~(uint32_t)(
    8214:	4a23      	ldr	r2, [pc, #140]	; (82a4 <SystemInit+0xf0>)
    8216:	4b27      	ldr	r3, [pc, #156]	; (82b4 <SystemInit+0x100>)
    8218:	58d3      	ldr	r3, [r2, r3]
    821a:	4a29      	ldr	r2, [pc, #164]	; (82c0 <SystemInit+0x10c>)
    821c:	4013      	ands	r3, r2
    821e:	4921      	ldr	r1, [pc, #132]	; (82a4 <SystemInit+0xf0>)
    8220:	2280      	movs	r2, #128	; 0x80
    8222:	0452      	lsls	r2, r2, #17
    8224:	4313      	orrs	r3, r2
    8226:	4a23      	ldr	r2, [pc, #140]	; (82b4 <SystemInit+0x100>)
    8228:	508b      	str	r3, [r1, r2]
F:\WorkSpace\AHL-GEC-EXP\Temp\LCD\Debug/srcc/system_MKL36Z4.c:133
    )) | (uint32_t)(
            SIM_SOPT2_TPMSRC(0x01)
    ));                      /* Set the TPM clock */
    /* Switch to FEI Mode */
    /* MCG_C1: CLKS=0,FRDIV=0,IREFS=1,IRCLKEN=1,IREFSTEN=0 */
    MCG_C1 = MCG_C1_CLKS(0x00) |
    822a:	4b26      	ldr	r3, [pc, #152]	; (82c4 <SystemInit+0x110>)
    822c:	2206      	movs	r2, #6
    822e:	701a      	strb	r2, [r3, #0]
F:\WorkSpace\AHL-GEC-EXP\Temp\LCD\Debug/srcc/system_MKL36Z4.c:138
            MCG_C1_FRDIV(0x00) |
            MCG_C1_IREFS_MASK |
            MCG_C1_IRCLKEN_MASK;
    /* MCG_C2: LOCRE0=0,RANGE0=0,HGO0=0,EREFS0=0,LP=0,IRCS=0 */
    MCG_C2 &= (uint8_t)~(uint8_t)(
    8230:	4b24      	ldr	r3, [pc, #144]	; (82c4 <SystemInit+0x110>)
    8232:	785b      	ldrb	r3, [r3, #1]
    8234:	b2db      	uxtb	r3, r3
    8236:	4a23      	ldr	r2, [pc, #140]	; (82c4 <SystemInit+0x110>)
    8238:	2140      	movs	r1, #64	; 0x40
    823a:	400b      	ands	r3, r1
    823c:	b2db      	uxtb	r3, r3
    823e:	7053      	strb	r3, [r2, #1]
F:\WorkSpace\AHL-GEC-EXP\Temp\LCD\Debug/srcc/system_MKL36Z4.c:147
            MCG_C2_EREFS0_MASK |
            MCG_C2_LP_MASK |
            MCG_C2_IRCS_MASK
    );
    /* MCG_C4: DMX32=1,DRST_DRS=1 */
    MCG_C4 = (uint8_t)((MCG_C4 & (uint8_t)~(uint8_t)(
    8240:	4b20      	ldr	r3, [pc, #128]	; (82c4 <SystemInit+0x110>)
    8242:	78db      	ldrb	r3, [r3, #3]
    8244:	b2db      	uxtb	r3, r3
    8246:	b25b      	sxtb	r3, r3
F:\WorkSpace\AHL-GEC-EXP\Temp\LCD\Debug/srcc/system_MKL36Z4.c:149
            MCG_C4_DRST_DRS(0x02)
    )) | (uint8_t)(
    8248:	221f      	movs	r2, #31
    824a:	4013      	ands	r3, r2
    824c:	b25b      	sxtb	r3, r3
    824e:	2260      	movs	r2, #96	; 0x60
    8250:	4252      	negs	r2, r2
    8252:	4313      	orrs	r3, r2
    8254:	b25a      	sxtb	r2, r3
F:\WorkSpace\AHL-GEC-EXP\Temp\LCD\Debug/srcc/system_MKL36Z4.c:147
    MCG_C4 = (uint8_t)((MCG_C4 & (uint8_t)~(uint8_t)(
    8256:	4b1b      	ldr	r3, [pc, #108]	; (82c4 <SystemInit+0x110>)
    8258:	b2d2      	uxtb	r2, r2
    825a:	70da      	strb	r2, [r3, #3]
F:\WorkSpace\AHL-GEC-EXP\Temp\LCD\Debug/srcc/system_MKL36Z4.c:154
            MCG_C4_DMX32_MASK |
            MCG_C4_DRST_DRS(0x01)
    ));
    /* OSC0_CR: ERCLKEN=0,??=0,EREFSTEN=0,??=0,SC2P=0,SC4P=0,SC8P=0,SC16P=0 */
    OSC0_CR = 0x00U;
    825c:	4b1a      	ldr	r3, [pc, #104]	; (82c8 <SystemInit+0x114>)
    825e:	2200      	movs	r2, #0
    8260:	701a      	strb	r2, [r3, #0]
F:\WorkSpace\AHL-GEC-EXP\Temp\LCD\Debug/srcc/system_MKL36Z4.c:156
    /* MCG_C5: ??=0,PLLCLKEN0=0,PLLSTEN0=0,PRDIV0=0 */
    MCG_C5 = MCG_C5_PRDIV0(0x00);
    8262:	4b18      	ldr	r3, [pc, #96]	; (82c4 <SystemInit+0x110>)
    8264:	2200      	movs	r2, #0
    8266:	711a      	strb	r2, [r3, #4]
F:\WorkSpace\AHL-GEC-EXP\Temp\LCD\Debug/srcc/system_MKL36Z4.c:158
    /* MCG_C6: LOLIE0=0,PLLS=0,CME0=0,VDIV0=0 */
    MCG_C6 = MCG_C6_VDIV0(0x00);
    8268:	4b16      	ldr	r3, [pc, #88]	; (82c4 <SystemInit+0x110>)
    826a:	2200      	movs	r2, #0
    826c:	715a      	strb	r2, [r3, #5]
F:\WorkSpace\AHL-GEC-EXP\Temp\LCD\Debug/srcc/system_MKL36Z4.c:159
    while((MCG_S & MCG_S_IREFST_MASK) == 0x00U) { /* Check that the source of the FLL reference clock is the internal reference clock. */
    826e:	46c0      	nop			; (mov r8, r8)
F:\WorkSpace\AHL-GEC-EXP\Temp\LCD\Debug/srcc/system_MKL36Z4.c:159 (discriminator 1)
    8270:	4b14      	ldr	r3, [pc, #80]	; (82c4 <SystemInit+0x110>)
    8272:	799b      	ldrb	r3, [r3, #6]
    8274:	b2db      	uxtb	r3, r3
    8276:	001a      	movs	r2, r3
    8278:	2310      	movs	r3, #16
    827a:	4013      	ands	r3, r2
    827c:	d0f8      	beq.n	8270 <SystemInit+0xbc>
F:\WorkSpace\AHL-GEC-EXP\Temp\LCD\Debug/srcc/system_MKL36Z4.c:161
    }
    while((MCG_S & 0x0CU) != 0x00U) {    /* Wait until output of the FLL is selected */
    827e:	46c0      	nop			; (mov r8, r8)
F:\WorkSpace\AHL-GEC-EXP\Temp\LCD\Debug/srcc/system_MKL36Z4.c:161 (discriminator 1)
    8280:	4b10      	ldr	r3, [pc, #64]	; (82c4 <SystemInit+0x110>)
    8282:	799b      	ldrb	r3, [r3, #6]
    8284:	b2db      	uxtb	r3, r3
    8286:	001a      	movs	r2, r3
    8288:	230c      	movs	r3, #12
    828a:	4013      	ands	r3, r2
    828c:	d1f8      	bne.n	8280 <SystemInit+0xcc>
F:\WorkSpace\AHL-GEC-EXP\Temp\LCD\Debug/srcc/system_MKL36Z4.c:234
    //        if (((MCG_S & MCG_S_CLKST_MASK) >> MCG_S_CLKST_SHIFT) == 0x3) break;
    //    }
    //    //4.现在处于PEE模式

    //开启PORT模块时钟
    SIM->SCGC5 |= SIM_SCGC5_PORTA_MASK
    828e:	4a05      	ldr	r2, [pc, #20]	; (82a4 <SystemInit+0xf0>)
    8290:	4b06      	ldr	r3, [pc, #24]	; (82ac <SystemInit+0xf8>)
    8292:	58d3      	ldr	r3, [r2, r3]
    8294:	4903      	ldr	r1, [pc, #12]	; (82a4 <SystemInit+0xf0>)
    8296:	22f8      	movs	r2, #248	; 0xf8
    8298:	0192      	lsls	r2, r2, #6
    829a:	4313      	orrs	r3, r2
    829c:	4a03      	ldr	r2, [pc, #12]	; (82ac <SystemInit+0xf8>)
    829e:	508b      	str	r3, [r1, r2]
F:\WorkSpace\AHL-GEC-EXP\Temp\LCD\Debug/srcc/system_MKL36Z4.c:239
            | SIM_SCGC5_PORTB_MASK
            | SIM_SCGC5_PORTC_MASK
            | SIM_SCGC5_PORTD_MASK
            | SIM_SCGC5_PORTE_MASK;
}
    82a0:	46c0      	nop			; (mov r8, r8)
    82a2:	4770      	bx	lr
    82a4:	40047000 	.word	0x40047000
    82a8:	00001044 	.word	0x00001044
    82ac:	00001038 	.word	0x00001038
    82b0:	4007d000 	.word	0x4007d000
    82b4:	00001004 	.word	0x00001004
    82b8:	fffcffff 	.word	0xfffcffff
    82bc:	fff3ffff 	.word	0xfff3ffff
    82c0:	fcffffff 	.word	0xfcffffff
    82c4:	40064000 	.word	0x40064000
    82c8:	40065000 	.word	0x40065000

000082cc <main>:
main():
F:\WorkSpace\AHL-GEC-EXP\Temp\LCD\Debug/srcc/main.c:18
//main.c使用的内部函数声明处

//----------------------------------------------------------------------
//主函数，一般情况下可以认为程序从此开始运行（实际上有启动过程见书稿）
int main(void)
{
    82cc:	b500      	push	{lr}
    82ce:	b083      	sub	sp, #12
F:\WorkSpace\AHL-GEC-EXP\Temp\LCD\Debug/srcc/main.c:20
    //（1.2）【不变】关总中断
    DISABLE_INTERRUPTS;
    82d0:	b672      	cpsid	i
F:\WorkSpace\AHL-GEC-EXP\Temp\LCD\Debug/srcc/main.c:21
    wdog_stop();
    82d2:	f000 feeb 	bl	90ac <wdog_stop>
F:\WorkSpace\AHL-GEC-EXP\Temp\LCD\Debug/srcc/main.c:24

    // 初始化发送串口和接收串口
    suart_init(SUART_TX, SUART_SEND);
    82d6:	2380      	movs	r3, #128	; 0x80
    82d8:	009b      	lsls	r3, r3, #2
    82da:	2101      	movs	r1, #1
    82dc:	0018      	movs	r0, r3
    82de:	f000 fa53 	bl	8788 <suart_init>
F:\WorkSpace\AHL-GEC-EXP\Temp\LCD\Debug/srcc/main.c:25
    suart_init(SUART_RX, SUART_RECEVIE);
    82e2:	4b24      	ldr	r3, [pc, #144]	; (8374 <main+0xa8>)
    82e4:	2100      	movs	r1, #0
    82e6:	0018      	movs	r0, r3
    82e8:	f000 fa4e 	bl	8788 <suart_init>
F:\WorkSpace\AHL-GEC-EXP\Temp\LCD\Debug/srcc/main.c:26
    LCD_Init();        //初始化LCD
    82ec:	f001 f9d6 	bl	969c <LCD_Init>
F:\WorkSpace\AHL-GEC-EXP\Temp\LCD\Debug/srcc/main.c:27
    LCD_ShowString(6, 300, BLUE, GRAY, "Hello, world");
    82f0:	4a21      	ldr	r2, [pc, #132]	; (8378 <main+0xac>)
    82f2:	2396      	movs	r3, #150	; 0x96
    82f4:	0059      	lsls	r1, r3, #1
    82f6:	4b21      	ldr	r3, [pc, #132]	; (837c <main+0xb0>)
    82f8:	9300      	str	r3, [sp, #0]
    82fa:	0013      	movs	r3, r2
    82fc:	221f      	movs	r2, #31
    82fe:	2006      	movs	r0, #6
    8300:	f001 fb74 	bl	99ec <LCD_ShowString>
F:\WorkSpace\AHL-GEC-EXP\Temp\LCD\Debug/srcc/main.c:28
    LCD_ShowString(72, 32, BLUE, GRAY, "张龙威");
    8304:	4a1c      	ldr	r2, [pc, #112]	; (8378 <main+0xac>)
    8306:	4b1e      	ldr	r3, [pc, #120]	; (8380 <main+0xb4>)
    8308:	9300      	str	r3, [sp, #0]
    830a:	0013      	movs	r3, r2
    830c:	221f      	movs	r2, #31
    830e:	2120      	movs	r1, #32
    8310:	2048      	movs	r0, #72	; 0x48
    8312:	f001 fb6b 	bl	99ec <LCD_ShowString>
F:\WorkSpace\AHL-GEC-EXP\Temp\LCD\Debug/srcc/main.c:29
    LCD_DrawPoint_big(30, 30, RED);
    8316:	23f8      	movs	r3, #248	; 0xf8
    8318:	021b      	lsls	r3, r3, #8
    831a:	001a      	movs	r2, r3
    831c:	211e      	movs	r1, #30
    831e:	201e      	movs	r0, #30
    8320:	f001 fa79 	bl	9816 <LCD_DrawPoint_big>
F:\WorkSpace\AHL-GEC-EXP\Temp\LCD\Debug/srcc/main.c:31

    LCD_DrawLine(50, 50, 50, 150, RED);
    8324:	23f8      	movs	r3, #248	; 0xf8
    8326:	021b      	lsls	r3, r3, #8
    8328:	9300      	str	r3, [sp, #0]
    832a:	2396      	movs	r3, #150	; 0x96
    832c:	2232      	movs	r2, #50	; 0x32
    832e:	2132      	movs	r1, #50	; 0x32
    8330:	2032      	movs	r0, #50	; 0x32
    8332:	f001 fc6f 	bl	9c14 <LCD_DrawLine>
F:\WorkSpace\AHL-GEC-EXP\Temp\LCD\Debug/srcc/main.c:33

    LCD_DrawRectangle(60, 60, 120, 120, YELLOW);
    8336:	4b13      	ldr	r3, [pc, #76]	; (8384 <main+0xb8>)
    8338:	9300      	str	r3, [sp, #0]
    833a:	2378      	movs	r3, #120	; 0x78
    833c:	2278      	movs	r2, #120	; 0x78
    833e:	213c      	movs	r1, #60	; 0x3c
    8340:	203c      	movs	r0, #60	; 0x3c
    8342:	f001 fa94 	bl	986e <LCD_DrawRectangle>
F:\WorkSpace\AHL-GEC-EXP\Temp\LCD\Debug/srcc/main.c:35

    LCD_DrawSurface(70, 70, 140, 140, BLUE);
    8346:	231f      	movs	r3, #31
    8348:	9300      	str	r3, [sp, #0]
    834a:	238c      	movs	r3, #140	; 0x8c
    834c:	228c      	movs	r2, #140	; 0x8c
    834e:	2146      	movs	r1, #70	; 0x46
    8350:	2046      	movs	r0, #70	; 0x46
    8352:	f001 fcf9 	bl	9d48 <LCD_DrawSurface>
F:\WorkSpace\AHL-GEC-EXP\Temp\LCD\Debug/srcc/main.c:37

    LCD_ShowString(120, 240, BLUE, GRAY, "秋叶依剑");
    8356:	4a08      	ldr	r2, [pc, #32]	; (8378 <main+0xac>)
    8358:	4b0b      	ldr	r3, [pc, #44]	; (8388 <main+0xbc>)
    835a:	9300      	str	r3, [sp, #0]
    835c:	0013      	movs	r3, r2
    835e:	221f      	movs	r2, #31
    8360:	21f0      	movs	r1, #240	; 0xf0
    8362:	2078      	movs	r0, #120	; 0x78
    8364:	f001 fb42 	bl	99ec <LCD_ShowString>
F:\WorkSpace\AHL-GEC-EXP\Temp\LCD\Debug/srcc/main.c:40

    // 使能串口接收中断
    suart_enable_receive_interupt(SUART_RX);
    8368:	4b02      	ldr	r3, [pc, #8]	; (8374 <main+0xa8>)
    836a:	0018      	movs	r0, r3
    836c:	f000 fe12 	bl	8f94 <suart_enable_receive_interupt>
F:\WorkSpace\AHL-GEC-EXP\Temp\LCD\Debug/srcc/main.c:43

    //（1.7）【不变】开总中断
    ENABLE_INTERRUPTS;
    8370:	b662      	cpsie	i
F:\WorkSpace\AHL-GEC-EXP\Temp\LCD\Debug/srcc/main.c:46 (discriminator 1)
    //（2）======主循环部分（结尾）========================================

    for (;;) {
    8372:	e7fe      	b.n	8372 <main+0xa6>
    8374:	00000201 	.word	0x00000201
    8378:	00008430 	.word	0x00008430
    837c:	0000abf0 	.word	0x0000abf0
    8380:	0000ac00 	.word	0x0000ac00
    8384:	0000ffe0 	.word	0x0000ffe0
    8388:	0000ac08 	.word	0x0000ac08

0000838c <flash_erase>:
flash_erase():
F:\WorkSpace\AHL-GEC-EXP\Temp\LCD\Debug/srcc/flash.c:50
//函数返回：函数执行执行状态：0=正常；1=异常。
//参数说明：sect：目标扇区号（范围取决于实际芯片，见mcu.h）
//功能概要：擦除flash存储器的sect扇区
//======================================================================
uint8_t flash_erase(uint16_t sect)
{
    838c:	b500      	push	{lr}
    838e:	b085      	sub	sp, #20
    8390:	0002      	movs	r2, r0
    8392:	466b      	mov	r3, sp
    8394:	3306      	adds	r3, #6
    8396:	801a      	strh	r2, [r3, #0]
F:\WorkSpace\AHL-GEC-EXP\Temp\LCD\Debug/srcc/flash.c:57
    {
        uint32_t  word;
        uint8_t   byte[4];
    } dest;
    
    dest.word    = (uint32_t)(sect*(1<<10));
    8398:	466b      	mov	r3, sp
    839a:	3306      	adds	r3, #6
    839c:	881b      	ldrh	r3, [r3, #0]
    839e:	029b      	lsls	r3, r3, #10
    83a0:	9303      	str	r3, [sp, #12]
F:\WorkSpace\AHL-GEC-EXP\Temp\LCD\Debug/srcc/flash.c:60

    // 设置擦除命令
    FTFA_FCCOB0 = ERSSCR; // 擦除扇区命令
    83a2:	4b1f      	ldr	r3, [pc, #124]	; (8420 <flash_erase+0x94>)
    83a4:	2209      	movs	r2, #9
    83a6:	71da      	strb	r2, [r3, #7]
F:\WorkSpace\AHL-GEC-EXP\Temp\LCD\Debug/srcc/flash.c:63
    
    // 设置目标地址
    FTFA_FCCOB1 = dest.byte[2];
    83a8:	4a1d      	ldr	r2, [pc, #116]	; (8420 <flash_erase+0x94>)
    83aa:	ab03      	add	r3, sp, #12
    83ac:	789b      	ldrb	r3, [r3, #2]
    83ae:	7193      	strb	r3, [r2, #6]
F:\WorkSpace\AHL-GEC-EXP\Temp\LCD\Debug/srcc/flash.c:64
    FTFA_FCCOB2 = dest.byte[1];
    83b0:	4a1b      	ldr	r2, [pc, #108]	; (8420 <flash_erase+0x94>)
    83b2:	ab03      	add	r3, sp, #12
    83b4:	785b      	ldrb	r3, [r3, #1]
    83b6:	7153      	strb	r3, [r2, #5]
F:\WorkSpace\AHL-GEC-EXP\Temp\LCD\Debug/srcc/flash.c:65
    FTFA_FCCOB3 = dest.byte[0];
    83b8:	4a19      	ldr	r2, [pc, #100]	; (8420 <flash_erase+0x94>)
    83ba:	ab03      	add	r3, sp, #12
    83bc:	781b      	ldrb	r3, [r3, #0]
    83be:	7113      	strb	r3, [r2, #4]
F:\WorkSpace\AHL-GEC-EXP\Temp\LCD\Debug/srcc/flash.c:68
    
    // 执行命令序列
    if(1 == flash_cmd_launch())    //若执行命令出现错误
    83c0:	f000 f8c6 	bl	8550 <flash_cmd_launch>
    83c4:	0003      	movs	r3, r0
    83c6:	2b01      	cmp	r3, #1
    83c8:	d101      	bne.n	83ce <flash_erase+0x42>
F:\WorkSpace\AHL-GEC-EXP\Temp\LCD\Debug/srcc/flash.c:69
        return 1;     //擦除命令错误
    83ca:	2301      	movs	r3, #1
    83cc:	e024      	b.n	8418 <flash_erase+0x8c>
F:\WorkSpace\AHL-GEC-EXP\Temp\LCD\Debug/srcc/flash.c:73
   
    // 若擦除sector0时，则解锁设备
//    if(dest.word <= 0x800)
    if(dest.word < 0x400)
    83ce:	9a03      	ldr	r2, [sp, #12]
    83d0:	2380      	movs	r3, #128	; 0x80
    83d2:	00db      	lsls	r3, r3, #3
    83d4:	429a      	cmp	r2, r3
    83d6:	d21e      	bcs.n	8416 <flash_erase+0x8a>
F:\WorkSpace\AHL-GEC-EXP\Temp\LCD\Debug/srcc/flash.c:76
    {
        // 写入4字节
        FTFA_FCCOB0 = PGM4; 
    83d8:	4b11      	ldr	r3, [pc, #68]	; (8420 <flash_erase+0x94>)
    83da:	2206      	movs	r2, #6
    83dc:	71da      	strb	r2, [r3, #7]
F:\WorkSpace\AHL-GEC-EXP\Temp\LCD\Debug/srcc/flash.c:78
        // 设置目标地址
        FTFA_FCCOB1 = 0x00;
    83de:	4b10      	ldr	r3, [pc, #64]	; (8420 <flash_erase+0x94>)
    83e0:	2200      	movs	r2, #0
    83e2:	719a      	strb	r2, [r3, #6]
F:\WorkSpace\AHL-GEC-EXP\Temp\LCD\Debug/srcc/flash.c:79
        FTFA_FCCOB2 = 0x04;
    83e4:	4b0e      	ldr	r3, [pc, #56]	; (8420 <flash_erase+0x94>)
    83e6:	2204      	movs	r2, #4
    83e8:	715a      	strb	r2, [r3, #5]
F:\WorkSpace\AHL-GEC-EXP\Temp\LCD\Debug/srcc/flash.c:80
        FTFA_FCCOB3 = 0x0C;
    83ea:	4b0d      	ldr	r3, [pc, #52]	; (8420 <flash_erase+0x94>)
    83ec:	220c      	movs	r2, #12
    83ee:	711a      	strb	r2, [r3, #4]
F:\WorkSpace\AHL-GEC-EXP\Temp\LCD\Debug/srcc/flash.c:82
        // 数据
        FTFA_FCCOB4 = 0xFF;
    83f0:	4b0b      	ldr	r3, [pc, #44]	; (8420 <flash_erase+0x94>)
    83f2:	22ff      	movs	r2, #255	; 0xff
    83f4:	72da      	strb	r2, [r3, #11]
F:\WorkSpace\AHL-GEC-EXP\Temp\LCD\Debug/srcc/flash.c:83
        FTFA_FCCOB5 = 0xFF;
    83f6:	4b0a      	ldr	r3, [pc, #40]	; (8420 <flash_erase+0x94>)
    83f8:	22ff      	movs	r2, #255	; 0xff
    83fa:	729a      	strb	r2, [r3, #10]
F:\WorkSpace\AHL-GEC-EXP\Temp\LCD\Debug/srcc/flash.c:84
        FTFA_FCCOB6 = 0xFF;
    83fc:	4b08      	ldr	r3, [pc, #32]	; (8420 <flash_erase+0x94>)
    83fe:	22ff      	movs	r2, #255	; 0xff
    8400:	725a      	strb	r2, [r3, #9]
F:\WorkSpace\AHL-GEC-EXP\Temp\LCD\Debug/srcc/flash.c:85
        FTFA_FCCOB7 = 0xFE;
    8402:	4b07      	ldr	r3, [pc, #28]	; (8420 <flash_erase+0x94>)
    8404:	22fe      	movs	r2, #254	; 0xfe
    8406:	721a      	strb	r2, [r3, #8]
F:\WorkSpace\AHL-GEC-EXP\Temp\LCD\Debug/srcc/flash.c:87
        // 执行命令序列
        if(1 == flash_cmd_launch())  //若执行命令出现错误
    8408:	f000 f8a2 	bl	8550 <flash_cmd_launch>
    840c:	0003      	movs	r3, r0
    840e:	2b01      	cmp	r3, #1
    8410:	d101      	bne.n	8416 <flash_erase+0x8a>
F:\WorkSpace\AHL-GEC-EXP\Temp\LCD\Debug/srcc/flash.c:88
            return 2;   //解锁命令错误
    8412:	2302      	movs	r3, #2
    8414:	e000      	b.n	8418 <flash_erase+0x8c>
F:\WorkSpace\AHL-GEC-EXP\Temp\LCD\Debug/srcc/flash.c:91
    }  
    
    return 0;  //成功返回
    8416:	2300      	movs	r3, #0
F:\WorkSpace\AHL-GEC-EXP\Temp\LCD\Debug/srcc/flash.c:92 (discriminator 1)
}
    8418:	0018      	movs	r0, r3
    841a:	b005      	add	sp, #20
    841c:	bd00      	pop	{pc}
    841e:	46c0      	nop			; (mov r8, r8)
    8420:	40020000 	.word	0x40020000

00008424 <flash_write_physical>:
flash_write_physical():
F:\WorkSpace\AHL-GEC-EXP\Temp\LCD\Debug/srcc/flash.c:147
//        N：写字节数目（0~1020,要求为4，8,12,......）
//        buf：写入数据存放处
//功能概要：读取flash指定地址的内容
//========================================================================
uint8_t flash_write_physical(uint32_t destaddr,uint16_t N,uint8_t *buf)
{
    8424:	b500      	push	{lr}
    8426:	b087      	sub	sp, #28
    8428:	9003      	str	r0, [sp, #12]
    842a:	9201      	str	r2, [sp, #4]
    842c:	230a      	movs	r3, #10
    842e:	446b      	add	r3, sp
    8430:	1c0a      	adds	r2, r1, #0
    8432:	801a      	strh	r2, [r3, #0]
F:\WorkSpace\AHL-GEC-EXP\Temp\LCD\Debug/srcc/flash.c:156
        uint32_t   word;
        uint8_t  byte[4];
    } dest;

    // 设置写入命令
    FTFA_FCCOB0 = PGM4;
    8434:	4b1e      	ldr	r3, [pc, #120]	; (84b0 <flash_write_physical+0x8c>)
    8436:	2206      	movs	r2, #6
    8438:	71da      	strb	r2, [r3, #7]
F:\WorkSpace\AHL-GEC-EXP\Temp\LCD\Debug/srcc/flash.c:157
    dest.word = destaddr;
    843a:	9b03      	ldr	r3, [sp, #12]
    843c:	9304      	str	r3, [sp, #16]
F:\WorkSpace\AHL-GEC-EXP\Temp\LCD\Debug/srcc/flash.c:158
    for(size=0; size<N; size+=4, dest.word+=4, buf+=4)
    843e:	2300      	movs	r3, #0
    8440:	9305      	str	r3, [sp, #20]
    8442:	e02b      	b.n	849c <flash_write_physical+0x78>
F:\WorkSpace\AHL-GEC-EXP\Temp\LCD\Debug/srcc/flash.c:161
    {
        // 设置目标地址
        FTFA_FCCOB1 = dest.byte[2];
    8444:	4a1a      	ldr	r2, [pc, #104]	; (84b0 <flash_write_physical+0x8c>)
    8446:	ab04      	add	r3, sp, #16
    8448:	789b      	ldrb	r3, [r3, #2]
    844a:	7193      	strb	r3, [r2, #6]
F:\WorkSpace\AHL-GEC-EXP\Temp\LCD\Debug/srcc/flash.c:162
        FTFA_FCCOB2 = dest.byte[1];
    844c:	4a18      	ldr	r2, [pc, #96]	; (84b0 <flash_write_physical+0x8c>)
    844e:	ab04      	add	r3, sp, #16
    8450:	785b      	ldrb	r3, [r3, #1]
    8452:	7153      	strb	r3, [r2, #5]
F:\WorkSpace\AHL-GEC-EXP\Temp\LCD\Debug/srcc/flash.c:163
        FTFA_FCCOB3 = dest.byte[0];
    8454:	4a16      	ldr	r2, [pc, #88]	; (84b0 <flash_write_physical+0x8c>)
    8456:	ab04      	add	r3, sp, #16
    8458:	781b      	ldrb	r3, [r3, #0]
    845a:	7113      	strb	r3, [r2, #4]
F:\WorkSpace\AHL-GEC-EXP\Temp\LCD\Debug/srcc/flash.c:166

        // 拷贝数据
        FTFA_FCCOB4 = buf[3];//大端寻址
    845c:	4a14      	ldr	r2, [pc, #80]	; (84b0 <flash_write_physical+0x8c>)
    845e:	9b01      	ldr	r3, [sp, #4]
    8460:	78db      	ldrb	r3, [r3, #3]
    8462:	72d3      	strb	r3, [r2, #11]
F:\WorkSpace\AHL-GEC-EXP\Temp\LCD\Debug/srcc/flash.c:167
        FTFA_FCCOB5 = buf[2];
    8464:	4a12      	ldr	r2, [pc, #72]	; (84b0 <flash_write_physical+0x8c>)
    8466:	9b01      	ldr	r3, [sp, #4]
    8468:	789b      	ldrb	r3, [r3, #2]
    846a:	7293      	strb	r3, [r2, #10]
F:\WorkSpace\AHL-GEC-EXP\Temp\LCD\Debug/srcc/flash.c:168
        FTFA_FCCOB6 = buf[1];
    846c:	4a10      	ldr	r2, [pc, #64]	; (84b0 <flash_write_physical+0x8c>)
    846e:	9b01      	ldr	r3, [sp, #4]
    8470:	785b      	ldrb	r3, [r3, #1]
    8472:	7253      	strb	r3, [r2, #9]
F:\WorkSpace\AHL-GEC-EXP\Temp\LCD\Debug/srcc/flash.c:169
        FTFA_FCCOB7 = buf[0];
    8474:	4a0e      	ldr	r2, [pc, #56]	; (84b0 <flash_write_physical+0x8c>)
    8476:	9b01      	ldr	r3, [sp, #4]
    8478:	781b      	ldrb	r3, [r3, #0]
    847a:	7213      	strb	r3, [r2, #8]
F:\WorkSpace\AHL-GEC-EXP\Temp\LCD\Debug/srcc/flash.c:171

        if(1 == flash_cmd_launch())
    847c:	f000 f868 	bl	8550 <flash_cmd_launch>
    8480:	0003      	movs	r3, r0
    8482:	2b01      	cmp	r3, #1
    8484:	d101      	bne.n	848a <flash_write_physical+0x66>
F:\WorkSpace\AHL-GEC-EXP\Temp\LCD\Debug/srcc/flash.c:172
            return 2;  //写入命令错误
    8486:	2302      	movs	r3, #2
    8488:	e00f      	b.n	84aa <flash_write_physical+0x86>
F:\WorkSpace\AHL-GEC-EXP\Temp\LCD\Debug/srcc/flash.c:158 (discriminator 2)
    for(size=0; size<N; size+=4, dest.word+=4, buf+=4)
    848a:	9b05      	ldr	r3, [sp, #20]
    848c:	3304      	adds	r3, #4
    848e:	9305      	str	r3, [sp, #20]
    8490:	9b04      	ldr	r3, [sp, #16]
    8492:	3304      	adds	r3, #4
    8494:	9304      	str	r3, [sp, #16]
    8496:	9b01      	ldr	r3, [sp, #4]
    8498:	3304      	adds	r3, #4
    849a:	9301      	str	r3, [sp, #4]
F:\WorkSpace\AHL-GEC-EXP\Temp\LCD\Debug/srcc/flash.c:158 (discriminator 1)
    849c:	230a      	movs	r3, #10
    849e:	446b      	add	r3, sp
    84a0:	881b      	ldrh	r3, [r3, #0]
    84a2:	9a05      	ldr	r2, [sp, #20]
    84a4:	429a      	cmp	r2, r3
    84a6:	d3cd      	bcc.n	8444 <flash_write_physical+0x20>
F:\WorkSpace\AHL-GEC-EXP\Temp\LCD\Debug/srcc/flash.c:175
    }

    return 0;  //成功执行
    84a8:	2300      	movs	r3, #0
F:\WorkSpace\AHL-GEC-EXP\Temp\LCD\Debug/srcc/flash.c:176 (discriminator 1)
}
    84aa:	0018      	movs	r0, r3
    84ac:	b007      	add	sp, #28
    84ae:	bd00      	pop	{pc}
    84b0:	40020000 	.word	0x40020000

000084b4 <flash_read_physical>:
flash_read_physical():
F:\WorkSpace\AHL-GEC-EXP\Temp\LCD\Debug/srcc/flash.c:203
//       addr：目标地址，要求为4的倍数（例如：0x00000004）
//       N：读字节数目（0~1020,要求为4，8,12,......）
//功能概要：读取flash指定地址的内容
//======================================================================
void flash_read_physical(uint8_t *dest,uint32_t addr,uint16_t N)
{
    84b4:	b500      	push	{lr}
    84b6:	b087      	sub	sp, #28
    84b8:	9003      	str	r0, [sp, #12]
    84ba:	9102      	str	r1, [sp, #8]
    84bc:	466b      	mov	r3, sp
    84be:	3306      	adds	r3, #6
    84c0:	801a      	strh	r2, [r3, #0]
F:\WorkSpace\AHL-GEC-EXP\Temp\LCD\Debug/srcc/flash.c:205
	uint8_t *src;
	src=(uint8_t *)addr;
    84c2:	9b02      	ldr	r3, [sp, #8]
    84c4:	9305      	str	r3, [sp, #20]
F:\WorkSpace\AHL-GEC-EXP\Temp\LCD\Debug/srcc/flash.c:206
	memcpy(dest,src,N);
    84c6:	466b      	mov	r3, sp
    84c8:	3306      	adds	r3, #6
    84ca:	881a      	ldrh	r2, [r3, #0]
    84cc:	9905      	ldr	r1, [sp, #20]
    84ce:	9b03      	ldr	r3, [sp, #12]
    84d0:	0018      	movs	r0, r3
    84d2:	f002 fb7b 	bl	abcc <memcpy>
F:\WorkSpace\AHL-GEC-EXP\Temp\LCD\Debug/srcc/flash.c:207
}
    84d6:	46c0      	nop			; (mov r8, r8)
    84d8:	b007      	add	sp, #28
    84da:	bd00      	pop	{pc}

000084dc <flash_isempty>:
flash_isempty():
F:\WorkSpace\AHL-GEC-EXP\Temp\LCD\Debug/srcc/flash.c:249
//函数返回：1=目标区域为空；0=目标区域非空。
//参数说明：所要探测的flash区域扇区号及字节数
//功能概要：flash判空操作
//========================================================================
uint8_t flash_isempty(uint16_t sect,uint16_t N)
{
    84dc:	b084      	sub	sp, #16
    84de:	0002      	movs	r2, r0
    84e0:	466b      	mov	r3, sp
    84e2:	3306      	adds	r3, #6
    84e4:	801a      	strh	r2, [r3, #0]
    84e6:	ab01      	add	r3, sp, #4
    84e8:	1c0a      	adds	r2, r1, #0
    84ea:	801a      	strh	r2, [r3, #0]
F:\WorkSpace\AHL-GEC-EXP\Temp\LCD\Debug/srcc/flash.c:252
   uint16_t i,flag;
   uint8_t* buff;
   i = 0;
    84ec:	230e      	movs	r3, #14
    84ee:	446b      	add	r3, sp
    84f0:	2200      	movs	r2, #0
    84f2:	801a      	strh	r2, [r3, #0]
F:\WorkSpace\AHL-GEC-EXP\Temp\LCD\Debug/srcc/flash.c:253
   flag = 1;
    84f4:	ab03      	add	r3, sp, #12
    84f6:	2201      	movs	r2, #1
    84f8:	801a      	strh	r2, [r3, #0]
F:\WorkSpace\AHL-GEC-EXP\Temp\LCD\Debug/srcc/flash.c:254
   for(i = 0; i<N; i++)   //遍历区域内字节
    84fa:	230e      	movs	r3, #14
    84fc:	446b      	add	r3, sp
    84fe:	2200      	movs	r2, #0
    8500:	801a      	strh	r2, [r3, #0]
    8502:	e017      	b.n	8534 <flash_isempty+0x58>
F:\WorkSpace\AHL-GEC-EXP\Temp\LCD\Debug/srcc/flash.c:256
   {
	  buff=(uint8_t*)(sect*0x400);
    8504:	466b      	mov	r3, sp
    8506:	3306      	adds	r3, #6
    8508:	881b      	ldrh	r3, [r3, #0]
    850a:	029b      	lsls	r3, r3, #10
    850c:	9302      	str	r3, [sp, #8]
F:\WorkSpace\AHL-GEC-EXP\Temp\LCD\Debug/srcc/flash.c:257
      if(buff[i]!=0xff)   //非空
    850e:	230e      	movs	r3, #14
    8510:	446b      	add	r3, sp
    8512:	881b      	ldrh	r3, [r3, #0]
    8514:	9a02      	ldr	r2, [sp, #8]
    8516:	18d3      	adds	r3, r2, r3
    8518:	781b      	ldrb	r3, [r3, #0]
    851a:	2bff      	cmp	r3, #255	; 0xff
    851c:	d003      	beq.n	8526 <flash_isempty+0x4a>
F:\WorkSpace\AHL-GEC-EXP\Temp\LCD\Debug/srcc/flash.c:259
      {
      	  flag=0;
    851e:	ab03      	add	r3, sp, #12
    8520:	2200      	movs	r2, #0
    8522:	801a      	strh	r2, [r3, #0]
F:\WorkSpace\AHL-GEC-EXP\Temp\LCD\Debug/srcc/flash.c:260
          break;
    8524:	e00d      	b.n	8542 <flash_isempty+0x66>
F:\WorkSpace\AHL-GEC-EXP\Temp\LCD\Debug/srcc/flash.c:254 (discriminator 2)
   for(i = 0; i<N; i++)   //遍历区域内字节
    8526:	230e      	movs	r3, #14
    8528:	446b      	add	r3, sp
    852a:	881a      	ldrh	r2, [r3, #0]
    852c:	230e      	movs	r3, #14
    852e:	446b      	add	r3, sp
    8530:	3201      	adds	r2, #1
    8532:	801a      	strh	r2, [r3, #0]
F:\WorkSpace\AHL-GEC-EXP\Temp\LCD\Debug/srcc/flash.c:254 (discriminator 1)
    8534:	220e      	movs	r2, #14
    8536:	446a      	add	r2, sp
    8538:	ab01      	add	r3, sp, #4
    853a:	8812      	ldrh	r2, [r2, #0]
    853c:	881b      	ldrh	r3, [r3, #0]
    853e:	429a      	cmp	r2, r3
    8540:	d3e0      	bcc.n	8504 <flash_isempty+0x28>
F:\WorkSpace\AHL-GEC-EXP\Temp\LCD\Debug/srcc/flash.c:263
       }
   }
   return flag;
    8542:	ab03      	add	r3, sp, #12
    8544:	881b      	ldrh	r3, [r3, #0]
    8546:	b2db      	uxtb	r3, r3
F:\WorkSpace\AHL-GEC-EXP\Temp\LCD\Debug/srcc/flash.c:264
}
    8548:	0018      	movs	r0, r3
    854a:	b004      	add	sp, #16
    854c:	4770      	bx	lr
	...

00008550 <flash_cmd_launch>:
flash_cmd_launch():
F:\WorkSpace\AHL-GEC-EXP\Temp\LCD\Debug/srcc/flash.c:339
//函数返回：0-成功 1-失败
//参数说明：无
//功能概要：启动Flash命令
//======================================================================
uint32_t flash_cmd_launch(void)
{
    8550:	b082      	sub	sp, #8
F:\WorkSpace\AHL-GEC-EXP\Temp\LCD\Debug/srcc/flash.c:340
	uint8_t irq_flag=0;
    8552:	466b      	mov	r3, sp
    8554:	3307      	adds	r3, #7
    8556:	2200      	movs	r2, #0
    8558:	701a      	strb	r2, [r3, #0]
F:\WorkSpace\AHL-GEC-EXP\Temp\LCD\Debug/srcc/flash.c:342
    // 清除访问错误标志位和非法访问标志位
    FTFA_FSTAT = ACCERR | FPVIOL;
    855a:	4b16      	ldr	r3, [pc, #88]	; (85b4 <flash_cmd_launch+0x64>)
    855c:	2230      	movs	r2, #48	; 0x30
    855e:	701a      	strb	r2, [r3, #0]
__get_PRIMASK():
F:\WorkSpace\AHL-GEC-EXP\Temp\LCD\02_CPU/core_cmFunc.h:484
 */
__attribute__( ( always_inline ) ) __STATIC_INLINE uint32_t __get_PRIMASK(void)
{
  uint32_t result;

  __ASM volatile ("MRS %0, primask" : "=r" (result) );
    8560:	f3ef 8310 	mrs	r3, PRIMASK
    8564:	9300      	str	r3, [sp, #0]
F:\WorkSpace\AHL-GEC-EXP\Temp\LCD\02_CPU/core_cmFunc.h:485
  return(result);
    8566:	9b00      	ldr	r3, [sp, #0]
flash_cmd_launch():
F:\WorkSpace\AHL-GEC-EXP\Temp\LCD\Debug/srcc/flash.c:343
    if(__get_PRIMASK() == 0U)
    8568:	2b00      	cmp	r3, #0
    856a:	d105      	bne.n	8578 <flash_cmd_launch+0x28>
__disable_irq():
F:\WorkSpace\AHL-GEC-EXP\Temp\LCD\02_CPU/core_cmFunc.h:344
  __ASM volatile ("cpsid i" : : : "memory");
    856c:	b672      	cpsid	i
F:\WorkSpace\AHL-GEC-EXP\Temp\LCD\02_CPU/core_cmFunc.h:345
}
    856e:	46c0      	nop			; (mov r8, r8)
flash_cmd_launch():
F:\WorkSpace\AHL-GEC-EXP\Temp\LCD\Debug/srcc/flash.c:346
    {
    	__disable_irq();  //关总中断
    	irq_flag = 1;
    8570:	466b      	mov	r3, sp
    8572:	3307      	adds	r3, #7
    8574:	2201      	movs	r2, #1
    8576:	701a      	strb	r2, [r3, #0]
F:\WorkSpace\AHL-GEC-EXP\Temp\LCD\Debug/srcc/flash.c:349
    }
    // 启动命令
    FTFA_FSTAT = CCIF;
    8578:	4b0e      	ldr	r3, [pc, #56]	; (85b4 <flash_cmd_launch+0x64>)
    857a:	2280      	movs	r2, #128	; 0x80
    857c:	701a      	strb	r2, [r3, #0]
F:\WorkSpace\AHL-GEC-EXP\Temp\LCD\Debug/srcc/flash.c:351
    // 等待命令结束
    while(!(FTFA_FSTAT & CCIF));
    857e:	46c0      	nop			; (mov r8, r8)
F:\WorkSpace\AHL-GEC-EXP\Temp\LCD\Debug/srcc/flash.c:351 (discriminator 1)
    8580:	4b0c      	ldr	r3, [pc, #48]	; (85b4 <flash_cmd_launch+0x64>)
    8582:	781b      	ldrb	r3, [r3, #0]
    8584:	b2db      	uxtb	r3, r3
    8586:	b25b      	sxtb	r3, r3
    8588:	2b00      	cmp	r3, #0
    858a:	daf9      	bge.n	8580 <flash_cmd_launch+0x30>
F:\WorkSpace\AHL-GEC-EXP\Temp\LCD\Debug/srcc/flash.c:352
    if(irq_flag == 1)
    858c:	466b      	mov	r3, sp
    858e:	3307      	adds	r3, #7
    8590:	781b      	ldrb	r3, [r3, #0]
    8592:	2b01      	cmp	r3, #1
    8594:	d101      	bne.n	859a <flash_cmd_launch+0x4a>
__enable_irq():
F:\WorkSpace\AHL-GEC-EXP\Temp\LCD\02_CPU/core_cmFunc.h:333
  __ASM volatile ("cpsie i" : : : "memory");
    8596:	b662      	cpsie	i
F:\WorkSpace\AHL-GEC-EXP\Temp\LCD\02_CPU/core_cmFunc.h:334
}
    8598:	46c0      	nop			; (mov r8, r8)
flash_cmd_launch():
F:\WorkSpace\AHL-GEC-EXP\Temp\LCD\Debug/srcc/flash.c:357
    {
    	__enable_irq();  //开总中断
    }
    // 检查错误标志
    if(FTFA_FSTAT & (ACCERR | FPVIOL | MGSTAT0))
    859a:	4b06      	ldr	r3, [pc, #24]	; (85b4 <flash_cmd_launch+0x64>)
    859c:	781b      	ldrb	r3, [r3, #0]
    859e:	b2db      	uxtb	r3, r3
    85a0:	001a      	movs	r2, r3
    85a2:	2331      	movs	r3, #49	; 0x31
    85a4:	4013      	ands	r3, r2
    85a6:	d001      	beq.n	85ac <flash_cmd_launch+0x5c>
F:\WorkSpace\AHL-GEC-EXP\Temp\LCD\Debug/srcc/flash.c:358
        return 1 ; //执行命令出错
    85a8:	2301      	movs	r3, #1
    85aa:	e000      	b.n	85ae <flash_cmd_launch+0x5e>
F:\WorkSpace\AHL-GEC-EXP\Temp\LCD\Debug/srcc/flash.c:359
    return 0; //执行命令成功
    85ac:	2300      	movs	r3, #0
F:\WorkSpace\AHL-GEC-EXP\Temp\LCD\Debug/srcc/flash.c:360
}
    85ae:	0018      	movs	r0, r3
    85b0:	b002      	add	sp, #8
    85b2:	4770      	bx	lr
    85b4:	40020000 	.word	0x40020000

000085b8 <gpio_init>:
gpio_init():
F:\WorkSpace\AHL-GEC-EXP\Temp\LCD\Debug/srcc/gpio.c:31
//          state：端口引脚初始状态（0=低电平，1=高电平）
//功能概要：初始化指定端口引脚作为GPIO引脚功能，并定义为输入或输出，若是输出，
//          还指定初始状态是低电平或高电平
//=====================================================================
void gpio_init(uint16_t port_pin, uint8_t dir, uint8_t state)
{
    85b8:	b510      	push	{r4, lr}
    85ba:	b086      	sub	sp, #24
    85bc:	0004      	movs	r4, r0
    85be:	0008      	movs	r0, r1
    85c0:	0011      	movs	r1, r2
    85c2:	466b      	mov	r3, sp
    85c4:	3306      	adds	r3, #6
    85c6:	1c22      	adds	r2, r4, #0
    85c8:	801a      	strh	r2, [r3, #0]
    85ca:	466b      	mov	r3, sp
    85cc:	3305      	adds	r3, #5
    85ce:	1c02      	adds	r2, r0, #0
    85d0:	701a      	strb	r2, [r3, #0]
    85d2:	ab01      	add	r3, sp, #4
    85d4:	1c0a      	adds	r2, r1, #0
    85d6:	701a      	strb	r2, [r3, #0]
F:\WorkSpace\AHL-GEC-EXP\Temp\LCD\Debug/srcc/gpio.c:37
	//局部变量声明
	PORT_Type *port_ptr;              //声明port_ptr为PORT结构体类型指针
	GPIO_Type *gpio_ptr;              //声明gpio_ptr为GPIO结构体类型指针
	uint8_t port,pin;                 //声明端口port、引脚pin变量
	//根据带入参数port_pin，解析出端口与引脚分别赋给port,pin
	gpio_get_port_pin(port_pin,&port,&pin);
    85d8:	220e      	movs	r2, #14
    85da:	446a      	add	r2, sp
    85dc:	210f      	movs	r1, #15
    85de:	4469      	add	r1, sp
    85e0:	466b      	mov	r3, sp
    85e2:	3306      	adds	r3, #6
    85e4:	881b      	ldrh	r3, [r3, #0]
    85e6:	0018      	movs	r0, r3
    85e8:	f000 f8a0 	bl	872c <gpio_get_port_pin>
F:\WorkSpace\AHL-GEC-EXP\Temp\LCD\Debug/srcc/gpio.c:39
	//根据port，给局部变量port_ptr、gpio_ptr赋值（获得两个基地址）
	port_ptr = PORT_ARR[port];        //获得PORT模块相应口基地址
    85ec:	230f      	movs	r3, #15
    85ee:	446b      	add	r3, sp
    85f0:	781b      	ldrb	r3, [r3, #0]
    85f2:	001a      	movs	r2, r3
    85f4:	4b2b      	ldr	r3, [pc, #172]	; (86a4 <gpio_init+0xec>)
    85f6:	0092      	lsls	r2, r2, #2
    85f8:	58d3      	ldr	r3, [r2, r3]
    85fa:	9305      	str	r3, [sp, #20]
F:\WorkSpace\AHL-GEC-EXP\Temp\LCD\Debug/srcc/gpio.c:40
	gpio_ptr = GPIO_ARR[port];        //获得GPIO模块相应口基地址
    85fc:	230f      	movs	r3, #15
    85fe:	446b      	add	r3, sp
    8600:	781b      	ldrb	r3, [r3, #0]
    8602:	001a      	movs	r2, r3
    8604:	4b28      	ldr	r3, [pc, #160]	; (86a8 <gpio_init+0xf0>)
    8606:	0092      	lsls	r2, r2, #2
    8608:	58d3      	ldr	r3, [r2, r3]
    860a:	9304      	str	r3, [sp, #16]
F:\WorkSpace\AHL-GEC-EXP\Temp\LCD\Debug/srcc/gpio.c:43

	//设定相应端口的相应引脚功port能为GPIO（即令引脚控制寄存器的MUX=0b001）
	PORT_PCR_REG(port_ptr,pin) &= ~PORT_PCR_MUX_MASK;//置D10-D8=000
    860c:	230e      	movs	r3, #14
    860e:	446b      	add	r3, sp
    8610:	781b      	ldrb	r3, [r3, #0]
    8612:	001a      	movs	r2, r3
    8614:	9b05      	ldr	r3, [sp, #20]
    8616:	0092      	lsls	r2, r2, #2
    8618:	58d3      	ldr	r3, [r2, r3]
    861a:	220e      	movs	r2, #14
    861c:	446a      	add	r2, sp
    861e:	7812      	ldrb	r2, [r2, #0]
    8620:	0010      	movs	r0, r2
    8622:	4a22      	ldr	r2, [pc, #136]	; (86ac <gpio_init+0xf4>)
    8624:	4013      	ands	r3, r2
    8626:	0019      	movs	r1, r3
    8628:	9b05      	ldr	r3, [sp, #20]
    862a:	0082      	lsls	r2, r0, #2
    862c:	50d1      	str	r1, [r2, r3]
F:\WorkSpace\AHL-GEC-EXP\Temp\LCD\Debug/srcc/gpio.c:44
	PORT_PCR_REG(port_ptr,pin) |= PORT_PCR_MUX(1);//置D10-D8=001
    862e:	230e      	movs	r3, #14
    8630:	446b      	add	r3, sp
    8632:	781b      	ldrb	r3, [r3, #0]
    8634:	001a      	movs	r2, r3
    8636:	9b05      	ldr	r3, [sp, #20]
    8638:	0092      	lsls	r2, r2, #2
    863a:	58d3      	ldr	r3, [r2, r3]
    863c:	220e      	movs	r2, #14
    863e:	446a      	add	r2, sp
    8640:	7812      	ldrb	r2, [r2, #0]
    8642:	0010      	movs	r0, r2
    8644:	2280      	movs	r2, #128	; 0x80
    8646:	0052      	lsls	r2, r2, #1
    8648:	431a      	orrs	r2, r3
    864a:	0011      	movs	r1, r2
    864c:	9b05      	ldr	r3, [sp, #20]
    864e:	0082      	lsls	r2, r0, #2
    8650:	50d1      	str	r1, [r2, r3]
F:\WorkSpace\AHL-GEC-EXP\Temp\LCD\Debug/srcc/gpio.c:47

	//根据带入参数dir，决定引脚为输出还是输入
	if(dir == 1)  //输出引脚
    8652:	466b      	mov	r3, sp
    8654:	3305      	adds	r3, #5
    8656:	781b      	ldrb	r3, [r3, #0]
    8658:	2b01      	cmp	r3, #1
    865a:	d114      	bne.n	8686 <gpio_init+0xce>
F:\WorkSpace\AHL-GEC-EXP\Temp\LCD\Debug/srcc/gpio.c:50
	{	
		//数据方向寄存器的pin位=1，定义为输出
		BSET(pin,GPIO_PDDR_REG(gpio_ptr));
    865c:	9b04      	ldr	r3, [sp, #16]
    865e:	695b      	ldr	r3, [r3, #20]
    8660:	220e      	movs	r2, #14
    8662:	446a      	add	r2, sp
    8664:	7812      	ldrb	r2, [r2, #0]
    8666:	0011      	movs	r1, r2
    8668:	2201      	movs	r2, #1
    866a:	408a      	lsls	r2, r1
    866c:	431a      	orrs	r2, r3
    866e:	9b04      	ldr	r3, [sp, #16]
    8670:	615a      	str	r2, [r3, #20]
F:\WorkSpace\AHL-GEC-EXP\Temp\LCD\Debug/srcc/gpio.c:52
		//调用gpio_set函数，设定引脚初始状态
		gpio_set(port_pin,state);   
    8672:	ab01      	add	r3, sp, #4
    8674:	781a      	ldrb	r2, [r3, #0]
    8676:	466b      	mov	r3, sp
    8678:	3306      	adds	r3, #6
    867a:	881b      	ldrh	r3, [r3, #0]
    867c:	0011      	movs	r1, r2
    867e:	0018      	movs	r0, r3
    8680:	f000 f816 	bl	86b0 <gpio_set>
F:\WorkSpace\AHL-GEC-EXP\Temp\LCD\Debug/srcc/gpio.c:58
	}
	else          //输入引脚
	{
		BCLR(pin,GPIO_PDDR_REG(gpio_ptr));//数据方向寄存器的pin位=0，定义为输入
	}
}
    8684:	e00b      	b.n	869e <gpio_init+0xe6>
F:\WorkSpace\AHL-GEC-EXP\Temp\LCD\Debug/srcc/gpio.c:56
		BCLR(pin,GPIO_PDDR_REG(gpio_ptr));//数据方向寄存器的pin位=0，定义为输入
    8686:	9b04      	ldr	r3, [sp, #16]
    8688:	695b      	ldr	r3, [r3, #20]
    868a:	220e      	movs	r2, #14
    868c:	446a      	add	r2, sp
    868e:	7812      	ldrb	r2, [r2, #0]
    8690:	0011      	movs	r1, r2
    8692:	2201      	movs	r2, #1
    8694:	408a      	lsls	r2, r1
    8696:	43d2      	mvns	r2, r2
    8698:	401a      	ands	r2, r3
    869a:	9b04      	ldr	r3, [sp, #16]
    869c:	615a      	str	r2, [r3, #20]
F:\WorkSpace\AHL-GEC-EXP\Temp\LCD\Debug/srcc/gpio.c:58
}
    869e:	46c0      	nop			; (mov r8, r8)
    86a0:	b006      	add	sp, #24
    86a2:	bd10      	pop	{r4, pc}
    86a4:	0000acf4 	.word	0x0000acf4
    86a8:	0000ad08 	.word	0x0000ad08
    86ac:	fffff8ff 	.word	0xfffff8ff

000086b0 <gpio_set>:
gpio_set():
F:\WorkSpace\AHL-GEC-EXP\Temp\LCD\Debug/srcc/gpio.c:67
//参数说明：port_pin：端口号|引脚号（如：(PTB_NUM)|(9) 表示为B口9号脚）
//       state：引脚初始状态（0=低电平，1=高电平）
//功能概要：设定引脚状态为低电平或高电平
//=====================================================================
void gpio_set(uint16_t port_pin, uint8_t state)
{
    86b0:	b500      	push	{lr}
    86b2:	b085      	sub	sp, #20
    86b4:	0002      	movs	r2, r0
    86b6:	466b      	mov	r3, sp
    86b8:	3306      	adds	r3, #6
    86ba:	801a      	strh	r2, [r3, #0]
    86bc:	466b      	mov	r3, sp
    86be:	3305      	adds	r3, #5
    86c0:	1c0a      	adds	r2, r1, #0
    86c2:	701a      	strb	r2, [r3, #0]
F:\WorkSpace\AHL-GEC-EXP\Temp\LCD\Debug/srcc/gpio.c:72
	//局部变量声明
	GPIO_Type *gpio_ptr;                      //声明port_ptr为GPIO结构体类型指针（首地址）
	uint8_t port,pin;                          //声明端口port、引脚pin变量
	//根据带入参数port_pin，解析出端口与引脚分别赋给port,pin
	gpio_get_port_pin(port_pin,&port,&pin);
    86c4:	220a      	movs	r2, #10
    86c6:	446a      	add	r2, sp
    86c8:	210b      	movs	r1, #11
    86ca:	4469      	add	r1, sp
    86cc:	466b      	mov	r3, sp
    86ce:	3306      	adds	r3, #6
    86d0:	881b      	ldrh	r3, [r3, #0]
    86d2:	0018      	movs	r0, r3
    86d4:	f000 f82a 	bl	872c <gpio_get_port_pin>
F:\WorkSpace\AHL-GEC-EXP\Temp\LCD\Debug/srcc/gpio.c:75

	//根据port，给局部变量gpio_ptr赋值（GPIO基地址）
	gpio_ptr = GPIO_ARR[port];
    86d8:	230b      	movs	r3, #11
    86da:	446b      	add	r3, sp
    86dc:	781b      	ldrb	r3, [r3, #0]
    86de:	001a      	movs	r2, r3
    86e0:	4b11      	ldr	r3, [pc, #68]	; (8728 <gpio_set+0x78>)
    86e2:	0092      	lsls	r2, r2, #2
    86e4:	58d3      	ldr	r3, [r2, r3]
    86e6:	9303      	str	r3, [sp, #12]
F:\WorkSpace\AHL-GEC-EXP\Temp\LCD\Debug/srcc/gpio.c:78

	//根据带入参数state，决定引脚为输出1还是0
	if(state == 1)
    86e8:	466b      	mov	r3, sp
    86ea:	3305      	adds	r3, #5
    86ec:	781b      	ldrb	r3, [r3, #0]
    86ee:	2b01      	cmp	r3, #1
    86f0:	d10b      	bne.n	870a <gpio_set+0x5a>
F:\WorkSpace\AHL-GEC-EXP\Temp\LCD\Debug/srcc/gpio.c:80
	{
		BSET(pin,GPIO_PDOR_REG(gpio_ptr));
    86f2:	9b03      	ldr	r3, [sp, #12]
    86f4:	681b      	ldr	r3, [r3, #0]
    86f6:	220a      	movs	r2, #10
    86f8:	446a      	add	r2, sp
    86fa:	7812      	ldrb	r2, [r2, #0]
    86fc:	0011      	movs	r1, r2
    86fe:	2201      	movs	r2, #1
    8700:	408a      	lsls	r2, r1
    8702:	431a      	orrs	r2, r3
    8704:	9b03      	ldr	r3, [sp, #12]
    8706:	601a      	str	r2, [r3, #0]
F:\WorkSpace\AHL-GEC-EXP\Temp\LCD\Debug/srcc/gpio.c:86
	}
	else
	{
		BCLR(pin,GPIO_PDOR_REG(gpio_ptr));
	}
}
    8708:	e00b      	b.n	8722 <gpio_set+0x72>
F:\WorkSpace\AHL-GEC-EXP\Temp\LCD\Debug/srcc/gpio.c:84
		BCLR(pin,GPIO_PDOR_REG(gpio_ptr));
    870a:	9b03      	ldr	r3, [sp, #12]
    870c:	681b      	ldr	r3, [r3, #0]
    870e:	220a      	movs	r2, #10
    8710:	446a      	add	r2, sp
    8712:	7812      	ldrb	r2, [r2, #0]
    8714:	0011      	movs	r1, r2
    8716:	2201      	movs	r2, #1
    8718:	408a      	lsls	r2, r1
    871a:	43d2      	mvns	r2, r2
    871c:	401a      	ands	r2, r3
    871e:	9b03      	ldr	r3, [sp, #12]
    8720:	601a      	str	r2, [r3, #0]
F:\WorkSpace\AHL-GEC-EXP\Temp\LCD\Debug/srcc/gpio.c:86
}
    8722:	46c0      	nop			; (mov r8, r8)
    8724:	b005      	add	sp, #20
    8726:	bd00      	pop	{pc}
    8728:	0000ad08 	.word	0x0000ad08

0000872c <gpio_get_port_pin>:
gpio_get_port_pin():
F:\WorkSpace\AHL-GEC-EXP\Temp\LCD\Debug/srcc/gpio.c:347
//       pin:引脚号（0~31，实际取值由芯片的物理引脚决定）（传指带出参数）
//功能概要：将传进参数port_pin进行解析，得出具体端口号与引脚号，分别赋值给port与pin,返回。
//       （例：(PTB_NUM)|(9)解析为PORTB与9，并将其分别赋值给port与pin）。
//=====================================================================
void gpio_get_port_pin(uint16_t port_pin,uint8_t* port,uint8_t* pin)
{
    872c:	b084      	sub	sp, #16
    872e:	9102      	str	r1, [sp, #8]
    8730:	9201      	str	r2, [sp, #4]
    8732:	230e      	movs	r3, #14
    8734:	446b      	add	r3, sp
    8736:	1c02      	adds	r2, r0, #0
    8738:	801a      	strh	r2, [r3, #0]
F:\WorkSpace\AHL-GEC-EXP\Temp\LCD\Debug/srcc/gpio.c:348
	*port = (port_pin>>8);
    873a:	230e      	movs	r3, #14
    873c:	446b      	add	r3, sp
    873e:	881b      	ldrh	r3, [r3, #0]
    8740:	0a1b      	lsrs	r3, r3, #8
    8742:	b29b      	uxth	r3, r3
    8744:	b2da      	uxtb	r2, r3
    8746:	9b02      	ldr	r3, [sp, #8]
    8748:	701a      	strb	r2, [r3, #0]
F:\WorkSpace\AHL-GEC-EXP\Temp\LCD\Debug/srcc/gpio.c:349
	*pin = port_pin;
    874a:	230e      	movs	r3, #14
    874c:	446b      	add	r3, sp
    874e:	881b      	ldrh	r3, [r3, #0]
    8750:	b2da      	uxtb	r2, r3
    8752:	9b01      	ldr	r3, [sp, #4]
    8754:	701a      	strb	r2, [r3, #0]
F:\WorkSpace\AHL-GEC-EXP\Temp\LCD\Debug/srcc/gpio.c:350
}
    8756:	46c0      	nop			; (mov r8, r8)
    8758:	b004      	add	sp, #16
    875a:	4770      	bx	lr

0000875c <NVIC_EnableIRQ>:
NVIC_EnableIRQ():
F:\WorkSpace\AHL-GEC-EXP\Temp\LCD\02_CPU/core_cm0plus.h:684
    The function enables a device-specific interrupt in the NVIC interrupt controller.

    \param [in]      IRQn  External interrupt number. Value cannot be negative.
 */
__STATIC_INLINE void NVIC_EnableIRQ(IRQn_Type IRQn)
{
    875c:	b082      	sub	sp, #8
    875e:	0002      	movs	r2, r0
    8760:	466b      	mov	r3, sp
    8762:	3307      	adds	r3, #7
    8764:	701a      	strb	r2, [r3, #0]
F:\WorkSpace\AHL-GEC-EXP\Temp\LCD\02_CPU/core_cm0plus.h:685
  NVIC->ISER[0] = (uint32_t)(1UL << (((uint32_t)(int32_t)IRQn) & 0x1FUL));
    8766:	466b      	mov	r3, sp
    8768:	3307      	adds	r3, #7
    876a:	781b      	ldrb	r3, [r3, #0]
    876c:	001a      	movs	r2, r3
    876e:	231f      	movs	r3, #31
    8770:	401a      	ands	r2, r3
    8772:	4b04      	ldr	r3, [pc, #16]	; (8784 <NVIC_EnableIRQ+0x28>)
    8774:	2101      	movs	r1, #1
    8776:	4091      	lsls	r1, r2
    8778:	000a      	movs	r2, r1
    877a:	601a      	str	r2, [r3, #0]
F:\WorkSpace\AHL-GEC-EXP\Temp\LCD\02_CPU/core_cm0plus.h:686
}
    877c:	46c0      	nop			; (mov r8, r8)
    877e:	b002      	add	sp, #8
    8780:	4770      	bx	lr
    8782:	46c0      	nop			; (mov r8, r8)
    8784:	e000e100 	.word	0xe000e100

00008788 <suart_init>:
suart_init():
F:\WorkSpace\AHL-GEC-EXP\Temp\LCD\Debug/srcc/suart.c:7

// 内部函数声明
void suart_get_port_pin(uint16_t port_pin, uint8_t* port, uint8_t* pin);

// 模拟串口初始化
void suart_init(uint16_t port_pin, uint8_t dir) {
    8788:	b500      	push	{lr}
    878a:	b085      	sub	sp, #20
    878c:	0002      	movs	r2, r0
    878e:	466b      	mov	r3, sp
    8790:	3306      	adds	r3, #6
    8792:	801a      	strh	r2, [r3, #0]
    8794:	466b      	mov	r3, sp
    8796:	3305      	adds	r3, #5
    8798:	1c0a      	adds	r2, r1, #0
    879a:	701a      	strb	r2, [r3, #0]
F:\WorkSpace\AHL-GEC-EXP\Temp\LCD\Debug/srcc/suart.c:9
    uint8_t port, pin;
    suart_get_port_pin(port_pin, &port, &pin);
    879c:	220e      	movs	r2, #14
    879e:	446a      	add	r2, sp
    87a0:	210f      	movs	r1, #15
    87a2:	4469      	add	r1, sp
    87a4:	466b      	mov	r3, sp
    87a6:	3306      	adds	r3, #6
    87a8:	881b      	ldrh	r3, [r3, #0]
    87aa:	0018      	movs	r0, r3
    87ac:	f000 fc66 	bl	907c <suart_get_port_pin>
F:\WorkSpace\AHL-GEC-EXP\Temp\LCD\Debug/srcc/suart.c:12

    //设定相应端口的相应引脚功port能为GPIO（即令引脚控制寄存器的MUX=0b001）
    PORT_PCR(port, pin) &= ~PORT_PCR_MUX_MASK;//置D10-D8=000
    87b0:	230f      	movs	r3, #15
    87b2:	446b      	add	r3, sp
    87b4:	781b      	ldrb	r3, [r3, #0]
    87b6:	029b      	lsls	r3, r3, #10
    87b8:	220e      	movs	r2, #14
    87ba:	446a      	add	r2, sp
    87bc:	7812      	ldrb	r2, [r2, #0]
    87be:	189b      	adds	r3, r3, r2
    87c0:	009b      	lsls	r3, r3, #2
    87c2:	4a43      	ldr	r2, [pc, #268]	; (88d0 <suart_init+0x148>)
    87c4:	4694      	mov	ip, r2
    87c6:	4463      	add	r3, ip
    87c8:	681a      	ldr	r2, [r3, #0]
    87ca:	230f      	movs	r3, #15
    87cc:	446b      	add	r3, sp
    87ce:	781b      	ldrb	r3, [r3, #0]
    87d0:	029b      	lsls	r3, r3, #10
    87d2:	210e      	movs	r1, #14
    87d4:	4469      	add	r1, sp
    87d6:	7809      	ldrb	r1, [r1, #0]
    87d8:	185b      	adds	r3, r3, r1
    87da:	009b      	lsls	r3, r3, #2
    87dc:	493c      	ldr	r1, [pc, #240]	; (88d0 <suart_init+0x148>)
    87de:	468c      	mov	ip, r1
    87e0:	4463      	add	r3, ip
    87e2:	493c      	ldr	r1, [pc, #240]	; (88d4 <suart_init+0x14c>)
    87e4:	400a      	ands	r2, r1
    87e6:	601a      	str	r2, [r3, #0]
F:\WorkSpace\AHL-GEC-EXP\Temp\LCD\Debug/srcc/suart.c:13
    PORT_PCR(port, pin) |= PORT_PCR_MUX(1);//置D10-D8=001
    87e8:	230f      	movs	r3, #15
    87ea:	446b      	add	r3, sp
    87ec:	781b      	ldrb	r3, [r3, #0]
    87ee:	029b      	lsls	r3, r3, #10
    87f0:	220e      	movs	r2, #14
    87f2:	446a      	add	r2, sp
    87f4:	7812      	ldrb	r2, [r2, #0]
    87f6:	189b      	adds	r3, r3, r2
    87f8:	009b      	lsls	r3, r3, #2
    87fa:	4a35      	ldr	r2, [pc, #212]	; (88d0 <suart_init+0x148>)
    87fc:	4694      	mov	ip, r2
    87fe:	4463      	add	r3, ip
    8800:	681a      	ldr	r2, [r3, #0]
    8802:	230f      	movs	r3, #15
    8804:	446b      	add	r3, sp
    8806:	781b      	ldrb	r3, [r3, #0]
    8808:	029b      	lsls	r3, r3, #10
    880a:	210e      	movs	r1, #14
    880c:	4469      	add	r1, sp
    880e:	7809      	ldrb	r1, [r1, #0]
    8810:	185b      	adds	r3, r3, r1
    8812:	009b      	lsls	r3, r3, #2
    8814:	492e      	ldr	r1, [pc, #184]	; (88d0 <suart_init+0x148>)
    8816:	468c      	mov	ip, r1
    8818:	4463      	add	r3, ip
    881a:	2180      	movs	r1, #128	; 0x80
    881c:	0049      	lsls	r1, r1, #1
    881e:	430a      	orrs	r2, r1
    8820:	601a      	str	r2, [r3, #0]
F:\WorkSpace\AHL-GEC-EXP\Temp\LCD\Debug/srcc/suart.c:16

    // 根据带入参数dir, 决定引脚为输出还是输入
    if (dir == 1) {
    8822:	466b      	mov	r3, sp
    8824:	3305      	adds	r3, #5
    8826:	781b      	ldrb	r3, [r3, #0]
    8828:	2b01      	cmp	r3, #1
    882a:	d132      	bne.n	8892 <suart_init+0x10a>
F:\WorkSpace\AHL-GEC-EXP\Temp\LCD\Debug/srcc/suart.c:18
        // 数据方向寄存器对应位设为1，表示输出
        BSET(pin, SUART_PDDR(port));
    882c:	230f      	movs	r3, #15
    882e:	446b      	add	r3, sp
    8830:	781b      	ldrb	r3, [r3, #0]
    8832:	019b      	lsls	r3, r3, #6
    8834:	3314      	adds	r3, #20
    8836:	4a28      	ldr	r2, [pc, #160]	; (88d8 <suart_init+0x150>)
    8838:	4694      	mov	ip, r2
    883a:	4463      	add	r3, ip
    883c:	681a      	ldr	r2, [r3, #0]
    883e:	230e      	movs	r3, #14
    8840:	446b      	add	r3, sp
    8842:	781b      	ldrb	r3, [r3, #0]
    8844:	0019      	movs	r1, r3
    8846:	2301      	movs	r3, #1
    8848:	408b      	lsls	r3, r1
    884a:	0019      	movs	r1, r3
    884c:	230f      	movs	r3, #15
    884e:	446b      	add	r3, sp
    8850:	781b      	ldrb	r3, [r3, #0]
    8852:	019b      	lsls	r3, r3, #6
    8854:	3314      	adds	r3, #20
    8856:	4820      	ldr	r0, [pc, #128]	; (88d8 <suart_init+0x150>)
    8858:	4684      	mov	ip, r0
    885a:	4463      	add	r3, ip
    885c:	430a      	orrs	r2, r1
    885e:	601a      	str	r2, [r3, #0]
F:\WorkSpace\AHL-GEC-EXP\Temp\LCD\Debug/srcc/suart.c:21

        // 数据输出寄存器对应位设为1(没有数据时保持高电平)，表示高电平
        BSET(pin, SUART_PDOR(port));
    8860:	230f      	movs	r3, #15
    8862:	446b      	add	r3, sp
    8864:	781b      	ldrb	r3, [r3, #0]
    8866:	019b      	lsls	r3, r3, #6
    8868:	4a1b      	ldr	r2, [pc, #108]	; (88d8 <suart_init+0x150>)
    886a:	4694      	mov	ip, r2
    886c:	4463      	add	r3, ip
    886e:	681a      	ldr	r2, [r3, #0]
    8870:	230e      	movs	r3, #14
    8872:	446b      	add	r3, sp
    8874:	781b      	ldrb	r3, [r3, #0]
    8876:	0019      	movs	r1, r3
    8878:	2301      	movs	r3, #1
    887a:	408b      	lsls	r3, r1
    887c:	0019      	movs	r1, r3
    887e:	230f      	movs	r3, #15
    8880:	446b      	add	r3, sp
    8882:	781b      	ldrb	r3, [r3, #0]
    8884:	019b      	lsls	r3, r3, #6
    8886:	4814      	ldr	r0, [pc, #80]	; (88d8 <suart_init+0x150>)
    8888:	4684      	mov	ip, r0
    888a:	4463      	add	r3, ip
    888c:	430a      	orrs	r2, r1
    888e:	601a      	str	r2, [r3, #0]
F:\WorkSpace\AHL-GEC-EXP\Temp\LCD\Debug/srcc/suart.c:27
    }
    else {
        // 数据方向寄存器对应位设为0，表示输入
        BCLR(pin, SUART_PDDR(port));
    }
}
    8890:	e01a      	b.n	88c8 <suart_init+0x140>
F:\WorkSpace\AHL-GEC-EXP\Temp\LCD\Debug/srcc/suart.c:25
        BCLR(pin, SUART_PDDR(port));
    8892:	230f      	movs	r3, #15
    8894:	446b      	add	r3, sp
    8896:	781b      	ldrb	r3, [r3, #0]
    8898:	019b      	lsls	r3, r3, #6
    889a:	3314      	adds	r3, #20
    889c:	4a0e      	ldr	r2, [pc, #56]	; (88d8 <suart_init+0x150>)
    889e:	4694      	mov	ip, r2
    88a0:	4463      	add	r3, ip
    88a2:	681a      	ldr	r2, [r3, #0]
    88a4:	230e      	movs	r3, #14
    88a6:	446b      	add	r3, sp
    88a8:	781b      	ldrb	r3, [r3, #0]
    88aa:	0019      	movs	r1, r3
    88ac:	2301      	movs	r3, #1
    88ae:	408b      	lsls	r3, r1
    88b0:	43db      	mvns	r3, r3
    88b2:	0019      	movs	r1, r3
    88b4:	230f      	movs	r3, #15
    88b6:	446b      	add	r3, sp
    88b8:	781b      	ldrb	r3, [r3, #0]
    88ba:	019b      	lsls	r3, r3, #6
    88bc:	3314      	adds	r3, #20
    88be:	4806      	ldr	r0, [pc, #24]	; (88d8 <suart_init+0x150>)
    88c0:	4684      	mov	ip, r0
    88c2:	4463      	add	r3, ip
    88c4:	400a      	ands	r2, r1
    88c6:	601a      	str	r2, [r3, #0]
F:\WorkSpace\AHL-GEC-EXP\Temp\LCD\Debug/srcc/suart.c:27
}
    88c8:	46c0      	nop			; (mov r8, r8)
    88ca:	b005      	add	sp, #20
    88cc:	bd00      	pop	{pc}
    88ce:	46c0      	nop			; (mov r8, r8)
    88d0:	40049000 	.word	0x40049000
    88d4:	fffff8ff 	.word	0xfffff8ff
    88d8:	400ff000 	.word	0x400ff000

000088dc <suart_set>:
suart_set():
F:\WorkSpace\AHL-GEC-EXP\Temp\LCD\Debug/srcc/suart.c:29

void suart_set(uint8_t port, uint8_t pin, uint8_t status) {
    88dc:	b510      	push	{r4, lr}
    88de:	b082      	sub	sp, #8
    88e0:	0004      	movs	r4, r0
    88e2:	0008      	movs	r0, r1
    88e4:	0011      	movs	r1, r2
    88e6:	466b      	mov	r3, sp
    88e8:	3307      	adds	r3, #7
    88ea:	1c22      	adds	r2, r4, #0
    88ec:	701a      	strb	r2, [r3, #0]
    88ee:	466b      	mov	r3, sp
    88f0:	3306      	adds	r3, #6
    88f2:	1c02      	adds	r2, r0, #0
    88f4:	701a      	strb	r2, [r3, #0]
    88f6:	466b      	mov	r3, sp
    88f8:	3305      	adds	r3, #5
    88fa:	1c0a      	adds	r2, r1, #0
    88fc:	701a      	strb	r2, [r3, #0]
F:\WorkSpace\AHL-GEC-EXP\Temp\LCD\Debug/srcc/suart.c:30
    if (status == 1) {
    88fe:	466b      	mov	r3, sp
    8900:	3305      	adds	r3, #5
    8902:	781b      	ldrb	r3, [r3, #0]
    8904:	2b01      	cmp	r3, #1
    8906:	d118      	bne.n	893a <suart_set+0x5e>
F:\WorkSpace\AHL-GEC-EXP\Temp\LCD\Debug/srcc/suart.c:31
        BSET(pin, SUART_PDOR(port));
    8908:	466b      	mov	r3, sp
    890a:	3307      	adds	r3, #7
    890c:	781b      	ldrb	r3, [r3, #0]
    890e:	019b      	lsls	r3, r3, #6
    8910:	4a18      	ldr	r2, [pc, #96]	; (8974 <suart_set+0x98>)
    8912:	4694      	mov	ip, r2
    8914:	4463      	add	r3, ip
    8916:	681a      	ldr	r2, [r3, #0]
    8918:	466b      	mov	r3, sp
    891a:	3306      	adds	r3, #6
    891c:	781b      	ldrb	r3, [r3, #0]
    891e:	2101      	movs	r1, #1
    8920:	4099      	lsls	r1, r3
    8922:	000b      	movs	r3, r1
    8924:	0019      	movs	r1, r3
    8926:	466b      	mov	r3, sp
    8928:	3307      	adds	r3, #7
    892a:	781b      	ldrb	r3, [r3, #0]
    892c:	019b      	lsls	r3, r3, #6
    892e:	4811      	ldr	r0, [pc, #68]	; (8974 <suart_set+0x98>)
    8930:	4684      	mov	ip, r0
    8932:	4463      	add	r3, ip
    8934:	430a      	orrs	r2, r1
    8936:	601a      	str	r2, [r3, #0]
F:\WorkSpace\AHL-GEC-EXP\Temp\LCD\Debug/srcc/suart.c:36
    }
    else {
        BCLR(pin, SUART_PDOR(port));
    }
}
    8938:	e018      	b.n	896c <suart_set+0x90>
F:\WorkSpace\AHL-GEC-EXP\Temp\LCD\Debug/srcc/suart.c:34
        BCLR(pin, SUART_PDOR(port));
    893a:	466b      	mov	r3, sp
    893c:	3307      	adds	r3, #7
    893e:	781b      	ldrb	r3, [r3, #0]
    8940:	019b      	lsls	r3, r3, #6
    8942:	4a0c      	ldr	r2, [pc, #48]	; (8974 <suart_set+0x98>)
    8944:	4694      	mov	ip, r2
    8946:	4463      	add	r3, ip
    8948:	681a      	ldr	r2, [r3, #0]
    894a:	466b      	mov	r3, sp
    894c:	3306      	adds	r3, #6
    894e:	781b      	ldrb	r3, [r3, #0]
    8950:	2101      	movs	r1, #1
    8952:	4099      	lsls	r1, r3
    8954:	000b      	movs	r3, r1
    8956:	43db      	mvns	r3, r3
    8958:	0019      	movs	r1, r3
    895a:	466b      	mov	r3, sp
    895c:	3307      	adds	r3, #7
    895e:	781b      	ldrb	r3, [r3, #0]
    8960:	019b      	lsls	r3, r3, #6
    8962:	4804      	ldr	r0, [pc, #16]	; (8974 <suart_set+0x98>)
    8964:	4684      	mov	ip, r0
    8966:	4463      	add	r3, ip
    8968:	400a      	ands	r2, r1
    896a:	601a      	str	r2, [r3, #0]
F:\WorkSpace\AHL-GEC-EXP\Temp\LCD\Debug/srcc/suart.c:36
}
    896c:	46c0      	nop			; (mov r8, r8)
    896e:	b002      	add	sp, #8
    8970:	bd10      	pop	{r4, pc}
    8972:	46c0      	nop			; (mov r8, r8)
    8974:	400ff000 	.word	0x400ff000

00008978 <suart_get>:
suart_get():
F:\WorkSpace\AHL-GEC-EXP\Temp\LCD\Debug/srcc/suart.c:39


uint8_t suart_get(uint8_t port, uint8_t pin) {
    8978:	b082      	sub	sp, #8
    897a:	0002      	movs	r2, r0
    897c:	466b      	mov	r3, sp
    897e:	3307      	adds	r3, #7
    8980:	701a      	strb	r2, [r3, #0]
    8982:	466b      	mov	r3, sp
    8984:	3306      	adds	r3, #6
    8986:	1c0a      	adds	r2, r1, #0
    8988:	701a      	strb	r2, [r3, #0]
F:\WorkSpace\AHL-GEC-EXP\Temp\LCD\Debug/srcc/suart.c:41
    // 一般都是获取相应引脚的输入寄存器的值
    return BGET(pin, SUART_PDIR(port));
    898a:	466b      	mov	r3, sp
    898c:	3307      	adds	r3, #7
    898e:	781b      	ldrb	r3, [r3, #0]
    8990:	019b      	lsls	r3, r3, #6
    8992:	3310      	adds	r3, #16
    8994:	4a07      	ldr	r2, [pc, #28]	; (89b4 <suart_get+0x3c>)
    8996:	4694      	mov	ip, r2
    8998:	4463      	add	r3, ip
    899a:	681a      	ldr	r2, [r3, #0]
    899c:	466b      	mov	r3, sp
    899e:	3306      	adds	r3, #6
    89a0:	781b      	ldrb	r3, [r3, #0]
    89a2:	40da      	lsrs	r2, r3
    89a4:	0013      	movs	r3, r2
    89a6:	b2db      	uxtb	r3, r3
    89a8:	2201      	movs	r2, #1
    89aa:	4013      	ands	r3, r2
    89ac:	b2db      	uxtb	r3, r3
F:\WorkSpace\AHL-GEC-EXP\Temp\LCD\Debug/srcc/suart.c:42
}
    89ae:	0018      	movs	r0, r3
    89b0:	b002      	add	sp, #8
    89b2:	4770      	bx	lr
    89b4:	400ff000 	.word	0x400ff000

000089b8 <suart_send>:
suart_send():
F:\WorkSpace\AHL-GEC-EXP\Temp\LCD\Debug/srcc/suart.c:48

// 这个函数的实现本可以用循环来操作，可减少代码量
// 但是经过测试发现，循环每次判断操作也占用一定时间
// 可能会引起一定的误差（用while循环，大概1us），所以就直接对每一位操作
// 下面的suart_receive()函数同理
void suart_send(uint16_t port_pin, uint8_t* arr, uint32_t len) {
    89b8:	b500      	push	{lr}
    89ba:	b08f      	sub	sp, #60	; 0x3c
    89bc:	9102      	str	r1, [sp, #8]
    89be:	9201      	str	r2, [sp, #4]
    89c0:	230e      	movs	r3, #14
    89c2:	446b      	add	r3, sp
    89c4:	1c02      	adds	r2, r0, #0
    89c6:	801a      	strh	r2, [r3, #0]
F:\WorkSpace\AHL-GEC-EXP\Temp\LCD\Debug/srcc/suart.c:50
    uint8_t port, pin;
    suart_get_port_pin(port_pin, &port, &pin);
    89c8:	aa07      	add	r2, sp, #28
    89ca:	211d      	movs	r1, #29
    89cc:	4469      	add	r1, sp
    89ce:	230e      	movs	r3, #14
    89d0:	446b      	add	r3, sp
    89d2:	881b      	ldrh	r3, [r3, #0]
    89d4:	0018      	movs	r0, r3
    89d6:	f000 fb51 	bl	907c <suart_get_port_pin>
F:\WorkSpace\AHL-GEC-EXP\Temp\LCD\Debug/srcc/suart.c:54

    uint8_t bit[8];

    for (uint32_t count = 0; count < len; count++) {
    89da:	2300      	movs	r3, #0
    89dc:	930d      	str	r3, [sp, #52]	; 0x34
    89de:	e11e      	b.n	8c1e <suart_send+0x266>
F:\WorkSpace\AHL-GEC-EXP\Temp\LCD\Debug/srcc/suart.c:56
        // 将字符转成二进制数组
        for (uint8_t i = 0; i < 8; i++) {
    89e0:	2333      	movs	r3, #51	; 0x33
    89e2:	446b      	add	r3, sp
    89e4:	2200      	movs	r2, #0
    89e6:	701a      	strb	r2, [r3, #0]
    89e8:	e019      	b.n	8a1e <suart_send+0x66>
F:\WorkSpace\AHL-GEC-EXP\Temp\LCD\Debug/srcc/suart.c:57 (discriminator 3)
            bit[i] = arr[count] >> i & 1;
    89ea:	9a02      	ldr	r2, [sp, #8]
    89ec:	9b0d      	ldr	r3, [sp, #52]	; 0x34
    89ee:	18d3      	adds	r3, r2, r3
    89f0:	781b      	ldrb	r3, [r3, #0]
    89f2:	001a      	movs	r2, r3
    89f4:	2333      	movs	r3, #51	; 0x33
    89f6:	446b      	add	r3, sp
    89f8:	781b      	ldrb	r3, [r3, #0]
    89fa:	411a      	asrs	r2, r3
    89fc:	0013      	movs	r3, r2
    89fe:	b2da      	uxtb	r2, r3
    8a00:	2333      	movs	r3, #51	; 0x33
    8a02:	446b      	add	r3, sp
    8a04:	781b      	ldrb	r3, [r3, #0]
    8a06:	2101      	movs	r1, #1
    8a08:	400a      	ands	r2, r1
    8a0a:	b2d1      	uxtb	r1, r2
    8a0c:	aa05      	add	r2, sp, #20
    8a0e:	54d1      	strb	r1, [r2, r3]
F:\WorkSpace\AHL-GEC-EXP\Temp\LCD\Debug/srcc/suart.c:56 (discriminator 3)
        for (uint8_t i = 0; i < 8; i++) {
    8a10:	2333      	movs	r3, #51	; 0x33
    8a12:	446b      	add	r3, sp
    8a14:	781a      	ldrb	r2, [r3, #0]
    8a16:	2333      	movs	r3, #51	; 0x33
    8a18:	446b      	add	r3, sp
    8a1a:	3201      	adds	r2, #1
    8a1c:	701a      	strb	r2, [r3, #0]
F:\WorkSpace\AHL-GEC-EXP\Temp\LCD\Debug/srcc/suart.c:56 (discriminator 1)
    8a1e:	2333      	movs	r3, #51	; 0x33
    8a20:	446b      	add	r3, sp
    8a22:	781b      	ldrb	r3, [r3, #0]
    8a24:	2b07      	cmp	r3, #7
    8a26:	d9e0      	bls.n	89ea <suart_send+0x32>
F:\WorkSpace\AHL-GEC-EXP\Temp\LCD\Debug/srcc/suart.c:61
        }

        // 起始位，将电平拉低一个周期表示开始发送数据
        suart_set(port, pin, 0);
    8a28:	231d      	movs	r3, #29
    8a2a:	446b      	add	r3, sp
    8a2c:	7818      	ldrb	r0, [r3, #0]
    8a2e:	ab07      	add	r3, sp, #28
    8a30:	781b      	ldrb	r3, [r3, #0]
    8a32:	2200      	movs	r2, #0
    8a34:	0019      	movs	r1, r3
    8a36:	f7ff ff51 	bl	88dc <suart_set>
F:\WorkSpace\AHL-GEC-EXP\Temp\LCD\Debug/srcc/suart.c:62
        for (uint16_t i = 0; i < delayCount; i++) {}
    8a3a:	ab0c      	add	r3, sp, #48	; 0x30
    8a3c:	2200      	movs	r2, #0
    8a3e:	801a      	strh	r2, [r3, #0]
    8a40:	e004      	b.n	8a4c <suart_send+0x94>
F:\WorkSpace\AHL-GEC-EXP\Temp\LCD\Debug/srcc/suart.c:62 (discriminator 3)
    8a42:	ab0c      	add	r3, sp, #48	; 0x30
    8a44:	881a      	ldrh	r2, [r3, #0]
    8a46:	ab0c      	add	r3, sp, #48	; 0x30
    8a48:	3201      	adds	r2, #1
    8a4a:	801a      	strh	r2, [r3, #0]
F:\WorkSpace\AHL-GEC-EXP\Temp\LCD\Debug/srcc/suart.c:62 (discriminator 1)
    8a4c:	ab0c      	add	r3, sp, #48	; 0x30
    8a4e:	881b      	ldrh	r3, [r3, #0]
    8a50:	2b15      	cmp	r3, #21
    8a52:	d9f6      	bls.n	8a42 <suart_send+0x8a>
F:\WorkSpace\AHL-GEC-EXP\Temp\LCD\Debug/srcc/suart.c:65

        // 第0位
        suart_set(port, pin, bit[0]);
    8a54:	231d      	movs	r3, #29
    8a56:	446b      	add	r3, sp
    8a58:	7818      	ldrb	r0, [r3, #0]
    8a5a:	ab07      	add	r3, sp, #28
    8a5c:	7819      	ldrb	r1, [r3, #0]
    8a5e:	ab05      	add	r3, sp, #20
    8a60:	781b      	ldrb	r3, [r3, #0]
    8a62:	001a      	movs	r2, r3
    8a64:	f7ff ff3a 	bl	88dc <suart_set>
F:\WorkSpace\AHL-GEC-EXP\Temp\LCD\Debug/srcc/suart.c:66
        for (uint16_t i = 0; i < delayCount; i++) {}
    8a68:	232e      	movs	r3, #46	; 0x2e
    8a6a:	446b      	add	r3, sp
    8a6c:	2200      	movs	r2, #0
    8a6e:	801a      	strh	r2, [r3, #0]
    8a70:	e006      	b.n	8a80 <suart_send+0xc8>
F:\WorkSpace\AHL-GEC-EXP\Temp\LCD\Debug/srcc/suart.c:66 (discriminator 3)
    8a72:	232e      	movs	r3, #46	; 0x2e
    8a74:	446b      	add	r3, sp
    8a76:	881a      	ldrh	r2, [r3, #0]
    8a78:	232e      	movs	r3, #46	; 0x2e
    8a7a:	446b      	add	r3, sp
    8a7c:	3201      	adds	r2, #1
    8a7e:	801a      	strh	r2, [r3, #0]
F:\WorkSpace\AHL-GEC-EXP\Temp\LCD\Debug/srcc/suart.c:66 (discriminator 1)
    8a80:	232e      	movs	r3, #46	; 0x2e
    8a82:	446b      	add	r3, sp
    8a84:	881b      	ldrh	r3, [r3, #0]
    8a86:	2b15      	cmp	r3, #21
    8a88:	d9f3      	bls.n	8a72 <suart_send+0xba>
F:\WorkSpace\AHL-GEC-EXP\Temp\LCD\Debug/srcc/suart.c:69

        // 第1位
        suart_set(port, pin, bit[1]);
    8a8a:	231d      	movs	r3, #29
    8a8c:	446b      	add	r3, sp
    8a8e:	7818      	ldrb	r0, [r3, #0]
    8a90:	ab07      	add	r3, sp, #28
    8a92:	7819      	ldrb	r1, [r3, #0]
    8a94:	ab05      	add	r3, sp, #20
    8a96:	785b      	ldrb	r3, [r3, #1]
    8a98:	001a      	movs	r2, r3
    8a9a:	f7ff ff1f 	bl	88dc <suart_set>
F:\WorkSpace\AHL-GEC-EXP\Temp\LCD\Debug/srcc/suart.c:70
        for (uint16_t i = 0; i < delayCount; i++) {}
    8a9e:	ab0b      	add	r3, sp, #44	; 0x2c
    8aa0:	2200      	movs	r2, #0
    8aa2:	801a      	strh	r2, [r3, #0]
    8aa4:	e004      	b.n	8ab0 <suart_send+0xf8>
F:\WorkSpace\AHL-GEC-EXP\Temp\LCD\Debug/srcc/suart.c:70 (discriminator 3)
    8aa6:	ab0b      	add	r3, sp, #44	; 0x2c
    8aa8:	881a      	ldrh	r2, [r3, #0]
    8aaa:	ab0b      	add	r3, sp, #44	; 0x2c
    8aac:	3201      	adds	r2, #1
    8aae:	801a      	strh	r2, [r3, #0]
F:\WorkSpace\AHL-GEC-EXP\Temp\LCD\Debug/srcc/suart.c:70 (discriminator 1)
    8ab0:	ab0b      	add	r3, sp, #44	; 0x2c
    8ab2:	881b      	ldrh	r3, [r3, #0]
    8ab4:	2b15      	cmp	r3, #21
    8ab6:	d9f6      	bls.n	8aa6 <suart_send+0xee>
F:\WorkSpace\AHL-GEC-EXP\Temp\LCD\Debug/srcc/suart.c:73

        // 第2位
        suart_set(port, pin, bit[2]);
    8ab8:	231d      	movs	r3, #29
    8aba:	446b      	add	r3, sp
    8abc:	7818      	ldrb	r0, [r3, #0]
    8abe:	ab07      	add	r3, sp, #28
    8ac0:	7819      	ldrb	r1, [r3, #0]
    8ac2:	ab05      	add	r3, sp, #20
    8ac4:	789b      	ldrb	r3, [r3, #2]
    8ac6:	001a      	movs	r2, r3
    8ac8:	f7ff ff08 	bl	88dc <suart_set>
F:\WorkSpace\AHL-GEC-EXP\Temp\LCD\Debug/srcc/suart.c:74
        for (uint16_t i = 0; i < delayCount; i++) {}
    8acc:	232a      	movs	r3, #42	; 0x2a
    8ace:	446b      	add	r3, sp
    8ad0:	2200      	movs	r2, #0
    8ad2:	801a      	strh	r2, [r3, #0]
    8ad4:	e006      	b.n	8ae4 <suart_send+0x12c>
F:\WorkSpace\AHL-GEC-EXP\Temp\LCD\Debug/srcc/suart.c:74 (discriminator 3)
    8ad6:	232a      	movs	r3, #42	; 0x2a
    8ad8:	446b      	add	r3, sp
    8ada:	881a      	ldrh	r2, [r3, #0]
    8adc:	232a      	movs	r3, #42	; 0x2a
    8ade:	446b      	add	r3, sp
    8ae0:	3201      	adds	r2, #1
    8ae2:	801a      	strh	r2, [r3, #0]
F:\WorkSpace\AHL-GEC-EXP\Temp\LCD\Debug/srcc/suart.c:74 (discriminator 1)
    8ae4:	232a      	movs	r3, #42	; 0x2a
    8ae6:	446b      	add	r3, sp
    8ae8:	881b      	ldrh	r3, [r3, #0]
    8aea:	2b15      	cmp	r3, #21
    8aec:	d9f3      	bls.n	8ad6 <suart_send+0x11e>
F:\WorkSpace\AHL-GEC-EXP\Temp\LCD\Debug/srcc/suart.c:77

        // 第3位
        suart_set(port, pin, bit[3]);
    8aee:	231d      	movs	r3, #29
    8af0:	446b      	add	r3, sp
    8af2:	7818      	ldrb	r0, [r3, #0]
    8af4:	ab07      	add	r3, sp, #28
    8af6:	7819      	ldrb	r1, [r3, #0]
    8af8:	ab05      	add	r3, sp, #20
    8afa:	78db      	ldrb	r3, [r3, #3]
    8afc:	001a      	movs	r2, r3
    8afe:	f7ff feed 	bl	88dc <suart_set>
F:\WorkSpace\AHL-GEC-EXP\Temp\LCD\Debug/srcc/suart.c:78
        for (uint16_t i = 0; i < delayCount; i++) {}
    8b02:	ab0a      	add	r3, sp, #40	; 0x28
    8b04:	2200      	movs	r2, #0
    8b06:	801a      	strh	r2, [r3, #0]
    8b08:	e004      	b.n	8b14 <suart_send+0x15c>
F:\WorkSpace\AHL-GEC-EXP\Temp\LCD\Debug/srcc/suart.c:78 (discriminator 3)
    8b0a:	ab0a      	add	r3, sp, #40	; 0x28
    8b0c:	881a      	ldrh	r2, [r3, #0]
    8b0e:	ab0a      	add	r3, sp, #40	; 0x28
    8b10:	3201      	adds	r2, #1
    8b12:	801a      	strh	r2, [r3, #0]
F:\WorkSpace\AHL-GEC-EXP\Temp\LCD\Debug/srcc/suart.c:78 (discriminator 1)
    8b14:	ab0a      	add	r3, sp, #40	; 0x28
    8b16:	881b      	ldrh	r3, [r3, #0]
    8b18:	2b15      	cmp	r3, #21
    8b1a:	d9f6      	bls.n	8b0a <suart_send+0x152>
F:\WorkSpace\AHL-GEC-EXP\Temp\LCD\Debug/srcc/suart.c:81

        // 第4位
        suart_set(port, pin, bit[4]);
    8b1c:	231d      	movs	r3, #29
    8b1e:	446b      	add	r3, sp
    8b20:	7818      	ldrb	r0, [r3, #0]
    8b22:	ab07      	add	r3, sp, #28
    8b24:	7819      	ldrb	r1, [r3, #0]
    8b26:	ab05      	add	r3, sp, #20
    8b28:	791b      	ldrb	r3, [r3, #4]
    8b2a:	001a      	movs	r2, r3
    8b2c:	f7ff fed6 	bl	88dc <suart_set>
F:\WorkSpace\AHL-GEC-EXP\Temp\LCD\Debug/srcc/suart.c:82
        for (uint16_t i = 0; i < delayCount; i++) {}
    8b30:	2326      	movs	r3, #38	; 0x26
    8b32:	446b      	add	r3, sp
    8b34:	2200      	movs	r2, #0
    8b36:	801a      	strh	r2, [r3, #0]
    8b38:	e006      	b.n	8b48 <suart_send+0x190>
F:\WorkSpace\AHL-GEC-EXP\Temp\LCD\Debug/srcc/suart.c:82 (discriminator 3)
    8b3a:	2326      	movs	r3, #38	; 0x26
    8b3c:	446b      	add	r3, sp
    8b3e:	881a      	ldrh	r2, [r3, #0]
    8b40:	2326      	movs	r3, #38	; 0x26
    8b42:	446b      	add	r3, sp
    8b44:	3201      	adds	r2, #1
    8b46:	801a      	strh	r2, [r3, #0]
F:\WorkSpace\AHL-GEC-EXP\Temp\LCD\Debug/srcc/suart.c:82 (discriminator 1)
    8b48:	2326      	movs	r3, #38	; 0x26
    8b4a:	446b      	add	r3, sp
    8b4c:	881b      	ldrh	r3, [r3, #0]
    8b4e:	2b15      	cmp	r3, #21
    8b50:	d9f3      	bls.n	8b3a <suart_send+0x182>
F:\WorkSpace\AHL-GEC-EXP\Temp\LCD\Debug/srcc/suart.c:85

        // 第5位
        suart_set(port, pin, bit[5]);
    8b52:	231d      	movs	r3, #29
    8b54:	446b      	add	r3, sp
    8b56:	7818      	ldrb	r0, [r3, #0]
    8b58:	ab07      	add	r3, sp, #28
    8b5a:	7819      	ldrb	r1, [r3, #0]
    8b5c:	ab05      	add	r3, sp, #20
    8b5e:	795b      	ldrb	r3, [r3, #5]
    8b60:	001a      	movs	r2, r3
    8b62:	f7ff febb 	bl	88dc <suart_set>
F:\WorkSpace\AHL-GEC-EXP\Temp\LCD\Debug/srcc/suart.c:86
        for (uint16_t i = 0; i < delayCount; i++) {}
    8b66:	ab09      	add	r3, sp, #36	; 0x24
    8b68:	2200      	movs	r2, #0
    8b6a:	801a      	strh	r2, [r3, #0]
    8b6c:	e004      	b.n	8b78 <suart_send+0x1c0>
F:\WorkSpace\AHL-GEC-EXP\Temp\LCD\Debug/srcc/suart.c:86 (discriminator 3)
    8b6e:	ab09      	add	r3, sp, #36	; 0x24
    8b70:	881a      	ldrh	r2, [r3, #0]
    8b72:	ab09      	add	r3, sp, #36	; 0x24
    8b74:	3201      	adds	r2, #1
    8b76:	801a      	strh	r2, [r3, #0]
F:\WorkSpace\AHL-GEC-EXP\Temp\LCD\Debug/srcc/suart.c:86 (discriminator 1)
    8b78:	ab09      	add	r3, sp, #36	; 0x24
    8b7a:	881b      	ldrh	r3, [r3, #0]
    8b7c:	2b15      	cmp	r3, #21
    8b7e:	d9f6      	bls.n	8b6e <suart_send+0x1b6>
F:\WorkSpace\AHL-GEC-EXP\Temp\LCD\Debug/srcc/suart.c:89

        // 第6位
        suart_set(port, pin, bit[6]);
    8b80:	231d      	movs	r3, #29
    8b82:	446b      	add	r3, sp
    8b84:	7818      	ldrb	r0, [r3, #0]
    8b86:	ab07      	add	r3, sp, #28
    8b88:	7819      	ldrb	r1, [r3, #0]
    8b8a:	ab05      	add	r3, sp, #20
    8b8c:	799b      	ldrb	r3, [r3, #6]
    8b8e:	001a      	movs	r2, r3
    8b90:	f7ff fea4 	bl	88dc <suart_set>
F:\WorkSpace\AHL-GEC-EXP\Temp\LCD\Debug/srcc/suart.c:90
        for (uint16_t i = 0; i < delayCount; i++) {}
    8b94:	2322      	movs	r3, #34	; 0x22
    8b96:	446b      	add	r3, sp
    8b98:	2200      	movs	r2, #0
    8b9a:	801a      	strh	r2, [r3, #0]
    8b9c:	e006      	b.n	8bac <suart_send+0x1f4>
F:\WorkSpace\AHL-GEC-EXP\Temp\LCD\Debug/srcc/suart.c:90 (discriminator 3)
    8b9e:	2322      	movs	r3, #34	; 0x22
    8ba0:	446b      	add	r3, sp
    8ba2:	881a      	ldrh	r2, [r3, #0]
    8ba4:	2322      	movs	r3, #34	; 0x22
    8ba6:	446b      	add	r3, sp
    8ba8:	3201      	adds	r2, #1
    8baa:	801a      	strh	r2, [r3, #0]
F:\WorkSpace\AHL-GEC-EXP\Temp\LCD\Debug/srcc/suart.c:90 (discriminator 1)
    8bac:	2322      	movs	r3, #34	; 0x22
    8bae:	446b      	add	r3, sp
    8bb0:	881b      	ldrh	r3, [r3, #0]
    8bb2:	2b15      	cmp	r3, #21
    8bb4:	d9f3      	bls.n	8b9e <suart_send+0x1e6>
F:\WorkSpace\AHL-GEC-EXP\Temp\LCD\Debug/srcc/suart.c:93

        // 第7位
        suart_set(port, pin, bit[7]);
    8bb6:	231d      	movs	r3, #29
    8bb8:	446b      	add	r3, sp
    8bba:	7818      	ldrb	r0, [r3, #0]
    8bbc:	ab07      	add	r3, sp, #28
    8bbe:	7819      	ldrb	r1, [r3, #0]
    8bc0:	ab05      	add	r3, sp, #20
    8bc2:	79db      	ldrb	r3, [r3, #7]
    8bc4:	001a      	movs	r2, r3
    8bc6:	f7ff fe89 	bl	88dc <suart_set>
F:\WorkSpace\AHL-GEC-EXP\Temp\LCD\Debug/srcc/suart.c:94
        for (uint16_t i = 0; i < delayCount; i++) {}
    8bca:	ab08      	add	r3, sp, #32
    8bcc:	2200      	movs	r2, #0
    8bce:	801a      	strh	r2, [r3, #0]
    8bd0:	e004      	b.n	8bdc <suart_send+0x224>
F:\WorkSpace\AHL-GEC-EXP\Temp\LCD\Debug/srcc/suart.c:94 (discriminator 3)
    8bd2:	ab08      	add	r3, sp, #32
    8bd4:	881a      	ldrh	r2, [r3, #0]
    8bd6:	ab08      	add	r3, sp, #32
    8bd8:	3201      	adds	r2, #1
    8bda:	801a      	strh	r2, [r3, #0]
F:\WorkSpace\AHL-GEC-EXP\Temp\LCD\Debug/srcc/suart.c:94 (discriminator 1)
    8bdc:	ab08      	add	r3, sp, #32
    8bde:	881b      	ldrh	r3, [r3, #0]
    8be0:	2b15      	cmp	r3, #21
    8be2:	d9f6      	bls.n	8bd2 <suart_send+0x21a>
F:\WorkSpace\AHL-GEC-EXP\Temp\LCD\Debug/srcc/suart.c:97

        // 终止位, 将电平拉高
        suart_set(port, pin, 1);
    8be4:	231d      	movs	r3, #29
    8be6:	446b      	add	r3, sp
    8be8:	7818      	ldrb	r0, [r3, #0]
    8bea:	ab07      	add	r3, sp, #28
    8bec:	781b      	ldrb	r3, [r3, #0]
    8bee:	2201      	movs	r2, #1
    8bf0:	0019      	movs	r1, r3
    8bf2:	f7ff fe73 	bl	88dc <suart_set>
F:\WorkSpace\AHL-GEC-EXP\Temp\LCD\Debug/srcc/suart.c:98
        for (uint16_t i = 0; i < delayCount; i++) {}
    8bf6:	231e      	movs	r3, #30
    8bf8:	446b      	add	r3, sp
    8bfa:	2200      	movs	r2, #0
    8bfc:	801a      	strh	r2, [r3, #0]
    8bfe:	e006      	b.n	8c0e <suart_send+0x256>
F:\WorkSpace\AHL-GEC-EXP\Temp\LCD\Debug/srcc/suart.c:98 (discriminator 3)
    8c00:	231e      	movs	r3, #30
    8c02:	446b      	add	r3, sp
    8c04:	881a      	ldrh	r2, [r3, #0]
    8c06:	231e      	movs	r3, #30
    8c08:	446b      	add	r3, sp
    8c0a:	3201      	adds	r2, #1
    8c0c:	801a      	strh	r2, [r3, #0]
F:\WorkSpace\AHL-GEC-EXP\Temp\LCD\Debug/srcc/suart.c:98 (discriminator 1)
    8c0e:	231e      	movs	r3, #30
    8c10:	446b      	add	r3, sp
    8c12:	881b      	ldrh	r3, [r3, #0]
    8c14:	2b15      	cmp	r3, #21
    8c16:	d9f3      	bls.n	8c00 <suart_send+0x248>
F:\WorkSpace\AHL-GEC-EXP\Temp\LCD\Debug/srcc/suart.c:54 (discriminator 2)
    for (uint32_t count = 0; count < len; count++) {
    8c18:	9b0d      	ldr	r3, [sp, #52]	; 0x34
    8c1a:	3301      	adds	r3, #1
    8c1c:	930d      	str	r3, [sp, #52]	; 0x34
F:\WorkSpace\AHL-GEC-EXP\Temp\LCD\Debug/srcc/suart.c:54 (discriminator 1)
    8c1e:	9a0d      	ldr	r2, [sp, #52]	; 0x34
    8c20:	9b01      	ldr	r3, [sp, #4]
    8c22:	429a      	cmp	r2, r3
    8c24:	d200      	bcs.n	8c28 <suart_send+0x270>
    8c26:	e6db      	b.n	89e0 <suart_send+0x28>
F:\WorkSpace\AHL-GEC-EXP\Temp\LCD\Debug/srcc/suart.c:100
    }
}
    8c28:	46c0      	nop			; (mov r8, r8)
    8c2a:	46c0      	nop			; (mov r8, r8)
    8c2c:	b00f      	add	sp, #60	; 0x3c
    8c2e:	bd00      	pop	{pc}

00008c30 <suart_receive>:
suart_receive():
F:\WorkSpace\AHL-GEC-EXP\Temp\LCD\Debug/srcc/suart.c:103


uint32_t suart_receive(uint16_t port_pin, uint8_t* arr) {
    8c30:	b500      	push	{lr}
    8c32:	b08d      	sub	sp, #52	; 0x34
    8c34:	0002      	movs	r2, r0
    8c36:	9100      	str	r1, [sp, #0]
    8c38:	466b      	mov	r3, sp
    8c3a:	3306      	adds	r3, #6
    8c3c:	801a      	strh	r2, [r3, #0]
F:\WorkSpace\AHL-GEC-EXP\Temp\LCD\Debug/srcc/suart.c:106

    uint8_t port, pin;
    uint16_t count = 4096;
    8c3e:	232e      	movs	r3, #46	; 0x2e
    8c40:	446b      	add	r3, sp
    8c42:	2280      	movs	r2, #128	; 0x80
    8c44:	0152      	lsls	r2, r2, #5
    8c46:	801a      	strh	r2, [r3, #0]
F:\WorkSpace\AHL-GEC-EXP\Temp\LCD\Debug/srcc/suart.c:107
    uint32_t len = 0;
    8c48:	2300      	movs	r3, #0
    8c4a:	930a      	str	r3, [sp, #40]	; 0x28
F:\WorkSpace\AHL-GEC-EXP\Temp\LCD\Debug/srcc/suart.c:108
    arr[len] = 0;
    8c4c:	9a00      	ldr	r2, [sp, #0]
    8c4e:	9b0a      	ldr	r3, [sp, #40]	; 0x28
    8c50:	18d3      	adds	r3, r2, r3
    8c52:	2200      	movs	r2, #0
    8c54:	701a      	strb	r2, [r3, #0]
F:\WorkSpace\AHL-GEC-EXP\Temp\LCD\Debug/srcc/suart.c:111
    uint8_t bit[8];

    suart_get_port_pin(port_pin, &port, &pin);
    8c56:	2211      	movs	r2, #17
    8c58:	446a      	add	r2, sp
    8c5a:	2112      	movs	r1, #18
    8c5c:	4469      	add	r1, sp
    8c5e:	466b      	mov	r3, sp
    8c60:	3306      	adds	r3, #6
    8c62:	881b      	ldrh	r3, [r3, #0]
    8c64:	0018      	movs	r0, r3
    8c66:	f000 fa09 	bl	907c <suart_get_port_pin>
F:\WorkSpace\AHL-GEC-EXP\Temp\LCD\Debug/srcc/suart.c:113

    while (count--) {
    8c6a:	e184      	b.n	8f76 <suart_receive+0x346>
F:\WorkSpace\AHL-GEC-EXP\Temp\LCD\Debug/srcc/suart.c:115
        // 起始位
        for (uint16_t i = 0; i < delayCount / 2; i++) {}
    8c6c:	2326      	movs	r3, #38	; 0x26
    8c6e:	446b      	add	r3, sp
    8c70:	2200      	movs	r2, #0
    8c72:	801a      	strh	r2, [r3, #0]
    8c74:	e006      	b.n	8c84 <suart_receive+0x54>
F:\WorkSpace\AHL-GEC-EXP\Temp\LCD\Debug/srcc/suart.c:115 (discriminator 3)
    8c76:	2326      	movs	r3, #38	; 0x26
    8c78:	446b      	add	r3, sp
    8c7a:	881a      	ldrh	r2, [r3, #0]
    8c7c:	2326      	movs	r3, #38	; 0x26
    8c7e:	446b      	add	r3, sp
    8c80:	3201      	adds	r2, #1
    8c82:	801a      	strh	r2, [r3, #0]
F:\WorkSpace\AHL-GEC-EXP\Temp\LCD\Debug/srcc/suart.c:115 (discriminator 1)
    8c84:	2326      	movs	r3, #38	; 0x26
    8c86:	446b      	add	r3, sp
    8c88:	881b      	ldrh	r3, [r3, #0]
    8c8a:	2b0a      	cmp	r3, #10
    8c8c:	d9f3      	bls.n	8c76 <suart_receive+0x46>
F:\WorkSpace\AHL-GEC-EXP\Temp\LCD\Debug/srcc/suart.c:116
        suart_get(port, pin);
    8c8e:	2312      	movs	r3, #18
    8c90:	446b      	add	r3, sp
    8c92:	781a      	ldrb	r2, [r3, #0]
    8c94:	2311      	movs	r3, #17
    8c96:	446b      	add	r3, sp
    8c98:	781b      	ldrb	r3, [r3, #0]
    8c9a:	0019      	movs	r1, r3
    8c9c:	0010      	movs	r0, r2
    8c9e:	f7ff fe6b 	bl	8978 <suart_get>
F:\WorkSpace\AHL-GEC-EXP\Temp\LCD\Debug/srcc/suart.c:119

        // 第0位
        for (uint16_t i = 0; i < delayCount; i++) {}
    8ca2:	ab09      	add	r3, sp, #36	; 0x24
    8ca4:	2200      	movs	r2, #0
    8ca6:	801a      	strh	r2, [r3, #0]
    8ca8:	e004      	b.n	8cb4 <suart_receive+0x84>
F:\WorkSpace\AHL-GEC-EXP\Temp\LCD\Debug/srcc/suart.c:119 (discriminator 3)
    8caa:	ab09      	add	r3, sp, #36	; 0x24
    8cac:	881a      	ldrh	r2, [r3, #0]
    8cae:	ab09      	add	r3, sp, #36	; 0x24
    8cb0:	3201      	adds	r2, #1
    8cb2:	801a      	strh	r2, [r3, #0]
F:\WorkSpace\AHL-GEC-EXP\Temp\LCD\Debug/srcc/suart.c:119 (discriminator 1)
    8cb4:	ab09      	add	r3, sp, #36	; 0x24
    8cb6:	881b      	ldrh	r3, [r3, #0]
    8cb8:	2b15      	cmp	r3, #21
    8cba:	d9f6      	bls.n	8caa <suart_receive+0x7a>
F:\WorkSpace\AHL-GEC-EXP\Temp\LCD\Debug/srcc/suart.c:120
        bit[0] = suart_get(port, pin);
    8cbc:	2312      	movs	r3, #18
    8cbe:	446b      	add	r3, sp
    8cc0:	781a      	ldrb	r2, [r3, #0]
    8cc2:	2311      	movs	r3, #17
    8cc4:	446b      	add	r3, sp
    8cc6:	781b      	ldrb	r3, [r3, #0]
    8cc8:	0019      	movs	r1, r3
    8cca:	0010      	movs	r0, r2
    8ccc:	f7ff fe54 	bl	8978 <suart_get>
    8cd0:	0003      	movs	r3, r0
    8cd2:	001a      	movs	r2, r3
    8cd4:	ab02      	add	r3, sp, #8
    8cd6:	701a      	strb	r2, [r3, #0]
F:\WorkSpace\AHL-GEC-EXP\Temp\LCD\Debug/srcc/suart.c:123

        // 第1位
        for (uint16_t i = 0; i < delayCount; i++) {}
    8cd8:	2322      	movs	r3, #34	; 0x22
    8cda:	446b      	add	r3, sp
    8cdc:	2200      	movs	r2, #0
    8cde:	801a      	strh	r2, [r3, #0]
    8ce0:	e006      	b.n	8cf0 <suart_receive+0xc0>
F:\WorkSpace\AHL-GEC-EXP\Temp\LCD\Debug/srcc/suart.c:123 (discriminator 3)
    8ce2:	2322      	movs	r3, #34	; 0x22
    8ce4:	446b      	add	r3, sp
    8ce6:	881a      	ldrh	r2, [r3, #0]
    8ce8:	2322      	movs	r3, #34	; 0x22
    8cea:	446b      	add	r3, sp
    8cec:	3201      	adds	r2, #1
    8cee:	801a      	strh	r2, [r3, #0]
F:\WorkSpace\AHL-GEC-EXP\Temp\LCD\Debug/srcc/suart.c:123 (discriminator 1)
    8cf0:	2322      	movs	r3, #34	; 0x22
    8cf2:	446b      	add	r3, sp
    8cf4:	881b      	ldrh	r3, [r3, #0]
    8cf6:	2b15      	cmp	r3, #21
    8cf8:	d9f3      	bls.n	8ce2 <suart_receive+0xb2>
F:\WorkSpace\AHL-GEC-EXP\Temp\LCD\Debug/srcc/suart.c:124
        bit[1] = suart_get(port, pin);
    8cfa:	2312      	movs	r3, #18
    8cfc:	446b      	add	r3, sp
    8cfe:	781a      	ldrb	r2, [r3, #0]
    8d00:	2311      	movs	r3, #17
    8d02:	446b      	add	r3, sp
    8d04:	781b      	ldrb	r3, [r3, #0]
    8d06:	0019      	movs	r1, r3
    8d08:	0010      	movs	r0, r2
    8d0a:	f7ff fe35 	bl	8978 <suart_get>
    8d0e:	0003      	movs	r3, r0
    8d10:	001a      	movs	r2, r3
    8d12:	ab02      	add	r3, sp, #8
    8d14:	705a      	strb	r2, [r3, #1]
F:\WorkSpace\AHL-GEC-EXP\Temp\LCD\Debug/srcc/suart.c:127

        // 第2位
        for (uint16_t i = 0; i < delayCount; i++) {}
    8d16:	ab08      	add	r3, sp, #32
    8d18:	2200      	movs	r2, #0
    8d1a:	801a      	strh	r2, [r3, #0]
    8d1c:	e004      	b.n	8d28 <suart_receive+0xf8>
F:\WorkSpace\AHL-GEC-EXP\Temp\LCD\Debug/srcc/suart.c:127 (discriminator 3)
    8d1e:	ab08      	add	r3, sp, #32
    8d20:	881a      	ldrh	r2, [r3, #0]
    8d22:	ab08      	add	r3, sp, #32
    8d24:	3201      	adds	r2, #1
    8d26:	801a      	strh	r2, [r3, #0]
F:\WorkSpace\AHL-GEC-EXP\Temp\LCD\Debug/srcc/suart.c:127 (discriminator 1)
    8d28:	ab08      	add	r3, sp, #32
    8d2a:	881b      	ldrh	r3, [r3, #0]
    8d2c:	2b15      	cmp	r3, #21
    8d2e:	d9f6      	bls.n	8d1e <suart_receive+0xee>
F:\WorkSpace\AHL-GEC-EXP\Temp\LCD\Debug/srcc/suart.c:128
        bit[2] = suart_get(port, pin);
    8d30:	2312      	movs	r3, #18
    8d32:	446b      	add	r3, sp
    8d34:	781a      	ldrb	r2, [r3, #0]
    8d36:	2311      	movs	r3, #17
    8d38:	446b      	add	r3, sp
    8d3a:	781b      	ldrb	r3, [r3, #0]
    8d3c:	0019      	movs	r1, r3
    8d3e:	0010      	movs	r0, r2
    8d40:	f7ff fe1a 	bl	8978 <suart_get>
    8d44:	0003      	movs	r3, r0
    8d46:	001a      	movs	r2, r3
    8d48:	ab02      	add	r3, sp, #8
    8d4a:	709a      	strb	r2, [r3, #2]
F:\WorkSpace\AHL-GEC-EXP\Temp\LCD\Debug/srcc/suart.c:131

        // 第3位
        for (uint16_t i = 0; i < delayCount; i++) {}
    8d4c:	231e      	movs	r3, #30
    8d4e:	446b      	add	r3, sp
    8d50:	2200      	movs	r2, #0
    8d52:	801a      	strh	r2, [r3, #0]
    8d54:	e006      	b.n	8d64 <suart_receive+0x134>
F:\WorkSpace\AHL-GEC-EXP\Temp\LCD\Debug/srcc/suart.c:131 (discriminator 3)
    8d56:	231e      	movs	r3, #30
    8d58:	446b      	add	r3, sp
    8d5a:	881a      	ldrh	r2, [r3, #0]
    8d5c:	231e      	movs	r3, #30
    8d5e:	446b      	add	r3, sp
    8d60:	3201      	adds	r2, #1
    8d62:	801a      	strh	r2, [r3, #0]
F:\WorkSpace\AHL-GEC-EXP\Temp\LCD\Debug/srcc/suart.c:131 (discriminator 1)
    8d64:	231e      	movs	r3, #30
    8d66:	446b      	add	r3, sp
    8d68:	881b      	ldrh	r3, [r3, #0]
    8d6a:	2b15      	cmp	r3, #21
    8d6c:	d9f3      	bls.n	8d56 <suart_receive+0x126>
F:\WorkSpace\AHL-GEC-EXP\Temp\LCD\Debug/srcc/suart.c:132
        bit[3] = suart_get(port, pin);
    8d6e:	2312      	movs	r3, #18
    8d70:	446b      	add	r3, sp
    8d72:	781a      	ldrb	r2, [r3, #0]
    8d74:	2311      	movs	r3, #17
    8d76:	446b      	add	r3, sp
    8d78:	781b      	ldrb	r3, [r3, #0]
    8d7a:	0019      	movs	r1, r3
    8d7c:	0010      	movs	r0, r2
    8d7e:	f7ff fdfb 	bl	8978 <suart_get>
    8d82:	0003      	movs	r3, r0
    8d84:	001a      	movs	r2, r3
    8d86:	ab02      	add	r3, sp, #8
    8d88:	70da      	strb	r2, [r3, #3]
F:\WorkSpace\AHL-GEC-EXP\Temp\LCD\Debug/srcc/suart.c:135

        // 第4位
        for (uint16_t i = 0; i < delayCount; i++) {}
    8d8a:	ab07      	add	r3, sp, #28
    8d8c:	2200      	movs	r2, #0
    8d8e:	801a      	strh	r2, [r3, #0]
    8d90:	e004      	b.n	8d9c <suart_receive+0x16c>
F:\WorkSpace\AHL-GEC-EXP\Temp\LCD\Debug/srcc/suart.c:135 (discriminator 3)
    8d92:	ab07      	add	r3, sp, #28
    8d94:	881a      	ldrh	r2, [r3, #0]
    8d96:	ab07      	add	r3, sp, #28
    8d98:	3201      	adds	r2, #1
    8d9a:	801a      	strh	r2, [r3, #0]
F:\WorkSpace\AHL-GEC-EXP\Temp\LCD\Debug/srcc/suart.c:135 (discriminator 1)
    8d9c:	ab07      	add	r3, sp, #28
    8d9e:	881b      	ldrh	r3, [r3, #0]
    8da0:	2b15      	cmp	r3, #21
    8da2:	d9f6      	bls.n	8d92 <suart_receive+0x162>
F:\WorkSpace\AHL-GEC-EXP\Temp\LCD\Debug/srcc/suart.c:136
        bit[4] = suart_get(port, pin);
    8da4:	2312      	movs	r3, #18
    8da6:	446b      	add	r3, sp
    8da8:	781a      	ldrb	r2, [r3, #0]
    8daa:	2311      	movs	r3, #17
    8dac:	446b      	add	r3, sp
    8dae:	781b      	ldrb	r3, [r3, #0]
    8db0:	0019      	movs	r1, r3
    8db2:	0010      	movs	r0, r2
    8db4:	f7ff fde0 	bl	8978 <suart_get>
    8db8:	0003      	movs	r3, r0
    8dba:	001a      	movs	r2, r3
    8dbc:	ab02      	add	r3, sp, #8
    8dbe:	711a      	strb	r2, [r3, #4]
F:\WorkSpace\AHL-GEC-EXP\Temp\LCD\Debug/srcc/suart.c:139

        // 第5位
        for (uint16_t i = 0; i < delayCount; i++) {}
    8dc0:	231a      	movs	r3, #26
    8dc2:	446b      	add	r3, sp
    8dc4:	2200      	movs	r2, #0
    8dc6:	801a      	strh	r2, [r3, #0]
    8dc8:	e006      	b.n	8dd8 <suart_receive+0x1a8>
F:\WorkSpace\AHL-GEC-EXP\Temp\LCD\Debug/srcc/suart.c:139 (discriminator 3)
    8dca:	231a      	movs	r3, #26
    8dcc:	446b      	add	r3, sp
    8dce:	881a      	ldrh	r2, [r3, #0]
    8dd0:	231a      	movs	r3, #26
    8dd2:	446b      	add	r3, sp
    8dd4:	3201      	adds	r2, #1
    8dd6:	801a      	strh	r2, [r3, #0]
F:\WorkSpace\AHL-GEC-EXP\Temp\LCD\Debug/srcc/suart.c:139 (discriminator 1)
    8dd8:	231a      	movs	r3, #26
    8dda:	446b      	add	r3, sp
    8ddc:	881b      	ldrh	r3, [r3, #0]
    8dde:	2b15      	cmp	r3, #21
    8de0:	d9f3      	bls.n	8dca <suart_receive+0x19a>
F:\WorkSpace\AHL-GEC-EXP\Temp\LCD\Debug/srcc/suart.c:140
        bit[5] = suart_get(port, pin);
    8de2:	2312      	movs	r3, #18
    8de4:	446b      	add	r3, sp
    8de6:	781a      	ldrb	r2, [r3, #0]
    8de8:	2311      	movs	r3, #17
    8dea:	446b      	add	r3, sp
    8dec:	781b      	ldrb	r3, [r3, #0]
    8dee:	0019      	movs	r1, r3
    8df0:	0010      	movs	r0, r2
    8df2:	f7ff fdc1 	bl	8978 <suart_get>
    8df6:	0003      	movs	r3, r0
    8df8:	001a      	movs	r2, r3
    8dfa:	ab02      	add	r3, sp, #8
    8dfc:	715a      	strb	r2, [r3, #5]
F:\WorkSpace\AHL-GEC-EXP\Temp\LCD\Debug/srcc/suart.c:143

        // 第6位
        for (uint16_t i = 0; i < delayCount; i++) {}
    8dfe:	ab06      	add	r3, sp, #24
    8e00:	2200      	movs	r2, #0
    8e02:	801a      	strh	r2, [r3, #0]
    8e04:	e004      	b.n	8e10 <suart_receive+0x1e0>
F:\WorkSpace\AHL-GEC-EXP\Temp\LCD\Debug/srcc/suart.c:143 (discriminator 3)
    8e06:	ab06      	add	r3, sp, #24
    8e08:	881a      	ldrh	r2, [r3, #0]
    8e0a:	ab06      	add	r3, sp, #24
    8e0c:	3201      	adds	r2, #1
    8e0e:	801a      	strh	r2, [r3, #0]
F:\WorkSpace\AHL-GEC-EXP\Temp\LCD\Debug/srcc/suart.c:143 (discriminator 1)
    8e10:	ab06      	add	r3, sp, #24
    8e12:	881b      	ldrh	r3, [r3, #0]
    8e14:	2b15      	cmp	r3, #21
    8e16:	d9f6      	bls.n	8e06 <suart_receive+0x1d6>
F:\WorkSpace\AHL-GEC-EXP\Temp\LCD\Debug/srcc/suart.c:144
        bit[6] = suart_get(port, pin);
    8e18:	2312      	movs	r3, #18
    8e1a:	446b      	add	r3, sp
    8e1c:	781a      	ldrb	r2, [r3, #0]
    8e1e:	2311      	movs	r3, #17
    8e20:	446b      	add	r3, sp
    8e22:	781b      	ldrb	r3, [r3, #0]
    8e24:	0019      	movs	r1, r3
    8e26:	0010      	movs	r0, r2
    8e28:	f7ff fda6 	bl	8978 <suart_get>
    8e2c:	0003      	movs	r3, r0
    8e2e:	001a      	movs	r2, r3
    8e30:	ab02      	add	r3, sp, #8
    8e32:	719a      	strb	r2, [r3, #6]
F:\WorkSpace\AHL-GEC-EXP\Temp\LCD\Debug/srcc/suart.c:147

        // 第7位
        for (uint16_t i = 0; i < delayCount; i++) {}
    8e34:	2316      	movs	r3, #22
    8e36:	446b      	add	r3, sp
    8e38:	2200      	movs	r2, #0
    8e3a:	801a      	strh	r2, [r3, #0]
    8e3c:	e006      	b.n	8e4c <suart_receive+0x21c>
F:\WorkSpace\AHL-GEC-EXP\Temp\LCD\Debug/srcc/suart.c:147 (discriminator 3)
    8e3e:	2316      	movs	r3, #22
    8e40:	446b      	add	r3, sp
    8e42:	881a      	ldrh	r2, [r3, #0]
    8e44:	2316      	movs	r3, #22
    8e46:	446b      	add	r3, sp
    8e48:	3201      	adds	r2, #1
    8e4a:	801a      	strh	r2, [r3, #0]
F:\WorkSpace\AHL-GEC-EXP\Temp\LCD\Debug/srcc/suart.c:147 (discriminator 1)
    8e4c:	2316      	movs	r3, #22
    8e4e:	446b      	add	r3, sp
    8e50:	881b      	ldrh	r3, [r3, #0]
    8e52:	2b15      	cmp	r3, #21
    8e54:	d9f3      	bls.n	8e3e <suart_receive+0x20e>
F:\WorkSpace\AHL-GEC-EXP\Temp\LCD\Debug/srcc/suart.c:148
        bit[7] = suart_get(port, pin);
    8e56:	2312      	movs	r3, #18
    8e58:	446b      	add	r3, sp
    8e5a:	781a      	ldrb	r2, [r3, #0]
    8e5c:	2311      	movs	r3, #17
    8e5e:	446b      	add	r3, sp
    8e60:	781b      	ldrb	r3, [r3, #0]
    8e62:	0019      	movs	r1, r3
    8e64:	0010      	movs	r0, r2
    8e66:	f7ff fd87 	bl	8978 <suart_get>
    8e6a:	0003      	movs	r3, r0
    8e6c:	001a      	movs	r2, r3
    8e6e:	ab02      	add	r3, sp, #8
    8e70:	71da      	strb	r2, [r3, #7]
F:\WorkSpace\AHL-GEC-EXP\Temp\LCD\Debug/srcc/suart.c:152

        // 终止位, 这里减少10次，是因为下面的语句执行也要占用一定时间
        // 所以利用终止位的时间来进行这些运算
        for (uint16_t i = 0; i < delayCount - 10; i++) {}
    8e72:	ab05      	add	r3, sp, #20
    8e74:	2200      	movs	r2, #0
    8e76:	801a      	strh	r2, [r3, #0]
    8e78:	e004      	b.n	8e84 <suart_receive+0x254>
F:\WorkSpace\AHL-GEC-EXP\Temp\LCD\Debug/srcc/suart.c:152 (discriminator 3)
    8e7a:	ab05      	add	r3, sp, #20
    8e7c:	881a      	ldrh	r2, [r3, #0]
    8e7e:	ab05      	add	r3, sp, #20
    8e80:	3201      	adds	r2, #1
    8e82:	801a      	strh	r2, [r3, #0]
F:\WorkSpace\AHL-GEC-EXP\Temp\LCD\Debug/srcc/suart.c:152 (discriminator 1)
    8e84:	ab05      	add	r3, sp, #20
    8e86:	881b      	ldrh	r3, [r3, #0]
    8e88:	2b0b      	cmp	r3, #11
    8e8a:	d9f6      	bls.n	8e7a <suart_receive+0x24a>
F:\WorkSpace\AHL-GEC-EXP\Temp\LCD\Debug/srcc/suart.c:154

        for (uint8_t i = 0; i < 8; i++) {
    8e8c:	2313      	movs	r3, #19
    8e8e:	446b      	add	r3, sp
    8e90:	2200      	movs	r2, #0
    8e92:	701a      	strb	r2, [r3, #0]
    8e94:	e01c      	b.n	8ed0 <suart_receive+0x2a0>
F:\WorkSpace\AHL-GEC-EXP\Temp\LCD\Debug/srcc/suart.c:155 (discriminator 3)
            arr[len] += (bit[i] << i);
    8e96:	9a00      	ldr	r2, [sp, #0]
    8e98:	9b0a      	ldr	r3, [sp, #40]	; 0x28
    8e9a:	18d3      	adds	r3, r2, r3
    8e9c:	7819      	ldrb	r1, [r3, #0]
    8e9e:	2313      	movs	r3, #19
    8ea0:	446b      	add	r3, sp
    8ea2:	781b      	ldrb	r3, [r3, #0]
    8ea4:	aa02      	add	r2, sp, #8
    8ea6:	5cd3      	ldrb	r3, [r2, r3]
    8ea8:	001a      	movs	r2, r3
    8eaa:	2313      	movs	r3, #19
    8eac:	446b      	add	r3, sp
    8eae:	781b      	ldrb	r3, [r3, #0]
    8eb0:	409a      	lsls	r2, r3
    8eb2:	0013      	movs	r3, r2
    8eb4:	b2da      	uxtb	r2, r3
    8eb6:	9800      	ldr	r0, [sp, #0]
    8eb8:	9b0a      	ldr	r3, [sp, #40]	; 0x28
    8eba:	18c3      	adds	r3, r0, r3
    8ebc:	188a      	adds	r2, r1, r2
    8ebe:	b2d2      	uxtb	r2, r2
    8ec0:	701a      	strb	r2, [r3, #0]
F:\WorkSpace\AHL-GEC-EXP\Temp\LCD\Debug/srcc/suart.c:154 (discriminator 3)
        for (uint8_t i = 0; i < 8; i++) {
    8ec2:	2313      	movs	r3, #19
    8ec4:	446b      	add	r3, sp
    8ec6:	781a      	ldrb	r2, [r3, #0]
    8ec8:	2313      	movs	r3, #19
    8eca:	446b      	add	r3, sp
    8ecc:	3201      	adds	r2, #1
    8ece:	701a      	strb	r2, [r3, #0]
F:\WorkSpace\AHL-GEC-EXP\Temp\LCD\Debug/srcc/suart.c:154 (discriminator 1)
    8ed0:	2313      	movs	r3, #19
    8ed2:	446b      	add	r3, sp
    8ed4:	781b      	ldrb	r3, [r3, #0]
    8ed6:	2b07      	cmp	r3, #7
    8ed8:	d9dd      	bls.n	8e96 <suart_receive+0x266>
F:\WorkSpace\AHL-GEC-EXP\Temp\LCD\Debug/srcc/suart.c:157
        }
        if (!(arr[len] ^ 255)) {
    8eda:	9a00      	ldr	r2, [sp, #0]
    8edc:	9b0a      	ldr	r3, [sp, #40]	; 0x28
    8ede:	18d3      	adds	r3, r2, r3
    8ee0:	781b      	ldrb	r3, [r3, #0]
    8ee2:	2bff      	cmp	r3, #255	; 0xff
    8ee4:	d123      	bne.n	8f2e <suart_receive+0x2fe>
F:\WorkSpace\AHL-GEC-EXP\Temp\LCD\Debug/srcc/suart.c:158
            arr[len] = '\0';
    8ee6:	9a00      	ldr	r2, [sp, #0]
    8ee8:	9b0a      	ldr	r3, [sp, #40]	; 0x28
    8eea:	18d3      	adds	r3, r2, r3
    8eec:	2200      	movs	r2, #0
    8eee:	701a      	strb	r2, [r3, #0]
F:\WorkSpace\AHL-GEC-EXP\Temp\LCD\Debug/srcc/suart.c:159
            PORT_PCR(port, pin) |= PORT_PCR_ISF(1); // 清除中断状态
    8ef0:	2312      	movs	r3, #18
    8ef2:	446b      	add	r3, sp
    8ef4:	781b      	ldrb	r3, [r3, #0]
    8ef6:	029b      	lsls	r3, r3, #10
    8ef8:	2211      	movs	r2, #17
    8efa:	446a      	add	r2, sp
    8efc:	7812      	ldrb	r2, [r2, #0]
    8efe:	189b      	adds	r3, r3, r2
    8f00:	009b      	lsls	r3, r3, #2
    8f02:	4a23      	ldr	r2, [pc, #140]	; (8f90 <suart_receive+0x360>)
    8f04:	4694      	mov	ip, r2
    8f06:	4463      	add	r3, ip
    8f08:	681a      	ldr	r2, [r3, #0]
    8f0a:	2312      	movs	r3, #18
    8f0c:	446b      	add	r3, sp
    8f0e:	781b      	ldrb	r3, [r3, #0]
    8f10:	029b      	lsls	r3, r3, #10
    8f12:	2111      	movs	r1, #17
    8f14:	4469      	add	r1, sp
    8f16:	7809      	ldrb	r1, [r1, #0]
    8f18:	185b      	adds	r3, r3, r1
    8f1a:	009b      	lsls	r3, r3, #2
    8f1c:	491c      	ldr	r1, [pc, #112]	; (8f90 <suart_receive+0x360>)
    8f1e:	468c      	mov	ip, r1
    8f20:	4463      	add	r3, ip
    8f22:	2180      	movs	r1, #128	; 0x80
    8f24:	0449      	lsls	r1, r1, #17
    8f26:	430a      	orrs	r2, r1
    8f28:	601a      	str	r2, [r3, #0]
F:\WorkSpace\AHL-GEC-EXP\Temp\LCD\Debug/srcc/suart.c:160
            return len;
    8f2a:	9b0a      	ldr	r3, [sp, #40]	; 0x28
    8f2c:	e02d      	b.n	8f8a <suart_receive+0x35a>
F:\WorkSpace\AHL-GEC-EXP\Temp\LCD\Debug/srcc/suart.c:162
        }
        count = 4096;
    8f2e:	232e      	movs	r3, #46	; 0x2e
    8f30:	446b      	add	r3, sp
    8f32:	2280      	movs	r2, #128	; 0x80
    8f34:	0152      	lsls	r2, r2, #5
    8f36:	801a      	strh	r2, [r3, #0]
F:\WorkSpace\AHL-GEC-EXP\Temp\LCD\Debug/srcc/suart.c:163
        arr[++len] = 0;
    8f38:	9b0a      	ldr	r3, [sp, #40]	; 0x28
    8f3a:	3301      	adds	r3, #1
    8f3c:	930a      	str	r3, [sp, #40]	; 0x28
    8f3e:	9a00      	ldr	r2, [sp, #0]
    8f40:	9b0a      	ldr	r3, [sp, #40]	; 0x28
    8f42:	18d3      	adds	r3, r2, r3
    8f44:	2200      	movs	r2, #0
    8f46:	701a      	strb	r2, [r3, #0]
F:\WorkSpace\AHL-GEC-EXP\Temp\LCD\Debug/srcc/suart.c:166

        // 消耗掉终止位剩余的时间，方便进行下一个字符的接收
        while (count--) {
    8f48:	e00c      	b.n	8f64 <suart_receive+0x334>
F:\WorkSpace\AHL-GEC-EXP\Temp\LCD\Debug/srcc/suart.c:167
            if (!suart_get(port, pin)) {
    8f4a:	2312      	movs	r3, #18
    8f4c:	446b      	add	r3, sp
    8f4e:	781a      	ldrb	r2, [r3, #0]
    8f50:	2311      	movs	r3, #17
    8f52:	446b      	add	r3, sp
    8f54:	781b      	ldrb	r3, [r3, #0]
    8f56:	0019      	movs	r1, r3
    8f58:	0010      	movs	r0, r2
    8f5a:	f7ff fd0d 	bl	8978 <suart_get>
    8f5e:	1e03      	subs	r3, r0, #0
    8f60:	d100      	bne.n	8f64 <suart_receive+0x334>
F:\WorkSpace\AHL-GEC-EXP\Temp\LCD\Debug/srcc/suart.c:168
                break;
    8f62:	e008      	b.n	8f76 <suart_receive+0x346>
F:\WorkSpace\AHL-GEC-EXP\Temp\LCD\Debug/srcc/suart.c:166
        while (count--) {
    8f64:	232e      	movs	r3, #46	; 0x2e
    8f66:	446b      	add	r3, sp
    8f68:	881b      	ldrh	r3, [r3, #0]
    8f6a:	222e      	movs	r2, #46	; 0x2e
    8f6c:	446a      	add	r2, sp
    8f6e:	1e59      	subs	r1, r3, #1
    8f70:	8011      	strh	r1, [r2, #0]
    8f72:	2b00      	cmp	r3, #0
    8f74:	d1e9      	bne.n	8f4a <suart_receive+0x31a>
F:\WorkSpace\AHL-GEC-EXP\Temp\LCD\Debug/srcc/suart.c:113
    while (count--) {
    8f76:	232e      	movs	r3, #46	; 0x2e
    8f78:	446b      	add	r3, sp
    8f7a:	881b      	ldrh	r3, [r3, #0]
    8f7c:	222e      	movs	r2, #46	; 0x2e
    8f7e:	446a      	add	r2, sp
    8f80:	1e59      	subs	r1, r3, #1
    8f82:	8011      	strh	r1, [r2, #0]
    8f84:	2b00      	cmp	r3, #0
    8f86:	d000      	beq.n	8f8a <suart_receive+0x35a>
    8f88:	e670      	b.n	8c6c <suart_receive+0x3c>
F:\WorkSpace\AHL-GEC-EXP\Temp\LCD\Debug/srcc/suart.c:172
            }
        }
    }
}
    8f8a:	0018      	movs	r0, r3
    8f8c:	b00d      	add	sp, #52	; 0x34
    8f8e:	bd00      	pop	{pc}
    8f90:	40049000 	.word	0x40049000

00008f94 <suart_enable_receive_interupt>:
suart_enable_receive_interupt():
F:\WorkSpace\AHL-GEC-EXP\Temp\LCD\Debug/srcc/suart.c:175

// 打开串口接收中断, 下降沿触发
void suart_enable_receive_interupt(uint16_t port_pin) {
    8f94:	b500      	push	{lr}
    8f96:	b085      	sub	sp, #20
    8f98:	0002      	movs	r2, r0
    8f9a:	466b      	mov	r3, sp
    8f9c:	3306      	adds	r3, #6
    8f9e:	801a      	strh	r2, [r3, #0]
F:\WorkSpace\AHL-GEC-EXP\Temp\LCD\Debug/srcc/suart.c:177
    uint8_t port, pin;
    suart_get_port_pin(port_pin, &port, &pin);
    8fa0:	220e      	movs	r2, #14
    8fa2:	446a      	add	r2, sp
    8fa4:	210f      	movs	r1, #15
    8fa6:	4469      	add	r1, sp
    8fa8:	466b      	mov	r3, sp
    8faa:	3306      	adds	r3, #6
    8fac:	881b      	ldrh	r3, [r3, #0]
    8fae:	0018      	movs	r0, r3
    8fb0:	f000 f864 	bl	907c <suart_get_port_pin>
F:\WorkSpace\AHL-GEC-EXP\Temp\LCD\Debug/srcc/suart.c:180

    // 清引脚控制寄存器中断配置字段，将D19-D16置零
    PORT_PCR(port, pin) &= ~PORT_PCR_IRQC_MASK;
    8fb4:	230f      	movs	r3, #15
    8fb6:	446b      	add	r3, sp
    8fb8:	781b      	ldrb	r3, [r3, #0]
    8fba:	029b      	lsls	r3, r3, #10
    8fbc:	220e      	movs	r2, #14
    8fbe:	446a      	add	r2, sp
    8fc0:	7812      	ldrb	r2, [r2, #0]
    8fc2:	189b      	adds	r3, r3, r2
    8fc4:	009b      	lsls	r3, r3, #2
    8fc6:	4a29      	ldr	r2, [pc, #164]	; (906c <suart_enable_receive_interupt+0xd8>)
    8fc8:	4694      	mov	ip, r2
    8fca:	4463      	add	r3, ip
    8fcc:	681a      	ldr	r2, [r3, #0]
    8fce:	230f      	movs	r3, #15
    8fd0:	446b      	add	r3, sp
    8fd2:	781b      	ldrb	r3, [r3, #0]
    8fd4:	029b      	lsls	r3, r3, #10
    8fd6:	210e      	movs	r1, #14
    8fd8:	4469      	add	r1, sp
    8fda:	7809      	ldrb	r1, [r1, #0]
    8fdc:	185b      	adds	r3, r3, r1
    8fde:	009b      	lsls	r3, r3, #2
    8fe0:	4922      	ldr	r1, [pc, #136]	; (906c <suart_enable_receive_interupt+0xd8>)
    8fe2:	468c      	mov	ip, r1
    8fe4:	4463      	add	r3, ip
    8fe6:	4922      	ldr	r1, [pc, #136]	; (9070 <suart_enable_receive_interupt+0xdc>)
    8fe8:	400a      	ands	r2, r1
    8fea:	601a      	str	r2, [r3, #0]
F:\WorkSpace\AHL-GEC-EXP\Temp\LCD\Debug/srcc/suart.c:182
    // 将D19-D16置成1010， 表示下降沿触发
    PORT_PCR(port, pin) |= PORT_PCR_IRQC(10);
    8fec:	230f      	movs	r3, #15
    8fee:	446b      	add	r3, sp
    8ff0:	781b      	ldrb	r3, [r3, #0]
    8ff2:	029b      	lsls	r3, r3, #10
    8ff4:	220e      	movs	r2, #14
    8ff6:	446a      	add	r2, sp
    8ff8:	7812      	ldrb	r2, [r2, #0]
    8ffa:	189b      	adds	r3, r3, r2
    8ffc:	009b      	lsls	r3, r3, #2
    8ffe:	4a1b      	ldr	r2, [pc, #108]	; (906c <suart_enable_receive_interupt+0xd8>)
    9000:	4694      	mov	ip, r2
    9002:	4463      	add	r3, ip
    9004:	681a      	ldr	r2, [r3, #0]
    9006:	230f      	movs	r3, #15
    9008:	446b      	add	r3, sp
    900a:	781b      	ldrb	r3, [r3, #0]
    900c:	029b      	lsls	r3, r3, #10
    900e:	210e      	movs	r1, #14
    9010:	4469      	add	r1, sp
    9012:	7809      	ldrb	r1, [r1, #0]
    9014:	185b      	adds	r3, r3, r1
    9016:	009b      	lsls	r3, r3, #2
    9018:	4914      	ldr	r1, [pc, #80]	; (906c <suart_enable_receive_interupt+0xd8>)
    901a:	468c      	mov	ip, r1
    901c:	4463      	add	r3, ip
    901e:	21a0      	movs	r1, #160	; 0xa0
    9020:	0309      	lsls	r1, r1, #12
    9022:	430a      	orrs	r2, r1
    9024:	601a      	str	r2, [r3, #0]
F:\WorkSpace\AHL-GEC-EXP\Temp\LCD\Debug/srcc/suart.c:184

    if (port == 0) {
    9026:	230f      	movs	r3, #15
    9028:	446b      	add	r3, sp
    902a:	781b      	ldrb	r3, [r3, #0]
    902c:	2b00      	cmp	r3, #0
    902e:	d103      	bne.n	9038 <suart_enable_receive_interupt+0xa4>
F:\WorkSpace\AHL-GEC-EXP\Temp\LCD\Debug/srcc/suart.c:185
        NVIC_EnableIRQ(PORTA_IRQn);    //使能A端口中断
    9030:	201e      	movs	r0, #30
    9032:	f7ff fb93 	bl	875c <NVIC_EnableIRQ>
F:\WorkSpace\AHL-GEC-EXP\Temp\LCD\Debug/srcc/suart.c:195
    else {
        printf("Fail to init port interupt！！！\n");
        printf("Please select around Port A or C or D\n");
    }

}
    9036:	e015      	b.n	9064 <suart_enable_receive_interupt+0xd0>
F:\WorkSpace\AHL-GEC-EXP\Temp\LCD\Debug/srcc/suart.c:187
    else if (port == 2 || port == 3) {
    9038:	230f      	movs	r3, #15
    903a:	446b      	add	r3, sp
    903c:	781b      	ldrb	r3, [r3, #0]
    903e:	2b02      	cmp	r3, #2
    9040:	d004      	beq.n	904c <suart_enable_receive_interupt+0xb8>
F:\WorkSpace\AHL-GEC-EXP\Temp\LCD\Debug/srcc/suart.c:187 (discriminator 1)
    9042:	230f      	movs	r3, #15
    9044:	446b      	add	r3, sp
    9046:	781b      	ldrb	r3, [r3, #0]
    9048:	2b03      	cmp	r3, #3
    904a:	d103      	bne.n	9054 <suart_enable_receive_interupt+0xc0>
F:\WorkSpace\AHL-GEC-EXP\Temp\LCD\Debug/srcc/suart.c:188
        NVIC_EnableIRQ(PORTC_PORTD_IRQn);    //使能C、D端口中断
    904c:	201f      	movs	r0, #31
    904e:	f7ff fb85 	bl	875c <NVIC_EnableIRQ>
F:\WorkSpace\AHL-GEC-EXP\Temp\LCD\Debug/srcc/suart.c:195
}
    9052:	e007      	b.n	9064 <suart_enable_receive_interupt+0xd0>
F:\WorkSpace\AHL-GEC-EXP\Temp\LCD\Debug/srcc/suart.c:191
        printf("Fail to init port interupt！！！\n");
    9054:	4b07      	ldr	r3, [pc, #28]	; (9074 <suart_enable_receive_interupt+0xe0>)
    9056:	0018      	movs	r0, r3
    9058:	f001 fd9a 	bl	ab90 <myprintf>
F:\WorkSpace\AHL-GEC-EXP\Temp\LCD\Debug/srcc/suart.c:192
        printf("Please select around Port A or C or D\n");
    905c:	4b06      	ldr	r3, [pc, #24]	; (9078 <suart_enable_receive_interupt+0xe4>)
    905e:	0018      	movs	r0, r3
    9060:	f001 fd96 	bl	ab90 <myprintf>
F:\WorkSpace\AHL-GEC-EXP\Temp\LCD\Debug/srcc/suart.c:195
}
    9064:	46c0      	nop			; (mov r8, r8)
    9066:	b005      	add	sp, #20
    9068:	bd00      	pop	{pc}
    906a:	46c0      	nop			; (mov r8, r8)
    906c:	40049000 	.word	0x40049000
    9070:	fff0ffff 	.word	0xfff0ffff
    9074:	0000ac14 	.word	0x0000ac14
    9078:	0000ac38 	.word	0x0000ac38

0000907c <suart_get_port_pin>:
suart_get_port_pin():
F:\WorkSpace\AHL-GEC-EXP\Temp\LCD\Debug/srcc/suart.c:200


// 内部函数存放处
void suart_get_port_pin(uint16_t port_pin, uint8_t* port, uint8_t* pin)
{
    907c:	b084      	sub	sp, #16
    907e:	9102      	str	r1, [sp, #8]
    9080:	9201      	str	r2, [sp, #4]
    9082:	230e      	movs	r3, #14
    9084:	446b      	add	r3, sp
    9086:	1c02      	adds	r2, r0, #0
    9088:	801a      	strh	r2, [r3, #0]
F:\WorkSpace\AHL-GEC-EXP\Temp\LCD\Debug/srcc/suart.c:201
    *port = (port_pin >> 8);
    908a:	230e      	movs	r3, #14
    908c:	446b      	add	r3, sp
    908e:	881b      	ldrh	r3, [r3, #0]
    9090:	0a1b      	lsrs	r3, r3, #8
    9092:	b29b      	uxth	r3, r3
    9094:	b2da      	uxtb	r2, r3
    9096:	9b02      	ldr	r3, [sp, #8]
    9098:	701a      	strb	r2, [r3, #0]
F:\WorkSpace\AHL-GEC-EXP\Temp\LCD\Debug/srcc/suart.c:202
    *pin = port_pin;
    909a:	230e      	movs	r3, #14
    909c:	446b      	add	r3, sp
    909e:	881b      	ldrh	r3, [r3, #0]
    90a0:	b2da      	uxtb	r2, r3
    90a2:	9b01      	ldr	r3, [sp, #4]
    90a4:	701a      	strb	r2, [r3, #0]
F:\WorkSpace\AHL-GEC-EXP\Temp\LCD\Debug/srcc/suart.c:203
}
    90a6:	46c0      	nop			; (mov r8, r8)
    90a8:	b004      	add	sp, #16
    90aa:	4770      	bx	lr

000090ac <wdog_stop>:
wdog_stop():
F:\WorkSpace\AHL-GEC-EXP\Temp\LCD\Debug/srcc/wdog.c:40
//参数说明：无
//函数返回：无
//=========================================================================
void wdog_stop()
{
    SIM_COPC &= ~SIM_COPC_COPT_MASK;
    90ac:	4a06      	ldr	r2, [pc, #24]	; (90c8 <wdog_stop+0x1c>)
    90ae:	2388      	movs	r3, #136	; 0x88
    90b0:	015b      	lsls	r3, r3, #5
    90b2:	58d3      	ldr	r3, [r2, r3]
    90b4:	4904      	ldr	r1, [pc, #16]	; (90c8 <wdog_stop+0x1c>)
    90b6:	220c      	movs	r2, #12
    90b8:	4393      	bics	r3, r2
    90ba:	001a      	movs	r2, r3
    90bc:	2388      	movs	r3, #136	; 0x88
    90be:	015b      	lsls	r3, r3, #5
    90c0:	50ca      	str	r2, [r1, r3]
F:\WorkSpace\AHL-GEC-EXP\Temp\LCD\Debug/srcc/wdog.c:41
}
    90c2:	46c0      	nop			; (mov r8, r8)
    90c4:	4770      	bx	lr
    90c6:	46c0      	nop			; (mov r8, r8)
    90c8:	40047000 	.word	0x40047000

000090cc <spi_init>:
spi_init():
F:\WorkSpace\AHL-GEC-EXP\Temp\LCD\Debug/srcc/spi.c:24
//       CPHA：CPHA=0相位为0； CPHA=1相位为1；
//函数返回：无
//=====================================================================
void spi_init(uint8_t No,uint8_t MSTR,uint16_t BaudRate,\
		uint8_t CPOL,uint8_t CPHA)
{
    90cc:	b530      	push	{r4, r5, lr}
    90ce:	b085      	sub	sp, #20
    90d0:	0005      	movs	r5, r0
    90d2:	000c      	movs	r4, r1
    90d4:	0010      	movs	r0, r2
    90d6:	0019      	movs	r1, r3
    90d8:	466b      	mov	r3, sp
    90da:	3307      	adds	r3, #7
    90dc:	1c2a      	adds	r2, r5, #0
    90de:	701a      	strb	r2, [r3, #0]
    90e0:	466b      	mov	r3, sp
    90e2:	3306      	adds	r3, #6
    90e4:	1c22      	adds	r2, r4, #0
    90e6:	701a      	strb	r2, [r3, #0]
    90e8:	ab01      	add	r3, sp, #4
    90ea:	1c02      	adds	r2, r0, #0
    90ec:	801a      	strh	r2, [r3, #0]
    90ee:	466b      	mov	r3, sp
    90f0:	3303      	adds	r3, #3
    90f2:	1c0a      	adds	r2, r1, #0
    90f4:	701a      	strb	r2, [r3, #0]
F:\WorkSpace\AHL-GEC-EXP\Temp\LCD\Debug/srcc/spi.c:29
    uint8_t BaudRate_Mode;
    uint8_t BaudRate_High;
    uint8_t BaudRate_Low;
    //如果SPI号参数错误则强制选择 0号模块
    if(No<SPI_0||No>SPI_1)   No=SPI_0;    
    90f6:	466b      	mov	r3, sp
    90f8:	3307      	adds	r3, #7
    90fa:	781b      	ldrb	r3, [r3, #0]
    90fc:	2b01      	cmp	r3, #1
    90fe:	d903      	bls.n	9108 <spi_init+0x3c>
F:\WorkSpace\AHL-GEC-EXP\Temp\LCD\Debug/srcc/spi.c:29 (discriminator 1)
    9100:	466b      	mov	r3, sp
    9102:	3307      	adds	r3, #7
    9104:	2200      	movs	r2, #0
    9106:	701a      	strb	r2, [r3, #0]
F:\WorkSpace\AHL-GEC-EXP\Temp\LCD\Debug/srcc/spi.c:30
    if(No==SPI_0)                         //初始化SPI0功能
    9108:	466b      	mov	r3, sp
    910a:	3307      	adds	r3, #7
    910c:	781b      	ldrb	r3, [r3, #0]
    910e:	2b00      	cmp	r3, #0
    9110:	d000      	beq.n	9114 <spi_init+0x48>
    9112:	e0d4      	b.n	92be <spi_init+0x1f2>
F:\WorkSpace\AHL-GEC-EXP\Temp\LCD\Debug/srcc/spi.c:32
    {
        BSET(SIM_SCGC4_SPI0_SHIFT,SIM_SCGC4);   //打开SPI0模块时钟。
    9114:	4ad5      	ldr	r2, [pc, #852]	; (946c <spi_init+0x3a0>)
    9116:	4bd6      	ldr	r3, [pc, #856]	; (9470 <spi_init+0x3a4>)
    9118:	58d3      	ldr	r3, [r2, r3]
    911a:	49d4      	ldr	r1, [pc, #848]	; (946c <spi_init+0x3a0>)
    911c:	2280      	movs	r2, #128	; 0x80
    911e:	03d2      	lsls	r2, r2, #15
    9120:	4313      	orrs	r3, r2
    9122:	4ad3      	ldr	r2, [pc, #844]	; (9470 <spi_init+0x3a4>)
    9124:	508b      	str	r3, [r1, r2]
F:\WorkSpace\AHL-GEC-EXP\Temp\LCD\Debug/srcc/spi.c:34
        //引脚复用为SPI0功能
        PORTC_PCR4=(0|PORT_PCR_MUX(0x02));     //选择PTC4的SS功能
    9126:	4bd3      	ldr	r3, [pc, #844]	; (9474 <spi_init+0x3a8>)
    9128:	2280      	movs	r2, #128	; 0x80
    912a:	0092      	lsls	r2, r2, #2
    912c:	611a      	str	r2, [r3, #16]
F:\WorkSpace\AHL-GEC-EXP\Temp\LCD\Debug/srcc/spi.c:35
        PORTC_PCR5=(0|PORT_PCR_MUX(0x02));     //选择PTC5的SCK功能
    912e:	4bd1      	ldr	r3, [pc, #836]	; (9474 <spi_init+0x3a8>)
    9130:	2280      	movs	r2, #128	; 0x80
    9132:	0092      	lsls	r2, r2, #2
    9134:	615a      	str	r2, [r3, #20]
F:\WorkSpace\AHL-GEC-EXP\Temp\LCD\Debug/srcc/spi.c:36
        PORTC_PCR6=(0|PORT_PCR_MUX(0x02));     //选择PTC6的MOSI功能
    9136:	4bcf      	ldr	r3, [pc, #828]	; (9474 <spi_init+0x3a8>)
    9138:	2280      	movs	r2, #128	; 0x80
    913a:	0092      	lsls	r2, r2, #2
    913c:	619a      	str	r2, [r3, #24]
F:\WorkSpace\AHL-GEC-EXP\Temp\LCD\Debug/srcc/spi.c:37
        PORTC_PCR7=(0|PORT_PCR_MUX(0x02));     //选择PTC7的MIOS功能
    913e:	4bcd      	ldr	r3, [pc, #820]	; (9474 <spi_init+0x3a8>)
    9140:	2280      	movs	r2, #128	; 0x80
    9142:	0092      	lsls	r2, r2, #2
    9144:	61da      	str	r2, [r3, #28]
F:\WorkSpace\AHL-GEC-EXP\Temp\LCD\Debug/srcc/spi.c:39

        SPI0_C1=0x00;                           //SPI控制寄存器1清零
    9146:	4bcc      	ldr	r3, [pc, #816]	; (9478 <spi_init+0x3ac>)
    9148:	2200      	movs	r2, #0
    914a:	70da      	strb	r2, [r3, #3]
F:\WorkSpace\AHL-GEC-EXP\Temp\LCD\Debug/srcc/spi.c:40
        BSET(SPI_C1_SPE_SHIFT,SPI0_C1);         //使能SPI模块
    914c:	4bca      	ldr	r3, [pc, #808]	; (9478 <spi_init+0x3ac>)
    914e:	78db      	ldrb	r3, [r3, #3]
    9150:	b2db      	uxtb	r3, r3
    9152:	4ac9      	ldr	r2, [pc, #804]	; (9478 <spi_init+0x3ac>)
    9154:	2140      	movs	r1, #64	; 0x40
    9156:	430b      	orrs	r3, r1
    9158:	b2db      	uxtb	r3, r3
    915a:	70d3      	strb	r3, [r2, #3]
F:\WorkSpace\AHL-GEC-EXP\Temp\LCD\Debug/srcc/spi.c:44

        //MSTR=1为主机模式；
        //MSTR=0为从机模式（因MSTR初始值为0，无需更改）
        (MSTR==1)?BSET(SPI_C1_MSTR_SHIFT,SPI0_C1):\
    915c:	466b      	mov	r3, sp
    915e:	3306      	adds	r3, #6
    9160:	781b      	ldrb	r3, [r3, #0]
    9162:	2b01      	cmp	r3, #1
    9164:	d108      	bne.n	9178 <spi_init+0xac>
F:\WorkSpace\AHL-GEC-EXP\Temp\LCD\Debug/srcc/spi.c:44 (discriminator 1)
    9166:	4bc4      	ldr	r3, [pc, #784]	; (9478 <spi_init+0x3ac>)
    9168:	78db      	ldrb	r3, [r3, #3]
    916a:	b2db      	uxtb	r3, r3
    916c:	4ac2      	ldr	r2, [pc, #776]	; (9478 <spi_init+0x3ac>)
    916e:	2110      	movs	r1, #16
    9170:	430b      	orrs	r3, r1
    9172:	b2db      	uxtb	r3, r3
    9174:	70d3      	strb	r3, [r2, #3]
    9176:	e008      	b.n	918a <spi_init+0xbe>
F:\WorkSpace\AHL-GEC-EXP\Temp\LCD\Debug/srcc/spi.c:45 (discriminator 2)
                       BSET(SPI_C1_SPIE_SHIFT,SPI0_C1);
    9178:	4bbf      	ldr	r3, [pc, #764]	; (9478 <spi_init+0x3ac>)
    917a:	78db      	ldrb	r3, [r3, #3]
    917c:	b2db      	uxtb	r3, r3
    917e:	49be      	ldr	r1, [pc, #760]	; (9478 <spi_init+0x3ac>)
    9180:	2280      	movs	r2, #128	; 0x80
    9182:	4252      	negs	r2, r2
    9184:	4313      	orrs	r3, r2
    9186:	b2db      	uxtb	r3, r3
    9188:	70cb      	strb	r3, [r1, #3]
F:\WorkSpace\AHL-GEC-EXP\Temp\LCD\Debug/srcc/spi.c:48

        //时钟极性配置，CPOL=0，平时时钟为高电平，反之CPOL=1，平时时钟为低电平
        (0==CPOL)?BCLR(SPI_C1_CPOL_SHIFT,SPI0_C1):\
    918a:	466b      	mov	r3, sp
    918c:	3303      	adds	r3, #3
    918e:	781b      	ldrb	r3, [r3, #0]
    9190:	2b00      	cmp	r3, #0
    9192:	d108      	bne.n	91a6 <spi_init+0xda>
F:\WorkSpace\AHL-GEC-EXP\Temp\LCD\Debug/srcc/spi.c:48 (discriminator 1)
    9194:	4bb8      	ldr	r3, [pc, #736]	; (9478 <spi_init+0x3ac>)
    9196:	78db      	ldrb	r3, [r3, #3]
    9198:	b2db      	uxtb	r3, r3
    919a:	4ab7      	ldr	r2, [pc, #732]	; (9478 <spi_init+0x3ac>)
    919c:	2108      	movs	r1, #8
    919e:	438b      	bics	r3, r1
    91a0:	b2db      	uxtb	r3, r3
    91a2:	70d3      	strb	r3, [r2, #3]
    91a4:	e007      	b.n	91b6 <spi_init+0xea>
F:\WorkSpace\AHL-GEC-EXP\Temp\LCD\Debug/srcc/spi.c:49 (discriminator 2)
                        BSET(SPI_C1_CPOL_SHIFT,SPI0_C1);
    91a6:	4bb4      	ldr	r3, [pc, #720]	; (9478 <spi_init+0x3ac>)
    91a8:	78db      	ldrb	r3, [r3, #3]
    91aa:	b2db      	uxtb	r3, r3
    91ac:	4ab2      	ldr	r2, [pc, #712]	; (9478 <spi_init+0x3ac>)
    91ae:	2108      	movs	r1, #8
    91b0:	430b      	orrs	r3, r1
    91b2:	b2db      	uxtb	r3, r3
    91b4:	70d3      	strb	r3, [r2, #3]
F:\WorkSpace\AHL-GEC-EXP\Temp\LCD\Debug/srcc/spi.c:52

        //时钟相位CPHA
        (0 == CPHA)?BCLR(SPI_C1_CPHA_SHIFT,SPI0_C1):\
    91b6:	ab08      	add	r3, sp, #32
    91b8:	781b      	ldrb	r3, [r3, #0]
    91ba:	2b00      	cmp	r3, #0
    91bc:	d108      	bne.n	91d0 <spi_init+0x104>
F:\WorkSpace\AHL-GEC-EXP\Temp\LCD\Debug/srcc/spi.c:52 (discriminator 1)
    91be:	4bae      	ldr	r3, [pc, #696]	; (9478 <spi_init+0x3ac>)
    91c0:	78db      	ldrb	r3, [r3, #3]
    91c2:	b2db      	uxtb	r3, r3
    91c4:	4aac      	ldr	r2, [pc, #688]	; (9478 <spi_init+0x3ac>)
    91c6:	2104      	movs	r1, #4
    91c8:	438b      	bics	r3, r1
    91ca:	b2db      	uxtb	r3, r3
    91cc:	70d3      	strb	r3, [r2, #3]
    91ce:	e007      	b.n	91e0 <spi_init+0x114>
F:\WorkSpace\AHL-GEC-EXP\Temp\LCD\Debug/srcc/spi.c:53 (discriminator 2)
                              BSET(SPI_C1_CPHA_SHIFT,SPI0_C1);
    91d0:	4ba9      	ldr	r3, [pc, #676]	; (9478 <spi_init+0x3ac>)
    91d2:	78db      	ldrb	r3, [r3, #3]
    91d4:	b2db      	uxtb	r3, r3
    91d6:	4aa8      	ldr	r2, [pc, #672]	; (9478 <spi_init+0x3ac>)
    91d8:	2104      	movs	r1, #4
    91da:	430b      	orrs	r3, r1
    91dc:	b2db      	uxtb	r3, r3
    91de:	70d3      	strb	r3, [r2, #3]
F:\WorkSpace\AHL-GEC-EXP\Temp\LCD\Debug/srcc/spi.c:56

        //SSOE为1,MODFEN为1，配置本模块为自动SS输出
        BSET(SPI_C1_SSOE_SHIFT,SPI0_C1);
    91e0:	4ba5      	ldr	r3, [pc, #660]	; (9478 <spi_init+0x3ac>)
    91e2:	78db      	ldrb	r3, [r3, #3]
    91e4:	b2db      	uxtb	r3, r3
    91e6:	4aa4      	ldr	r2, [pc, #656]	; (9478 <spi_init+0x3ac>)
    91e8:	2102      	movs	r1, #2
    91ea:	430b      	orrs	r3, r1
    91ec:	b2db      	uxtb	r3, r3
    91ee:	70d3      	strb	r3, [r2, #3]
F:\WorkSpace\AHL-GEC-EXP\Temp\LCD\Debug/srcc/spi.c:58
        //对SPI0的C1寄存器配置为主机模式、从机选择自动模式并使能SPI0模块。
        SPI0_C2=0x00;
    91f0:	4ba1      	ldr	r3, [pc, #644]	; (9478 <spi_init+0x3ac>)
    91f2:	2200      	movs	r2, #0
    91f4:	709a      	strb	r2, [r3, #2]
F:\WorkSpace\AHL-GEC-EXP\Temp\LCD\Debug/srcc/spi.c:59
        if(MSTR == 1 )  //主机模式
    91f6:	466b      	mov	r3, sp
    91f8:	3306      	adds	r3, #6
    91fa:	781b      	ldrb	r3, [r3, #0]
    91fc:	2b01      	cmp	r3, #1
    91fe:	d107      	bne.n	9210 <spi_init+0x144>
F:\WorkSpace\AHL-GEC-EXP\Temp\LCD\Debug/srcc/spi.c:60
            BSET(SPI_C2_MODFEN_SHIFT,SPI0_C2);
    9200:	4b9d      	ldr	r3, [pc, #628]	; (9478 <spi_init+0x3ac>)
    9202:	789b      	ldrb	r3, [r3, #2]
    9204:	b2db      	uxtb	r3, r3
    9206:	4a9c      	ldr	r2, [pc, #624]	; (9478 <spi_init+0x3ac>)
    9208:	2110      	movs	r1, #16
    920a:	430b      	orrs	r3, r1
    920c:	b2db      	uxtb	r3, r3
    920e:	7093      	strb	r3, [r2, #2]
F:\WorkSpace\AHL-GEC-EXP\Temp\LCD\Debug/srcc/spi.c:61
        SPI0_BR = 0x00U;//波特率寄存器清零
    9210:	4b99      	ldr	r3, [pc, #612]	; (9478 <spi_init+0x3ac>)
    9212:	2200      	movs	r2, #0
    9214:	705a      	strb	r2, [r3, #1]
F:\WorkSpace\AHL-GEC-EXP\Temp\LCD\Debug/srcc/spi.c:63
        //重新设置波特率
        BaudRate_High=0;
    9216:	230d      	movs	r3, #13
    9218:	446b      	add	r3, sp
    921a:	2200      	movs	r2, #0
    921c:	701a      	strb	r2, [r3, #0]
F:\WorkSpace\AHL-GEC-EXP\Temp\LCD\Debug/srcc/spi.c:64
        BaudRate_Low=0;
    921e:	230e      	movs	r3, #14
    9220:	446b      	add	r3, sp
    9222:	2200      	movs	r2, #0
    9224:	701a      	strb	r2, [r3, #0]
F:\WorkSpace\AHL-GEC-EXP\Temp\LCD\Debug/srcc/spi.c:65
        BaudRate_Mode=24000/BaudRate;
    9226:	ab01      	add	r3, sp, #4
    9228:	881b      	ldrh	r3, [r3, #0]
    922a:	0019      	movs	r1, r3
    922c:	4893      	ldr	r0, [pc, #588]	; (947c <spi_init+0x3b0>)
    922e:	f7fd fdc5 	bl	6dbc <__divsi3>
    9232:	0003      	movs	r3, r0
    9234:	001a      	movs	r2, r3
    9236:	230f      	movs	r3, #15
    9238:	446b      	add	r3, sp
    923a:	701a      	strb	r2, [r3, #0]
F:\WorkSpace\AHL-GEC-EXP\Temp\LCD\Debug/srcc/spi.c:66
        if(BaudRate_Mode <= 8)
    923c:	230f      	movs	r3, #15
    923e:	446b      	add	r3, sp
    9240:	781b      	ldrb	r3, [r3, #0]
    9242:	2b08      	cmp	r3, #8
    9244:	d817      	bhi.n	9276 <spi_init+0x1aa>
F:\WorkSpace\AHL-GEC-EXP\Temp\LCD\Debug/srcc/spi.c:68
         {
         	SPI0_BR = (BaudRate_Mode - 1) << 4;
    9246:	230f      	movs	r3, #15
    9248:	446b      	add	r3, sp
    924a:	781b      	ldrb	r3, [r3, #0]
    924c:	3b01      	subs	r3, #1
    924e:	b2db      	uxtb	r3, r3
    9250:	4a89      	ldr	r2, [pc, #548]	; (9478 <spi_init+0x3ac>)
    9252:	011b      	lsls	r3, r3, #4
    9254:	b2db      	uxtb	r3, r3
    9256:	7053      	strb	r3, [r2, #1]
F:\WorkSpace\AHL-GEC-EXP\Temp\LCD\Debug/srcc/spi.c:135
         	BaudRate_High=--BaudRate_Mode;
             SPI0_BR=BaudRate_High<<4;//数值赋给SPI0_BR的SPPR的D6D5D4位
             SPI0_BR|=BaudRate_Low;   //赋值给SPI0_BR的SPR的 D2D1D0位
         }
    }
}
    9258:	e105      	b.n	9466 <spi_init+0x39a>
F:\WorkSpace\AHL-GEC-EXP\Temp\LCD\Debug/srcc/spi.c:74
         		BaudRate_Low++;
    925a:	230e      	movs	r3, #14
    925c:	446b      	add	r3, sp
    925e:	781a      	ldrb	r2, [r3, #0]
    9260:	230e      	movs	r3, #14
    9262:	446b      	add	r3, sp
    9264:	3201      	adds	r2, #1
    9266:	701a      	strb	r2, [r3, #0]
F:\WorkSpace\AHL-GEC-EXP\Temp\LCD\Debug/srcc/spi.c:75
         		BaudRate_Mode=BaudRate_Mode/2;
    9268:	230f      	movs	r3, #15
    926a:	446b      	add	r3, sp
    926c:	220f      	movs	r2, #15
    926e:	446a      	add	r2, sp
    9270:	7812      	ldrb	r2, [r2, #0]
    9272:	0852      	lsrs	r2, r2, #1
    9274:	701a      	strb	r2, [r3, #0]
F:\WorkSpace\AHL-GEC-EXP\Temp\LCD\Debug/srcc/spi.c:72
         	while(BaudRate_Mode / 2 > 8)
    9276:	230f      	movs	r3, #15
    9278:	446b      	add	r3, sp
    927a:	781b      	ldrb	r3, [r3, #0]
    927c:	2b11      	cmp	r3, #17
    927e:	d8ec      	bhi.n	925a <spi_init+0x18e>
F:\WorkSpace\AHL-GEC-EXP\Temp\LCD\Debug/srcc/spi.c:77
         	BaudRate_High=--BaudRate_Mode;
    9280:	230f      	movs	r3, #15
    9282:	446b      	add	r3, sp
    9284:	220f      	movs	r2, #15
    9286:	446a      	add	r2, sp
    9288:	7812      	ldrb	r2, [r2, #0]
    928a:	3a01      	subs	r2, #1
    928c:	701a      	strb	r2, [r3, #0]
    928e:	230d      	movs	r3, #13
    9290:	446b      	add	r3, sp
    9292:	220f      	movs	r2, #15
    9294:	446a      	add	r2, sp
    9296:	7812      	ldrb	r2, [r2, #0]
    9298:	701a      	strb	r2, [r3, #0]
F:\WorkSpace\AHL-GEC-EXP\Temp\LCD\Debug/srcc/spi.c:78
             SPI0_BR=BaudRate_High<<4;//数值赋给SPI0_BR的SPPR的D6D5D4位
    929a:	4a77      	ldr	r2, [pc, #476]	; (9478 <spi_init+0x3ac>)
    929c:	230d      	movs	r3, #13
    929e:	446b      	add	r3, sp
    92a0:	781b      	ldrb	r3, [r3, #0]
    92a2:	011b      	lsls	r3, r3, #4
    92a4:	b2db      	uxtb	r3, r3
    92a6:	7053      	strb	r3, [r2, #1]
F:\WorkSpace\AHL-GEC-EXP\Temp\LCD\Debug/srcc/spi.c:79
             SPI0_BR|=BaudRate_Low;//赋值给SPI0_BR的SPR的 D2D1D0位
    92a8:	4b73      	ldr	r3, [pc, #460]	; (9478 <spi_init+0x3ac>)
    92aa:	785b      	ldrb	r3, [r3, #1]
    92ac:	b2da      	uxtb	r2, r3
    92ae:	4972      	ldr	r1, [pc, #456]	; (9478 <spi_init+0x3ac>)
    92b0:	230e      	movs	r3, #14
    92b2:	446b      	add	r3, sp
    92b4:	781b      	ldrb	r3, [r3, #0]
    92b6:	4313      	orrs	r3, r2
    92b8:	b2db      	uxtb	r3, r3
    92ba:	704b      	strb	r3, [r1, #1]
F:\WorkSpace\AHL-GEC-EXP\Temp\LCD\Debug/srcc/spi.c:135
}
    92bc:	e0d3      	b.n	9466 <spi_init+0x39a>
F:\WorkSpace\AHL-GEC-EXP\Temp\LCD\Debug/srcc/spi.c:84
        BSET(SIM_SCGC4_SPI1_SHIFT,SIM_SCGC4);   //打开SPI1模块时钟。
    92be:	4a6b      	ldr	r2, [pc, #428]	; (946c <spi_init+0x3a0>)
    92c0:	4b6b      	ldr	r3, [pc, #428]	; (9470 <spi_init+0x3a4>)
    92c2:	58d3      	ldr	r3, [r2, r3]
    92c4:	4969      	ldr	r1, [pc, #420]	; (946c <spi_init+0x3a0>)
    92c6:	2280      	movs	r2, #128	; 0x80
    92c8:	0412      	lsls	r2, r2, #16
    92ca:	4313      	orrs	r3, r2
    92cc:	4a68      	ldr	r2, [pc, #416]	; (9470 <spi_init+0x3a4>)
    92ce:	508b      	str	r3, [r1, r2]
F:\WorkSpace\AHL-GEC-EXP\Temp\LCD\Debug/srcc/spi.c:86
        PORTD_PCR4=(0|PORT_PCR_MUX(0x02));     //选择PTD4的SS功能
    92d0:	4b6b      	ldr	r3, [pc, #428]	; (9480 <spi_init+0x3b4>)
    92d2:	2280      	movs	r2, #128	; 0x80
    92d4:	0092      	lsls	r2, r2, #2
    92d6:	611a      	str	r2, [r3, #16]
F:\WorkSpace\AHL-GEC-EXP\Temp\LCD\Debug/srcc/spi.c:87
        PORTD_PCR5=(0|PORT_PCR_MUX(0x02));     //选择PTD5的SCK功能
    92d8:	4b69      	ldr	r3, [pc, #420]	; (9480 <spi_init+0x3b4>)
    92da:	2280      	movs	r2, #128	; 0x80
    92dc:	0092      	lsls	r2, r2, #2
    92de:	615a      	str	r2, [r3, #20]
F:\WorkSpace\AHL-GEC-EXP\Temp\LCD\Debug/srcc/spi.c:88
        PORTD_PCR6=(0|PORT_PCR_MUX(0x02));     //选择PTD6的MOSI功能
    92e0:	4b67      	ldr	r3, [pc, #412]	; (9480 <spi_init+0x3b4>)
    92e2:	2280      	movs	r2, #128	; 0x80
    92e4:	0092      	lsls	r2, r2, #2
    92e6:	619a      	str	r2, [r3, #24]
F:\WorkSpace\AHL-GEC-EXP\Temp\LCD\Debug/srcc/spi.c:89
        PORTD_PCR7=(0|PORT_PCR_MUX(0x02));     //选择PTD7的MIOS功能
    92e8:	4b65      	ldr	r3, [pc, #404]	; (9480 <spi_init+0x3b4>)
    92ea:	2280      	movs	r2, #128	; 0x80
    92ec:	0092      	lsls	r2, r2, #2
    92ee:	61da      	str	r2, [r3, #28]
F:\WorkSpace\AHL-GEC-EXP\Temp\LCD\Debug/srcc/spi.c:91
        SPI1_C1=0x00;                           //SPI控制寄存器1清零
    92f0:	4b64      	ldr	r3, [pc, #400]	; (9484 <spi_init+0x3b8>)
    92f2:	2200      	movs	r2, #0
    92f4:	70da      	strb	r2, [r3, #3]
F:\WorkSpace\AHL-GEC-EXP\Temp\LCD\Debug/srcc/spi.c:92
        BSET(SPI_C1_SPE_SHIFT,SPI1_C1);         //使能SPI模块
    92f6:	4b63      	ldr	r3, [pc, #396]	; (9484 <spi_init+0x3b8>)
    92f8:	78db      	ldrb	r3, [r3, #3]
    92fa:	b2db      	uxtb	r3, r3
    92fc:	4a61      	ldr	r2, [pc, #388]	; (9484 <spi_init+0x3b8>)
    92fe:	2140      	movs	r1, #64	; 0x40
    9300:	430b      	orrs	r3, r1
    9302:	b2db      	uxtb	r3, r3
    9304:	70d3      	strb	r3, [r2, #3]
F:\WorkSpace\AHL-GEC-EXP\Temp\LCD\Debug/srcc/spi.c:95
        (MSTR==1)?BSET(SPI_C1_MSTR_SHIFT,SPI1_C1):\
    9306:	466b      	mov	r3, sp
    9308:	3306      	adds	r3, #6
    930a:	781b      	ldrb	r3, [r3, #0]
    930c:	2b01      	cmp	r3, #1
    930e:	d108      	bne.n	9322 <spi_init+0x256>
F:\WorkSpace\AHL-GEC-EXP\Temp\LCD\Debug/srcc/spi.c:95 (discriminator 1)
    9310:	4b5c      	ldr	r3, [pc, #368]	; (9484 <spi_init+0x3b8>)
    9312:	78db      	ldrb	r3, [r3, #3]
    9314:	b2db      	uxtb	r3, r3
    9316:	4a5b      	ldr	r2, [pc, #364]	; (9484 <spi_init+0x3b8>)
    9318:	2110      	movs	r1, #16
    931a:	430b      	orrs	r3, r1
    931c:	b2db      	uxtb	r3, r3
    931e:	70d3      	strb	r3, [r2, #3]
    9320:	e008      	b.n	9334 <spi_init+0x268>
F:\WorkSpace\AHL-GEC-EXP\Temp\LCD\Debug/srcc/spi.c:96 (discriminator 2)
                                            BSET(SPI_C1_SPIE_SHIFT,SPI1_C1);
    9322:	4b58      	ldr	r3, [pc, #352]	; (9484 <spi_init+0x3b8>)
    9324:	78db      	ldrb	r3, [r3, #3]
    9326:	b2db      	uxtb	r3, r3
    9328:	4956      	ldr	r1, [pc, #344]	; (9484 <spi_init+0x3b8>)
    932a:	2280      	movs	r2, #128	; 0x80
    932c:	4252      	negs	r2, r2
    932e:	4313      	orrs	r3, r2
    9330:	b2db      	uxtb	r3, r3
    9332:	70cb      	strb	r3, [r1, #3]
F:\WorkSpace\AHL-GEC-EXP\Temp\LCD\Debug/srcc/spi.c:99
        (0 == CPOL)?BCLR(SPI_C1_CPOL_SHIFT,SPI1_C1):\
    9334:	466b      	mov	r3, sp
    9336:	3303      	adds	r3, #3
    9338:	781b      	ldrb	r3, [r3, #0]
    933a:	2b00      	cmp	r3, #0
    933c:	d108      	bne.n	9350 <spi_init+0x284>
F:\WorkSpace\AHL-GEC-EXP\Temp\LCD\Debug/srcc/spi.c:99 (discriminator 1)
    933e:	4b51      	ldr	r3, [pc, #324]	; (9484 <spi_init+0x3b8>)
    9340:	78db      	ldrb	r3, [r3, #3]
    9342:	b2db      	uxtb	r3, r3
    9344:	4a4f      	ldr	r2, [pc, #316]	; (9484 <spi_init+0x3b8>)
    9346:	2108      	movs	r1, #8
    9348:	438b      	bics	r3, r1
    934a:	b2db      	uxtb	r3, r3
    934c:	70d3      	strb	r3, [r2, #3]
    934e:	e007      	b.n	9360 <spi_init+0x294>
F:\WorkSpace\AHL-GEC-EXP\Temp\LCD\Debug/srcc/spi.c:100 (discriminator 2)
                                            BSET(SPI_C1_CPOL_SHIFT,SPI1_C1);
    9350:	4b4c      	ldr	r3, [pc, #304]	; (9484 <spi_init+0x3b8>)
    9352:	78db      	ldrb	r3, [r3, #3]
    9354:	b2db      	uxtb	r3, r3
    9356:	4a4b      	ldr	r2, [pc, #300]	; (9484 <spi_init+0x3b8>)
    9358:	2108      	movs	r1, #8
    935a:	430b      	orrs	r3, r1
    935c:	b2db      	uxtb	r3, r3
    935e:	70d3      	strb	r3, [r2, #3]
F:\WorkSpace\AHL-GEC-EXP\Temp\LCD\Debug/srcc/spi.c:104
        (0 == CPHA)?BCLR(SPI_C1_CPHA_SHIFT,SPI1_C1): \
    9360:	ab08      	add	r3, sp, #32
    9362:	781b      	ldrb	r3, [r3, #0]
    9364:	2b00      	cmp	r3, #0
    9366:	d108      	bne.n	937a <spi_init+0x2ae>
F:\WorkSpace\AHL-GEC-EXP\Temp\LCD\Debug/srcc/spi.c:104 (discriminator 1)
    9368:	4b46      	ldr	r3, [pc, #280]	; (9484 <spi_init+0x3b8>)
    936a:	78db      	ldrb	r3, [r3, #3]
    936c:	b2db      	uxtb	r3, r3
    936e:	4a45      	ldr	r2, [pc, #276]	; (9484 <spi_init+0x3b8>)
    9370:	2104      	movs	r1, #4
    9372:	438b      	bics	r3, r1
    9374:	b2db      	uxtb	r3, r3
    9376:	70d3      	strb	r3, [r2, #3]
    9378:	e007      	b.n	938a <spi_init+0x2be>
F:\WorkSpace\AHL-GEC-EXP\Temp\LCD\Debug/srcc/spi.c:105 (discriminator 2)
                                            BSET(SPI_C1_CPHA_SHIFT,SPI1_C1);
    937a:	4b42      	ldr	r3, [pc, #264]	; (9484 <spi_init+0x3b8>)
    937c:	78db      	ldrb	r3, [r3, #3]
    937e:	b2db      	uxtb	r3, r3
    9380:	4a40      	ldr	r2, [pc, #256]	; (9484 <spi_init+0x3b8>)
    9382:	2104      	movs	r1, #4
    9384:	430b      	orrs	r3, r1
    9386:	b2db      	uxtb	r3, r3
    9388:	70d3      	strb	r3, [r2, #3]
F:\WorkSpace\AHL-GEC-EXP\Temp\LCD\Debug/srcc/spi.c:107
        BSET(SPI_C1_SSOE_SHIFT,SPI1_C1);
    938a:	4b3e      	ldr	r3, [pc, #248]	; (9484 <spi_init+0x3b8>)
    938c:	78db      	ldrb	r3, [r3, #3]
    938e:	b2db      	uxtb	r3, r3
    9390:	4a3c      	ldr	r2, [pc, #240]	; (9484 <spi_init+0x3b8>)
    9392:	2102      	movs	r1, #2
    9394:	430b      	orrs	r3, r1
    9396:	b2db      	uxtb	r3, r3
    9398:	70d3      	strb	r3, [r2, #3]
F:\WorkSpace\AHL-GEC-EXP\Temp\LCD\Debug/srcc/spi.c:111
        SPI1_C2 = 0x00U;
    939a:	4b3a      	ldr	r3, [pc, #232]	; (9484 <spi_init+0x3b8>)
    939c:	2200      	movs	r2, #0
    939e:	709a      	strb	r2, [r3, #2]
F:\WorkSpace\AHL-GEC-EXP\Temp\LCD\Debug/srcc/spi.c:112
        if(MSTR == 1 )  //主机模式
    93a0:	466b      	mov	r3, sp
    93a2:	3306      	adds	r3, #6
    93a4:	781b      	ldrb	r3, [r3, #0]
    93a6:	2b01      	cmp	r3, #1
    93a8:	d107      	bne.n	93ba <spi_init+0x2ee>
F:\WorkSpace\AHL-GEC-EXP\Temp\LCD\Debug/srcc/spi.c:113
            BSET(SPI_C2_MODFEN_SHIFT,SPI1_C2);
    93aa:	4b36      	ldr	r3, [pc, #216]	; (9484 <spi_init+0x3b8>)
    93ac:	789b      	ldrb	r3, [r3, #2]
    93ae:	b2db      	uxtb	r3, r3
    93b0:	4a34      	ldr	r2, [pc, #208]	; (9484 <spi_init+0x3b8>)
    93b2:	2110      	movs	r1, #16
    93b4:	430b      	orrs	r3, r1
    93b6:	b2db      	uxtb	r3, r3
    93b8:	7093      	strb	r3, [r2, #2]
F:\WorkSpace\AHL-GEC-EXP\Temp\LCD\Debug/srcc/spi.c:114
        SPI1_BR = 0x00U;
    93ba:	4b32      	ldr	r3, [pc, #200]	; (9484 <spi_init+0x3b8>)
    93bc:	2200      	movs	r2, #0
    93be:	705a      	strb	r2, [r3, #1]
F:\WorkSpace\AHL-GEC-EXP\Temp\LCD\Debug/srcc/spi.c:116
        BaudRate_High=0;
    93c0:	230d      	movs	r3, #13
    93c2:	446b      	add	r3, sp
    93c4:	2200      	movs	r2, #0
    93c6:	701a      	strb	r2, [r3, #0]
F:\WorkSpace\AHL-GEC-EXP\Temp\LCD\Debug/srcc/spi.c:117
        BaudRate_Low=0;
    93c8:	230e      	movs	r3, #14
    93ca:	446b      	add	r3, sp
    93cc:	2200      	movs	r2, #0
    93ce:	701a      	strb	r2, [r3, #0]
F:\WorkSpace\AHL-GEC-EXP\Temp\LCD\Debug/srcc/spi.c:118
        BaudRate_Mode=24000/BaudRate;   //取除数用于寄存器中数据计算
    93d0:	ab01      	add	r3, sp, #4
    93d2:	881b      	ldrh	r3, [r3, #0]
    93d4:	0019      	movs	r1, r3
    93d6:	4829      	ldr	r0, [pc, #164]	; (947c <spi_init+0x3b0>)
    93d8:	f7fd fcf0 	bl	6dbc <__divsi3>
    93dc:	0003      	movs	r3, r0
    93de:	001a      	movs	r2, r3
    93e0:	230f      	movs	r3, #15
    93e2:	446b      	add	r3, sp
    93e4:	701a      	strb	r2, [r3, #0]
F:\WorkSpace\AHL-GEC-EXP\Temp\LCD\Debug/srcc/spi.c:119
        if(BaudRate_Mode <= 8)
    93e6:	230f      	movs	r3, #15
    93e8:	446b      	add	r3, sp
    93ea:	781b      	ldrb	r3, [r3, #0]
    93ec:	2b08      	cmp	r3, #8
    93ee:	d817      	bhi.n	9420 <spi_init+0x354>
F:\WorkSpace\AHL-GEC-EXP\Temp\LCD\Debug/srcc/spi.c:121
         	SPI0_BR = (BaudRate_Mode - 1) << 4;
    93f0:	230f      	movs	r3, #15
    93f2:	446b      	add	r3, sp
    93f4:	781b      	ldrb	r3, [r3, #0]
    93f6:	3b01      	subs	r3, #1
    93f8:	b2db      	uxtb	r3, r3
    93fa:	4a1f      	ldr	r2, [pc, #124]	; (9478 <spi_init+0x3ac>)
    93fc:	011b      	lsls	r3, r3, #4
    93fe:	b2db      	uxtb	r3, r3
    9400:	7053      	strb	r3, [r2, #1]
F:\WorkSpace\AHL-GEC-EXP\Temp\LCD\Debug/srcc/spi.c:135
}
    9402:	e030      	b.n	9466 <spi_init+0x39a>
F:\WorkSpace\AHL-GEC-EXP\Temp\LCD\Debug/srcc/spi.c:127
         		BaudRate_Low++;
    9404:	230e      	movs	r3, #14
    9406:	446b      	add	r3, sp
    9408:	781a      	ldrb	r2, [r3, #0]
    940a:	230e      	movs	r3, #14
    940c:	446b      	add	r3, sp
    940e:	3201      	adds	r2, #1
    9410:	701a      	strb	r2, [r3, #0]
F:\WorkSpace\AHL-GEC-EXP\Temp\LCD\Debug/srcc/spi.c:128
         		BaudRate_Mode=BaudRate_Mode/2;
    9412:	230f      	movs	r3, #15
    9414:	446b      	add	r3, sp
    9416:	220f      	movs	r2, #15
    9418:	446a      	add	r2, sp
    941a:	7812      	ldrb	r2, [r2, #0]
    941c:	0852      	lsrs	r2, r2, #1
    941e:	701a      	strb	r2, [r3, #0]
F:\WorkSpace\AHL-GEC-EXP\Temp\LCD\Debug/srcc/spi.c:125
         	while(BaudRate_Mode / 2 > 8)
    9420:	230f      	movs	r3, #15
    9422:	446b      	add	r3, sp
    9424:	781b      	ldrb	r3, [r3, #0]
    9426:	2b11      	cmp	r3, #17
    9428:	d8ec      	bhi.n	9404 <spi_init+0x338>
F:\WorkSpace\AHL-GEC-EXP\Temp\LCD\Debug/srcc/spi.c:130
         	BaudRate_High=--BaudRate_Mode;
    942a:	230f      	movs	r3, #15
    942c:	446b      	add	r3, sp
    942e:	220f      	movs	r2, #15
    9430:	446a      	add	r2, sp
    9432:	7812      	ldrb	r2, [r2, #0]
    9434:	3a01      	subs	r2, #1
    9436:	701a      	strb	r2, [r3, #0]
    9438:	230d      	movs	r3, #13
    943a:	446b      	add	r3, sp
    943c:	220f      	movs	r2, #15
    943e:	446a      	add	r2, sp
    9440:	7812      	ldrb	r2, [r2, #0]
    9442:	701a      	strb	r2, [r3, #0]
F:\WorkSpace\AHL-GEC-EXP\Temp\LCD\Debug/srcc/spi.c:131
             SPI0_BR=BaudRate_High<<4;//数值赋给SPI0_BR的SPPR的D6D5D4位
    9444:	4a0c      	ldr	r2, [pc, #48]	; (9478 <spi_init+0x3ac>)
    9446:	230d      	movs	r3, #13
    9448:	446b      	add	r3, sp
    944a:	781b      	ldrb	r3, [r3, #0]
    944c:	011b      	lsls	r3, r3, #4
    944e:	b2db      	uxtb	r3, r3
    9450:	7053      	strb	r3, [r2, #1]
F:\WorkSpace\AHL-GEC-EXP\Temp\LCD\Debug/srcc/spi.c:132
             SPI0_BR|=BaudRate_Low;   //赋值给SPI0_BR的SPR的 D2D1D0位
    9452:	4b09      	ldr	r3, [pc, #36]	; (9478 <spi_init+0x3ac>)
    9454:	785b      	ldrb	r3, [r3, #1]
    9456:	b2da      	uxtb	r2, r3
    9458:	4907      	ldr	r1, [pc, #28]	; (9478 <spi_init+0x3ac>)
    945a:	230e      	movs	r3, #14
    945c:	446b      	add	r3, sp
    945e:	781b      	ldrb	r3, [r3, #0]
    9460:	4313      	orrs	r3, r2
    9462:	b2db      	uxtb	r3, r3
    9464:	704b      	strb	r3, [r1, #1]
F:\WorkSpace\AHL-GEC-EXP\Temp\LCD\Debug/srcc/spi.c:135
}
    9466:	46c0      	nop			; (mov r8, r8)
    9468:	b005      	add	sp, #20
    946a:	bd30      	pop	{r4, r5, pc}
    946c:	40047000 	.word	0x40047000
    9470:	00001034 	.word	0x00001034
    9474:	4004b000 	.word	0x4004b000
    9478:	40076000 	.word	0x40076000
    947c:	00005dc0 	.word	0x00005dc0
    9480:	4004c000 	.word	0x4004c000
    9484:	40077000 	.word	0x40077000

00009488 <spi_send1>:
spi_send1():
F:\WorkSpace\AHL-GEC-EXP\Temp\LCD\Debug/srcc/spi.c:144
//函数参数：No：模块号，可用参数可参见gec.h文件
//       data：     需要发送的一字节数据。
//函数返回：0：发送失败；1：发送成功。
//=====================================================================
uint8_t spi_send1(uint8_t No,uint8_t data)
{
    9488:	b084      	sub	sp, #16
    948a:	0002      	movs	r2, r0
    948c:	466b      	mov	r3, sp
    948e:	3307      	adds	r3, #7
    9490:	701a      	strb	r2, [r3, #0]
    9492:	466b      	mov	r3, sp
    9494:	3306      	adds	r3, #6
    9496:	1c0a      	adds	r2, r1, #0
    9498:	701a      	strb	r2, [r3, #0]
F:\WorkSpace\AHL-GEC-EXP\Temp\LCD\Debug/srcc/spi.c:146
    uint32_t i;
    SPI_MemMapPtr baseadd=SPI_baseadd(No);
    949a:	466b      	mov	r3, sp
    949c:	3307      	adds	r3, #7
    949e:	781b      	ldrb	r3, [r3, #0]
    94a0:	4a14      	ldr	r2, [pc, #80]	; (94f4 <spi_send1+0x6c>)
    94a2:	4694      	mov	ip, r2
    94a4:	4463      	add	r3, ip
    94a6:	031b      	lsls	r3, r3, #12
    94a8:	9302      	str	r3, [sp, #8]
F:\WorkSpace\AHL-GEC-EXP\Temp\LCD\Debug/srcc/spi.c:147
    while(!(SPI_S_REG(baseadd)&SPI_S_SPTEF_MASK));//等待发送缓冲区空闲
    94aa:	46c0      	nop			; (mov r8, r8)
F:\WorkSpace\AHL-GEC-EXP\Temp\LCD\Debug/srcc/spi.c:147 (discriminator 1)
    94ac:	9b02      	ldr	r3, [sp, #8]
    94ae:	781b      	ldrb	r3, [r3, #0]
    94b0:	b2db      	uxtb	r3, r3
    94b2:	001a      	movs	r2, r3
    94b4:	2320      	movs	r3, #32
    94b6:	4013      	ands	r3, r2
    94b8:	d0f8      	beq.n	94ac <spi_send1+0x24>
F:\WorkSpace\AHL-GEC-EXP\Temp\LCD\Debug/srcc/spi.c:148
        SPI_DL_REG(baseadd)=data;//数据寄存器接收数据
    94ba:	9b02      	ldr	r3, [sp, #8]
    94bc:	466a      	mov	r2, sp
    94be:	3206      	adds	r2, #6
    94c0:	7812      	ldrb	r2, [r2, #0]
    94c2:	719a      	strb	r2, [r3, #6]
F:\WorkSpace\AHL-GEC-EXP\Temp\LCD\Debug/srcc/spi.c:149
    for(i=0;i<0xFFF0;i++)        //在一定时间内发送不能完成，则认为发送失败。
    94c4:	2300      	movs	r3, #0
    94c6:	9303      	str	r3, [sp, #12]
    94c8:	e00b      	b.n	94e2 <spi_send1+0x5a>
F:\WorkSpace\AHL-GEC-EXP\Temp\LCD\Debug/srcc/spi.c:152
    {	
    	//判断发送缓冲区是否接到数据
        if(SPI_S_REG(baseadd)&SPI_S_SPTEF_MASK)
    94ca:	9b02      	ldr	r3, [sp, #8]
    94cc:	781b      	ldrb	r3, [r3, #0]
    94ce:	b2db      	uxtb	r3, r3
    94d0:	001a      	movs	r2, r3
    94d2:	2320      	movs	r3, #32
    94d4:	4013      	ands	r3, r2
    94d6:	d001      	beq.n	94dc <spi_send1+0x54>
F:\WorkSpace\AHL-GEC-EXP\Temp\LCD\Debug/srcc/spi.c:154
        {
            return(1);
    94d8:	2301      	movs	r3, #1
    94da:	e007      	b.n	94ec <spi_send1+0x64>
F:\WorkSpace\AHL-GEC-EXP\Temp\LCD\Debug/srcc/spi.c:149 (discriminator 2)
    for(i=0;i<0xFFF0;i++)        //在一定时间内发送不能完成，则认为发送失败。
    94dc:	9b03      	ldr	r3, [sp, #12]
    94de:	3301      	adds	r3, #1
    94e0:	9303      	str	r3, [sp, #12]
F:\WorkSpace\AHL-GEC-EXP\Temp\LCD\Debug/srcc/spi.c:149 (discriminator 1)
    94e2:	9b03      	ldr	r3, [sp, #12]
    94e4:	4a04      	ldr	r2, [pc, #16]	; (94f8 <spi_send1+0x70>)
    94e6:	4293      	cmp	r3, r2
    94e8:	d9ef      	bls.n	94ca <spi_send1+0x42>
F:\WorkSpace\AHL-GEC-EXP\Temp\LCD\Debug/srcc/spi.c:157
        }
     }
    return(0);
    94ea:	2300      	movs	r3, #0
F:\WorkSpace\AHL-GEC-EXP\Temp\LCD\Debug/srcc/spi.c:158
}
    94ec:	0018      	movs	r0, r3
    94ee:	b004      	add	sp, #16
    94f0:	4770      	bx	lr
    94f2:	46c0      	nop			; (mov r8, r8)
    94f4:	00040076 	.word	0x00040076
    94f8:	0000ffef 	.word	0x0000ffef

000094fc <Vectors_Init>:
Vectors_Init():
F:\WorkSpace\AHL-GEC-EXP\Temp\LCD\Debug/srcc/gec.c:15
//参数说明：无
//功能概要：User对BIOS中断向量表的部分继承,构件库函数指针初始化
//修改信息：WYH，20200805，规范
//======================================================================
void  Vectors_Init()
{
    94fc:	b580      	push	{r7, lr}
    94fe:	4f2e      	ldr	r7, [pc, #184]	; (95b8 <Vectors_Init+0xbc>)
    9500:	44bd      	add	sp, r7
F:\WorkSpace\AHL-GEC-EXP\Temp\LCD\Debug/srcc/gec.c:19
    //有用户程序，编译本段代码
    #if (GEC_USER_SECTOR_START!=0)   
    //（1）若Flash倒数2扇区的前24字节为空，则写入设备序列号及软件版本号初值
    if(flash_isempty(MCU_SECTOR_NUM-1,24))
    9502:	2118      	movs	r1, #24
    9504:	203f      	movs	r0, #63	; 0x3f
    9506:	f7fe ffe9 	bl	84dc <flash_isempty>
    950a:	1e03      	subs	r3, r0, #0
    950c:	d006      	beq.n	951c <Vectors_Init+0x20>
F:\WorkSpace\AHL-GEC-EXP\Temp\LCD\Debug/srcc/gec.c:21
    {
        flash_write_physical((MCU_SECTOR_NUM-1)*MCU_SECTORSIZE+
    950e:	4a2b      	ldr	r2, [pc, #172]	; (95bc <Vectors_Init+0xc0>)
    9510:	23fc      	movs	r3, #252	; 0xfc
    9512:	021b      	lsls	r3, r3, #8
    9514:	2118      	movs	r1, #24
    9516:	0018      	movs	r0, r3
    9518:	f7fe ff84 	bl	8424 <flash_write_physical>
F:\WorkSpace\AHL-GEC-EXP\Temp\LCD\Debug/srcc/gec.c:25
        MCU_FLASH_ADDR_START,24,(uint8_t *)"0123456789ABCDEF20200716");
    }
    //（2）继承BIOS的串口中断              
    void ** bios=MCU_FLASH_ADDR_START;   //向量表起始地址  
    951c:	2300      	movs	r3, #0
    951e:	aaff      	add	r2, sp, #1020	; 0x3fc
    9520:	3208      	adds	r2, #8
    9522:	6013      	str	r3, [r2, #0]
F:\WorkSpace\AHL-GEC-EXP\Temp\LCD\Debug/srcc/gec.c:28
    uint32_t user[MCU_SECTORSIZE/4];     //向量表变量数组
    //读取USER中断向量表各中断处理程序地址赋给user数组
    flash_read_physical((uint8_t *)user,GEC_USER_SECTOR_START*
    9524:	2380      	movs	r3, #128	; 0x80
    9526:	00da      	lsls	r2, r3, #3
    9528:	23d0      	movs	r3, #208	; 0xd0
    952a:	01d9      	lsls	r1, r3, #7
    952c:	ab01      	add	r3, sp, #4
    952e:	0018      	movs	r0, r3
    9530:	f7fe ffc0 	bl	84b4 <flash_read_physical>
F:\WorkSpace\AHL-GEC-EXP\Temp\LCD\Debug/srcc/gec.c:32
    MCU_SECTORSIZE+MCU_FLASH_ADDR_START,MCU_SECTORSIZE);
    //判断USER中串口更新中断是否为BIOS对应中断地址。若是，则不作操作；否则修改
    //为BIOS对应中断地址
    if(user[BIOS_UART_UPDATE_IRQn] != (uint32_t)bios[BIOS_UART_UPDATE_IRQn])
    9534:	4b22      	ldr	r3, [pc, #136]	; (95c0 <Vectors_Init+0xc4>)
    9536:	aaff      	add	r2, sp, #1020	; 0x3fc
    9538:	320c      	adds	r2, #12
    953a:	4694      	mov	ip, r2
    953c:	4463      	add	r3, ip
    953e:	6f9a      	ldr	r2, [r3, #120]	; 0x78
    9540:	abff      	add	r3, sp, #1020	; 0x3fc
    9542:	3308      	adds	r3, #8
    9544:	681b      	ldr	r3, [r3, #0]
    9546:	3378      	adds	r3, #120	; 0x78
    9548:	681b      	ldr	r3, [r3, #0]
    954a:	429a      	cmp	r2, r3
    954c:	d022      	beq.n	9594 <Vectors_Init+0x98>
F:\WorkSpace\AHL-GEC-EXP\Temp\LCD\Debug/srcc/gec.c:35
    {
        //改变User中断向量表中BIOS_UART中断向量
        flash_erase(GEC_USER_SECTOR_START);
    954e:	201a      	movs	r0, #26
    9550:	f7fe ff1c 	bl	838c <flash_erase>
F:\WorkSpace\AHL-GEC-EXP\Temp\LCD\Debug/srcc/gec.c:37
        //改USER中断向量表的BIOS程序写入串口的中断处理程序地址
        user[2]=(uint32_t)bios[2];     //【20200903】
    9554:	abff      	add	r3, sp, #1020	; 0x3fc
    9556:	3308      	adds	r3, #8
    9558:	681b      	ldr	r3, [r3, #0]
    955a:	3308      	adds	r3, #8
    955c:	681b      	ldr	r3, [r3, #0]
    955e:	001a      	movs	r2, r3
    9560:	4b17      	ldr	r3, [pc, #92]	; (95c0 <Vectors_Init+0xc4>)
    9562:	a9ff      	add	r1, sp, #1020	; 0x3fc
    9564:	310c      	adds	r1, #12
    9566:	468c      	mov	ip, r1
    9568:	4463      	add	r3, ip
    956a:	609a      	str	r2, [r3, #8]
F:\WorkSpace\AHL-GEC-EXP\Temp\LCD\Debug/srcc/gec.c:38
        user[BIOS_UART_UPDATE_IRQn]=(uint32_t)bios[BIOS_UART_UPDATE_IRQn];
    956c:	abff      	add	r3, sp, #1020	; 0x3fc
    956e:	3308      	adds	r3, #8
    9570:	681b      	ldr	r3, [r3, #0]
    9572:	3378      	adds	r3, #120	; 0x78
    9574:	681b      	ldr	r3, [r3, #0]
    9576:	001a      	movs	r2, r3
    9578:	4b11      	ldr	r3, [pc, #68]	; (95c0 <Vectors_Init+0xc4>)
    957a:	a9ff      	add	r1, sp, #1020	; 0x3fc
    957c:	310c      	adds	r1, #12
    957e:	468c      	mov	ip, r1
    9580:	4463      	add	r3, ip
    9582:	679a      	str	r2, [r3, #120]	; 0x78
F:\WorkSpace\AHL-GEC-EXP\Temp\LCD\Debug/srcc/gec.c:39
        flash_write_physical(GEC_USER_SECTOR_START*MCU_SECTORSIZE+
    9584:	aa01      	add	r2, sp, #4
    9586:	2380      	movs	r3, #128	; 0x80
    9588:	00d9      	lsls	r1, r3, #3
    958a:	23d0      	movs	r3, #208	; 0xd0
    958c:	01db      	lsls	r3, r3, #7
    958e:	0018      	movs	r0, r3
    9590:	f7fe ff48 	bl	8424 <flash_write_physical>
F:\WorkSpace\AHL-GEC-EXP\Temp\LCD\Debug/srcc/gec.c:44
        MCU_FLASH_ADDR_START,MCU_SECTORSIZE,(uint8_t *)user);
    }
    
    //（3）中断向量表指针重定向到USER程序的中断向量表
    SCB->VTOR = (uint32_t)(GEC_USER_SECTOR_START*MCU_SECTORSIZE+
    9594:	4b0b      	ldr	r3, [pc, #44]	; (95c4 <Vectors_Init+0xc8>)
    9596:	22d0      	movs	r2, #208	; 0xd0
    9598:	01d2      	lsls	r2, r2, #7
    959a:	609a      	str	r2, [r3, #8]
F:\WorkSpace\AHL-GEC-EXP\Temp\LCD\Debug/srcc/gec.c:47
    MCU_FLASH_ADDR_START);  
    //（4）给component_fun赋值，SYSTEM_FUNCTION函数用
    component_fun=(void **)(MCU_FLASH_ADDR_START+
    959c:	4b0a      	ldr	r3, [pc, #40]	; (95c8 <Vectors_Init+0xcc>)
    959e:	22e0      	movs	r2, #224	; 0xe0
    95a0:	0192      	lsls	r2, r2, #6
    95a2:	601a      	str	r2, [r3, #0]
F:\WorkSpace\AHL-GEC-EXP\Temp\LCD\Debug/srcc/gec.c:50
    GEC_COMPONENT_LST_START*MCU_SECTORSIZE); 
    //（5）printf提示             
    printf("  【User提示】：将进入User的main()执行...\r\n");
    95a4:	4b09      	ldr	r3, [pc, #36]	; (95cc <Vectors_Init+0xd0>)
    95a6:	0018      	movs	r0, r3
    95a8:	f001 faf2 	bl	ab90 <myprintf>
F:\WorkSpace\AHL-GEC-EXP\Temp\LCD\Debug/srcc/gec.c:53
    
    #endif
}
    95ac:	46c0      	nop			; (mov r8, r8)
    95ae:	2381      	movs	r3, #129	; 0x81
    95b0:	00db      	lsls	r3, r3, #3
    95b2:	449d      	add	sp, r3
    95b4:	bd80      	pop	{r7, pc}
    95b6:	46c0      	nop			; (mov r8, r8)
    95b8:	fffffbf8 	.word	0xfffffbf8
    95bc:	0000ac60 	.word	0x0000ac60
    95c0:	fffffbfc 	.word	0xfffffbfc
    95c4:	e000ed00 	.word	0xe000ed00
    95c8:	20000484 	.word	0x20000484
    95cc:	0000ac7c 	.word	0x0000ac7c

000095d0 <uart_send1>:
uart_send1():
F:\WorkSpace\AHL-GEC-EXP\Temp\LCD\Debug/srcc/uart.c:173
//          ch:要发送的字节
//函数返回：函数执行状态：1=发送成功；0=发送失败。
//功能概要：串行发送1个字节
//======================================================================
uint8_t uart_send1(uint8_t uartNo, uint8_t ch)
{
    95d0:	b500      	push	{lr}
    95d2:	b087      	sub	sp, #28
    95d4:	0002      	movs	r2, r0
    95d6:	466b      	mov	r3, sp
    95d8:	3307      	adds	r3, #7
    95da:	701a      	strb	r2, [r3, #0]
    95dc:	466b      	mov	r3, sp
    95de:	3306      	adds	r3, #6
    95e0:	1c0a      	adds	r2, r1, #0
    95e2:	701a      	strb	r2, [r3, #0]
F:\WorkSpace\AHL-GEC-EXP\Temp\LCD\Debug/srcc/uart.c:176
    uint32_t t;
    uint32_t i;
    UART0_MemMapPtr UART_2h_0=UART0_BASE_PTR; //获取UART0基地址
    95e4:	4b22      	ldr	r3, [pc, #136]	; (9670 <uart_send1+0xa0>)
    95e6:	9304      	str	r3, [sp, #16]
F:\WorkSpace\AHL-GEC-EXP\Temp\LCD\Debug/srcc/uart.c:177
    UART_MemMapPtr UART_2h_1_2 = UART_ARR[uartNo-1]; //获取UART1或者2基地址
    95e8:	466b      	mov	r3, sp
    95ea:	3307      	adds	r3, #7
    95ec:	781b      	ldrb	r3, [r3, #0]
    95ee:	1e5a      	subs	r2, r3, #1
    95f0:	4b20      	ldr	r3, [pc, #128]	; (9674 <uart_send1+0xa4>)
    95f2:	0092      	lsls	r2, r2, #2
    95f4:	58d3      	ldr	r3, [r2, r3]
    95f6:	9303      	str	r3, [sp, #12]
F:\WorkSpace\AHL-GEC-EXP\Temp\LCD\Debug/srcc/uart.c:185
    {
    	__asm (" nop ");
    }
    */
    //判断传入串口号参数是否有误，有误直接退出
    if(!uart_is_uartNo(uartNo))
    95f8:	466b      	mov	r3, sp
    95fa:	3307      	adds	r3, #7
    95fc:	781b      	ldrb	r3, [r3, #0]
    95fe:	0018      	movs	r0, r3
    9600:	f000 f83c 	bl	967c <uart_is_uartNo>
    9604:	1e03      	subs	r3, r0, #0
    9606:	d101      	bne.n	960c <uart_send1+0x3c>
F:\WorkSpace\AHL-GEC-EXP\Temp\LCD\Debug/srcc/uart.c:187
    {
        return 0;
    9608:	2300      	movs	r3, #0
    960a:	e02d      	b.n	9668 <uart_send1+0x98>
F:\WorkSpace\AHL-GEC-EXP\Temp\LCD\Debug/srcc/uart.c:190
    }

    for (t = 0; t < 0xFBBB; t++)//查询指定次数
    960c:	2300      	movs	r3, #0
    960e:	9305      	str	r3, [sp, #20]
    9610:	e01f      	b.n	9652 <uart_send1+0x82>
F:\WorkSpace\AHL-GEC-EXP\Temp\LCD\Debug/srcc/uart.c:192
    {
        if(0==uartNo)     //判断使用的哪个串口
    9612:	466b      	mov	r3, sp
    9614:	3307      	adds	r3, #7
    9616:	781b      	ldrb	r3, [r3, #0]
    9618:	2b00      	cmp	r3, #0
    961a:	d10b      	bne.n	9634 <uart_send1+0x64>
F:\WorkSpace\AHL-GEC-EXP\Temp\LCD\Debug/srcc/uart.c:195
        {
        	//发送缓冲区为空则发送数据
            if ( UART0_S1_REG(UART_2h_0) & UART0_S1_TDRE_MASK )
    961c:	9b04      	ldr	r3, [sp, #16]
    961e:	791b      	ldrb	r3, [r3, #4]
    9620:	b2db      	uxtb	r3, r3
    9622:	b25b      	sxtb	r3, r3
    9624:	2b00      	cmp	r3, #0
    9626:	da11      	bge.n	964c <uart_send1+0x7c>
F:\WorkSpace\AHL-GEC-EXP\Temp\LCD\Debug/srcc/uart.c:197
            {
                UART0_D_REG(UART_2h_0) = ch;
    9628:	9b04      	ldr	r3, [sp, #16]
    962a:	466a      	mov	r2, sp
    962c:	3206      	adds	r2, #6
    962e:	7812      	ldrb	r2, [r2, #0]
    9630:	71da      	strb	r2, [r3, #7]
F:\WorkSpace\AHL-GEC-EXP\Temp\LCD\Debug/srcc/uart.c:198
                break;
    9632:	e012      	b.n	965a <uart_send1+0x8a>
F:\WorkSpace\AHL-GEC-EXP\Temp\LCD\Debug/srcc/uart.c:204
            }
        }
        else
        {
        	//发送缓冲区为空则发送数据
            if (UART_S1_REG(UART_2h_1_2) & UART_S1_TDRE_MASK )
    9634:	9b03      	ldr	r3, [sp, #12]
    9636:	791b      	ldrb	r3, [r3, #4]
    9638:	b2db      	uxtb	r3, r3
    963a:	b25b      	sxtb	r3, r3
    963c:	2b00      	cmp	r3, #0
    963e:	da05      	bge.n	964c <uart_send1+0x7c>
F:\WorkSpace\AHL-GEC-EXP\Temp\LCD\Debug/srcc/uart.c:206
            {
                UART_D_REG(UART_2h_1_2) = ch;
    9640:	9b03      	ldr	r3, [sp, #12]
    9642:	466a      	mov	r2, sp
    9644:	3206      	adds	r2, #6
    9646:	7812      	ldrb	r2, [r2, #0]
    9648:	71da      	strb	r2, [r3, #7]
F:\WorkSpace\AHL-GEC-EXP\Temp\LCD\Debug/srcc/uart.c:207
                break;
    964a:	e006      	b.n	965a <uart_send1+0x8a>
F:\WorkSpace\AHL-GEC-EXP\Temp\LCD\Debug/srcc/uart.c:190 (discriminator 2)
    for (t = 0; t < 0xFBBB; t++)//查询指定次数
    964c:	9b05      	ldr	r3, [sp, #20]
    964e:	3301      	adds	r3, #1
    9650:	9305      	str	r3, [sp, #20]
F:\WorkSpace\AHL-GEC-EXP\Temp\LCD\Debug/srcc/uart.c:190 (discriminator 1)
    9652:	9b05      	ldr	r3, [sp, #20]
    9654:	4a08      	ldr	r2, [pc, #32]	; (9678 <uart_send1+0xa8>)
    9656:	4293      	cmp	r3, r2
    9658:	d9db      	bls.n	9612 <uart_send1+0x42>
F:\WorkSpace\AHL-GEC-EXP\Temp\LCD\Debug/srcc/uart.c:217
    for(i=0;i<5000;i++)
    {
    	__asm (" nop ");
    }
    */
    if (t >= 0xFBBB)
    965a:	9b05      	ldr	r3, [sp, #20]
    965c:	4a06      	ldr	r2, [pc, #24]	; (9678 <uart_send1+0xa8>)
    965e:	4293      	cmp	r3, r2
    9660:	d901      	bls.n	9666 <uart_send1+0x96>
F:\WorkSpace\AHL-GEC-EXP\Temp\LCD\Debug/srcc/uart.c:218
        return 0; //发送超时，发送失败
    9662:	2300      	movs	r3, #0
    9664:	e000      	b.n	9668 <uart_send1+0x98>
F:\WorkSpace\AHL-GEC-EXP\Temp\LCD\Debug/srcc/uart.c:220
    else
        return 1; //成功发送
    9666:	2301      	movs	r3, #1
F:\WorkSpace\AHL-GEC-EXP\Temp\LCD\Debug/srcc/uart.c:221
}
    9668:	0018      	movs	r0, r3
    966a:	b007      	add	sp, #28
    966c:	bd00      	pop	{pc}
    966e:	46c0      	nop			; (mov r8, r8)
    9670:	4006a000 	.word	0x4006a000
    9674:	0000ad1c 	.word	0x0000ad1c
    9678:	0000fbba 	.word	0x0000fbba

0000967c <uart_is_uartNo>:
uart_is_uartNo():
F:\WorkSpace\AHL-GEC-EXP\Temp\LCD\Debug/srcc/uart.c:538
//函数返回：1:串口号在合理范围内，0：串口号不合理
//参数说明：串口号uartNo  :UART_0、UART_1、UART_2
//功能概要：为程序健壮性而判断uartNo是否在串口数字范围内
//=====================================================================
uint8_t uart_is_uartNo(uint8_t uartNo)
{
    967c:	b082      	sub	sp, #8
    967e:	0002      	movs	r2, r0
    9680:	466b      	mov	r3, sp
    9682:	3307      	adds	r3, #7
    9684:	701a      	strb	r2, [r3, #0]
F:\WorkSpace\AHL-GEC-EXP\Temp\LCD\Debug/srcc/uart.c:539
    if(uartNo < UART_0 || uartNo > UART_2)
    9686:	466b      	mov	r3, sp
    9688:	3307      	adds	r3, #7
    968a:	781b      	ldrb	r3, [r3, #0]
    968c:	2b02      	cmp	r3, #2
    968e:	d901      	bls.n	9694 <uart_is_uartNo+0x18>
F:\WorkSpace\AHL-GEC-EXP\Temp\LCD\Debug/srcc/uart.c:540
        return 0;
    9690:	2300      	movs	r3, #0
    9692:	e000      	b.n	9696 <uart_is_uartNo+0x1a>
F:\WorkSpace\AHL-GEC-EXP\Temp\LCD\Debug/srcc/uart.c:542
    else
        return 1;
    9694:	2301      	movs	r3, #1
F:\WorkSpace\AHL-GEC-EXP\Temp\LCD\Debug/srcc/uart.c:543
}
    9696:	0018      	movs	r0, r3
    9698:	b002      	add	sp, #8
    969a:	4770      	bx	lr

0000969c <LCD_Init>:
LCD_Init():
F:\WorkSpace\AHL-GEC-EXP\Temp\LCD\Debug/srcc/lcd.c:20
//参数说明：无
//功能概要：LCD初始化
//修改记录：王宜怀，2020年9月1日，消除冗余语句
//=====================================================================
void LCD_Init(void)     //LCD初始化
{
    969c:	b500      	push	{lr}
    969e:	b083      	sub	sp, #12
F:\WorkSpace\AHL-GEC-EXP\Temp\LCD\Debug/srcc/lcd.c:22

	spi_init(LCD_SPI,1,20000,0,0);
    96a0:	4a2a      	ldr	r2, [pc, #168]	; (974c <LCD_Init+0xb0>)
    96a2:	2300      	movs	r3, #0
    96a4:	9300      	str	r3, [sp, #0]
    96a6:	2300      	movs	r3, #0
    96a8:	2101      	movs	r1, #1
    96aa:	2000      	movs	r0, #0
    96ac:	f7ff fd0e 	bl	90cc <spi_init>
F:\WorkSpace\AHL-GEC-EXP\Temp\LCD\Debug/srcc/lcd.c:23
	gpio_init(LCD_RS,1,0);
    96b0:	4b27      	ldr	r3, [pc, #156]	; (9750 <LCD_Init+0xb4>)
    96b2:	2200      	movs	r2, #0
    96b4:	2101      	movs	r1, #1
    96b6:	0018      	movs	r0, r3
    96b8:	f7fe ff7e 	bl	85b8 <gpio_init>
F:\WorkSpace\AHL-GEC-EXP\Temp\LCD\Debug/srcc/lcd.c:24
	gpio_init(LCD_DC,1,0);
    96bc:	4b25      	ldr	r3, [pc, #148]	; (9754 <LCD_Init+0xb8>)
    96be:	2200      	movs	r2, #0
    96c0:	2101      	movs	r1, #1
    96c2:	0018      	movs	r0, r3
    96c4:	f7fe ff78 	bl	85b8 <gpio_init>
F:\WorkSpace\AHL-GEC-EXP\Temp\LCD\Debug/srcc/lcd.c:25
	gpio_init(LCD_CS,1,1);
    96c8:	23c0      	movs	r3, #192	; 0xc0
    96ca:	009b      	lsls	r3, r3, #2
    96cc:	2201      	movs	r2, #1
    96ce:	2101      	movs	r1, #1
    96d0:	0018      	movs	r0, r3
    96d2:	f7fe ff71 	bl	85b8 <gpio_init>
F:\WorkSpace\AHL-GEC-EXP\Temp\LCD\Debug/srcc/lcd.c:28


	LCD_WR_REG_DATA(0,0);
    96d6:	2100      	movs	r1, #0
    96d8:	2000      	movs	r0, #0
    96da:	f000 fc03 	bl	9ee4 <LCD_WR_REG_DATA>
F:\WorkSpace\AHL-GEC-EXP\Temp\LCD\Debug/srcc/lcd.c:30

	gpio_set(LCD_RS,0);
    96de:	4b1c      	ldr	r3, [pc, #112]	; (9750 <LCD_Init+0xb4>)
    96e0:	2100      	movs	r1, #0
    96e2:	0018      	movs	r0, r3
    96e4:	f7fe ffe4 	bl	86b0 <gpio_set>
F:\WorkSpace\AHL-GEC-EXP\Temp\LCD\Debug/srcc/lcd.c:31
	LCD_Dly_ms(100);
    96e8:	2064      	movs	r0, #100	; 0x64
    96ea:	f000 fc6f 	bl	9fcc <LCD_Dly_ms>
F:\WorkSpace\AHL-GEC-EXP\Temp\LCD\Debug/srcc/lcd.c:32
	gpio_set(LCD_RS,1);
    96ee:	4b18      	ldr	r3, [pc, #96]	; (9750 <LCD_Init+0xb4>)
    96f0:	2101      	movs	r1, #1
    96f2:	0018      	movs	r0, r3
    96f4:	f7fe ffdc 	bl	86b0 <gpio_set>
F:\WorkSpace\AHL-GEC-EXP\Temp\LCD\Debug/srcc/lcd.c:33
	LCD_Dly_ms(100);
    96f8:	2064      	movs	r0, #100	; 0x64
    96fa:	f000 fc67 	bl	9fcc <LCD_Dly_ms>
F:\WorkSpace\AHL-GEC-EXP\Temp\LCD\Debug/srcc/lcd.c:35
 	////存储器访问控制，正向0x00/0x08,反向0xD0/0xD8
	LCD_WR_REG(0x36);    
    96fe:	2036      	movs	r0, #54	; 0x36
    9700:	f000 fbca 	bl	9e98 <LCD_WR_REG>
F:\WorkSpace\AHL-GEC-EXP\Temp\LCD\Debug/srcc/lcd.c:37
	//0x00：ST7789V（新LCD）正常，ILI9341V红蓝颠倒
	LCD_WR_DATA8(0x00);
    9704:	2000      	movs	r0, #0
    9706:	f000 fb6f 	bl	9de8 <LCD_WR_DATA8>
F:\WorkSpace\AHL-GEC-EXP\Temp\LCD\Debug/srcc/lcd.c:38
	LCD_WR_REG(0xB6);    //显示功能控制
    970a:	20b6      	movs	r0, #182	; 0xb6
    970c:	f000 fbc4 	bl	9e98 <LCD_WR_REG>
F:\WorkSpace\AHL-GEC-EXP\Temp\LCD\Debug/srcc/lcd.c:39
	LCD_WR_DATA8(0x0A);
    9710:	200a      	movs	r0, #10
    9712:	f000 fb69 	bl	9de8 <LCD_WR_DATA8>
F:\WorkSpace\AHL-GEC-EXP\Temp\LCD\Debug/srcc/lcd.c:41

	LCD_WR_DATA8(0xA2);
    9716:	20a2      	movs	r0, #162	; 0xa2
    9718:	f000 fb66 	bl	9de8 <LCD_WR_DATA8>
F:\WorkSpace\AHL-GEC-EXP\Temp\LCD\Debug/srcc/lcd.c:43

	LCD_WR_REG(0x3a);     //定义RGB图像数据格式
    971c:	203a      	movs	r0, #58	; 0x3a
    971e:	f000 fbbb 	bl	9e98 <LCD_WR_REG>
F:\WorkSpace\AHL-GEC-EXP\Temp\LCD\Debug/srcc/lcd.c:44
	LCD_WR_DATA8(0x05);   //16位/像素
    9722:	2005      	movs	r0, #5
    9724:	f000 fb60 	bl	9de8 <LCD_WR_DATA8>
F:\WorkSpace\AHL-GEC-EXP\Temp\LCD\Debug/srcc/lcd.c:46

	LCD_WR_REG(0x11);     //退出睡眠模式
    9728:	2011      	movs	r0, #17
    972a:	f000 fbb5 	bl	9e98 <LCD_WR_REG>
F:\WorkSpace\AHL-GEC-EXP\Temp\LCD\Debug/srcc/lcd.c:47
	LCD_Dly_ms(800);        
    972e:	23c8      	movs	r3, #200	; 0xc8
    9730:	009b      	lsls	r3, r3, #2
    9732:	0018      	movs	r0, r3
    9734:	f000 fc4a 	bl	9fcc <LCD_Dly_ms>
F:\WorkSpace\AHL-GEC-EXP\Temp\LCD\Debug/srcc/lcd.c:48
	LCD_Clear(WHITE);
    9738:	4b07      	ldr	r3, [pc, #28]	; (9758 <LCD_Init+0xbc>)
    973a:	0018      	movs	r0, r3
    973c:	f000 f80e 	bl	975c <LCD_Clear>
F:\WorkSpace\AHL-GEC-EXP\Temp\LCD\Debug/srcc/lcd.c:49
	LCD_WR_REG(0x29);
    9740:	2029      	movs	r0, #41	; 0x29
    9742:	f000 fba9 	bl	9e98 <LCD_WR_REG>
F:\WorkSpace\AHL-GEC-EXP\Temp\LCD\Debug/srcc/lcd.c:50
}
    9746:	46c0      	nop			; (mov r8, r8)
    9748:	b003      	add	sp, #12
    974a:	bd00      	pop	{pc}
    974c:	00004e20 	.word	0x00004e20
    9750:	00000302 	.word	0x00000302
    9754:	00000301 	.word	0x00000301
    9758:	0000ffff 	.word	0x0000ffff

0000975c <LCD_Clear>:
LCD_Clear():
F:\WorkSpace\AHL-GEC-EXP\Temp\LCD\Debug/srcc/lcd.c:58
//函数返回：无
//参数说明：background:背景颜色（使用本文件后画笔颜色宏定义）
//功能概要：LCD清屏
//=====================================================================
void LCD_Clear(uint16_t background)  //LCD清屏
{
    975c:	b500      	push	{lr}
    975e:	b085      	sub	sp, #20
    9760:	0002      	movs	r2, r0
    9762:	466b      	mov	r3, sp
    9764:	3306      	adds	r3, #6
    9766:	801a      	strh	r2, [r3, #0]
F:\WorkSpace\AHL-GEC-EXP\Temp\LCD\Debug/srcc/lcd.c:60
	uint16_t i,j;
	Address_set(0,0,LCD_W-1,LCD_H-1);
    9768:	2340      	movs	r3, #64	; 0x40
    976a:	33ff      	adds	r3, #255	; 0xff
    976c:	22ef      	movs	r2, #239	; 0xef
    976e:	2100      	movs	r1, #0
    9770:	2000      	movs	r0, #0
    9772:	f000 fbce 	bl	9f12 <Address_set>
F:\WorkSpace\AHL-GEC-EXP\Temp\LCD\Debug/srcc/lcd.c:61
    for(i=0;i<LCD_W;i++)
    9776:	230e      	movs	r3, #14
    9778:	446b      	add	r3, sp
    977a:	2200      	movs	r2, #0
    977c:	801a      	strh	r2, [r3, #0]
    977e:	e01b      	b.n	97b8 <LCD_Clear+0x5c>
F:\WorkSpace\AHL-GEC-EXP\Temp\LCD\Debug/srcc/lcd.c:63
	{
	  	for (j=0;j<LCD_H;j++)
    9780:	ab03      	add	r3, sp, #12
    9782:	2200      	movs	r2, #0
    9784:	801a      	strh	r2, [r3, #0]
    9786:	e00a      	b.n	979e <LCD_Clear+0x42>
F:\WorkSpace\AHL-GEC-EXP\Temp\LCD\Debug/srcc/lcd.c:65 (discriminator 3)
	  	{
	  		LCD_WR_DATA(background);
    9788:	466b      	mov	r3, sp
    978a:	3306      	adds	r3, #6
    978c:	881b      	ldrh	r3, [r3, #0]
    978e:	0018      	movs	r0, r3
    9790:	f000 fb50 	bl	9e34 <LCD_WR_DATA>
F:\WorkSpace\AHL-GEC-EXP\Temp\LCD\Debug/srcc/lcd.c:63 (discriminator 3)
	  	for (j=0;j<LCD_H;j++)
    9794:	ab03      	add	r3, sp, #12
    9796:	881a      	ldrh	r2, [r3, #0]
    9798:	ab03      	add	r3, sp, #12
    979a:	3201      	adds	r2, #1
    979c:	801a      	strh	r2, [r3, #0]
F:\WorkSpace\AHL-GEC-EXP\Temp\LCD\Debug/srcc/lcd.c:63 (discriminator 1)
    979e:	ab03      	add	r3, sp, #12
    97a0:	881a      	ldrh	r2, [r3, #0]
    97a2:	23a0      	movs	r3, #160	; 0xa0
    97a4:	005b      	lsls	r3, r3, #1
    97a6:	429a      	cmp	r2, r3
    97a8:	d3ee      	bcc.n	9788 <LCD_Clear+0x2c>
F:\WorkSpace\AHL-GEC-EXP\Temp\LCD\Debug/srcc/lcd.c:61 (discriminator 2)
    for(i=0;i<LCD_W;i++)
    97aa:	230e      	movs	r3, #14
    97ac:	446b      	add	r3, sp
    97ae:	881a      	ldrh	r2, [r3, #0]
    97b0:	230e      	movs	r3, #14
    97b2:	446b      	add	r3, sp
    97b4:	3201      	adds	r2, #1
    97b6:	801a      	strh	r2, [r3, #0]
F:\WorkSpace\AHL-GEC-EXP\Temp\LCD\Debug/srcc/lcd.c:61 (discriminator 1)
    97b8:	230e      	movs	r3, #14
    97ba:	446b      	add	r3, sp
    97bc:	881b      	ldrh	r3, [r3, #0]
    97be:	2bef      	cmp	r3, #239	; 0xef
    97c0:	d9de      	bls.n	9780 <LCD_Clear+0x24>
F:\WorkSpace\AHL-GEC-EXP\Temp\LCD\Debug/srcc/lcd.c:68
	  	}
    }
}
    97c2:	46c0      	nop			; (mov r8, r8)
    97c4:	46c0      	nop			; (mov r8, r8)
    97c6:	b005      	add	sp, #20
    97c8:	bd00      	pop	{pc}

000097ca <LCD_DrawPoint>:
LCD_DrawPoint():
F:\WorkSpace\AHL-GEC-EXP\Temp\LCD\Debug/srcc/lcd.c:77
//参数说明：x,y:点坐标(240*320),
//         color:颜色（使用本文件后画笔颜色宏定义）
//功能概要：在指定位置画一个点
//=====================================================================
void LCD_DrawPoint(uint16_t x,uint16_t y,uint16_t color)  //画点
{
    97ca:	b510      	push	{r4, lr}
    97cc:	b082      	sub	sp, #8
    97ce:	0004      	movs	r4, r0
    97d0:	0008      	movs	r0, r1
    97d2:	0011      	movs	r1, r2
    97d4:	466b      	mov	r3, sp
    97d6:	3306      	adds	r3, #6
    97d8:	1c22      	adds	r2, r4, #0
    97da:	801a      	strh	r2, [r3, #0]
    97dc:	ab01      	add	r3, sp, #4
    97de:	1c02      	adds	r2, r0, #0
    97e0:	801a      	strh	r2, [r3, #0]
    97e2:	466b      	mov	r3, sp
    97e4:	3302      	adds	r3, #2
    97e6:	1c0a      	adds	r2, r1, #0
    97e8:	801a      	strh	r2, [r3, #0]
F:\WorkSpace\AHL-GEC-EXP\Temp\LCD\Debug/srcc/lcd.c:78
	Address_set(x,y,x,y);//设置光标位置
    97ea:	ab01      	add	r3, sp, #4
    97ec:	881c      	ldrh	r4, [r3, #0]
    97ee:	466b      	mov	r3, sp
    97f0:	3306      	adds	r3, #6
    97f2:	881a      	ldrh	r2, [r3, #0]
    97f4:	ab01      	add	r3, sp, #4
    97f6:	8819      	ldrh	r1, [r3, #0]
    97f8:	466b      	mov	r3, sp
    97fa:	3306      	adds	r3, #6
    97fc:	8818      	ldrh	r0, [r3, #0]
    97fe:	0023      	movs	r3, r4
    9800:	f000 fb87 	bl	9f12 <Address_set>
F:\WorkSpace\AHL-GEC-EXP\Temp\LCD\Debug/srcc/lcd.c:79
	LCD_WR_DATA(color);
    9804:	466b      	mov	r3, sp
    9806:	3302      	adds	r3, #2
    9808:	881b      	ldrh	r3, [r3, #0]
    980a:	0018      	movs	r0, r3
    980c:	f000 fb12 	bl	9e34 <LCD_WR_DATA>
F:\WorkSpace\AHL-GEC-EXP\Temp\LCD\Debug/srcc/lcd.c:80
}
    9810:	46c0      	nop			; (mov r8, r8)
    9812:	b002      	add	sp, #8
    9814:	bd10      	pop	{r4, pc}

00009816 <LCD_DrawPoint_big>:
LCD_DrawPoint_big():
F:\WorkSpace\AHL-GEC-EXP\Temp\LCD\Debug/srcc/lcd.c:90
//         color:颜色（使用本文件后画笔颜色宏定义）
//功能概要：在指定位置画一个大点,大点的范围实际是一个以（x-1,y-1）为左
//         上角，（x+1,y+1）为右下角的小矩形，包含9个点（3*3）的大点。
//=====================================================================
void LCD_DrawPoint_big(uint16_t x,uint16_t y,uint16_t color) //画大点
{
    9816:	b510      	push	{r4, lr}
    9818:	b084      	sub	sp, #16
    981a:	0004      	movs	r4, r0
    981c:	0008      	movs	r0, r1
    981e:	0011      	movs	r1, r2
    9820:	230e      	movs	r3, #14
    9822:	446b      	add	r3, sp
    9824:	1c22      	adds	r2, r4, #0
    9826:	801a      	strh	r2, [r3, #0]
    9828:	ab03      	add	r3, sp, #12
    982a:	1c02      	adds	r2, r0, #0
    982c:	801a      	strh	r2, [r3, #0]
    982e:	230a      	movs	r3, #10
    9830:	446b      	add	r3, sp
    9832:	1c0a      	adds	r2, r1, #0
    9834:	801a      	strh	r2, [r3, #0]
F:\WorkSpace\AHL-GEC-EXP\Temp\LCD\Debug/srcc/lcd.c:91
	LCD_DrawSurface(x-1,y-1,x+1,y+1,color);
    9836:	230e      	movs	r3, #14
    9838:	446b      	add	r3, sp
    983a:	881b      	ldrh	r3, [r3, #0]
    983c:	3b01      	subs	r3, #1
    983e:	b298      	uxth	r0, r3
    9840:	ab03      	add	r3, sp, #12
    9842:	881b      	ldrh	r3, [r3, #0]
    9844:	3b01      	subs	r3, #1
    9846:	b299      	uxth	r1, r3
    9848:	230e      	movs	r3, #14
    984a:	446b      	add	r3, sp
    984c:	881b      	ldrh	r3, [r3, #0]
    984e:	3301      	adds	r3, #1
    9850:	b29a      	uxth	r2, r3
    9852:	ab03      	add	r3, sp, #12
    9854:	881b      	ldrh	r3, [r3, #0]
    9856:	3301      	adds	r3, #1
    9858:	b29c      	uxth	r4, r3
    985a:	230a      	movs	r3, #10
    985c:	446b      	add	r3, sp
    985e:	881b      	ldrh	r3, [r3, #0]
    9860:	9300      	str	r3, [sp, #0]
    9862:	0023      	movs	r3, r4
    9864:	f000 fa70 	bl	9d48 <LCD_DrawSurface>
F:\WorkSpace\AHL-GEC-EXP\Temp\LCD\Debug/srcc/lcd.c:92
}
    9868:	46c0      	nop			; (mov r8, r8)
    986a:	b004      	add	sp, #16
    986c:	bd10      	pop	{r4, pc}

0000986e <LCD_DrawRectangle>:
LCD_DrawRectangle():
F:\WorkSpace\AHL-GEC-EXP\Temp\LCD\Debug/srcc/lcd.c:142
//         color:颜色（使用本文件后画笔颜色宏定义）
//功能概要：在指定左上角与右下角画一个指定线条颜色的矩形
//=====================================================================
void LCD_DrawRectangle(uint16_t x1, uint16_t y1,
     uint16_t x2, uint16_t y2,uint16_t color)    //画矩形
{
    986e:	b530      	push	{r4, r5, lr}
    9870:	b085      	sub	sp, #20
    9872:	0005      	movs	r5, r0
    9874:	000c      	movs	r4, r1
    9876:	0010      	movs	r0, r2
    9878:	0019      	movs	r1, r3
    987a:	230e      	movs	r3, #14
    987c:	446b      	add	r3, sp
    987e:	1c2a      	adds	r2, r5, #0
    9880:	801a      	strh	r2, [r3, #0]
    9882:	ab03      	add	r3, sp, #12
    9884:	1c22      	adds	r2, r4, #0
    9886:	801a      	strh	r2, [r3, #0]
    9888:	230a      	movs	r3, #10
    988a:	446b      	add	r3, sp
    988c:	1c02      	adds	r2, r0, #0
    988e:	801a      	strh	r2, [r3, #0]
    9890:	ab02      	add	r3, sp, #8
    9892:	1c0a      	adds	r2, r1, #0
    9894:	801a      	strh	r2, [r3, #0]
F:\WorkSpace\AHL-GEC-EXP\Temp\LCD\Debug/srcc/lcd.c:143
	LCD_DrawLine(x1,y1,x2,y1,color);
    9896:	ab03      	add	r3, sp, #12
    9898:	881c      	ldrh	r4, [r3, #0]
    989a:	230a      	movs	r3, #10
    989c:	446b      	add	r3, sp
    989e:	881a      	ldrh	r2, [r3, #0]
    98a0:	ab03      	add	r3, sp, #12
    98a2:	8819      	ldrh	r1, [r3, #0]
    98a4:	230e      	movs	r3, #14
    98a6:	446b      	add	r3, sp
    98a8:	8818      	ldrh	r0, [r3, #0]
    98aa:	ab08      	add	r3, sp, #32
    98ac:	881b      	ldrh	r3, [r3, #0]
    98ae:	9300      	str	r3, [sp, #0]
    98b0:	0023      	movs	r3, r4
    98b2:	f000 f9af 	bl	9c14 <LCD_DrawLine>
F:\WorkSpace\AHL-GEC-EXP\Temp\LCD\Debug/srcc/lcd.c:144
	LCD_DrawLine(x1,y1,x1,y2,color);
    98b6:	ab02      	add	r3, sp, #8
    98b8:	881c      	ldrh	r4, [r3, #0]
    98ba:	230e      	movs	r3, #14
    98bc:	446b      	add	r3, sp
    98be:	881a      	ldrh	r2, [r3, #0]
    98c0:	ab03      	add	r3, sp, #12
    98c2:	8819      	ldrh	r1, [r3, #0]
    98c4:	230e      	movs	r3, #14
    98c6:	446b      	add	r3, sp
    98c8:	8818      	ldrh	r0, [r3, #0]
    98ca:	ab08      	add	r3, sp, #32
    98cc:	881b      	ldrh	r3, [r3, #0]
    98ce:	9300      	str	r3, [sp, #0]
    98d0:	0023      	movs	r3, r4
    98d2:	f000 f99f 	bl	9c14 <LCD_DrawLine>
F:\WorkSpace\AHL-GEC-EXP\Temp\LCD\Debug/srcc/lcd.c:145
	LCD_DrawLine(x1,y2,x2,y2,color);
    98d6:	ab02      	add	r3, sp, #8
    98d8:	881c      	ldrh	r4, [r3, #0]
    98da:	230a      	movs	r3, #10
    98dc:	446b      	add	r3, sp
    98de:	881a      	ldrh	r2, [r3, #0]
    98e0:	ab02      	add	r3, sp, #8
    98e2:	8819      	ldrh	r1, [r3, #0]
    98e4:	230e      	movs	r3, #14
    98e6:	446b      	add	r3, sp
    98e8:	8818      	ldrh	r0, [r3, #0]
    98ea:	ab08      	add	r3, sp, #32
    98ec:	881b      	ldrh	r3, [r3, #0]
    98ee:	9300      	str	r3, [sp, #0]
    98f0:	0023      	movs	r3, r4
    98f2:	f000 f98f 	bl	9c14 <LCD_DrawLine>
F:\WorkSpace\AHL-GEC-EXP\Temp\LCD\Debug/srcc/lcd.c:146
	LCD_DrawLine(x2,y1,x2,y2,color);
    98f6:	ab02      	add	r3, sp, #8
    98f8:	881c      	ldrh	r4, [r3, #0]
    98fa:	230a      	movs	r3, #10
    98fc:	446b      	add	r3, sp
    98fe:	881a      	ldrh	r2, [r3, #0]
    9900:	ab03      	add	r3, sp, #12
    9902:	8819      	ldrh	r1, [r3, #0]
    9904:	230a      	movs	r3, #10
    9906:	446b      	add	r3, sp
    9908:	8818      	ldrh	r0, [r3, #0]
    990a:	ab08      	add	r3, sp, #32
    990c:	881b      	ldrh	r3, [r3, #0]
    990e:	9300      	str	r3, [sp, #0]
    9910:	0023      	movs	r3, r4
    9912:	f000 f97f 	bl	9c14 <LCD_DrawLine>
F:\WorkSpace\AHL-GEC-EXP\Temp\LCD\Debug/srcc/lcd.c:147
}
    9916:	46c0      	nop			; (mov r8, r8)
    9918:	b005      	add	sp, #20
    991a:	bd30      	pop	{r4, r5, pc}

0000991c <LCD_ShowCharactor>:
LCD_ShowCharactor():
F:\WorkSpace\AHL-GEC-EXP\Temp\LCD\Debug/srcc/lcd.c:159
//         p:字库起始地址
//功能概要：在指定位置显示一个汉字(16*16大小),汉字需要自行从字库提取
//=====================================================================
void LCD_ShowCharactor(uint16_t  x,uint16_t y,uint16_t fontcolor,
	 uint16_t groundbackcolor,const uint8_t *p)    //显示16*16汉字
{
    991c:	b530      	push	{r4, r5, lr}
    991e:	b085      	sub	sp, #20
    9920:	0005      	movs	r5, r0
    9922:	000c      	movs	r4, r1
    9924:	0010      	movs	r0, r2
    9926:	0019      	movs	r1, r3
    9928:	466b      	mov	r3, sp
    992a:	3306      	adds	r3, #6
    992c:	1c2a      	adds	r2, r5, #0
    992e:	801a      	strh	r2, [r3, #0]
    9930:	ab01      	add	r3, sp, #4
    9932:	1c22      	adds	r2, r4, #0
    9934:	801a      	strh	r2, [r3, #0]
    9936:	466b      	mov	r3, sp
    9938:	3302      	adds	r3, #2
    993a:	1c02      	adds	r2, r0, #0
    993c:	801a      	strh	r2, [r3, #0]
    993e:	466b      	mov	r3, sp
    9940:	1c0a      	adds	r2, r1, #0
    9942:	801a      	strh	r2, [r3, #0]
F:\WorkSpace\AHL-GEC-EXP\Temp\LCD\Debug/srcc/lcd.c:161
	uint8_t i,j;
	const uint8_t *temp=p;
    9944:	9b08      	ldr	r3, [sp, #32]
    9946:	9302      	str	r3, [sp, #8]
F:\WorkSpace\AHL-GEC-EXP\Temp\LCD\Debug/srcc/lcd.c:162
    Address_set(x,y,x+15,y+15); //设置区域
    9948:	466b      	mov	r3, sp
    994a:	3306      	adds	r3, #6
    994c:	881b      	ldrh	r3, [r3, #0]
    994e:	330f      	adds	r3, #15
    9950:	b29a      	uxth	r2, r3
    9952:	ab01      	add	r3, sp, #4
    9954:	881b      	ldrh	r3, [r3, #0]
    9956:	330f      	adds	r3, #15
    9958:	b29c      	uxth	r4, r3
    995a:	ab01      	add	r3, sp, #4
    995c:	8819      	ldrh	r1, [r3, #0]
    995e:	466b      	mov	r3, sp
    9960:	3306      	adds	r3, #6
    9962:	8818      	ldrh	r0, [r3, #0]
    9964:	0023      	movs	r3, r4
    9966:	f000 fad4 	bl	9f12 <Address_set>
F:\WorkSpace\AHL-GEC-EXP\Temp\LCD\Debug/srcc/lcd.c:163
	for(j=0;j<32;j++)
    996a:	230e      	movs	r3, #14
    996c:	446b      	add	r3, sp
    996e:	2200      	movs	r2, #0
    9970:	701a      	strb	r2, [r3, #0]
    9972:	e031      	b.n	99d8 <LCD_ShowCharactor+0xbc>
F:\WorkSpace\AHL-GEC-EXP\Temp\LCD\Debug/srcc/lcd.c:165
	{
		for(i=0;i<8;i++)
    9974:	230f      	movs	r3, #15
    9976:	446b      	add	r3, sp
    9978:	2200      	movs	r2, #0
    997a:	701a      	strb	r2, [r3, #0]
    997c:	e01d      	b.n	99ba <LCD_ShowCharactor+0x9e>
F:\WorkSpace\AHL-GEC-EXP\Temp\LCD\Debug/srcc/lcd.c:167
		{
		 	if((*temp&(1<<i))!=0)
    997e:	9b02      	ldr	r3, [sp, #8]
    9980:	781b      	ldrb	r3, [r3, #0]
    9982:	001a      	movs	r2, r3
    9984:	230f      	movs	r3, #15
    9986:	446b      	add	r3, sp
    9988:	781b      	ldrb	r3, [r3, #0]
    998a:	411a      	asrs	r2, r3
    998c:	0013      	movs	r3, r2
    998e:	2201      	movs	r2, #1
    9990:	4013      	ands	r3, r2
    9992:	d006      	beq.n	99a2 <LCD_ShowCharactor+0x86>
F:\WorkSpace\AHL-GEC-EXP\Temp\LCD\Debug/srcc/lcd.c:168
				LCD_WR_DATA(fontcolor);
    9994:	466b      	mov	r3, sp
    9996:	3302      	adds	r3, #2
    9998:	881b      	ldrh	r3, [r3, #0]
    999a:	0018      	movs	r0, r3
    999c:	f000 fa4a 	bl	9e34 <LCD_WR_DATA>
    99a0:	e004      	b.n	99ac <LCD_ShowCharactor+0x90>
F:\WorkSpace\AHL-GEC-EXP\Temp\LCD\Debug/srcc/lcd.c:170
			else
				LCD_WR_DATA(groundbackcolor);
    99a2:	466b      	mov	r3, sp
    99a4:	881b      	ldrh	r3, [r3, #0]
    99a6:	0018      	movs	r0, r3
    99a8:	f000 fa44 	bl	9e34 <LCD_WR_DATA>
F:\WorkSpace\AHL-GEC-EXP\Temp\LCD\Debug/srcc/lcd.c:165 (discriminator 2)
		for(i=0;i<8;i++)
    99ac:	230f      	movs	r3, #15
    99ae:	446b      	add	r3, sp
    99b0:	781a      	ldrb	r2, [r3, #0]
    99b2:	230f      	movs	r3, #15
    99b4:	446b      	add	r3, sp
    99b6:	3201      	adds	r2, #1
    99b8:	701a      	strb	r2, [r3, #0]
F:\WorkSpace\AHL-GEC-EXP\Temp\LCD\Debug/srcc/lcd.c:165 (discriminator 1)
    99ba:	230f      	movs	r3, #15
    99bc:	446b      	add	r3, sp
    99be:	781b      	ldrb	r3, [r3, #0]
    99c0:	2b07      	cmp	r3, #7
    99c2:	d9dc      	bls.n	997e <LCD_ShowCharactor+0x62>
F:\WorkSpace\AHL-GEC-EXP\Temp\LCD\Debug/srcc/lcd.c:172 (discriminator 2)
		}
		temp++;
    99c4:	9b02      	ldr	r3, [sp, #8]
    99c6:	3301      	adds	r3, #1
    99c8:	9302      	str	r3, [sp, #8]
F:\WorkSpace\AHL-GEC-EXP\Temp\LCD\Debug/srcc/lcd.c:163 (discriminator 2)
	for(j=0;j<32;j++)
    99ca:	230e      	movs	r3, #14
    99cc:	446b      	add	r3, sp
    99ce:	781a      	ldrb	r2, [r3, #0]
    99d0:	230e      	movs	r3, #14
    99d2:	446b      	add	r3, sp
    99d4:	3201      	adds	r2, #1
    99d6:	701a      	strb	r2, [r3, #0]
F:\WorkSpace\AHL-GEC-EXP\Temp\LCD\Debug/srcc/lcd.c:163 (discriminator 1)
    99d8:	230e      	movs	r3, #14
    99da:	446b      	add	r3, sp
    99dc:	781b      	ldrb	r3, [r3, #0]
    99de:	2b1f      	cmp	r3, #31
    99e0:	d9c8      	bls.n	9974 <LCD_ShowCharactor+0x58>
F:\WorkSpace\AHL-GEC-EXP\Temp\LCD\Debug/srcc/lcd.c:174
	 }
}
    99e2:	46c0      	nop			; (mov r8, r8)
    99e4:	46c0      	nop			; (mov r8, r8)
    99e6:	b005      	add	sp, #20
    99e8:	bd30      	pop	{r4, r5, pc}
	...

000099ec <LCD_ShowString>:
LCD_ShowString():
F:\WorkSpace\AHL-GEC-EXP\Temp\LCD\Debug/srcc/lcd.c:187
//功能概要：在指定位置显示字符串，可指定显示画笔颜色和背景颜色。
//          中文大小为（16*16）,英文大小为（8*16）
//=====================================================================
void LCD_ShowString(uint16_t  x,uint16_t y,uint16_t fontcolor,
	 uint16_t groundbackcolor,const uint8_t *p)
{
    99ec:	b530      	push	{r4, r5, lr}
    99ee:	b089      	sub	sp, #36	; 0x24
    99f0:	0005      	movs	r5, r0
    99f2:	000c      	movs	r4, r1
    99f4:	0010      	movs	r0, r2
    99f6:	0019      	movs	r1, r3
    99f8:	230e      	movs	r3, #14
    99fa:	446b      	add	r3, sp
    99fc:	1c2a      	adds	r2, r5, #0
    99fe:	801a      	strh	r2, [r3, #0]
    9a00:	ab03      	add	r3, sp, #12
    9a02:	1c22      	adds	r2, r4, #0
    9a04:	801a      	strh	r2, [r3, #0]
    9a06:	230a      	movs	r3, #10
    9a08:	446b      	add	r3, sp
    9a0a:	1c02      	adds	r2, r0, #0
    9a0c:	801a      	strh	r2, [r3, #0]
    9a0e:	ab02      	add	r3, sp, #8
    9a10:	1c0a      	adds	r2, r1, #0
    9a12:	801a      	strh	r2, [r3, #0]
F:\WorkSpace\AHL-GEC-EXP\Temp\LCD\Debug/srcc/lcd.c:190
	uint8_t i,j,k;
	const uint8_t *temp;
	k = 0;
    9a14:	231d      	movs	r3, #29
    9a16:	446b      	add	r3, sp
    9a18:	2200      	movs	r2, #0
    9a1a:	701a      	strb	r2, [r3, #0]
F:\WorkSpace\AHL-GEC-EXP\Temp\LCD\Debug/srcc/lcd.c:191
	while(*p != 0)
    9a1c:	e0ed      	b.n	9bfa <LCD_ShowString+0x20e>
F:\WorkSpace\AHL-GEC-EXP\Temp\LCD\Debug/srcc/lcd.c:193
	{
		__asm("cpsid i");     // 关总中断
    9a1e:	b672      	cpsid	i
F:\WorkSpace\AHL-GEC-EXP\Temp\LCD\Debug/srcc/lcd.c:194
		if(*p>=0x20 && *p<=0x7e)
    9a20:	9b0c      	ldr	r3, [sp, #48]	; 0x30
    9a22:	781b      	ldrb	r3, [r3, #0]
    9a24:	2b1f      	cmp	r3, #31
    9a26:	d800      	bhi.n	9a2a <LCD_ShowString+0x3e>
    9a28:	e072      	b.n	9b10 <LCD_ShowString+0x124>
F:\WorkSpace\AHL-GEC-EXP\Temp\LCD\Debug/srcc/lcd.c:194 (discriminator 1)
    9a2a:	9b0c      	ldr	r3, [sp, #48]	; 0x30
    9a2c:	781b      	ldrb	r3, [r3, #0]
    9a2e:	2b7e      	cmp	r3, #126	; 0x7e
    9a30:	d86e      	bhi.n	9b10 <LCD_ShowString+0x124>
F:\WorkSpace\AHL-GEC-EXP\Temp\LCD\Debug/srcc/lcd.c:196
		{
			temp=nAsciiDot;
    9a32:	4b76      	ldr	r3, [pc, #472]	; (9c0c <LCD_ShowString+0x220>)
    9a34:	9306      	str	r3, [sp, #24]
F:\WorkSpace\AHL-GEC-EXP\Temp\LCD\Debug/srcc/lcd.c:197
		    Address_set(x+8*k,y,x+7+8*k,y+15); //设置区域
    9a36:	231d      	movs	r3, #29
    9a38:	446b      	add	r3, sp
    9a3a:	781b      	ldrb	r3, [r3, #0]
    9a3c:	b29b      	uxth	r3, r3
    9a3e:	00db      	lsls	r3, r3, #3
    9a40:	b29a      	uxth	r2, r3
    9a42:	230e      	movs	r3, #14
    9a44:	446b      	add	r3, sp
    9a46:	881b      	ldrh	r3, [r3, #0]
    9a48:	18d3      	adds	r3, r2, r3
    9a4a:	b298      	uxth	r0, r3
    9a4c:	231d      	movs	r3, #29
    9a4e:	446b      	add	r3, sp
    9a50:	781b      	ldrb	r3, [r3, #0]
    9a52:	b29b      	uxth	r3, r3
    9a54:	00db      	lsls	r3, r3, #3
    9a56:	b29a      	uxth	r2, r3
    9a58:	230e      	movs	r3, #14
    9a5a:	446b      	add	r3, sp
    9a5c:	881b      	ldrh	r3, [r3, #0]
    9a5e:	18d3      	adds	r3, r2, r3
    9a60:	b29b      	uxth	r3, r3
    9a62:	3307      	adds	r3, #7
    9a64:	b29a      	uxth	r2, r3
    9a66:	ab03      	add	r3, sp, #12
    9a68:	881b      	ldrh	r3, [r3, #0]
    9a6a:	330f      	adds	r3, #15
    9a6c:	b29c      	uxth	r4, r3
    9a6e:	ab03      	add	r3, sp, #12
    9a70:	8819      	ldrh	r1, [r3, #0]
    9a72:	0023      	movs	r3, r4
    9a74:	f000 fa4d 	bl	9f12 <Address_set>
F:\WorkSpace\AHL-GEC-EXP\Temp\LCD\Debug/srcc/lcd.c:198
			temp+=(*p-0x20)*16;
    9a78:	9b0c      	ldr	r3, [sp, #48]	; 0x30
    9a7a:	781b      	ldrb	r3, [r3, #0]
    9a7c:	3b20      	subs	r3, #32
    9a7e:	011b      	lsls	r3, r3, #4
    9a80:	001a      	movs	r2, r3
    9a82:	9b06      	ldr	r3, [sp, #24]
    9a84:	189b      	adds	r3, r3, r2
    9a86:	9306      	str	r3, [sp, #24]
F:\WorkSpace\AHL-GEC-EXP\Temp\LCD\Debug/srcc/lcd.c:199
			for(j=0;j<16;j++)
    9a88:	231e      	movs	r3, #30
    9a8a:	446b      	add	r3, sp
    9a8c:	2200      	movs	r2, #0
    9a8e:	701a      	strb	r2, [r3, #0]
    9a90:	e031      	b.n	9af6 <LCD_ShowString+0x10a>
F:\WorkSpace\AHL-GEC-EXP\Temp\LCD\Debug/srcc/lcd.c:201
			{
				for(i=0;i<8;i++)
    9a92:	231f      	movs	r3, #31
    9a94:	446b      	add	r3, sp
    9a96:	2200      	movs	r2, #0
    9a98:	701a      	strb	r2, [r3, #0]
    9a9a:	e01d      	b.n	9ad8 <LCD_ShowString+0xec>
F:\WorkSpace\AHL-GEC-EXP\Temp\LCD\Debug/srcc/lcd.c:203
				{
				 	if((*temp&(1<<i))!=0)
    9a9c:	9b06      	ldr	r3, [sp, #24]
    9a9e:	781b      	ldrb	r3, [r3, #0]
    9aa0:	001a      	movs	r2, r3
    9aa2:	231f      	movs	r3, #31
    9aa4:	446b      	add	r3, sp
    9aa6:	781b      	ldrb	r3, [r3, #0]
    9aa8:	411a      	asrs	r2, r3
    9aaa:	0013      	movs	r3, r2
    9aac:	2201      	movs	r2, #1
    9aae:	4013      	ands	r3, r2
    9ab0:	d006      	beq.n	9ac0 <LCD_ShowString+0xd4>
F:\WorkSpace\AHL-GEC-EXP\Temp\LCD\Debug/srcc/lcd.c:205
					{
						LCD_WR_DATA(fontcolor);
    9ab2:	230a      	movs	r3, #10
    9ab4:	446b      	add	r3, sp
    9ab6:	881b      	ldrh	r3, [r3, #0]
    9ab8:	0018      	movs	r0, r3
    9aba:	f000 f9bb 	bl	9e34 <LCD_WR_DATA>
    9abe:	e004      	b.n	9aca <LCD_ShowString+0xde>
F:\WorkSpace\AHL-GEC-EXP\Temp\LCD\Debug/srcc/lcd.c:209
					}
					else
					{
						LCD_WR_DATA(groundbackcolor);
    9ac0:	ab02      	add	r3, sp, #8
    9ac2:	881b      	ldrh	r3, [r3, #0]
    9ac4:	0018      	movs	r0, r3
    9ac6:	f000 f9b5 	bl	9e34 <LCD_WR_DATA>
F:\WorkSpace\AHL-GEC-EXP\Temp\LCD\Debug/srcc/lcd.c:201 (discriminator 2)
				for(i=0;i<8;i++)
    9aca:	231f      	movs	r3, #31
    9acc:	446b      	add	r3, sp
    9ace:	781a      	ldrb	r2, [r3, #0]
    9ad0:	231f      	movs	r3, #31
    9ad2:	446b      	add	r3, sp
    9ad4:	3201      	adds	r2, #1
    9ad6:	701a      	strb	r2, [r3, #0]
F:\WorkSpace\AHL-GEC-EXP\Temp\LCD\Debug/srcc/lcd.c:201 (discriminator 1)
    9ad8:	231f      	movs	r3, #31
    9ada:	446b      	add	r3, sp
    9adc:	781b      	ldrb	r3, [r3, #0]
    9ade:	2b07      	cmp	r3, #7
    9ae0:	d9dc      	bls.n	9a9c <LCD_ShowString+0xb0>
F:\WorkSpace\AHL-GEC-EXP\Temp\LCD\Debug/srcc/lcd.c:212 (discriminator 2)
					}
				}
				temp++;
    9ae2:	9b06      	ldr	r3, [sp, #24]
    9ae4:	3301      	adds	r3, #1
    9ae6:	9306      	str	r3, [sp, #24]
F:\WorkSpace\AHL-GEC-EXP\Temp\LCD\Debug/srcc/lcd.c:199 (discriminator 2)
			for(j=0;j<16;j++)
    9ae8:	231e      	movs	r3, #30
    9aea:	446b      	add	r3, sp
    9aec:	781a      	ldrb	r2, [r3, #0]
    9aee:	231e      	movs	r3, #30
    9af0:	446b      	add	r3, sp
    9af2:	3201      	adds	r2, #1
    9af4:	701a      	strb	r2, [r3, #0]
F:\WorkSpace\AHL-GEC-EXP\Temp\LCD\Debug/srcc/lcd.c:199 (discriminator 1)
    9af6:	231e      	movs	r3, #30
    9af8:	446b      	add	r3, sp
    9afa:	781b      	ldrb	r3, [r3, #0]
    9afc:	2b0f      	cmp	r3, #15
    9afe:	d9c8      	bls.n	9a92 <LCD_ShowString+0xa6>
F:\WorkSpace\AHL-GEC-EXP\Temp\LCD\Debug/srcc/lcd.c:214
			 }
			k++;
    9b00:	231d      	movs	r3, #29
    9b02:	446b      	add	r3, sp
    9b04:	781a      	ldrb	r2, [r3, #0]
    9b06:	231d      	movs	r3, #29
    9b08:	446b      	add	r3, sp
    9b0a:	3201      	adds	r2, #1
    9b0c:	701a      	strb	r2, [r3, #0]
    9b0e:	e070      	b.n	9bf2 <LCD_ShowString+0x206>
F:\WorkSpace\AHL-GEC-EXP\Temp\LCD\Debug/srcc/lcd.c:216
		}
		else if(*p > 0x7e)
    9b10:	9b0c      	ldr	r3, [sp, #48]	; 0x30
    9b12:	781b      	ldrb	r3, [r3, #0]
    9b14:	2b7e      	cmp	r3, #126	; 0x7e
    9b16:	d96c      	bls.n	9bf2 <LCD_ShowString+0x206>
F:\WorkSpace\AHL-GEC-EXP\Temp\LCD\Debug/srcc/lcd.c:218
		{
             for(i=0;i<ChineseCharacterLength;i++)
    9b18:	231f      	movs	r3, #31
    9b1a:	446b      	add	r3, sp
    9b1c:	2200      	movs	r2, #0
    9b1e:	701a      	strb	r2, [r3, #0]
    9b20:	e05b      	b.n	9bda <LCD_ShowString+0x1ee>
F:\WorkSpace\AHL-GEC-EXP\Temp\LCD\Debug/srcc/lcd.c:220
             {
            	 uint8_t a = *p;
    9b22:	2317      	movs	r3, #23
    9b24:	446b      	add	r3, sp
    9b26:	9a0c      	ldr	r2, [sp, #48]	; 0x30
    9b28:	7812      	ldrb	r2, [r2, #0]
    9b2a:	701a      	strb	r2, [r3, #0]
F:\WorkSpace\AHL-GEC-EXP\Temp\LCD\Debug/srcc/lcd.c:221
            	 uint8_t b = *(p+1);
    9b2c:	2316      	movs	r3, #22
    9b2e:	446b      	add	r3, sp
    9b30:	9a0c      	ldr	r2, [sp, #48]	; 0x30
    9b32:	7852      	ldrb	r2, [r2, #1]
    9b34:	701a      	strb	r2, [r3, #0]
F:\WorkSpace\AHL-GEC-EXP\Temp\LCD\Debug/srcc/lcd.c:222
            	 uint8_t c = GB_16[i].Index[0];
    9b36:	231f      	movs	r3, #31
    9b38:	446b      	add	r3, sp
    9b3a:	781a      	ldrb	r2, [r3, #0]
    9b3c:	4934      	ldr	r1, [pc, #208]	; (9c10 <LCD_ShowString+0x224>)
    9b3e:	0013      	movs	r3, r2
    9b40:	011b      	lsls	r3, r3, #4
    9b42:	189b      	adds	r3, r3, r2
    9b44:	005b      	lsls	r3, r3, #1
    9b46:	565a      	ldrsb	r2, [r3, r1]
    9b48:	2315      	movs	r3, #21
    9b4a:	446b      	add	r3, sp
    9b4c:	701a      	strb	r2, [r3, #0]
F:\WorkSpace\AHL-GEC-EXP\Temp\LCD\Debug/srcc/lcd.c:223
            	 uint8_t d = GB_16[i].Index[1];
    9b4e:	231f      	movs	r3, #31
    9b50:	446b      	add	r3, sp
    9b52:	781a      	ldrb	r2, [r3, #0]
    9b54:	492e      	ldr	r1, [pc, #184]	; (9c10 <LCD_ShowString+0x224>)
    9b56:	0013      	movs	r3, r2
    9b58:	011b      	lsls	r3, r3, #4
    9b5a:	189b      	adds	r3, r3, r2
    9b5c:	005b      	lsls	r3, r3, #1
    9b5e:	18cb      	adds	r3, r1, r3
    9b60:	3301      	adds	r3, #1
    9b62:	2200      	movs	r2, #0
    9b64:	569a      	ldrsb	r2, [r3, r2]
    9b66:	ab05      	add	r3, sp, #20
    9b68:	701a      	strb	r2, [r3, #0]
F:\WorkSpace\AHL-GEC-EXP\Temp\LCD\Debug/srcc/lcd.c:224
                 if((a == c) && (b == d))
    9b6a:	2217      	movs	r2, #23
    9b6c:	446a      	add	r2, sp
    9b6e:	2315      	movs	r3, #21
    9b70:	446b      	add	r3, sp
    9b72:	7812      	ldrb	r2, [r2, #0]
    9b74:	781b      	ldrb	r3, [r3, #0]
    9b76:	429a      	cmp	r2, r3
    9b78:	d128      	bne.n	9bcc <LCD_ShowString+0x1e0>
F:\WorkSpace\AHL-GEC-EXP\Temp\LCD\Debug/srcc/lcd.c:224 (discriminator 1)
    9b7a:	2216      	movs	r2, #22
    9b7c:	446a      	add	r2, sp
    9b7e:	ab05      	add	r3, sp, #20
    9b80:	7812      	ldrb	r2, [r2, #0]
    9b82:	781b      	ldrb	r3, [r3, #0]
    9b84:	429a      	cmp	r2, r3
    9b86:	d121      	bne.n	9bcc <LCD_ShowString+0x1e0>
F:\WorkSpace\AHL-GEC-EXP\Temp\LCD\Debug/srcc/lcd.c:226
                 {
                	 LCD_ShowCharactor(x+8*k,y,fontcolor,
    9b88:	231d      	movs	r3, #29
    9b8a:	446b      	add	r3, sp
    9b8c:	781b      	ldrb	r3, [r3, #0]
    9b8e:	b29b      	uxth	r3, r3
    9b90:	00db      	lsls	r3, r3, #3
    9b92:	b29a      	uxth	r2, r3
    9b94:	230e      	movs	r3, #14
    9b96:	446b      	add	r3, sp
    9b98:	881b      	ldrh	r3, [r3, #0]
    9b9a:	18d3      	adds	r3, r2, r3
    9b9c:	b298      	uxth	r0, r3
F:\WorkSpace\AHL-GEC-EXP\Temp\LCD\Debug/srcc/lcd.c:227
                	     groundbackcolor,GB_16[i].Msk);
    9b9e:	231f      	movs	r3, #31
    9ba0:	446b      	add	r3, sp
    9ba2:	781a      	ldrb	r2, [r3, #0]
    9ba4:	0013      	movs	r3, r2
    9ba6:	011b      	lsls	r3, r3, #4
    9ba8:	189b      	adds	r3, r3, r2
    9baa:	005b      	lsls	r3, r3, #1
    9bac:	4a18      	ldr	r2, [pc, #96]	; (9c10 <LCD_ShowString+0x224>)
    9bae:	189b      	adds	r3, r3, r2
    9bb0:	3302      	adds	r3, #2
F:\WorkSpace\AHL-GEC-EXP\Temp\LCD\Debug/srcc/lcd.c:226
                	 LCD_ShowCharactor(x+8*k,y,fontcolor,
    9bb2:	aa02      	add	r2, sp, #8
    9bb4:	8815      	ldrh	r5, [r2, #0]
    9bb6:	220a      	movs	r2, #10
    9bb8:	446a      	add	r2, sp
    9bba:	8814      	ldrh	r4, [r2, #0]
    9bbc:	aa03      	add	r2, sp, #12
    9bbe:	8811      	ldrh	r1, [r2, #0]
    9bc0:	9300      	str	r3, [sp, #0]
    9bc2:	002b      	movs	r3, r5
    9bc4:	0022      	movs	r2, r4
    9bc6:	f7ff fea9 	bl	991c <LCD_ShowCharactor>
F:\WorkSpace\AHL-GEC-EXP\Temp\LCD\Debug/srcc/lcd.c:228
                	 break;
    9bca:	e00b      	b.n	9be4 <LCD_ShowString+0x1f8>
F:\WorkSpace\AHL-GEC-EXP\Temp\LCD\Debug/srcc/lcd.c:218 (discriminator 2)
             for(i=0;i<ChineseCharacterLength;i++)
    9bcc:	231f      	movs	r3, #31
    9bce:	446b      	add	r3, sp
    9bd0:	781a      	ldrb	r2, [r3, #0]
    9bd2:	231f      	movs	r3, #31
    9bd4:	446b      	add	r3, sp
    9bd6:	3201      	adds	r2, #1
    9bd8:	701a      	strb	r2, [r3, #0]
F:\WorkSpace\AHL-GEC-EXP\Temp\LCD\Debug/srcc/lcd.c:218 (discriminator 1)
    9bda:	231f      	movs	r3, #31
    9bdc:	446b      	add	r3, sp
    9bde:	781b      	ldrb	r3, [r3, #0]
    9be0:	2b09      	cmp	r3, #9
    9be2:	d99e      	bls.n	9b22 <LCD_ShowString+0x136>
F:\WorkSpace\AHL-GEC-EXP\Temp\LCD\Debug/srcc/lcd.c:231
                 }
             }
             k+=1;
    9be4:	231d      	movs	r3, #29
    9be6:	446b      	add	r3, sp
    9be8:	221d      	movs	r2, #29
    9bea:	446a      	add	r2, sp
    9bec:	7812      	ldrb	r2, [r2, #0]
    9bee:	3201      	adds	r2, #1
    9bf0:	701a      	strb	r2, [r3, #0]
F:\WorkSpace\AHL-GEC-EXP\Temp\LCD\Debug/srcc/lcd.c:233
		}
		p++;
    9bf2:	9b0c      	ldr	r3, [sp, #48]	; 0x30
    9bf4:	3301      	adds	r3, #1
    9bf6:	930c      	str	r3, [sp, #48]	; 0x30
F:\WorkSpace\AHL-GEC-EXP\Temp\LCD\Debug/srcc/lcd.c:234
		__asm("cpsie i");     // 开总中断
    9bf8:	b662      	cpsie	i
F:\WorkSpace\AHL-GEC-EXP\Temp\LCD\Debug/srcc/lcd.c:191
	while(*p != 0)
    9bfa:	9b0c      	ldr	r3, [sp, #48]	; 0x30
    9bfc:	781b      	ldrb	r3, [r3, #0]
    9bfe:	2b00      	cmp	r3, #0
    9c00:	d000      	beq.n	9c04 <LCD_ShowString+0x218>
    9c02:	e70c      	b.n	9a1e <LCD_ShowString+0x32>
F:\WorkSpace\AHL-GEC-EXP\Temp\LCD\Debug/srcc/lcd.c:236
	}
}
    9c04:	46c0      	nop			; (mov r8, r8)
    9c06:	46c0      	nop			; (mov r8, r8)
    9c08:	b009      	add	sp, #36	; 0x24
    9c0a:	bd30      	pop	{r4, r5, pc}
    9c0c:	0000ad24 	.word	0x0000ad24
    9c10:	0000b324 	.word	0x0000b324

00009c14 <LCD_DrawLine>:
LCD_DrawLine():
F:\WorkSpace\AHL-GEC-EXP\Temp\LCD\Debug/srcc/lcd.c:276
//       color:颜色（使用本文件后画笔颜色宏定义）
//功能概要：在指定两点间画一条指定颜色的直线
//=====================================================================
void LCD_DrawLine(uint16_t x1,uint16_t y1,
	 uint16_t x2, uint16_t y2,uint16_t color)    //画线
{
    9c14:	b530      	push	{r4, r5, lr}
    9c16:	b08d      	sub	sp, #52	; 0x34
    9c18:	0005      	movs	r5, r0
    9c1a:	000c      	movs	r4, r1
    9c1c:	0010      	movs	r0, r2
    9c1e:	0019      	movs	r1, r3
    9c20:	466b      	mov	r3, sp
    9c22:	3306      	adds	r3, #6
    9c24:	1c2a      	adds	r2, r5, #0
    9c26:	801a      	strh	r2, [r3, #0]
    9c28:	ab01      	add	r3, sp, #4
    9c2a:	1c22      	adds	r2, r4, #0
    9c2c:	801a      	strh	r2, [r3, #0]
    9c2e:	466b      	mov	r3, sp
    9c30:	3302      	adds	r3, #2
    9c32:	1c02      	adds	r2, r0, #0
    9c34:	801a      	strh	r2, [r3, #0]
    9c36:	466b      	mov	r3, sp
    9c38:	1c0a      	adds	r2, r1, #0
    9c3a:	801a      	strh	r2, [r3, #0]
F:\WorkSpace\AHL-GEC-EXP\Temp\LCD\Debug/srcc/lcd.c:278
	uint16_t t;
	int xerr=0,yerr=0,delta_x,delta_y,distance;
    9c3c:	2300      	movs	r3, #0
    9c3e:	930a      	str	r3, [sp, #40]	; 0x28
    9c40:	2300      	movs	r3, #0
    9c42:	9309      	str	r3, [sp, #36]	; 0x24
F:\WorkSpace\AHL-GEC-EXP\Temp\LCD\Debug/srcc/lcd.c:281
	int incx,incy,uRow,uCol;

	delta_x=x2-x1; //计算坐标增量
    9c44:	466b      	mov	r3, sp
    9c46:	3302      	adds	r3, #2
    9c48:	881a      	ldrh	r2, [r3, #0]
    9c4a:	466b      	mov	r3, sp
    9c4c:	3306      	adds	r3, #6
    9c4e:	881b      	ldrh	r3, [r3, #0]
    9c50:	1ad3      	subs	r3, r2, r3
    9c52:	9308      	str	r3, [sp, #32]
F:\WorkSpace\AHL-GEC-EXP\Temp\LCD\Debug/srcc/lcd.c:282
	delta_y=y2-y1;
    9c54:	466b      	mov	r3, sp
    9c56:	881a      	ldrh	r2, [r3, #0]
    9c58:	ab01      	add	r3, sp, #4
    9c5a:	881b      	ldrh	r3, [r3, #0]
    9c5c:	1ad3      	subs	r3, r2, r3
    9c5e:	9307      	str	r3, [sp, #28]
F:\WorkSpace\AHL-GEC-EXP\Temp\LCD\Debug/srcc/lcd.c:283
	uRow=x1;
    9c60:	466b      	mov	r3, sp
    9c62:	3306      	adds	r3, #6
    9c64:	881b      	ldrh	r3, [r3, #0]
    9c66:	9303      	str	r3, [sp, #12]
F:\WorkSpace\AHL-GEC-EXP\Temp\LCD\Debug/srcc/lcd.c:284
	uCol=y1;
    9c68:	ab01      	add	r3, sp, #4
    9c6a:	881b      	ldrh	r3, [r3, #0]
    9c6c:	9302      	str	r3, [sp, #8]
F:\WorkSpace\AHL-GEC-EXP\Temp\LCD\Debug/srcc/lcd.c:285
	if(delta_x>0)incx=1;                   //设置单步方向
    9c6e:	9b08      	ldr	r3, [sp, #32]
    9c70:	2b00      	cmp	r3, #0
    9c72:	dd02      	ble.n	9c7a <LCD_DrawLine+0x66>
F:\WorkSpace\AHL-GEC-EXP\Temp\LCD\Debug/srcc/lcd.c:285 (discriminator 1)
    9c74:	2301      	movs	r3, #1
    9c76:	9305      	str	r3, [sp, #20]
    9c78:	e00b      	b.n	9c92 <LCD_DrawLine+0x7e>
F:\WorkSpace\AHL-GEC-EXP\Temp\LCD\Debug/srcc/lcd.c:286
	else if(delta_x==0)incx=0;            //垂直线
    9c7a:	9b08      	ldr	r3, [sp, #32]
    9c7c:	2b00      	cmp	r3, #0
    9c7e:	d102      	bne.n	9c86 <LCD_DrawLine+0x72>
F:\WorkSpace\AHL-GEC-EXP\Temp\LCD\Debug/srcc/lcd.c:286 (discriminator 1)
    9c80:	2300      	movs	r3, #0
    9c82:	9305      	str	r3, [sp, #20]
    9c84:	e005      	b.n	9c92 <LCD_DrawLine+0x7e>
F:\WorkSpace\AHL-GEC-EXP\Temp\LCD\Debug/srcc/lcd.c:287
	else {incx=-1;delta_x=-delta_x;}
    9c86:	2301      	movs	r3, #1
    9c88:	425b      	negs	r3, r3
    9c8a:	9305      	str	r3, [sp, #20]
    9c8c:	9b08      	ldr	r3, [sp, #32]
    9c8e:	425b      	negs	r3, r3
    9c90:	9308      	str	r3, [sp, #32]
F:\WorkSpace\AHL-GEC-EXP\Temp\LCD\Debug/srcc/lcd.c:288
	if(delta_y>0)incy=1;
    9c92:	9b07      	ldr	r3, [sp, #28]
    9c94:	2b00      	cmp	r3, #0
    9c96:	dd02      	ble.n	9c9e <LCD_DrawLine+0x8a>
F:\WorkSpace\AHL-GEC-EXP\Temp\LCD\Debug/srcc/lcd.c:288 (discriminator 1)
    9c98:	2301      	movs	r3, #1
    9c9a:	9304      	str	r3, [sp, #16]
    9c9c:	e00b      	b.n	9cb6 <LCD_DrawLine+0xa2>
F:\WorkSpace\AHL-GEC-EXP\Temp\LCD\Debug/srcc/lcd.c:289
	else if(delta_y==0)incy=0;     	   //水平线
    9c9e:	9b07      	ldr	r3, [sp, #28]
    9ca0:	2b00      	cmp	r3, #0
    9ca2:	d102      	bne.n	9caa <LCD_DrawLine+0x96>
F:\WorkSpace\AHL-GEC-EXP\Temp\LCD\Debug/srcc/lcd.c:289 (discriminator 1)
    9ca4:	2300      	movs	r3, #0
    9ca6:	9304      	str	r3, [sp, #16]
    9ca8:	e005      	b.n	9cb6 <LCD_DrawLine+0xa2>
F:\WorkSpace\AHL-GEC-EXP\Temp\LCD\Debug/srcc/lcd.c:290
	else{incy=-1;delta_y=-delta_y;}
    9caa:	2301      	movs	r3, #1
    9cac:	425b      	negs	r3, r3
    9cae:	9304      	str	r3, [sp, #16]
    9cb0:	9b07      	ldr	r3, [sp, #28]
    9cb2:	425b      	negs	r3, r3
    9cb4:	9307      	str	r3, [sp, #28]
F:\WorkSpace\AHL-GEC-EXP\Temp\LCD\Debug/srcc/lcd.c:291
	if( delta_x>delta_y)distance=delta_x; //选取基本增量坐标轴
    9cb6:	9a08      	ldr	r2, [sp, #32]
    9cb8:	9b07      	ldr	r3, [sp, #28]
    9cba:	429a      	cmp	r2, r3
    9cbc:	dd02      	ble.n	9cc4 <LCD_DrawLine+0xb0>
F:\WorkSpace\AHL-GEC-EXP\Temp\LCD\Debug/srcc/lcd.c:291 (discriminator 1)
    9cbe:	9b08      	ldr	r3, [sp, #32]
    9cc0:	9306      	str	r3, [sp, #24]
    9cc2:	e001      	b.n	9cc8 <LCD_DrawLine+0xb4>
F:\WorkSpace\AHL-GEC-EXP\Temp\LCD\Debug/srcc/lcd.c:292
	else distance=delta_y;
    9cc4:	9b07      	ldr	r3, [sp, #28]
    9cc6:	9306      	str	r3, [sp, #24]
F:\WorkSpace\AHL-GEC-EXP\Temp\LCD\Debug/srcc/lcd.c:293
	for(t=0;t<=distance+1;t++ )           //画线输出
    9cc8:	232e      	movs	r3, #46	; 0x2e
    9cca:	446b      	add	r3, sp
    9ccc:	2200      	movs	r2, #0
    9cce:	801a      	strh	r2, [r3, #0]
    9cd0:	e02f      	b.n	9d32 <LCD_DrawLine+0x11e>
F:\WorkSpace\AHL-GEC-EXP\Temp\LCD\Debug/srcc/lcd.c:295
	{
		LCD_DrawPoint(uRow,uCol,color);  //画点
    9cd2:	9b03      	ldr	r3, [sp, #12]
    9cd4:	b298      	uxth	r0, r3
    9cd6:	9b02      	ldr	r3, [sp, #8]
    9cd8:	b299      	uxth	r1, r3
    9cda:	ab10      	add	r3, sp, #64	; 0x40
    9cdc:	881b      	ldrh	r3, [r3, #0]
    9cde:	001a      	movs	r2, r3
    9ce0:	f7ff fd73 	bl	97ca <LCD_DrawPoint>
F:\WorkSpace\AHL-GEC-EXP\Temp\LCD\Debug/srcc/lcd.c:296
		xerr+=delta_x ;
    9ce4:	9a0a      	ldr	r2, [sp, #40]	; 0x28
    9ce6:	9b08      	ldr	r3, [sp, #32]
    9ce8:	18d3      	adds	r3, r2, r3
    9cea:	930a      	str	r3, [sp, #40]	; 0x28
F:\WorkSpace\AHL-GEC-EXP\Temp\LCD\Debug/srcc/lcd.c:297
		yerr+=delta_y ;
    9cec:	9a09      	ldr	r2, [sp, #36]	; 0x24
    9cee:	9b07      	ldr	r3, [sp, #28]
    9cf0:	18d3      	adds	r3, r2, r3
    9cf2:	9309      	str	r3, [sp, #36]	; 0x24
F:\WorkSpace\AHL-GEC-EXP\Temp\LCD\Debug/srcc/lcd.c:298
		if(xerr>distance)
    9cf4:	9a0a      	ldr	r2, [sp, #40]	; 0x28
    9cf6:	9b06      	ldr	r3, [sp, #24]
    9cf8:	429a      	cmp	r2, r3
    9cfa:	dd07      	ble.n	9d0c <LCD_DrawLine+0xf8>
F:\WorkSpace\AHL-GEC-EXP\Temp\LCD\Debug/srcc/lcd.c:300
		{
			xerr-=distance;
    9cfc:	9a0a      	ldr	r2, [sp, #40]	; 0x28
    9cfe:	9b06      	ldr	r3, [sp, #24]
    9d00:	1ad3      	subs	r3, r2, r3
    9d02:	930a      	str	r3, [sp, #40]	; 0x28
F:\WorkSpace\AHL-GEC-EXP\Temp\LCD\Debug/srcc/lcd.c:301
			uRow+=incx;
    9d04:	9a03      	ldr	r2, [sp, #12]
    9d06:	9b05      	ldr	r3, [sp, #20]
    9d08:	18d3      	adds	r3, r2, r3
    9d0a:	9303      	str	r3, [sp, #12]
F:\WorkSpace\AHL-GEC-EXP\Temp\LCD\Debug/srcc/lcd.c:303
		}
		if(yerr>distance)
    9d0c:	9a09      	ldr	r2, [sp, #36]	; 0x24
    9d0e:	9b06      	ldr	r3, [sp, #24]
    9d10:	429a      	cmp	r2, r3
    9d12:	dd07      	ble.n	9d24 <LCD_DrawLine+0x110>
F:\WorkSpace\AHL-GEC-EXP\Temp\LCD\Debug/srcc/lcd.c:305
		{
			yerr-=distance;
    9d14:	9a09      	ldr	r2, [sp, #36]	; 0x24
    9d16:	9b06      	ldr	r3, [sp, #24]
    9d18:	1ad3      	subs	r3, r2, r3
    9d1a:	9309      	str	r3, [sp, #36]	; 0x24
F:\WorkSpace\AHL-GEC-EXP\Temp\LCD\Debug/srcc/lcd.c:306
			uCol+=incy;
    9d1c:	9a02      	ldr	r2, [sp, #8]
    9d1e:	9b04      	ldr	r3, [sp, #16]
    9d20:	18d3      	adds	r3, r2, r3
    9d22:	9302      	str	r3, [sp, #8]
F:\WorkSpace\AHL-GEC-EXP\Temp\LCD\Debug/srcc/lcd.c:293 (discriminator 2)
	for(t=0;t<=distance+1;t++ )           //画线输出
    9d24:	232e      	movs	r3, #46	; 0x2e
    9d26:	446b      	add	r3, sp
    9d28:	881a      	ldrh	r2, [r3, #0]
    9d2a:	232e      	movs	r3, #46	; 0x2e
    9d2c:	446b      	add	r3, sp
    9d2e:	3201      	adds	r2, #1
    9d30:	801a      	strh	r2, [r3, #0]
F:\WorkSpace\AHL-GEC-EXP\Temp\LCD\Debug/srcc/lcd.c:293 (discriminator 1)
    9d32:	232e      	movs	r3, #46	; 0x2e
    9d34:	446b      	add	r3, sp
    9d36:	881a      	ldrh	r2, [r3, #0]
    9d38:	9b06      	ldr	r3, [sp, #24]
    9d3a:	3301      	adds	r3, #1
    9d3c:	429a      	cmp	r2, r3
    9d3e:	ddc8      	ble.n	9cd2 <LCD_DrawLine+0xbe>
F:\WorkSpace\AHL-GEC-EXP\Temp\LCD\Debug/srcc/lcd.c:309
		}
	}
}
    9d40:	46c0      	nop			; (mov r8, r8)
    9d42:	46c0      	nop			; (mov r8, r8)
    9d44:	b00d      	add	sp, #52	; 0x34
    9d46:	bd30      	pop	{r4, r5, pc}

00009d48 <LCD_DrawSurface>:
LCD_DrawSurface():
F:\WorkSpace\AHL-GEC-EXP\Temp\LCD\Debug/srcc/lcd.c:320
//         color:颜色（使用本文件后画笔颜色宏定义）
//功能概要：指定颜色填充矩形区域
//=====================================================================
void LCD_DrawSurface(uint16_t x1,uint16_t y1,
     uint16_t x2,uint16_t y2,uint16_t color)    //填充矩形区域
{
    9d48:	b530      	push	{r4, r5, lr}
    9d4a:	b085      	sub	sp, #20
    9d4c:	0005      	movs	r5, r0
    9d4e:	000c      	movs	r4, r1
    9d50:	0010      	movs	r0, r2
    9d52:	0019      	movs	r1, r3
    9d54:	466b      	mov	r3, sp
    9d56:	3306      	adds	r3, #6
    9d58:	1c2a      	adds	r2, r5, #0
    9d5a:	801a      	strh	r2, [r3, #0]
    9d5c:	ab01      	add	r3, sp, #4
    9d5e:	1c22      	adds	r2, r4, #0
    9d60:	801a      	strh	r2, [r3, #0]
    9d62:	466b      	mov	r3, sp
    9d64:	3302      	adds	r3, #2
    9d66:	1c02      	adds	r2, r0, #0
    9d68:	801a      	strh	r2, [r3, #0]
    9d6a:	466b      	mov	r3, sp
    9d6c:	1c0a      	adds	r2, r1, #0
    9d6e:	801a      	strh	r2, [r3, #0]
F:\WorkSpace\AHL-GEC-EXP\Temp\LCD\Debug/srcc/lcd.c:322
	uint16_t i,j;
	Address_set(x1,y1,x2,y2);                 //设置光标位置
    9d70:	466b      	mov	r3, sp
    9d72:	881c      	ldrh	r4, [r3, #0]
    9d74:	466b      	mov	r3, sp
    9d76:	3302      	adds	r3, #2
    9d78:	881a      	ldrh	r2, [r3, #0]
    9d7a:	ab01      	add	r3, sp, #4
    9d7c:	8819      	ldrh	r1, [r3, #0]
    9d7e:	466b      	mov	r3, sp
    9d80:	3306      	adds	r3, #6
    9d82:	8818      	ldrh	r0, [r3, #0]
    9d84:	0023      	movs	r3, r4
    9d86:	f000 f8c4 	bl	9f12 <Address_set>
F:\WorkSpace\AHL-GEC-EXP\Temp\LCD\Debug/srcc/lcd.c:323
	for(i=y1;i<=y2;i++)
    9d8a:	230e      	movs	r3, #14
    9d8c:	446b      	add	r3, sp
    9d8e:	aa01      	add	r2, sp, #4
    9d90:	8812      	ldrh	r2, [r2, #0]
    9d92:	801a      	strh	r2, [r3, #0]
    9d94:	e01d      	b.n	9dd2 <LCD_DrawSurface+0x8a>
F:\WorkSpace\AHL-GEC-EXP\Temp\LCD\Debug/srcc/lcd.c:325
	{
		for(j=x1;j<=x2;j++)
    9d96:	ab03      	add	r3, sp, #12
    9d98:	466a      	mov	r2, sp
    9d9a:	3206      	adds	r2, #6
    9d9c:	8812      	ldrh	r2, [r2, #0]
    9d9e:	801a      	strh	r2, [r3, #0]
    9da0:	e009      	b.n	9db6 <LCD_DrawSurface+0x6e>
F:\WorkSpace\AHL-GEC-EXP\Temp\LCD\Debug/srcc/lcd.c:327 (discriminator 3)
		{
		    LCD_WR_DATA(color);               //画点
    9da2:	ab08      	add	r3, sp, #32
    9da4:	881b      	ldrh	r3, [r3, #0]
    9da6:	0018      	movs	r0, r3
    9da8:	f000 f844 	bl	9e34 <LCD_WR_DATA>
F:\WorkSpace\AHL-GEC-EXP\Temp\LCD\Debug/srcc/lcd.c:325 (discriminator 3)
		for(j=x1;j<=x2;j++)
    9dac:	ab03      	add	r3, sp, #12
    9dae:	881a      	ldrh	r2, [r3, #0]
    9db0:	ab03      	add	r3, sp, #12
    9db2:	3201      	adds	r2, #1
    9db4:	801a      	strh	r2, [r3, #0]
F:\WorkSpace\AHL-GEC-EXP\Temp\LCD\Debug/srcc/lcd.c:325 (discriminator 1)
    9db6:	aa03      	add	r2, sp, #12
    9db8:	466b      	mov	r3, sp
    9dba:	3302      	adds	r3, #2
    9dbc:	8812      	ldrh	r2, [r2, #0]
    9dbe:	881b      	ldrh	r3, [r3, #0]
    9dc0:	429a      	cmp	r2, r3
    9dc2:	d9ee      	bls.n	9da2 <LCD_DrawSurface+0x5a>
F:\WorkSpace\AHL-GEC-EXP\Temp\LCD\Debug/srcc/lcd.c:323 (discriminator 2)
	for(i=y1;i<=y2;i++)
    9dc4:	230e      	movs	r3, #14
    9dc6:	446b      	add	r3, sp
    9dc8:	881a      	ldrh	r2, [r3, #0]
    9dca:	230e      	movs	r3, #14
    9dcc:	446b      	add	r3, sp
    9dce:	3201      	adds	r2, #1
    9dd0:	801a      	strh	r2, [r3, #0]
F:\WorkSpace\AHL-GEC-EXP\Temp\LCD\Debug/srcc/lcd.c:323 (discriminator 1)
    9dd2:	220e      	movs	r2, #14
    9dd4:	446a      	add	r2, sp
    9dd6:	466b      	mov	r3, sp
    9dd8:	8812      	ldrh	r2, [r2, #0]
    9dda:	881b      	ldrh	r3, [r3, #0]
    9ddc:	429a      	cmp	r2, r3
    9dde:	d9da      	bls.n	9d96 <LCD_DrawSurface+0x4e>
F:\WorkSpace\AHL-GEC-EXP\Temp\LCD\Debug/srcc/lcd.c:330
		}
	}
}
    9de0:	46c0      	nop			; (mov r8, r8)
    9de2:	46c0      	nop			; (mov r8, r8)
    9de4:	b005      	add	sp, #20
    9de6:	bd30      	pop	{r4, r5, pc}

00009de8 <LCD_WR_DATA8>:
LCD_WR_DATA8():
F:\WorkSpace\AHL-GEC-EXP\Temp\LCD\Debug/srcc/lcd.c:353
//函数返回：无
//参数说明：da：传入一个字节的数据
//功能概要：发送数据-8位参数
//=====================================================================
void LCD_WR_DATA8(uint8_t da)    //发送数据-8位参数
{
    9de8:	b500      	push	{lr}
    9dea:	b083      	sub	sp, #12
    9dec:	0002      	movs	r2, r0
    9dee:	466b      	mov	r3, sp
    9df0:	3307      	adds	r3, #7
    9df2:	701a      	strb	r2, [r3, #0]
F:\WorkSpace\AHL-GEC-EXP\Temp\LCD\Debug/srcc/lcd.c:354
	gpio_set(LCD_DC,1);
    9df4:	4b0e      	ldr	r3, [pc, #56]	; (9e30 <LCD_WR_DATA8+0x48>)
    9df6:	2101      	movs	r1, #1
    9df8:	0018      	movs	r0, r3
    9dfa:	f7fe fc59 	bl	86b0 <gpio_set>
F:\WorkSpace\AHL-GEC-EXP\Temp\LCD\Debug/srcc/lcd.c:355
	gpio_init(LCD_CS,1,0);
    9dfe:	23c0      	movs	r3, #192	; 0xc0
    9e00:	009b      	lsls	r3, r3, #2
    9e02:	2200      	movs	r2, #0
    9e04:	2101      	movs	r1, #1
    9e06:	0018      	movs	r0, r3
    9e08:	f7fe fbd6 	bl	85b8 <gpio_init>
F:\WorkSpace\AHL-GEC-EXP\Temp\LCD\Debug/srcc/lcd.c:356
	__asm("nop"); 
    9e0c:	46c0      	nop			; (mov r8, r8)
F:\WorkSpace\AHL-GEC-EXP\Temp\LCD\Debug/srcc/lcd.c:357
	spi_send1(0,da);
    9e0e:	466b      	mov	r3, sp
    9e10:	3307      	adds	r3, #7
    9e12:	781b      	ldrb	r3, [r3, #0]
    9e14:	0019      	movs	r1, r3
    9e16:	2000      	movs	r0, #0
    9e18:	f7ff fb36 	bl	9488 <spi_send1>
F:\WorkSpace\AHL-GEC-EXP\Temp\LCD\Debug/srcc/lcd.c:358
	gpio_init(LCD_CS,1,1);
    9e1c:	23c0      	movs	r3, #192	; 0xc0
    9e1e:	009b      	lsls	r3, r3, #2
    9e20:	2201      	movs	r2, #1
    9e22:	2101      	movs	r1, #1
    9e24:	0018      	movs	r0, r3
    9e26:	f7fe fbc7 	bl	85b8 <gpio_init>
F:\WorkSpace\AHL-GEC-EXP\Temp\LCD\Debug/srcc/lcd.c:359
}
    9e2a:	46c0      	nop			; (mov r8, r8)
    9e2c:	b003      	add	sp, #12
    9e2e:	bd00      	pop	{pc}
    9e30:	00000301 	.word	0x00000301

00009e34 <LCD_WR_DATA>:
LCD_WR_DATA():
F:\WorkSpace\AHL-GEC-EXP\Temp\LCD\Debug/srcc/lcd.c:366
//函数返回：无
//参数说明：da：传入一个字节的数据
//功能概要：发送数据-8位参数
//=====================================================================
 void LCD_WR_DATA(uint16_t da)
{
    9e34:	b500      	push	{lr}
    9e36:	b083      	sub	sp, #12
    9e38:	0002      	movs	r2, r0
    9e3a:	466b      	mov	r3, sp
    9e3c:	3306      	adds	r3, #6
    9e3e:	801a      	strh	r2, [r3, #0]
F:\WorkSpace\AHL-GEC-EXP\Temp\LCD\Debug/srcc/lcd.c:367
	gpio_set(LCD_DC,1);
    9e40:	4b14      	ldr	r3, [pc, #80]	; (9e94 <LCD_WR_DATA+0x60>)
    9e42:	2101      	movs	r1, #1
    9e44:	0018      	movs	r0, r3
    9e46:	f7fe fc33 	bl	86b0 <gpio_set>
F:\WorkSpace\AHL-GEC-EXP\Temp\LCD\Debug/srcc/lcd.c:368
	gpio_init(LCD_CS,1,0);
    9e4a:	23c0      	movs	r3, #192	; 0xc0
    9e4c:	009b      	lsls	r3, r3, #2
    9e4e:	2200      	movs	r2, #0
    9e50:	2101      	movs	r1, #1
    9e52:	0018      	movs	r0, r3
    9e54:	f7fe fbb0 	bl	85b8 <gpio_init>
F:\WorkSpace\AHL-GEC-EXP\Temp\LCD\Debug/srcc/lcd.c:369
	__asm("nop"); 
    9e58:	46c0      	nop			; (mov r8, r8)
F:\WorkSpace\AHL-GEC-EXP\Temp\LCD\Debug/srcc/lcd.c:370
    spi_send1(0,da>>8);
    9e5a:	466b      	mov	r3, sp
    9e5c:	3306      	adds	r3, #6
    9e5e:	881b      	ldrh	r3, [r3, #0]
    9e60:	0a1b      	lsrs	r3, r3, #8
    9e62:	b29b      	uxth	r3, r3
    9e64:	b2db      	uxtb	r3, r3
    9e66:	0019      	movs	r1, r3
    9e68:	2000      	movs	r0, #0
    9e6a:	f7ff fb0d 	bl	9488 <spi_send1>
F:\WorkSpace\AHL-GEC-EXP\Temp\LCD\Debug/srcc/lcd.c:371
    __asm("nop"); 
    9e6e:	46c0      	nop			; (mov r8, r8)
F:\WorkSpace\AHL-GEC-EXP\Temp\LCD\Debug/srcc/lcd.c:372
    spi_send1(0,da);
    9e70:	466b      	mov	r3, sp
    9e72:	3306      	adds	r3, #6
    9e74:	881b      	ldrh	r3, [r3, #0]
    9e76:	b2db      	uxtb	r3, r3
    9e78:	0019      	movs	r1, r3
    9e7a:	2000      	movs	r0, #0
    9e7c:	f7ff fb04 	bl	9488 <spi_send1>
F:\WorkSpace\AHL-GEC-EXP\Temp\LCD\Debug/srcc/lcd.c:373
    gpio_init(LCD_CS,1,1);
    9e80:	23c0      	movs	r3, #192	; 0xc0
    9e82:	009b      	lsls	r3, r3, #2
    9e84:	2201      	movs	r2, #1
    9e86:	2101      	movs	r1, #1
    9e88:	0018      	movs	r0, r3
    9e8a:	f7fe fb95 	bl	85b8 <gpio_init>
F:\WorkSpace\AHL-GEC-EXP\Temp\LCD\Debug/srcc/lcd.c:374
}
    9e8e:	46c0      	nop			; (mov r8, r8)
    9e90:	b003      	add	sp, #12
    9e92:	bd00      	pop	{pc}
    9e94:	00000301 	.word	0x00000301

00009e98 <LCD_WR_REG>:
LCD_WR_REG():
F:\WorkSpace\AHL-GEC-EXP\Temp\LCD\Debug/srcc/lcd.c:377

void LCD_WR_REG(uint8_t da)
{
    9e98:	b500      	push	{lr}
    9e9a:	b083      	sub	sp, #12
    9e9c:	0002      	movs	r2, r0
    9e9e:	466b      	mov	r3, sp
    9ea0:	3307      	adds	r3, #7
    9ea2:	701a      	strb	r2, [r3, #0]
F:\WorkSpace\AHL-GEC-EXP\Temp\LCD\Debug/srcc/lcd.c:378
	gpio_set(LCD_DC,0);
    9ea4:	4b0e      	ldr	r3, [pc, #56]	; (9ee0 <LCD_WR_REG+0x48>)
    9ea6:	2100      	movs	r1, #0
    9ea8:	0018      	movs	r0, r3
    9eaa:	f7fe fc01 	bl	86b0 <gpio_set>
F:\WorkSpace\AHL-GEC-EXP\Temp\LCD\Debug/srcc/lcd.c:379
	gpio_init(LCD_CS,1,0);
    9eae:	23c0      	movs	r3, #192	; 0xc0
    9eb0:	009b      	lsls	r3, r3, #2
    9eb2:	2200      	movs	r2, #0
    9eb4:	2101      	movs	r1, #1
    9eb6:	0018      	movs	r0, r3
    9eb8:	f7fe fb7e 	bl	85b8 <gpio_init>
F:\WorkSpace\AHL-GEC-EXP\Temp\LCD\Debug/srcc/lcd.c:380
	__asm("nop");  
    9ebc:	46c0      	nop			; (mov r8, r8)
F:\WorkSpace\AHL-GEC-EXP\Temp\LCD\Debug/srcc/lcd.c:381
	spi_send1(0,da);
    9ebe:	466b      	mov	r3, sp
    9ec0:	3307      	adds	r3, #7
    9ec2:	781b      	ldrb	r3, [r3, #0]
    9ec4:	0019      	movs	r1, r3
    9ec6:	2000      	movs	r0, #0
    9ec8:	f7ff fade 	bl	9488 <spi_send1>
F:\WorkSpace\AHL-GEC-EXP\Temp\LCD\Debug/srcc/lcd.c:382
	gpio_init(LCD_CS,1,1);
    9ecc:	23c0      	movs	r3, #192	; 0xc0
    9ece:	009b      	lsls	r3, r3, #2
    9ed0:	2201      	movs	r2, #1
    9ed2:	2101      	movs	r1, #1
    9ed4:	0018      	movs	r0, r3
    9ed6:	f7fe fb6f 	bl	85b8 <gpio_init>
F:\WorkSpace\AHL-GEC-EXP\Temp\LCD\Debug/srcc/lcd.c:383
}
    9eda:	46c0      	nop			; (mov r8, r8)
    9edc:	b003      	add	sp, #12
    9ede:	bd00      	pop	{pc}
    9ee0:	00000301 	.word	0x00000301

00009ee4 <LCD_WR_REG_DATA>:
LCD_WR_REG_DATA():
F:\WorkSpace\AHL-GEC-EXP\Temp\LCD\Debug/srcc/lcd.c:387


 void LCD_WR_REG_DATA(uint8_t reg,uint16_t da)
{
    9ee4:	b500      	push	{lr}
    9ee6:	b083      	sub	sp, #12
    9ee8:	0002      	movs	r2, r0
    9eea:	466b      	mov	r3, sp
    9eec:	3307      	adds	r3, #7
    9eee:	701a      	strb	r2, [r3, #0]
    9ef0:	ab01      	add	r3, sp, #4
    9ef2:	1c0a      	adds	r2, r1, #0
    9ef4:	801a      	strh	r2, [r3, #0]
F:\WorkSpace\AHL-GEC-EXP\Temp\LCD\Debug/srcc/lcd.c:388
    LCD_WR_REG(reg);
    9ef6:	466b      	mov	r3, sp
    9ef8:	3307      	adds	r3, #7
    9efa:	781b      	ldrb	r3, [r3, #0]
    9efc:	0018      	movs	r0, r3
    9efe:	f7ff ffcb 	bl	9e98 <LCD_WR_REG>
F:\WorkSpace\AHL-GEC-EXP\Temp\LCD\Debug/srcc/lcd.c:389
	LCD_WR_DATA(da);
    9f02:	ab01      	add	r3, sp, #4
    9f04:	881b      	ldrh	r3, [r3, #0]
    9f06:	0018      	movs	r0, r3
    9f08:	f7ff ff94 	bl	9e34 <LCD_WR_DATA>
F:\WorkSpace\AHL-GEC-EXP\Temp\LCD\Debug/srcc/lcd.c:390
}
    9f0c:	46c0      	nop			; (mov r8, r8)
    9f0e:	b003      	add	sp, #12
    9f10:	bd00      	pop	{pc}

00009f12 <Address_set>:
Address_set():
F:\WorkSpace\AHL-GEC-EXP\Temp\LCD\Debug/srcc/lcd.c:392
void Address_set(uint16_t x1,uint16_t y1,uint16_t x2,uint16_t y2)
{
    9f12:	b530      	push	{r4, r5, lr}
    9f14:	b083      	sub	sp, #12
    9f16:	0005      	movs	r5, r0
    9f18:	000c      	movs	r4, r1
    9f1a:	0010      	movs	r0, r2
    9f1c:	0019      	movs	r1, r3
    9f1e:	466b      	mov	r3, sp
    9f20:	3306      	adds	r3, #6
    9f22:	1c2a      	adds	r2, r5, #0
    9f24:	801a      	strh	r2, [r3, #0]
    9f26:	ab01      	add	r3, sp, #4
    9f28:	1c22      	adds	r2, r4, #0
    9f2a:	801a      	strh	r2, [r3, #0]
    9f2c:	466b      	mov	r3, sp
    9f2e:	3302      	adds	r3, #2
    9f30:	1c02      	adds	r2, r0, #0
    9f32:	801a      	strh	r2, [r3, #0]
    9f34:	466b      	mov	r3, sp
    9f36:	1c0a      	adds	r2, r1, #0
    9f38:	801a      	strh	r2, [r3, #0]
F:\WorkSpace\AHL-GEC-EXP\Temp\LCD\Debug/srcc/lcd.c:393
	LCD_WR_REG(0x2a);      //写行地址命令
    9f3a:	202a      	movs	r0, #42	; 0x2a
    9f3c:	f7ff ffac 	bl	9e98 <LCD_WR_REG>
F:\WorkSpace\AHL-GEC-EXP\Temp\LCD\Debug/srcc/lcd.c:394
	LCD_WR_DATA8(x1>>8);   //写起始行地址
    9f40:	466b      	mov	r3, sp
    9f42:	3306      	adds	r3, #6
    9f44:	881b      	ldrh	r3, [r3, #0]
    9f46:	0a1b      	lsrs	r3, r3, #8
    9f48:	b29b      	uxth	r3, r3
    9f4a:	b2db      	uxtb	r3, r3
    9f4c:	0018      	movs	r0, r3
    9f4e:	f7ff ff4b 	bl	9de8 <LCD_WR_DATA8>
F:\WorkSpace\AHL-GEC-EXP\Temp\LCD\Debug/srcc/lcd.c:395
	LCD_WR_DATA8(x1);
    9f52:	466b      	mov	r3, sp
    9f54:	3306      	adds	r3, #6
    9f56:	881b      	ldrh	r3, [r3, #0]
    9f58:	b2db      	uxtb	r3, r3
    9f5a:	0018      	movs	r0, r3
    9f5c:	f7ff ff44 	bl	9de8 <LCD_WR_DATA8>
F:\WorkSpace\AHL-GEC-EXP\Temp\LCD\Debug/srcc/lcd.c:396
	LCD_WR_DATA8(x2>>8);   //写结束行地址
    9f60:	466b      	mov	r3, sp
    9f62:	3302      	adds	r3, #2
    9f64:	881b      	ldrh	r3, [r3, #0]
    9f66:	0a1b      	lsrs	r3, r3, #8
    9f68:	b29b      	uxth	r3, r3
    9f6a:	b2db      	uxtb	r3, r3
    9f6c:	0018      	movs	r0, r3
    9f6e:	f7ff ff3b 	bl	9de8 <LCD_WR_DATA8>
F:\WorkSpace\AHL-GEC-EXP\Temp\LCD\Debug/srcc/lcd.c:397
	LCD_WR_DATA8(x2);
    9f72:	466b      	mov	r3, sp
    9f74:	3302      	adds	r3, #2
    9f76:	881b      	ldrh	r3, [r3, #0]
    9f78:	b2db      	uxtb	r3, r3
    9f7a:	0018      	movs	r0, r3
    9f7c:	f7ff ff34 	bl	9de8 <LCD_WR_DATA8>
F:\WorkSpace\AHL-GEC-EXP\Temp\LCD\Debug/srcc/lcd.c:399

	LCD_WR_REG(0x2b);     //写列地址命令
    9f80:	202b      	movs	r0, #43	; 0x2b
    9f82:	f7ff ff89 	bl	9e98 <LCD_WR_REG>
F:\WorkSpace\AHL-GEC-EXP\Temp\LCD\Debug/srcc/lcd.c:400
	LCD_WR_DATA8(y1>>8);  //写列起始地址
    9f86:	ab01      	add	r3, sp, #4
    9f88:	881b      	ldrh	r3, [r3, #0]
    9f8a:	0a1b      	lsrs	r3, r3, #8
    9f8c:	b29b      	uxth	r3, r3
    9f8e:	b2db      	uxtb	r3, r3
    9f90:	0018      	movs	r0, r3
    9f92:	f7ff ff29 	bl	9de8 <LCD_WR_DATA8>
F:\WorkSpace\AHL-GEC-EXP\Temp\LCD\Debug/srcc/lcd.c:401
	LCD_WR_DATA8(y1);
    9f96:	ab01      	add	r3, sp, #4
    9f98:	881b      	ldrh	r3, [r3, #0]
    9f9a:	b2db      	uxtb	r3, r3
    9f9c:	0018      	movs	r0, r3
    9f9e:	f7ff ff23 	bl	9de8 <LCD_WR_DATA8>
F:\WorkSpace\AHL-GEC-EXP\Temp\LCD\Debug/srcc/lcd.c:402
	LCD_WR_DATA8(y2>>8);  //写结束列地址
    9fa2:	466b      	mov	r3, sp
    9fa4:	881b      	ldrh	r3, [r3, #0]
    9fa6:	0a1b      	lsrs	r3, r3, #8
    9fa8:	b29b      	uxth	r3, r3
    9faa:	b2db      	uxtb	r3, r3
    9fac:	0018      	movs	r0, r3
    9fae:	f7ff ff1b 	bl	9de8 <LCD_WR_DATA8>
F:\WorkSpace\AHL-GEC-EXP\Temp\LCD\Debug/srcc/lcd.c:403
	LCD_WR_DATA8(y2);
    9fb2:	466b      	mov	r3, sp
    9fb4:	881b      	ldrh	r3, [r3, #0]
    9fb6:	b2db      	uxtb	r3, r3
    9fb8:	0018      	movs	r0, r3
    9fba:	f7ff ff15 	bl	9de8 <LCD_WR_DATA8>
F:\WorkSpace\AHL-GEC-EXP\Temp\LCD\Debug/srcc/lcd.c:405

	LCD_WR_REG(0x2C);     //写存储器命令
    9fbe:	202c      	movs	r0, #44	; 0x2c
    9fc0:	f7ff ff6a 	bl	9e98 <LCD_WR_REG>
F:\WorkSpace\AHL-GEC-EXP\Temp\LCD\Debug/srcc/lcd.c:406
}
    9fc4:	46c0      	nop			; (mov r8, r8)
    9fc6:	b003      	add	sp, #12
    9fc8:	bd30      	pop	{r4, r5, pc}
	...

00009fcc <LCD_Dly_ms>:
LCD_Dly_ms():
F:\WorkSpace\AHL-GEC-EXP\Temp\LCD\Debug/srcc/lcd.c:413
//函数返回：无
//参数说明：无
//功能概要：延时 - 毫秒级
//======================================================================
void LCD_Dly_ms(uint32_t ms)
{
    9fcc:	b084      	sub	sp, #16
    9fce:	9001      	str	r0, [sp, #4]
F:\WorkSpace\AHL-GEC-EXP\Temp\LCD\Debug/srcc/lcd.c:414
   for (uint32_t ys=0;ys<(6000*ms);ys++) __asm("nop");
    9fd0:	2300      	movs	r3, #0
    9fd2:	9303      	str	r3, [sp, #12]
    9fd4:	e003      	b.n	9fde <LCD_Dly_ms+0x12>
F:\WorkSpace\AHL-GEC-EXP\Temp\LCD\Debug/srcc/lcd.c:414 (discriminator 3)
    9fd6:	46c0      	nop			; (mov r8, r8)
    9fd8:	9b03      	ldr	r3, [sp, #12]
    9fda:	3301      	adds	r3, #1
    9fdc:	9303      	str	r3, [sp, #12]
F:\WorkSpace\AHL-GEC-EXP\Temp\LCD\Debug/srcc/lcd.c:414 (discriminator 1)
    9fde:	9b01      	ldr	r3, [sp, #4]
    9fe0:	4a04      	ldr	r2, [pc, #16]	; (9ff4 <LCD_Dly_ms+0x28>)
    9fe2:	4353      	muls	r3, r2
    9fe4:	9a03      	ldr	r2, [sp, #12]
    9fe6:	429a      	cmp	r2, r3
    9fe8:	d3f5      	bcc.n	9fd6 <LCD_Dly_ms+0xa>
F:\WorkSpace\AHL-GEC-EXP\Temp\LCD\Debug/srcc/lcd.c:415
}
    9fea:	46c0      	nop			; (mov r8, r8)
    9fec:	46c0      	nop			; (mov r8, r8)
    9fee:	b004      	add	sp, #16
    9ff0:	4770      	bx	lr
    9ff2:	46c0      	nop			; (mov r8, r8)
    9ff4:	00001770 	.word	0x00001770

00009ff8 <PORTC_PORTD_IRQHandler>:
PORTC_PORTD_IRQHandler():
F:\WorkSpace\AHL-GEC-EXP\Temp\LCD\Debug/srcc/isr.c:9
//版本更新：20170801-20191020
//功能描述：提供中断处理程序编程框架
//=====================================================================
#include "includes.h"

void SUART_PortC_PortD_Handler(void) {
    9ff8:	b500      	push	{lr}
    9ffa:	b083      	sub	sp, #12
F:\WorkSpace\AHL-GEC-EXP\Temp\LCD\Debug/srcc/isr.c:11

    uint32_t len = suart_receive(SUART_RX, gReceiveBuff);
    9ffc:	4b0b      	ldr	r3, [pc, #44]	; (a02c <PORTC_PORTD_IRQHandler+0x34>)
    9ffe:	4a0c      	ldr	r2, [pc, #48]	; (a030 <PORTC_PORTD_IRQHandler+0x38>)
    a000:	0019      	movs	r1, r3
    a002:	0010      	movs	r0, r2
    a004:	f7fe fe14 	bl	8c30 <suart_receive>
    a008:	0003      	movs	r3, r0
    a00a:	9301      	str	r3, [sp, #4]
F:\WorkSpace\AHL-GEC-EXP\Temp\LCD\Debug/srcc/isr.c:12
    printf("gLenth: %d\n", len);
    a00c:	9a01      	ldr	r2, [sp, #4]
    a00e:	4b09      	ldr	r3, [pc, #36]	; (a034 <PORTC_PORTD_IRQHandler+0x3c>)
    a010:	0011      	movs	r1, r2
    a012:	0018      	movs	r0, r3
    a014:	f000 fdbc 	bl	ab90 <myprintf>
F:\WorkSpace\AHL-GEC-EXP\Temp\LCD\Debug/srcc/isr.c:14

    suart_send(SUART_TX, gReceiveBuff, len);
    a018:	9a01      	ldr	r2, [sp, #4]
    a01a:	4904      	ldr	r1, [pc, #16]	; (a02c <PORTC_PORTD_IRQHandler+0x34>)
    a01c:	2380      	movs	r3, #128	; 0x80
    a01e:	009b      	lsls	r3, r3, #2
    a020:	0018      	movs	r0, r3
    a022:	f7fe fcc9 	bl	89b8 <suart_send>
F:\WorkSpace\AHL-GEC-EXP\Temp\LCD\Debug/srcc/isr.c:16

    a026:	46c0      	nop			; (mov r8, r8)
    a028:	b003      	add	sp, #12
    a02a:	bd00      	pop	{pc}
    a02c:	2000041c 	.word	0x2000041c
    a030:	00000201 	.word	0x00000201
    a034:	0000aca8 	.word	0x0000aca8

0000a038 <out_char>:
out_char():
F:\WorkSpace\AHL-GEC-EXP\Temp\LCD\Debug/srcc/printf.c:17
//参数说明：uartNo:串口号：UARTA、UARTB、UARTC、UART_DEBUG
//       data:数据：通过串口发送的一字节数据
//函数返回：无
//======================================================================

void out_char(char data) {
    a038:	b500      	push	{lr}
    a03a:	b083      	sub	sp, #12
    a03c:	0002      	movs	r2, r0
    a03e:	466b      	mov	r3, sp
    a040:	3307      	adds	r3, #7
    a042:	701a      	strb	r2, [r3, #0]
F:\WorkSpace\AHL-GEC-EXP\Temp\LCD\Debug/srcc/printf.c:19
	// suart_send_char(SUART_TX_PORT, SUART_TX_PIN, data);
	uart_send1(UART_printf, data);
    a044:	466b      	mov	r3, sp
    a046:	3307      	adds	r3, #7
    a048:	781b      	ldrb	r3, [r3, #0]
    a04a:	0019      	movs	r1, r3
    a04c:	2002      	movs	r0, #2
    a04e:	f7ff fabf 	bl	95d0 <uart_send1>
F:\WorkSpace\AHL-GEC-EXP\Temp\LCD\Debug/srcc/printf.c:20
}
    a052:	46c0      	nop			; (mov r8, r8)
    a054:	b003      	add	sp, #12
    a056:	bd00      	pop	{pc}

0000a058 <printk_putc>:
printk_putc():
F:\WorkSpace\AHL-GEC-EXP\Temp\LCD\Debug/srcc/printf.c:27
//功能概要：通过串口打出一个字符
//参数说明：data:数据：通过串口发送的一字节数据
//函数返回：无
//======================================================================
static void printk_putc(int c, int* count, PRINTK_INFO* info)
{
    a058:	b500      	push	{lr}
    a05a:	b085      	sub	sp, #20
    a05c:	9003      	str	r0, [sp, #12]
    a05e:	9102      	str	r1, [sp, #8]
    a060:	9201      	str	r2, [sp, #4]
F:\WorkSpace\AHL-GEC-EXP\Temp\LCD\Debug/srcc/printf.c:28
	switch (info->dest) {
    a062:	9b01      	ldr	r3, [sp, #4]
    a064:	681b      	ldr	r3, [r3, #0]
    a066:	2b01      	cmp	r3, #1
    a068:	d002      	beq.n	a070 <printk_putc+0x18>
    a06a:	2b02      	cmp	r3, #2
    a06c:	d007      	beq.n	a07e <printk_putc+0x26>
F:\WorkSpace\AHL-GEC-EXP\Temp\LCD\Debug/srcc/printf.c:37
	case DEST_STRING:
		*(info->loc) = (unsigned char)c;
		++(info->loc);
		break;
	default:
		break;
    a06e:	e011      	b.n	a094 <printk_putc+0x3c>
F:\WorkSpace\AHL-GEC-EXP\Temp\LCD\Debug/srcc/printf.c:30
		info->func((char)c);
    a070:	9b01      	ldr	r3, [sp, #4]
    a072:	685b      	ldr	r3, [r3, #4]
    a074:	9a03      	ldr	r2, [sp, #12]
    a076:	b252      	sxtb	r2, r2
    a078:	0010      	movs	r0, r2
    a07a:	4798      	blx	r3
F:\WorkSpace\AHL-GEC-EXP\Temp\LCD\Debug/srcc/printf.c:31
		break;
    a07c:	e00a      	b.n	a094 <printk_putc+0x3c>
F:\WorkSpace\AHL-GEC-EXP\Temp\LCD\Debug/srcc/printf.c:33
		*(info->loc) = (unsigned char)c;
    a07e:	9b01      	ldr	r3, [sp, #4]
    a080:	689b      	ldr	r3, [r3, #8]
    a082:	9a03      	ldr	r2, [sp, #12]
    a084:	b252      	sxtb	r2, r2
    a086:	701a      	strb	r2, [r3, #0]
F:\WorkSpace\AHL-GEC-EXP\Temp\LCD\Debug/srcc/printf.c:34
		++(info->loc);
    a088:	9b01      	ldr	r3, [sp, #4]
    a08a:	689b      	ldr	r3, [r3, #8]
    a08c:	1c5a      	adds	r2, r3, #1
    a08e:	9b01      	ldr	r3, [sp, #4]
    a090:	609a      	str	r2, [r3, #8]
F:\WorkSpace\AHL-GEC-EXP\Temp\LCD\Debug/srcc/printf.c:35
		break;
    a092:	46c0      	nop			; (mov r8, r8)
F:\WorkSpace\AHL-GEC-EXP\Temp\LCD\Debug/srcc/printf.c:39
	}
	*count += 1;
    a094:	9b02      	ldr	r3, [sp, #8]
    a096:	681b      	ldr	r3, [r3, #0]
    a098:	1c5a      	adds	r2, r3, #1
    a09a:	9b02      	ldr	r3, [sp, #8]
    a09c:	601a      	str	r2, [r3, #0]
F:\WorkSpace\AHL-GEC-EXP\Temp\LCD\Debug/srcc/printf.c:40
}
    a09e:	46c0      	nop			; (mov r8, r8)
    a0a0:	b005      	add	sp, #20
    a0a2:	bd00      	pop	{pc}

0000a0a4 <printk_mkfloatstr>:
printk_mkfloatstr():
F:\WorkSpace\AHL-GEC-EXP\Temp\LCD\Debug/srcc/printf.c:48
//参数说明： *f:浮点型数据：float型数据
//       c[]:字符串数组：转化后的到的字符串数组
//函数返回：无
//======================================================================
int printk_mkfloatstr(double* f, char c[], int precision_width)
{
    a0a4:	b530      	push	{r4, r5, lr}
    a0a6:	b0a7      	sub	sp, #156	; 0x9c
    a0a8:	9003      	str	r0, [sp, #12]
    a0aa:	9102      	str	r1, [sp, #8]
    a0ac:	9201      	str	r2, [sp, #4]
F:\WorkSpace\AHL-GEC-EXP\Temp\LCD\Debug/srcc/printf.c:49
	uint32_t p, i, j, k, a[5] = { 0 }, b[19] = { 0 };
    a0ae:	ab17      	add	r3, sp, #92	; 0x5c
    a0b0:	0018      	movs	r0, r3
    a0b2:	2314      	movs	r3, #20
    a0b4:	001a      	movs	r2, r3
    a0b6:	2100      	movs	r1, #0
    a0b8:	f000 fd91 	bl	abde <memset>
    a0bc:	ab04      	add	r3, sp, #16
    a0be:	0018      	movs	r0, r3
    a0c0:	234c      	movs	r3, #76	; 0x4c
    a0c2:	001a      	movs	r2, r3
    a0c4:	2100      	movs	r1, #0
    a0c6:	f000 fd8a 	bl	abde <memset>
F:\WorkSpace\AHL-GEC-EXP\Temp\LCD\Debug/srcc/printf.c:52
	uint64_t q;
	double tempf;
	p = 0;
    a0ca:	2300      	movs	r3, #0
    a0cc:	9325      	str	r3, [sp, #148]	; 0x94
F:\WorkSpace\AHL-GEC-EXP\Temp\LCD\Debug/srcc/printf.c:53
	q = 0;
    a0ce:	2200      	movs	r2, #0
    a0d0:	2300      	movs	r3, #0
    a0d2:	9220      	str	r2, [sp, #128]	; 0x80
    a0d4:	9321      	str	r3, [sp, #132]	; 0x84
F:\WorkSpace\AHL-GEC-EXP\Temp\LCD\Debug/srcc/printf.c:56
	//float m;
	double m;
	p = (uint32_t)*f;//整数部分
    a0d6:	9b03      	ldr	r3, [sp, #12]
    a0d8:	681a      	ldr	r2, [r3, #0]
    a0da:	685b      	ldr	r3, [r3, #4]
    a0dc:	0010      	movs	r0, r2
    a0de:	0019      	movs	r1, r3
    a0e0:	f7fc ffb6 	bl	7050 <__aeabi_d2uiz>
    a0e4:	0003      	movs	r3, r0
    a0e6:	9325      	str	r3, [sp, #148]	; 0x94
F:\WorkSpace\AHL-GEC-EXP\Temp\LCD\Debug/srcc/printf.c:57
	tempf = (*f - p);
    a0e8:	9b03      	ldr	r3, [sp, #12]
    a0ea:	681c      	ldr	r4, [r3, #0]
    a0ec:	685d      	ldr	r5, [r3, #4]
    a0ee:	9825      	ldr	r0, [sp, #148]	; 0x94
    a0f0:	f7fe f808 	bl	8104 <__aeabi_ui2d>
    a0f4:	0002      	movs	r2, r0
    a0f6:	000b      	movs	r3, r1
    a0f8:	0020      	movs	r0, r4
    a0fa:	0029      	movs	r1, r5
    a0fc:	f7fd fc3a 	bl	7974 <__aeabi_dsub>
    a100:	0002      	movs	r2, r0
    a102:	000b      	movs	r3, r1
    a104:	921e      	str	r2, [sp, #120]	; 0x78
    a106:	931f      	str	r3, [sp, #124]	; 0x7c
F:\WorkSpace\AHL-GEC-EXP\Temp\LCD\Debug/srcc/printf.c:58
	if (precision_width == 0)
    a108:	9b01      	ldr	r3, [sp, #4]
    a10a:	2b00      	cmp	r3, #0
    a10c:	d128      	bne.n	a160 <printk_mkfloatstr+0xbc>
F:\WorkSpace\AHL-GEC-EXP\Temp\LCD\Debug/srcc/printf.c:59
		q = (*f - p) * 100000000000000000;//小数部分
    a10e:	9b03      	ldr	r3, [sp, #12]
    a110:	681c      	ldr	r4, [r3, #0]
    a112:	685d      	ldr	r5, [r3, #4]
    a114:	9825      	ldr	r0, [sp, #148]	; 0x94
    a116:	f7fd fff5 	bl	8104 <__aeabi_ui2d>
    a11a:	0002      	movs	r2, r0
    a11c:	000b      	movs	r3, r1
    a11e:	0020      	movs	r0, r4
    a120:	0029      	movs	r1, r5
    a122:	f7fd fc27 	bl	7974 <__aeabi_dsub>
    a126:	0002      	movs	r2, r0
    a128:	000b      	movs	r3, r1
    a12a:	0010      	movs	r0, r2
    a12c:	0019      	movs	r1, r3
    a12e:	4a77      	ldr	r2, [pc, #476]	; (a30c <printk_mkfloatstr+0x268>)
    a130:	4b77      	ldr	r3, [pc, #476]	; (a310 <printk_mkfloatstr+0x26c>)
    a132:	f7fd f9b3 	bl	749c <__aeabi_dmul>
    a136:	0002      	movs	r2, r0
    a138:	000b      	movs	r3, r1
    a13a:	0010      	movs	r0, r2
    a13c:	0019      	movs	r1, r3
    a13e:	f7fc ffa5 	bl	708c <__aeabi_d2ulz>
    a142:	0002      	movs	r2, r0
    a144:	000b      	movs	r3, r1
    a146:	9220      	str	r2, [sp, #128]	; 0x80
    a148:	9321      	str	r3, [sp, #132]	; 0x84
    a14a:	e016      	b.n	a17a <printk_mkfloatstr+0xd6>
F:\WorkSpace\AHL-GEC-EXP\Temp\LCD\Debug/srcc/printf.c:63
	else
	{
		while (precision_width--)
			tempf *= 10;
    a14c:	2200      	movs	r2, #0
    a14e:	4b71      	ldr	r3, [pc, #452]	; (a314 <printk_mkfloatstr+0x270>)
    a150:	981e      	ldr	r0, [sp, #120]	; 0x78
    a152:	991f      	ldr	r1, [sp, #124]	; 0x7c
    a154:	f7fd f9a2 	bl	749c <__aeabi_dmul>
    a158:	0002      	movs	r2, r0
    a15a:	000b      	movs	r3, r1
    a15c:	921e      	str	r2, [sp, #120]	; 0x78
    a15e:	931f      	str	r3, [sp, #124]	; 0x7c
F:\WorkSpace\AHL-GEC-EXP\Temp\LCD\Debug/srcc/printf.c:62
		while (precision_width--)
    a160:	9b01      	ldr	r3, [sp, #4]
    a162:	1e5a      	subs	r2, r3, #1
    a164:	9201      	str	r2, [sp, #4]
    a166:	2b00      	cmp	r3, #0
    a168:	d1f0      	bne.n	a14c <printk_mkfloatstr+0xa8>
F:\WorkSpace\AHL-GEC-EXP\Temp\LCD\Debug/srcc/printf.c:64
		q = tempf;
    a16a:	981e      	ldr	r0, [sp, #120]	; 0x78
    a16c:	991f      	ldr	r1, [sp, #124]	; 0x7c
    a16e:	f7fc ff8d 	bl	708c <__aeabi_d2ulz>
    a172:	0002      	movs	r2, r0
    a174:	000b      	movs	r3, r1
    a176:	9220      	str	r2, [sp, #128]	; 0x80
    a178:	9321      	str	r3, [sp, #132]	; 0x84
F:\WorkSpace\AHL-GEC-EXP\Temp\LCD\Debug/srcc/printf.c:66
	}
	m = *f - p;
    a17a:	9b03      	ldr	r3, [sp, #12]
    a17c:	681c      	ldr	r4, [r3, #0]
    a17e:	685d      	ldr	r5, [r3, #4]
    a180:	9825      	ldr	r0, [sp, #148]	; 0x94
    a182:	f7fd ffbf 	bl	8104 <__aeabi_ui2d>
    a186:	0002      	movs	r2, r0
    a188:	000b      	movs	r3, r1
    a18a:	0020      	movs	r0, r4
    a18c:	0029      	movs	r1, r5
    a18e:	f7fd fbf1 	bl	7974 <__aeabi_dsub>
    a192:	0002      	movs	r2, r0
    a194:	000b      	movs	r3, r1
    a196:	921c      	str	r2, [sp, #112]	; 0x70
    a198:	931d      	str	r3, [sp, #116]	; 0x74
F:\WorkSpace\AHL-GEC-EXP\Temp\LCD\Debug/srcc/printf.c:67
	k = 0;
    a19a:	2300      	movs	r3, #0
    a19c:	9322      	str	r3, [sp, #136]	; 0x88
F:\WorkSpace\AHL-GEC-EXP\Temp\LCD\Debug/srcc/printf.c:68
	while (m < 1)
    a19e:	e00c      	b.n	a1ba <printk_mkfloatstr+0x116>
F:\WorkSpace\AHL-GEC-EXP\Temp\LCD\Debug/srcc/printf.c:70
	{
		m = m * 10;
    a1a0:	2200      	movs	r2, #0
    a1a2:	4b5c      	ldr	r3, [pc, #368]	; (a314 <printk_mkfloatstr+0x270>)
    a1a4:	981c      	ldr	r0, [sp, #112]	; 0x70
    a1a6:	991d      	ldr	r1, [sp, #116]	; 0x74
    a1a8:	f7fd f978 	bl	749c <__aeabi_dmul>
    a1ac:	0002      	movs	r2, r0
    a1ae:	000b      	movs	r3, r1
    a1b0:	921c      	str	r2, [sp, #112]	; 0x70
    a1b2:	931d      	str	r3, [sp, #116]	; 0x74
F:\WorkSpace\AHL-GEC-EXP\Temp\LCD\Debug/srcc/printf.c:71
		k++;
    a1b4:	9b22      	ldr	r3, [sp, #136]	; 0x88
    a1b6:	3301      	adds	r3, #1
    a1b8:	9322      	str	r3, [sp, #136]	; 0x88
F:\WorkSpace\AHL-GEC-EXP\Temp\LCD\Debug/srcc/printf.c:68
	while (m < 1)
    a1ba:	2200      	movs	r2, #0
    a1bc:	4b56      	ldr	r3, [pc, #344]	; (a318 <printk_mkfloatstr+0x274>)
    a1be:	981c      	ldr	r0, [sp, #112]	; 0x70
    a1c0:	991d      	ldr	r1, [sp, #116]	; 0x74
    a1c2:	f7fc fefd 	bl	6fc0 <__aeabi_dcmplt>
    a1c6:	1e03      	subs	r3, r0, #0
    a1c8:	d1ea      	bne.n	a1a0 <printk_mkfloatstr+0xfc>
F:\WorkSpace\AHL-GEC-EXP\Temp\LCD\Debug/srcc/printf.c:73
	};
	k--;          //记录小数点后到第一位不为零的小数之前 有多少个0.
    a1ca:	9b22      	ldr	r3, [sp, #136]	; 0x88
    a1cc:	3b01      	subs	r3, #1
    a1ce:	9322      	str	r3, [sp, #136]	; 0x88
F:\WorkSpace\AHL-GEC-EXP\Temp\LCD\Debug/srcc/printf.c:75

	i = 0;
    a1d0:	2300      	movs	r3, #0
    a1d2:	9324      	str	r3, [sp, #144]	; 0x90
F:\WorkSpace\AHL-GEC-EXP\Temp\LCD\Debug/srcc/printf.c:76
	if (0 == p)     //整数部分为0
    a1d4:	9b25      	ldr	r3, [sp, #148]	; 0x94
    a1d6:	2b00      	cmp	r3, #0
    a1d8:	d107      	bne.n	a1ea <printk_mkfloatstr+0x146>
F:\WorkSpace\AHL-GEC-EXP\Temp\LCD\Debug/srcc/printf.c:77
		c[i++] = '0';
    a1da:	9b24      	ldr	r3, [sp, #144]	; 0x90
    a1dc:	1c5a      	adds	r2, r3, #1
    a1de:	9224      	str	r2, [sp, #144]	; 0x90
    a1e0:	9a02      	ldr	r2, [sp, #8]
    a1e2:	18d3      	adds	r3, r2, r3
    a1e4:	2230      	movs	r2, #48	; 0x30
    a1e6:	701a      	strb	r2, [r3, #0]
    a1e8:	e02f      	b.n	a24a <printk_mkfloatstr+0x1a6>
F:\WorkSpace\AHL-GEC-EXP\Temp\LCD\Debug/srcc/printf.c:80
	else        //整数部分不为0
	{
		j = 0;
    a1ea:	2300      	movs	r3, #0
    a1ec:	9323      	str	r3, [sp, #140]	; 0x8c
F:\WorkSpace\AHL-GEC-EXP\Temp\LCD\Debug/srcc/printf.c:81
		while (p != 0)//倒序的数字
    a1ee:	e013      	b.n	a218 <printk_mkfloatstr+0x174>
F:\WorkSpace\AHL-GEC-EXP\Temp\LCD\Debug/srcc/printf.c:83
		{
			a[j++] = p % 10;
    a1f0:	9c23      	ldr	r4, [sp, #140]	; 0x8c
    a1f2:	1c63      	adds	r3, r4, #1
    a1f4:	9323      	str	r3, [sp, #140]	; 0x8c
    a1f6:	9b25      	ldr	r3, [sp, #148]	; 0x94
    a1f8:	210a      	movs	r1, #10
    a1fa:	0018      	movs	r0, r3
    a1fc:	f7fc fdda 	bl	6db4 <__aeabi_uidivmod>
    a200:	000b      	movs	r3, r1
    a202:	0019      	movs	r1, r3
    a204:	ab17      	add	r3, sp, #92	; 0x5c
    a206:	00a2      	lsls	r2, r4, #2
    a208:	50d1      	str	r1, [r2, r3]
F:\WorkSpace\AHL-GEC-EXP\Temp\LCD\Debug/srcc/printf.c:84
			p /= 10;
    a20a:	9b25      	ldr	r3, [sp, #148]	; 0x94
    a20c:	210a      	movs	r1, #10
    a20e:	0018      	movs	r0, r3
    a210:	f7fc fd4a 	bl	6ca8 <__udivsi3>
    a214:	0003      	movs	r3, r0
    a216:	9325      	str	r3, [sp, #148]	; 0x94
F:\WorkSpace\AHL-GEC-EXP\Temp\LCD\Debug/srcc/printf.c:81
		while (p != 0)//倒序的数字
    a218:	9b25      	ldr	r3, [sp, #148]	; 0x94
    a21a:	2b00      	cmp	r3, #0
    a21c:	d1e8      	bne.n	a1f0 <printk_mkfloatstr+0x14c>
F:\WorkSpace\AHL-GEC-EXP\Temp\LCD\Debug/srcc/printf.c:86
		}
		while (j > 0)//将倒序数字转为正序，并转换为对应的字符形式
    a21e:	e011      	b.n	a244 <printk_mkfloatstr+0x1a0>
F:\WorkSpace\AHL-GEC-EXP\Temp\LCD\Debug/srcc/printf.c:88
		{
			c[i++] = a[j - 1] + '0';
    a220:	9b23      	ldr	r3, [sp, #140]	; 0x8c
    a222:	1e5a      	subs	r2, r3, #1
    a224:	ab17      	add	r3, sp, #92	; 0x5c
    a226:	0092      	lsls	r2, r2, #2
    a228:	58d3      	ldr	r3, [r2, r3]
    a22a:	b2db      	uxtb	r3, r3
    a22c:	3330      	adds	r3, #48	; 0x30
    a22e:	b2d9      	uxtb	r1, r3
    a230:	9b24      	ldr	r3, [sp, #144]	; 0x90
    a232:	1c5a      	adds	r2, r3, #1
    a234:	9224      	str	r2, [sp, #144]	; 0x90
    a236:	9a02      	ldr	r2, [sp, #8]
    a238:	18d3      	adds	r3, r2, r3
    a23a:	b24a      	sxtb	r2, r1
    a23c:	701a      	strb	r2, [r3, #0]
F:\WorkSpace\AHL-GEC-EXP\Temp\LCD\Debug/srcc/printf.c:89
			--j;
    a23e:	9b23      	ldr	r3, [sp, #140]	; 0x8c
    a240:	3b01      	subs	r3, #1
    a242:	9323      	str	r3, [sp, #140]	; 0x8c
F:\WorkSpace\AHL-GEC-EXP\Temp\LCD\Debug/srcc/printf.c:86
		while (j > 0)//将倒序数字转为正序，并转换为对应的字符形式
    a244:	9b23      	ldr	r3, [sp, #140]	; 0x8c
    a246:	2b00      	cmp	r3, #0
    a248:	d1ea      	bne.n	a220 <printk_mkfloatstr+0x17c>
F:\WorkSpace\AHL-GEC-EXP\Temp\LCD\Debug/srcc/printf.c:92
		}
	}
	c[i++] = '.';     //小数点
    a24a:	9b24      	ldr	r3, [sp, #144]	; 0x90
    a24c:	1c5a      	adds	r2, r3, #1
    a24e:	9224      	str	r2, [sp, #144]	; 0x90
    a250:	9a02      	ldr	r2, [sp, #8]
    a252:	18d3      	adds	r3, r2, r3
    a254:	222e      	movs	r2, #46	; 0x2e
    a256:	701a      	strb	r2, [r3, #0]
F:\WorkSpace\AHL-GEC-EXP\Temp\LCD\Debug/srcc/printf.c:93
	if (0 == q)        //小数部分为0
    a258:	9b20      	ldr	r3, [sp, #128]	; 0x80
    a25a:	9a21      	ldr	r2, [sp, #132]	; 0x84
    a25c:	4313      	orrs	r3, r2
    a25e:	d107      	bne.n	a270 <printk_mkfloatstr+0x1cc>
F:\WorkSpace\AHL-GEC-EXP\Temp\LCD\Debug/srcc/printf.c:94
		c[i++] = '0';
    a260:	9b24      	ldr	r3, [sp, #144]	; 0x90
    a262:	1c5a      	adds	r2, r3, #1
    a264:	9224      	str	r2, [sp, #144]	; 0x90
    a266:	9a02      	ldr	r2, [sp, #8]
    a268:	18d3      	adds	r3, r2, r3
    a26a:	2230      	movs	r2, #48	; 0x30
    a26c:	701a      	strb	r2, [r3, #0]
    a26e:	e043      	b.n	a2f8 <printk_mkfloatstr+0x254>
F:\WorkSpace\AHL-GEC-EXP\Temp\LCD\Debug/srcc/printf.c:97
	else           //小数部分不为0
	{
		j = 0;
    a270:	2300      	movs	r3, #0
    a272:	9323      	str	r3, [sp, #140]	; 0x8c
F:\WorkSpace\AHL-GEC-EXP\Temp\LCD\Debug/srcc/printf.c:99

		while (q != 0)//倒序的数字
    a274:	e018      	b.n	a2a8 <printk_mkfloatstr+0x204>
F:\WorkSpace\AHL-GEC-EXP\Temp\LCD\Debug/srcc/printf.c:101
		{
			b[j++] = q % 10;
    a276:	9820      	ldr	r0, [sp, #128]	; 0x80
    a278:	9921      	ldr	r1, [sp, #132]	; 0x84
    a27a:	220a      	movs	r2, #10
    a27c:	2300      	movs	r3, #0
    a27e:	f7fc fec7 	bl	7010 <__aeabi_uldivmod>
    a282:	0010      	movs	r0, r2
    a284:	0019      	movs	r1, r3
    a286:	9b23      	ldr	r3, [sp, #140]	; 0x8c
    a288:	1c5a      	adds	r2, r3, #1
    a28a:	9223      	str	r2, [sp, #140]	; 0x8c
    a28c:	0001      	movs	r1, r0
    a28e:	aa04      	add	r2, sp, #16
    a290:	009b      	lsls	r3, r3, #2
    a292:	5099      	str	r1, [r3, r2]
F:\WorkSpace\AHL-GEC-EXP\Temp\LCD\Debug/srcc/printf.c:102
			q /= 10;
    a294:	9820      	ldr	r0, [sp, #128]	; 0x80
    a296:	9921      	ldr	r1, [sp, #132]	; 0x84
    a298:	220a      	movs	r2, #10
    a29a:	2300      	movs	r3, #0
    a29c:	f7fc feb8 	bl	7010 <__aeabi_uldivmod>
    a2a0:	0002      	movs	r2, r0
    a2a2:	000b      	movs	r3, r1
    a2a4:	9220      	str	r2, [sp, #128]	; 0x80
    a2a6:	9321      	str	r3, [sp, #132]	; 0x84
F:\WorkSpace\AHL-GEC-EXP\Temp\LCD\Debug/srcc/printf.c:99
		while (q != 0)//倒序的数字
    a2a8:	9b20      	ldr	r3, [sp, #128]	; 0x80
    a2aa:	9a21      	ldr	r2, [sp, #132]	; 0x84
    a2ac:	4313      	orrs	r3, r2
    a2ae:	d1e2      	bne.n	a276 <printk_mkfloatstr+0x1d2>
F:\WorkSpace\AHL-GEC-EXP\Temp\LCD\Debug/srcc/printf.c:104
		}
		while (k != 0)
    a2b0:	e009      	b.n	a2c6 <printk_mkfloatstr+0x222>
F:\WorkSpace\AHL-GEC-EXP\Temp\LCD\Debug/srcc/printf.c:106
		{
			b[j++] = 0;
    a2b2:	9b23      	ldr	r3, [sp, #140]	; 0x8c
    a2b4:	1c5a      	adds	r2, r3, #1
    a2b6:	9223      	str	r2, [sp, #140]	; 0x8c
    a2b8:	aa04      	add	r2, sp, #16
    a2ba:	009b      	lsls	r3, r3, #2
    a2bc:	2100      	movs	r1, #0
    a2be:	5099      	str	r1, [r3, r2]
F:\WorkSpace\AHL-GEC-EXP\Temp\LCD\Debug/srcc/printf.c:107
			k--;
    a2c0:	9b22      	ldr	r3, [sp, #136]	; 0x88
    a2c2:	3b01      	subs	r3, #1
    a2c4:	9322      	str	r3, [sp, #136]	; 0x88
F:\WorkSpace\AHL-GEC-EXP\Temp\LCD\Debug/srcc/printf.c:104
		while (k != 0)
    a2c6:	9b22      	ldr	r3, [sp, #136]	; 0x88
    a2c8:	2b00      	cmp	r3, #0
    a2ca:	d1f2      	bne.n	a2b2 <printk_mkfloatstr+0x20e>
F:\WorkSpace\AHL-GEC-EXP\Temp\LCD\Debug/srcc/printf.c:109
		}
		while (j > 0)//将倒序数字转为正序，并转换为对应的字符形式
    a2cc:	e011      	b.n	a2f2 <printk_mkfloatstr+0x24e>
F:\WorkSpace\AHL-GEC-EXP\Temp\LCD\Debug/srcc/printf.c:111
		{
			c[i++] = b[j - 1] + '0';
    a2ce:	9b23      	ldr	r3, [sp, #140]	; 0x8c
    a2d0:	1e5a      	subs	r2, r3, #1
    a2d2:	ab04      	add	r3, sp, #16
    a2d4:	0092      	lsls	r2, r2, #2
    a2d6:	58d3      	ldr	r3, [r2, r3]
    a2d8:	b2db      	uxtb	r3, r3
    a2da:	3330      	adds	r3, #48	; 0x30
    a2dc:	b2d9      	uxtb	r1, r3
    a2de:	9b24      	ldr	r3, [sp, #144]	; 0x90
    a2e0:	1c5a      	adds	r2, r3, #1
    a2e2:	9224      	str	r2, [sp, #144]	; 0x90
    a2e4:	9a02      	ldr	r2, [sp, #8]
    a2e6:	18d3      	adds	r3, r2, r3
    a2e8:	b24a      	sxtb	r2, r1
    a2ea:	701a      	strb	r2, [r3, #0]
F:\WorkSpace\AHL-GEC-EXP\Temp\LCD\Debug/srcc/printf.c:112
			--j;
    a2ec:	9b23      	ldr	r3, [sp, #140]	; 0x8c
    a2ee:	3b01      	subs	r3, #1
    a2f0:	9323      	str	r3, [sp, #140]	; 0x8c
F:\WorkSpace\AHL-GEC-EXP\Temp\LCD\Debug/srcc/printf.c:109
		while (j > 0)//将倒序数字转为正序，并转换为对应的字符形式
    a2f2:	9b23      	ldr	r3, [sp, #140]	; 0x8c
    a2f4:	2b00      	cmp	r3, #0
    a2f6:	d1ea      	bne.n	a2ce <printk_mkfloatstr+0x22a>
F:\WorkSpace\AHL-GEC-EXP\Temp\LCD\Debug/srcc/printf.c:115
		}
	}
	c[i] = '\0';
    a2f8:	9a02      	ldr	r2, [sp, #8]
    a2fa:	9b24      	ldr	r3, [sp, #144]	; 0x90
    a2fc:	18d3      	adds	r3, r2, r3
    a2fe:	2200      	movs	r2, #0
    a300:	701a      	strb	r2, [r3, #0]
F:\WorkSpace\AHL-GEC-EXP\Temp\LCD\Debug/srcc/printf.c:116
	return i;
    a302:	9b24      	ldr	r3, [sp, #144]	; 0x90
F:\WorkSpace\AHL-GEC-EXP\Temp\LCD\Debug/srcc/printf.c:117
}
    a304:	0018      	movs	r0, r3
    a306:	b027      	add	sp, #156	; 0x9c
    a308:	bd30      	pop	{r4, r5, pc}
    a30a:	46c0      	nop			; (mov r8, r8)
    a30c:	85d8a000 	.word	0x85d8a000
    a310:	43763457 	.word	0x43763457
    a314:	40240000 	.word	0x40240000
    a318:	3ff00000 	.word	0x3ff00000

0000a31c <printk_mknumstr>:
printk_mknumstr():
F:\WorkSpace\AHL-GEC-EXP\Temp\LCD\Debug/srcc/printf.c:127
//       neg:有无符号:判断数据时有符号还是无符号整形
//       radix:格式选择:确定输出格式例如：十进制或十六进制...
//函数返回：无
//======================================================================
static int printk_mknumstr(char* numstr, void* nump, int neg, int radix)
{
    a31c:	b500      	push	{lr}
    a31e:	b08d      	sub	sp, #52	; 0x34
    a320:	9003      	str	r0, [sp, #12]
    a322:	9102      	str	r1, [sp, #8]
    a324:	9201      	str	r2, [sp, #4]
    a326:	9300      	str	r3, [sp, #0]
F:\WorkSpace\AHL-GEC-EXP\Temp\LCD\Debug/srcc/printf.c:133
	int a, b, c;
	unsigned int ua, ub, uc;
	int nlen;
	char* nstrp;

	nlen = 0;
    a328:	2300      	movs	r3, #0
    a32a:	9307      	str	r3, [sp, #28]
F:\WorkSpace\AHL-GEC-EXP\Temp\LCD\Debug/srcc/printf.c:134
	nstrp = numstr;
    a32c:	9b03      	ldr	r3, [sp, #12]
    a32e:	9306      	str	r3, [sp, #24]
F:\WorkSpace\AHL-GEC-EXP\Temp\LCD\Debug/srcc/printf.c:135
	*nstrp++ = '\0';
    a330:	9b06      	ldr	r3, [sp, #24]
    a332:	1c5a      	adds	r2, r3, #1
    a334:	9206      	str	r2, [sp, #24]
    a336:	2200      	movs	r2, #0
    a338:	701a      	strb	r2, [r3, #0]
F:\WorkSpace\AHL-GEC-EXP\Temp\LCD\Debug/srcc/printf.c:137

	if (neg) {
    a33a:	9b01      	ldr	r3, [sp, #4]
    a33c:	2b00      	cmp	r3, #0
    a33e:	d032      	beq.n	a3a6 <printk_mknumstr+0x8a>
F:\WorkSpace\AHL-GEC-EXP\Temp\LCD\Debug/srcc/printf.c:138
		a = *(int*)nump;
    a340:	9b02      	ldr	r3, [sp, #8]
    a342:	681b      	ldr	r3, [r3, #0]
    a344:	930b      	str	r3, [sp, #44]	; 0x2c
F:\WorkSpace\AHL-GEC-EXP\Temp\LCD\Debug/srcc/printf.c:139
		if (a == 0) {
    a346:	9b0b      	ldr	r3, [sp, #44]	; 0x2c
    a348:	2b00      	cmp	r3, #0
    a34a:	d128      	bne.n	a39e <printk_mknumstr+0x82>
F:\WorkSpace\AHL-GEC-EXP\Temp\LCD\Debug/srcc/printf.c:140
			*nstrp = '0';
    a34c:	9b06      	ldr	r3, [sp, #24]
    a34e:	2230      	movs	r2, #48	; 0x30
    a350:	701a      	strb	r2, [r3, #0]
F:\WorkSpace\AHL-GEC-EXP\Temp\LCD\Debug/srcc/printf.c:141
			++nlen;
    a352:	9b07      	ldr	r3, [sp, #28]
    a354:	3301      	adds	r3, #1
    a356:	9307      	str	r3, [sp, #28]
F:\WorkSpace\AHL-GEC-EXP\Temp\LCD\Debug/srcc/printf.c:142
			goto done;
    a358:	e058      	b.n	a40c <printk_mknumstr+0xf0>
F:\WorkSpace\AHL-GEC-EXP\Temp\LCD\Debug/srcc/printf.c:145
		}
		while (a != 0) {
			b = (int)a / (int)radix;
    a35a:	9900      	ldr	r1, [sp, #0]
    a35c:	980b      	ldr	r0, [sp, #44]	; 0x2c
    a35e:	f7fc fd2d 	bl	6dbc <__divsi3>
    a362:	0003      	movs	r3, r0
    a364:	9304      	str	r3, [sp, #16]
F:\WorkSpace\AHL-GEC-EXP\Temp\LCD\Debug/srcc/printf.c:146
			c = (int)a - ((int)b * (int)radix);
    a366:	9b04      	ldr	r3, [sp, #16]
    a368:	9a00      	ldr	r2, [sp, #0]
    a36a:	4353      	muls	r3, r2
    a36c:	9a0b      	ldr	r2, [sp, #44]	; 0x2c
    a36e:	1ad3      	subs	r3, r2, r3
    a370:	930a      	str	r3, [sp, #40]	; 0x28
F:\WorkSpace\AHL-GEC-EXP\Temp\LCD\Debug/srcc/printf.c:147
			if (c < 0) {
    a372:	9b0a      	ldr	r3, [sp, #40]	; 0x28
    a374:	2b00      	cmp	r3, #0
    a376:	da04      	bge.n	a382 <printk_mknumstr+0x66>
F:\WorkSpace\AHL-GEC-EXP\Temp\LCD\Debug/srcc/printf.c:148
				c = ~c + 1 + '0';
    a378:	9b0a      	ldr	r3, [sp, #40]	; 0x28
    a37a:	2230      	movs	r2, #48	; 0x30
    a37c:	1ad3      	subs	r3, r2, r3
    a37e:	930a      	str	r3, [sp, #40]	; 0x28
    a380:	e002      	b.n	a388 <printk_mknumstr+0x6c>
F:\WorkSpace\AHL-GEC-EXP\Temp\LCD\Debug/srcc/printf.c:151
			}
			else {
				c = c + '0';
    a382:	9b0a      	ldr	r3, [sp, #40]	; 0x28
    a384:	3330      	adds	r3, #48	; 0x30
    a386:	930a      	str	r3, [sp, #40]	; 0x28
F:\WorkSpace\AHL-GEC-EXP\Temp\LCD\Debug/srcc/printf.c:153
			}
			a = b;
    a388:	9b04      	ldr	r3, [sp, #16]
    a38a:	930b      	str	r3, [sp, #44]	; 0x2c
F:\WorkSpace\AHL-GEC-EXP\Temp\LCD\Debug/srcc/printf.c:154
			*nstrp++ = (char)c;
    a38c:	9b06      	ldr	r3, [sp, #24]
    a38e:	1c5a      	adds	r2, r3, #1
    a390:	9206      	str	r2, [sp, #24]
    a392:	9a0a      	ldr	r2, [sp, #40]	; 0x28
    a394:	b252      	sxtb	r2, r2
    a396:	701a      	strb	r2, [r3, #0]
F:\WorkSpace\AHL-GEC-EXP\Temp\LCD\Debug/srcc/printf.c:155
			++nlen;
    a398:	9b07      	ldr	r3, [sp, #28]
    a39a:	3301      	adds	r3, #1
    a39c:	9307      	str	r3, [sp, #28]
F:\WorkSpace\AHL-GEC-EXP\Temp\LCD\Debug/srcc/printf.c:144
		while (a != 0) {
    a39e:	9b0b      	ldr	r3, [sp, #44]	; 0x2c
    a3a0:	2b00      	cmp	r3, #0
    a3a2:	d1da      	bne.n	a35a <printk_mknumstr+0x3e>
    a3a4:	e032      	b.n	a40c <printk_mknumstr+0xf0>
F:\WorkSpace\AHL-GEC-EXP\Temp\LCD\Debug/srcc/printf.c:159
		}
	}
	else {
		ua = *(unsigned int*)nump;
    a3a6:	9b02      	ldr	r3, [sp, #8]
    a3a8:	681b      	ldr	r3, [r3, #0]
    a3aa:	9309      	str	r3, [sp, #36]	; 0x24
F:\WorkSpace\AHL-GEC-EXP\Temp\LCD\Debug/srcc/printf.c:160
		if (ua == 0) {
    a3ac:	9b09      	ldr	r3, [sp, #36]	; 0x24
    a3ae:	2b00      	cmp	r3, #0
    a3b0:	d128      	bne.n	a404 <printk_mknumstr+0xe8>
F:\WorkSpace\AHL-GEC-EXP\Temp\LCD\Debug/srcc/printf.c:161
			*nstrp = '0';
    a3b2:	9b06      	ldr	r3, [sp, #24]
    a3b4:	2230      	movs	r2, #48	; 0x30
    a3b6:	701a      	strb	r2, [r3, #0]
F:\WorkSpace\AHL-GEC-EXP\Temp\LCD\Debug/srcc/printf.c:162
			++nlen;
    a3b8:	9b07      	ldr	r3, [sp, #28]
    a3ba:	3301      	adds	r3, #1
    a3bc:	9307      	str	r3, [sp, #28]
F:\WorkSpace\AHL-GEC-EXP\Temp\LCD\Debug/srcc/printf.c:163
			goto done;
    a3be:	e025      	b.n	a40c <printk_mknumstr+0xf0>
F:\WorkSpace\AHL-GEC-EXP\Temp\LCD\Debug/srcc/printf.c:166
		}
		while (ua != 0) {
			ub = (unsigned int)ua / (unsigned int)radix;
    a3c0:	9b00      	ldr	r3, [sp, #0]
    a3c2:	0019      	movs	r1, r3
    a3c4:	9809      	ldr	r0, [sp, #36]	; 0x24
    a3c6:	f7fc fc6f 	bl	6ca8 <__udivsi3>
    a3ca:	0003      	movs	r3, r0
    a3cc:	9305      	str	r3, [sp, #20]
F:\WorkSpace\AHL-GEC-EXP\Temp\LCD\Debug/srcc/printf.c:167
			uc = (unsigned int)ua - ((unsigned int)ub * (unsigned int)radix);
    a3ce:	9b00      	ldr	r3, [sp, #0]
    a3d0:	9a05      	ldr	r2, [sp, #20]
    a3d2:	4353      	muls	r3, r2
    a3d4:	9a09      	ldr	r2, [sp, #36]	; 0x24
    a3d6:	1ad3      	subs	r3, r2, r3
    a3d8:	9308      	str	r3, [sp, #32]
F:\WorkSpace\AHL-GEC-EXP\Temp\LCD\Debug/srcc/printf.c:168
			if (uc < 10) {
    a3da:	9b08      	ldr	r3, [sp, #32]
    a3dc:	2b09      	cmp	r3, #9
    a3de:	d803      	bhi.n	a3e8 <printk_mknumstr+0xcc>
F:\WorkSpace\AHL-GEC-EXP\Temp\LCD\Debug/srcc/printf.c:169
				uc = uc + '0';
    a3e0:	9b08      	ldr	r3, [sp, #32]
    a3e2:	3330      	adds	r3, #48	; 0x30
    a3e4:	9308      	str	r3, [sp, #32]
    a3e6:	e002      	b.n	a3ee <printk_mknumstr+0xd2>
F:\WorkSpace\AHL-GEC-EXP\Temp\LCD\Debug/srcc/printf.c:172
			}
			else {
				uc = uc - 10 + 'A';
    a3e8:	9b08      	ldr	r3, [sp, #32]
    a3ea:	3337      	adds	r3, #55	; 0x37
    a3ec:	9308      	str	r3, [sp, #32]
F:\WorkSpace\AHL-GEC-EXP\Temp\LCD\Debug/srcc/printf.c:174
			}
			ua = ub;
    a3ee:	9b05      	ldr	r3, [sp, #20]
    a3f0:	9309      	str	r3, [sp, #36]	; 0x24
F:\WorkSpace\AHL-GEC-EXP\Temp\LCD\Debug/srcc/printf.c:175
			*nstrp++ = (char)uc;
    a3f2:	9b06      	ldr	r3, [sp, #24]
    a3f4:	1c5a      	adds	r2, r3, #1
    a3f6:	9206      	str	r2, [sp, #24]
    a3f8:	9a08      	ldr	r2, [sp, #32]
    a3fa:	b252      	sxtb	r2, r2
    a3fc:	701a      	strb	r2, [r3, #0]
F:\WorkSpace\AHL-GEC-EXP\Temp\LCD\Debug/srcc/printf.c:176
			++nlen;
    a3fe:	9b07      	ldr	r3, [sp, #28]
    a400:	3301      	adds	r3, #1
    a402:	9307      	str	r3, [sp, #28]
F:\WorkSpace\AHL-GEC-EXP\Temp\LCD\Debug/srcc/printf.c:165
		while (ua != 0) {
    a404:	9b09      	ldr	r3, [sp, #36]	; 0x24
    a406:	2b00      	cmp	r3, #0
    a408:	d1da      	bne.n	a3c0 <printk_mknumstr+0xa4>
F:\WorkSpace\AHL-GEC-EXP\Temp\LCD\Debug/srcc/printf.c:179
		}
	}
	done: return nlen;
    a40a:	46c0      	nop			; (mov r8, r8)
    a40c:	9b07      	ldr	r3, [sp, #28]
F:\WorkSpace\AHL-GEC-EXP\Temp\LCD\Debug/srcc/printf.c:180
}
    a40e:	0018      	movs	r0, r3
    a410:	b00d      	add	sp, #52	; 0x34
    a412:	bd00      	pop	{pc}

0000a414 <printk_pad_zero>:
printk_pad_zero():
F:\WorkSpace\AHL-GEC-EXP\Temp\LCD\Debug/srcc/printf.c:183
/********************************************************************/
static void printk_pad_zero(int curlen, int field_width, int* count,
	PRINTK_INFO* info) {
    a414:	b500      	push	{lr}
    a416:	b087      	sub	sp, #28
    a418:	9003      	str	r0, [sp, #12]
    a41a:	9102      	str	r1, [sp, #8]
    a41c:	9201      	str	r2, [sp, #4]
    a41e:	9300      	str	r3, [sp, #0]
F:\WorkSpace\AHL-GEC-EXP\Temp\LCD\Debug/srcc/printf.c:186
	int i;

	for (i = curlen; i < field_width; i++) {
    a420:	9b03      	ldr	r3, [sp, #12]
    a422:	9305      	str	r3, [sp, #20]
    a424:	e008      	b.n	a438 <printk_pad_zero+0x24>
F:\WorkSpace\AHL-GEC-EXP\Temp\LCD\Debug/srcc/printf.c:187 (discriminator 3)
		printk_putc('0', count, info);
    a426:	9a00      	ldr	r2, [sp, #0]
    a428:	9b01      	ldr	r3, [sp, #4]
    a42a:	0019      	movs	r1, r3
    a42c:	2030      	movs	r0, #48	; 0x30
    a42e:	f7ff fe13 	bl	a058 <printk_putc>
F:\WorkSpace\AHL-GEC-EXP\Temp\LCD\Debug/srcc/printf.c:186 (discriminator 3)
	for (i = curlen; i < field_width; i++) {
    a432:	9b05      	ldr	r3, [sp, #20]
    a434:	3301      	adds	r3, #1
    a436:	9305      	str	r3, [sp, #20]
F:\WorkSpace\AHL-GEC-EXP\Temp\LCD\Debug/srcc/printf.c:186 (discriminator 1)
    a438:	9a05      	ldr	r2, [sp, #20]
    a43a:	9b02      	ldr	r3, [sp, #8]
    a43c:	429a      	cmp	r2, r3
    a43e:	dbf2      	blt.n	a426 <printk_pad_zero+0x12>
F:\WorkSpace\AHL-GEC-EXP\Temp\LCD\Debug/srcc/printf.c:189
	}
}
    a440:	46c0      	nop			; (mov r8, r8)
    a442:	46c0      	nop			; (mov r8, r8)
    a444:	b007      	add	sp, #28
    a446:	bd00      	pop	{pc}

0000a448 <printk_pad_space>:
printk_pad_space():
F:\WorkSpace\AHL-GEC-EXP\Temp\LCD\Debug/srcc/printf.c:193

/********************************************************************/
static void printk_pad_space(int curlen, int field_width, int* count,
	PRINTK_INFO* info) {
    a448:	b500      	push	{lr}
    a44a:	b087      	sub	sp, #28
    a44c:	9003      	str	r0, [sp, #12]
    a44e:	9102      	str	r1, [sp, #8]
    a450:	9201      	str	r2, [sp, #4]
    a452:	9300      	str	r3, [sp, #0]
F:\WorkSpace\AHL-GEC-EXP\Temp\LCD\Debug/srcc/printf.c:196
	int i;

	for (i = curlen; i < field_width; i++) {
    a454:	9b03      	ldr	r3, [sp, #12]
    a456:	9305      	str	r3, [sp, #20]
    a458:	e008      	b.n	a46c <printk_pad_space+0x24>
F:\WorkSpace\AHL-GEC-EXP\Temp\LCD\Debug/srcc/printf.c:197 (discriminator 3)
		printk_putc(' ', count, info);
    a45a:	9a00      	ldr	r2, [sp, #0]
    a45c:	9b01      	ldr	r3, [sp, #4]
    a45e:	0019      	movs	r1, r3
    a460:	2020      	movs	r0, #32
    a462:	f7ff fdf9 	bl	a058 <printk_putc>
F:\WorkSpace\AHL-GEC-EXP\Temp\LCD\Debug/srcc/printf.c:196 (discriminator 3)
	for (i = curlen; i < field_width; i++) {
    a466:	9b05      	ldr	r3, [sp, #20]
    a468:	3301      	adds	r3, #1
    a46a:	9305      	str	r3, [sp, #20]
F:\WorkSpace\AHL-GEC-EXP\Temp\LCD\Debug/srcc/printf.c:196 (discriminator 1)
    a46c:	9a05      	ldr	r2, [sp, #20]
    a46e:	9b02      	ldr	r3, [sp, #8]
    a470:	429a      	cmp	r2, r3
    a472:	dbf2      	blt.n	a45a <printk_pad_space+0x12>
F:\WorkSpace\AHL-GEC-EXP\Temp\LCD\Debug/srcc/printf.c:199
	}
}
    a474:	46c0      	nop			; (mov r8, r8)
    a476:	46c0      	nop			; (mov r8, r8)
    a478:	b007      	add	sp, #28
    a47a:	bd00      	pop	{pc}

0000a47c <printk>:
printk():
F:\WorkSpace\AHL-GEC-EXP\Temp\LCD\Debug/srcc/printf.c:208
//       fmt:输出格式信息
//       ap:va_list指针指向格式信息输出
//函数返回：无
//======================================================================
int printk(PRINTK_INFO* info, const char* fmt, char* ap)
{
    a47c:	b530      	push	{r4, r5, lr}
    a47e:	b0a3      	sub	sp, #140	; 0x8c
    a480:	9003      	str	r0, [sp, #12]
    a482:	9102      	str	r1, [sp, #8]
    a484:	9201      	str	r2, [sp, #4]
F:\WorkSpace\AHL-GEC-EXP\Temp\LCD\Debug/srcc/printf.c:232

		}un1;*/
	char* p;
	int c;
	//char temp1;
	char vstr[33] = { '0' };
    a486:	ab0a      	add	r3, sp, #40	; 0x28
    a488:	2230      	movs	r2, #48	; 0x30
    a48a:	601a      	str	r2, [r3, #0]
    a48c:	3304      	adds	r3, #4
    a48e:	221d      	movs	r2, #29
    a490:	2100      	movs	r1, #0
    a492:	0018      	movs	r0, r3
    a494:	f000 fba3 	bl	abde <memset>
F:\WorkSpace\AHL-GEC-EXP\Temp\LCD\Debug/srcc/printf.c:253
	int* ivalp;
	char* sval;
	int cval;
	unsigned int uval;

	count = 0;
    a498:	2300      	movs	r3, #0
    a49a:	9309      	str	r3, [sp, #36]	; 0x24
F:\WorkSpace\AHL-GEC-EXP\Temp\LCD\Debug/srcc/printf.c:254
	length_modifier = 0;
    a49c:	2300      	movs	r3, #0
    a49e:	931b      	str	r3, [sp, #108]	; 0x6c
F:\WorkSpace\AHL-GEC-EXP\Temp\LCD\Debug/srcc/printf.c:255
	precision_used = TRUE;
    a4a0:	2301      	movs	r3, #1
    a4a2:	931a      	str	r3, [sp, #104]	; 0x68
F:\WorkSpace\AHL-GEC-EXP\Temp\LCD\Debug/srcc/printf.c:257
	//从格式字符串第一个字符开始格式化输出数据
	for (p = (char*)fmt; (c = *p) != 0; p++)
    a4a4:	9b02      	ldr	r3, [sp, #8]
    a4a6:	9321      	str	r3, [sp, #132]	; 0x84
    a4a8:	f000 fb66 	bl	ab78 <printk+0x6fc>
F:\WorkSpace\AHL-GEC-EXP\Temp\LCD\Debug/srcc/printf.c:260
	{
		//读取%前面的字符，直接输出的字符和最后的\n类的转义字符
		if (c != '%')
    a4ac:	9b15      	ldr	r3, [sp, #84]	; 0x54
    a4ae:	2b25      	cmp	r3, #37	; 0x25
    a4b0:	d017      	beq.n	a4e2 <printk+0x66>
F:\WorkSpace\AHL-GEC-EXP\Temp\LCD\Debug/srcc/printf.c:264
		{
#ifndef UNIX_DEBUG
			//%之前的字符
			if (c != '\n') {
    a4b2:	9b15      	ldr	r3, [sp, #84]	; 0x54
    a4b4:	2b0a      	cmp	r3, #10
    a4b6:	d007      	beq.n	a4c8 <printk+0x4c>
F:\WorkSpace\AHL-GEC-EXP\Temp\LCD\Debug/srcc/printf.c:265
				printk_putc(c, &count, info);
    a4b8:	9a03      	ldr	r2, [sp, #12]
    a4ba:	a909      	add	r1, sp, #36	; 0x24
    a4bc:	9b15      	ldr	r3, [sp, #84]	; 0x54
    a4be:	0018      	movs	r0, r3
    a4c0:	f7ff fdca 	bl	a058 <printk_putc>
F:\WorkSpace\AHL-GEC-EXP\Temp\LCD\Debug/srcc/printf.c:276
			}
#else
			printk_putc(c, &count, info);
#endif

			continue;
    a4c4:	f000 fb55 	bl	ab72 <printk+0x6f6>
F:\WorkSpace\AHL-GEC-EXP\Temp\LCD\Debug/srcc/printf.c:269
				printk_putc(0x0D /* CR */, &count, info);
    a4c8:	9a03      	ldr	r2, [sp, #12]
    a4ca:	ab09      	add	r3, sp, #36	; 0x24
    a4cc:	0019      	movs	r1, r3
    a4ce:	200d      	movs	r0, #13
    a4d0:	f7ff fdc2 	bl	a058 <printk_putc>
F:\WorkSpace\AHL-GEC-EXP\Temp\LCD\Debug/srcc/printf.c:270
				printk_putc(0x0A /* LF */, &count, info);
    a4d4:	9a03      	ldr	r2, [sp, #12]
    a4d6:	ab09      	add	r3, sp, #36	; 0x24
    a4d8:	0019      	movs	r1, r3
    a4da:	200a      	movs	r0, #10
    a4dc:	f7ff fdbc 	bl	a058 <printk_putc>
F:\WorkSpace\AHL-GEC-EXP\Temp\LCD\Debug/srcc/printf.c:276
			continue;
    a4e0:	e347      	b.n	ab72 <printk+0x6f6>
F:\WorkSpace\AHL-GEC-EXP\Temp\LCD\Debug/srcc/printf.c:282
		}


		//此时字符为%  查看百分号后的第一个格式字符，对输出格式字符并做出相应输出判断
		//检查相应的修改标志
		flags_used = 0;
    a4e2:	2300      	movs	r3, #0
    a4e4:	931d      	str	r3, [sp, #116]	; 0x74
F:\WorkSpace\AHL-GEC-EXP\Temp\LCD\Debug/srcc/printf.c:283
		done = FALSE;
    a4e6:	2300      	movs	r3, #0
    a4e8:	931e      	str	r3, [sp, #120]	; 0x78
F:\WorkSpace\AHL-GEC-EXP\Temp\LCD\Debug/srcc/printf.c:284
		while (!done) {
    a4ea:	e02c      	b.n	a546 <printk+0xca>
F:\WorkSpace\AHL-GEC-EXP\Temp\LCD\Debug/srcc/printf.c:285
			switch (/* c = */*++p) {
    a4ec:	9b21      	ldr	r3, [sp, #132]	; 0x84
    a4ee:	3301      	adds	r3, #1
    a4f0:	9321      	str	r3, [sp, #132]	; 0x84
    a4f2:	9b21      	ldr	r3, [sp, #132]	; 0x84
    a4f4:	781b      	ldrb	r3, [r3, #0]
    a4f6:	b25b      	sxtb	r3, r3
    a4f8:	3b20      	subs	r3, #32
    a4fa:	2b10      	cmp	r3, #16
    a4fc:	d81d      	bhi.n	a53a <printk+0xbe>
    a4fe:	009a      	lsls	r2, r3, #2
    a500:	4bca      	ldr	r3, [pc, #808]	; (a82c <printk+0x3b0>)
    a502:	18d3      	adds	r3, r2, r3
    a504:	681b      	ldr	r3, [r3, #0]
    a506:	469f      	mov	pc, r3
F:\WorkSpace\AHL-GEC-EXP\Temp\LCD\Debug/srcc/printf.c:287
			case '-':
				flags_used |= FLAGS_MINUS;
    a508:	9b1d      	ldr	r3, [sp, #116]	; 0x74
    a50a:	2201      	movs	r2, #1
    a50c:	4313      	orrs	r3, r2
    a50e:	931d      	str	r3, [sp, #116]	; 0x74
F:\WorkSpace\AHL-GEC-EXP\Temp\LCD\Debug/srcc/printf.c:288
				break;
    a510:	e019      	b.n	a546 <printk+0xca>
F:\WorkSpace\AHL-GEC-EXP\Temp\LCD\Debug/srcc/printf.c:290
			case '+':
				flags_used |= FLAGS_PLUS;
    a512:	9b1d      	ldr	r3, [sp, #116]	; 0x74
    a514:	2202      	movs	r2, #2
    a516:	4313      	orrs	r3, r2
    a518:	931d      	str	r3, [sp, #116]	; 0x74
F:\WorkSpace\AHL-GEC-EXP\Temp\LCD\Debug/srcc/printf.c:291
				break;
    a51a:	e014      	b.n	a546 <printk+0xca>
F:\WorkSpace\AHL-GEC-EXP\Temp\LCD\Debug/srcc/printf.c:293
			case ' ':
				flags_used |= FLAGS_SPACE;
    a51c:	9b1d      	ldr	r3, [sp, #116]	; 0x74
    a51e:	2204      	movs	r2, #4
    a520:	4313      	orrs	r3, r2
    a522:	931d      	str	r3, [sp, #116]	; 0x74
F:\WorkSpace\AHL-GEC-EXP\Temp\LCD\Debug/srcc/printf.c:294
				break;
    a524:	e00f      	b.n	a546 <printk+0xca>
F:\WorkSpace\AHL-GEC-EXP\Temp\LCD\Debug/srcc/printf.c:296
			case '0':
				flags_used |= FLAGS_ZERO;
    a526:	9b1d      	ldr	r3, [sp, #116]	; 0x74
    a528:	2208      	movs	r2, #8
    a52a:	4313      	orrs	r3, r2
    a52c:	931d      	str	r3, [sp, #116]	; 0x74
F:\WorkSpace\AHL-GEC-EXP\Temp\LCD\Debug/srcc/printf.c:297
				break;
    a52e:	e00a      	b.n	a546 <printk+0xca>
F:\WorkSpace\AHL-GEC-EXP\Temp\LCD\Debug/srcc/printf.c:299
			case '#':
				flags_used |= FLAGS_POUND;
    a530:	9b1d      	ldr	r3, [sp, #116]	; 0x74
    a532:	2210      	movs	r2, #16
    a534:	4313      	orrs	r3, r2
    a536:	931d      	str	r3, [sp, #116]	; 0x74
F:\WorkSpace\AHL-GEC-EXP\Temp\LCD\Debug/srcc/printf.c:300
				break;
    a538:	e005      	b.n	a546 <printk+0xca>
F:\WorkSpace\AHL-GEC-EXP\Temp\LCD\Debug/srcc/printf.c:303
			default:
				/* we've gone one char too far */
				--p;
    a53a:	9b21      	ldr	r3, [sp, #132]	; 0x84
    a53c:	3b01      	subs	r3, #1
    a53e:	9321      	str	r3, [sp, #132]	; 0x84
F:\WorkSpace\AHL-GEC-EXP\Temp\LCD\Debug/srcc/printf.c:304
				done = TRUE;
    a540:	2301      	movs	r3, #1
    a542:	931e      	str	r3, [sp, #120]	; 0x78
F:\WorkSpace\AHL-GEC-EXP\Temp\LCD\Debug/srcc/printf.c:305
				break;
    a544:	46c0      	nop			; (mov r8, r8)
F:\WorkSpace\AHL-GEC-EXP\Temp\LCD\Debug/srcc/printf.c:284
		while (!done) {
    a546:	9b1e      	ldr	r3, [sp, #120]	; 0x78
    a548:	2b00      	cmp	r3, #0
    a54a:	d0cf      	beq.n	a4ec <printk+0x70>
F:\WorkSpace\AHL-GEC-EXP\Temp\LCD\Debug/srcc/printf.c:311
			}
		}


		//检查%后再下一个字符 确定输出长度
		field_width = 0;
    a54c:	2300      	movs	r3, #0
    a54e:	931c      	str	r3, [sp, #112]	; 0x70
F:\WorkSpace\AHL-GEC-EXP\Temp\LCD\Debug/srcc/printf.c:312
		done = FALSE;
    a550:	2300      	movs	r3, #0
    a552:	931e      	str	r3, [sp, #120]	; 0x78
F:\WorkSpace\AHL-GEC-EXP\Temp\LCD\Debug/srcc/printf.c:313
		while (!done) {
    a554:	e01b      	b.n	a58e <printk+0x112>
F:\WorkSpace\AHL-GEC-EXP\Temp\LCD\Debug/srcc/printf.c:314
			switch (c = *++p) {
    a556:	9b21      	ldr	r3, [sp, #132]	; 0x84
    a558:	3301      	adds	r3, #1
    a55a:	9321      	str	r3, [sp, #132]	; 0x84
    a55c:	9b21      	ldr	r3, [sp, #132]	; 0x84
    a55e:	781b      	ldrb	r3, [r3, #0]
    a560:	b25b      	sxtb	r3, r3
    a562:	9315      	str	r3, [sp, #84]	; 0x54
    a564:	9b15      	ldr	r3, [sp, #84]	; 0x54
    a566:	3b30      	subs	r3, #48	; 0x30
    a568:	2b09      	cmp	r3, #9
    a56a:	d80a      	bhi.n	a582 <printk+0x106>
F:\WorkSpace\AHL-GEC-EXP\Temp\LCD\Debug/srcc/printf.c:325
			case '5':
			case '6':
			case '7':
			case '8':
			case '9':
				field_width = (field_width * 10) + (c - '0');
    a56c:	9a1c      	ldr	r2, [sp, #112]	; 0x70
    a56e:	0013      	movs	r3, r2
    a570:	009b      	lsls	r3, r3, #2
    a572:	189b      	adds	r3, r3, r2
    a574:	005b      	lsls	r3, r3, #1
    a576:	001a      	movs	r2, r3
    a578:	9b15      	ldr	r3, [sp, #84]	; 0x54
    a57a:	3b30      	subs	r3, #48	; 0x30
    a57c:	18d3      	adds	r3, r2, r3
    a57e:	931c      	str	r3, [sp, #112]	; 0x70
F:\WorkSpace\AHL-GEC-EXP\Temp\LCD\Debug/srcc/printf.c:326
				break;
    a580:	e005      	b.n	a58e <printk+0x112>
F:\WorkSpace\AHL-GEC-EXP\Temp\LCD\Debug/srcc/printf.c:329
			default:
				/* we've gone one char too far */
				--p;
    a582:	9b21      	ldr	r3, [sp, #132]	; 0x84
    a584:	3b01      	subs	r3, #1
    a586:	9321      	str	r3, [sp, #132]	; 0x84
F:\WorkSpace\AHL-GEC-EXP\Temp\LCD\Debug/srcc/printf.c:330
				done = TRUE;
    a588:	2301      	movs	r3, #1
    a58a:	931e      	str	r3, [sp, #120]	; 0x78
F:\WorkSpace\AHL-GEC-EXP\Temp\LCD\Debug/srcc/printf.c:331
				break;
    a58c:	46c0      	nop			; (mov r8, r8)
F:\WorkSpace\AHL-GEC-EXP\Temp\LCD\Debug/srcc/printf.c:313
		while (!done) {
    a58e:	9b1e      	ldr	r3, [sp, #120]	; 0x78
    a590:	2b00      	cmp	r3, #0
    a592:	d0e0      	beq.n	a556 <printk+0xda>
F:\WorkSpace\AHL-GEC-EXP\Temp\LCD\Debug/srcc/printf.c:335
			}
		}
		//此时字符为%看是否有.输入
		if (/* (c = *++p) */*++p == '.') {
    a594:	9b21      	ldr	r3, [sp, #132]	; 0x84
    a596:	3301      	adds	r3, #1
    a598:	9321      	str	r3, [sp, #132]	; 0x84
    a59a:	9b21      	ldr	r3, [sp, #132]	; 0x84
    a59c:	781b      	ldrb	r3, [r3, #0]
    a59e:	b25b      	sxtb	r3, r3
    a5a0:	2b2e      	cmp	r3, #46	; 0x2e
    a5a2:	d124      	bne.n	a5ee <printk+0x172>
F:\WorkSpace\AHL-GEC-EXP\Temp\LCD\Debug/srcc/printf.c:341
			/* precision_used = TRUE; */

			/*
			 * Must get precision field width, if present.
			 */
			precision_width = 0;
    a5a4:	2300      	movs	r3, #0
    a5a6:	9319      	str	r3, [sp, #100]	; 0x64
F:\WorkSpace\AHL-GEC-EXP\Temp\LCD\Debug/srcc/printf.c:342
			done = FALSE;
    a5a8:	2300      	movs	r3, #0
    a5aa:	931e      	str	r3, [sp, #120]	; 0x78
F:\WorkSpace\AHL-GEC-EXP\Temp\LCD\Debug/srcc/printf.c:343
			while (!done) {
    a5ac:	e01b      	b.n	a5e6 <printk+0x16a>
F:\WorkSpace\AHL-GEC-EXP\Temp\LCD\Debug/srcc/printf.c:344
				switch (c = *++p) {
    a5ae:	9b21      	ldr	r3, [sp, #132]	; 0x84
    a5b0:	3301      	adds	r3, #1
    a5b2:	9321      	str	r3, [sp, #132]	; 0x84
    a5b4:	9b21      	ldr	r3, [sp, #132]	; 0x84
    a5b6:	781b      	ldrb	r3, [r3, #0]
    a5b8:	b25b      	sxtb	r3, r3
    a5ba:	9315      	str	r3, [sp, #84]	; 0x54
    a5bc:	9b15      	ldr	r3, [sp, #84]	; 0x54
    a5be:	3b30      	subs	r3, #48	; 0x30
    a5c0:	2b09      	cmp	r3, #9
    a5c2:	d80a      	bhi.n	a5da <printk+0x15e>
F:\WorkSpace\AHL-GEC-EXP\Temp\LCD\Debug/srcc/printf.c:356
				case '6':
				case '7':
				case '8':
				case '9':
#if 1
					precision_width = (precision_width * 10) + (c - '0');
    a5c4:	9a19      	ldr	r2, [sp, #100]	; 0x64
    a5c6:	0013      	movs	r3, r2
    a5c8:	009b      	lsls	r3, r3, #2
    a5ca:	189b      	adds	r3, r3, r2
    a5cc:	005b      	lsls	r3, r3, #1
    a5ce:	001a      	movs	r2, r3
    a5d0:	9b15      	ldr	r3, [sp, #84]	; 0x54
    a5d2:	3b30      	subs	r3, #48	; 0x30
    a5d4:	18d3      	adds	r3, r2, r3
    a5d6:	9319      	str	r3, [sp, #100]	; 0x64
F:\WorkSpace\AHL-GEC-EXP\Temp\LCD\Debug/srcc/printf.c:359

#endif
					break;
    a5d8:	e005      	b.n	a5e6 <printk+0x16a>
F:\WorkSpace\AHL-GEC-EXP\Temp\LCD\Debug/srcc/printf.c:362
				default:
					/* we've gone one char too far */
					--p;
    a5da:	9b21      	ldr	r3, [sp, #132]	; 0x84
    a5dc:	3b01      	subs	r3, #1
    a5de:	9321      	str	r3, [sp, #132]	; 0x84
F:\WorkSpace\AHL-GEC-EXP\Temp\LCD\Debug/srcc/printf.c:363
					done = TRUE;
    a5e0:	2301      	movs	r3, #1
    a5e2:	931e      	str	r3, [sp, #120]	; 0x78
F:\WorkSpace\AHL-GEC-EXP\Temp\LCD\Debug/srcc/printf.c:364
					break;
    a5e4:	46c0      	nop			; (mov r8, r8)
F:\WorkSpace\AHL-GEC-EXP\Temp\LCD\Debug/srcc/printf.c:343
			while (!done) {
    a5e6:	9b1e      	ldr	r3, [sp, #120]	; 0x78
    a5e8:	2b00      	cmp	r3, #0
    a5ea:	d0e0      	beq.n	a5ae <printk+0x132>
    a5ec:	e006      	b.n	a5fc <printk+0x180>
F:\WorkSpace\AHL-GEC-EXP\Temp\LCD\Debug/srcc/printf.c:370
				}
			}
		}
		else {
			/* we've gone one char too far */
			--p;
    a5ee:	9b21      	ldr	r3, [sp, #132]	; 0x84
    a5f0:	3b01      	subs	r3, #1
    a5f2:	9321      	str	r3, [sp, #132]	; 0x84
F:\WorkSpace\AHL-GEC-EXP\Temp\LCD\Debug/srcc/printf.c:372
#if 1
			precision_used = FALSE;
    a5f4:	2300      	movs	r3, #0
    a5f6:	931a      	str	r3, [sp, #104]	; 0x68
F:\WorkSpace\AHL-GEC-EXP\Temp\LCD\Debug/srcc/printf.c:373
			precision_width = 0;
    a5f8:	2300      	movs	r3, #0
    a5fa:	9319      	str	r3, [sp, #100]	; 0x64
F:\WorkSpace\AHL-GEC-EXP\Temp\LCD\Debug/srcc/printf.c:377
#endif
		}
		//判断 输出的是否有lf、LF等
		switch (/* c = */*++p) {
    a5fc:	9b21      	ldr	r3, [sp, #132]	; 0x84
    a5fe:	3301      	adds	r3, #1
    a600:	9321      	str	r3, [sp, #132]	; 0x84
    a602:	9b21      	ldr	r3, [sp, #132]	; 0x84
    a604:	781b      	ldrb	r3, [r3, #0]
    a606:	b25b      	sxtb	r3, r3
    a608:	2b6c      	cmp	r3, #108	; 0x6c
    a60a:	d005      	beq.n	a618 <printk+0x19c>
    a60c:	dc0e      	bgt.n	a62c <printk+0x1b0>
    a60e:	2b4c      	cmp	r3, #76	; 0x4c
    a610:	d007      	beq.n	a622 <printk+0x1a6>
    a612:	2b68      	cmp	r3, #104	; 0x68
    a614:	d10a      	bne.n	a62c <printk+0x1b0>
F:\WorkSpace\AHL-GEC-EXP\Temp\LCD\Debug/srcc/printf.c:380
		case 'h':
			// length_modifier |= LENMOD_h;
			break;
    a616:	e00d      	b.n	a634 <printk+0x1b8>
F:\WorkSpace\AHL-GEC-EXP\Temp\LCD\Debug/srcc/printf.c:382
		case 'l':
			length_modifier |= LENMOD_l;
    a618:	9b1b      	ldr	r3, [sp, #108]	; 0x6c
    a61a:	2201      	movs	r2, #1
    a61c:	4313      	orrs	r3, r2
    a61e:	931b      	str	r3, [sp, #108]	; 0x6c
F:\WorkSpace\AHL-GEC-EXP\Temp\LCD\Debug/srcc/printf.c:383
			break;
    a620:	e008      	b.n	a634 <printk+0x1b8>
F:\WorkSpace\AHL-GEC-EXP\Temp\LCD\Debug/srcc/printf.c:385
		case 'L':
			length_modifier |= LENMOD_L;
    a622:	9b1b      	ldr	r3, [sp, #108]	; 0x6c
    a624:	2202      	movs	r2, #2
    a626:	4313      	orrs	r3, r2
    a628:	931b      	str	r3, [sp, #108]	; 0x6c
F:\WorkSpace\AHL-GEC-EXP\Temp\LCD\Debug/srcc/printf.c:386
			break;
    a62a:	e003      	b.n	a634 <printk+0x1b8>
F:\WorkSpace\AHL-GEC-EXP\Temp\LCD\Debug/srcc/printf.c:389
		default:
			/* we've gone one char too far */
			--p;
    a62c:	9b21      	ldr	r3, [sp, #132]	; 0x84
    a62e:	3b01      	subs	r3, #1
    a630:	9321      	str	r3, [sp, #132]	; 0x84
F:\WorkSpace\AHL-GEC-EXP\Temp\LCD\Debug/srcc/printf.c:390
			break;
    a632:	46c0      	nop			; (mov r8, r8)
F:\WorkSpace\AHL-GEC-EXP\Temp\LCD\Debug/srcc/printf.c:394
		}

		//p为格式字符串的首地址
		switch (c = *++p) {
    a634:	9b21      	ldr	r3, [sp, #132]	; 0x84
    a636:	3301      	adds	r3, #1
    a638:	9321      	str	r3, [sp, #132]	; 0x84
    a63a:	9b21      	ldr	r3, [sp, #132]	; 0x84
    a63c:	781b      	ldrb	r3, [r3, #0]
    a63e:	b25b      	sxtb	r3, r3
    a640:	9315      	str	r3, [sp, #84]	; 0x54
    a642:	9b15      	ldr	r3, [sp, #84]	; 0x54
    a644:	3b58      	subs	r3, #88	; 0x58
    a646:	2b20      	cmp	r3, #32
    a648:	d900      	bls.n	a64c <printk+0x1d0>
    a64a:	e286      	b.n	ab5a <printk+0x6de>
    a64c:	009a      	lsls	r2, r3, #2
    a64e:	4b78      	ldr	r3, [pc, #480]	; (a830 <printk+0x3b4>)
    a650:	18d3      	adds	r3, r2, r3
    a652:	681b      	ldr	r3, [r3, #0]
    a654:	469f      	mov	pc, r3
F:\WorkSpace\AHL-GEC-EXP\Temp\LCD\Debug/srcc/printf.c:399
		case 'd':
		case 'i':
			//此时ap为指向可变参数列表的第一个参数
			//返回当前参数，并将ap指向下一个参数
			ival = (int)va_arg(ap, int);
    a656:	9b01      	ldr	r3, [sp, #4]
    a658:	3304      	adds	r3, #4
    a65a:	9301      	str	r3, [sp, #4]
    a65c:	9b01      	ldr	r3, [sp, #4]
    a65e:	3b04      	subs	r3, #4
    a660:	681b      	ldr	r3, [r3, #0]
    a662:	9308      	str	r3, [sp, #32]
F:\WorkSpace\AHL-GEC-EXP\Temp\LCD\Debug/srcc/printf.c:401
			//将整型转换成字符型保存在vstr中，返回字符数vlen
			vlen = printk_mknumstr(vstr, &ival, TRUE, 10);
    a664:	a908      	add	r1, sp, #32
    a666:	a80a      	add	r0, sp, #40	; 0x28
    a668:	230a      	movs	r3, #10
    a66a:	2201      	movs	r2, #1
    a66c:	f7ff fe56 	bl	a31c <printk_mknumstr>
    a670:	0003      	movs	r3, r0
    a672:	931f      	str	r3, [sp, #124]	; 0x7c
F:\WorkSpace\AHL-GEC-EXP\Temp\LCD\Debug/srcc/printf.c:403
			//指向转换后的最后一个字符
			vstrp = &vstr[vlen];
    a674:	aa0a      	add	r2, sp, #40	; 0x28
    a676:	9b1f      	ldr	r3, [sp, #124]	; 0x7c
    a678:	18d3      	adds	r3, r2, r3
    a67a:	9320      	str	r3, [sp, #128]	; 0x80
F:\WorkSpace\AHL-GEC-EXP\Temp\LCD\Debug/srcc/printf.c:406

			//若参数小于0，添加'-'号，并将字符长度加1
			if (ival < 0) {
    a67c:	9b08      	ldr	r3, [sp, #32]
    a67e:	2b00      	cmp	r3, #0
    a680:	da05      	bge.n	a68e <printk+0x212>
F:\WorkSpace\AHL-GEC-EXP\Temp\LCD\Debug/srcc/printf.c:407
				schar = '-';
    a682:	232d      	movs	r3, #45	; 0x2d
    a684:	9318      	str	r3, [sp, #96]	; 0x60
F:\WorkSpace\AHL-GEC-EXP\Temp\LCD\Debug/srcc/printf.c:408
				++vlen;
    a686:	9b1f      	ldr	r3, [sp, #124]	; 0x7c
    a688:	3301      	adds	r3, #1
    a68a:	931f      	str	r3, [sp, #124]	; 0x7c
    a68c:	e015      	b.n	a6ba <printk+0x23e>
F:\WorkSpace\AHL-GEC-EXP\Temp\LCD\Debug/srcc/printf.c:412
			}
			//若参数不小于0，添加‘+’号或者‘ ’或者为0，并将字符长度加1
			else {
				if (IS_FLAG_PLUS(flags_used)) {
    a68e:	9b1d      	ldr	r3, [sp, #116]	; 0x74
    a690:	2202      	movs	r2, #2
    a692:	4013      	ands	r3, r2
    a694:	d005      	beq.n	a6a2 <printk+0x226>
F:\WorkSpace\AHL-GEC-EXP\Temp\LCD\Debug/srcc/printf.c:413
					schar = '+';
    a696:	232b      	movs	r3, #43	; 0x2b
    a698:	9318      	str	r3, [sp, #96]	; 0x60
F:\WorkSpace\AHL-GEC-EXP\Temp\LCD\Debug/srcc/printf.c:414
					++vlen;
    a69a:	9b1f      	ldr	r3, [sp, #124]	; 0x7c
    a69c:	3301      	adds	r3, #1
    a69e:	931f      	str	r3, [sp, #124]	; 0x7c
    a6a0:	e00b      	b.n	a6ba <printk+0x23e>
F:\WorkSpace\AHL-GEC-EXP\Temp\LCD\Debug/srcc/printf.c:417
				}
				else {
					if (IS_FLAG_SPACE(flags_used)) {
    a6a2:	9b1d      	ldr	r3, [sp, #116]	; 0x74
    a6a4:	2204      	movs	r2, #4
    a6a6:	4013      	ands	r3, r2
    a6a8:	d005      	beq.n	a6b6 <printk+0x23a>
F:\WorkSpace\AHL-GEC-EXP\Temp\LCD\Debug/srcc/printf.c:418
						schar = ' ';
    a6aa:	2320      	movs	r3, #32
    a6ac:	9318      	str	r3, [sp, #96]	; 0x60
F:\WorkSpace\AHL-GEC-EXP\Temp\LCD\Debug/srcc/printf.c:419
						++vlen;
    a6ae:	9b1f      	ldr	r3, [sp, #124]	; 0x7c
    a6b0:	3301      	adds	r3, #1
    a6b2:	931f      	str	r3, [sp, #124]	; 0x7c
    a6b4:	e001      	b.n	a6ba <printk+0x23e>
F:\WorkSpace\AHL-GEC-EXP\Temp\LCD\Debug/srcc/printf.c:422
					}
					else {
						schar = 0;
    a6b6:	2300      	movs	r3, #0
    a6b8:	9318      	str	r3, [sp, #96]	; 0x60
F:\WorkSpace\AHL-GEC-EXP\Temp\LCD\Debug/srcc/printf.c:426
					}
				}
			}
			dschar = FALSE;
    a6ba:	2300      	movs	r3, #0
    a6bc:	9317      	str	r3, [sp, #92]	; 0x5c
F:\WorkSpace\AHL-GEC-EXP\Temp\LCD\Debug/srcc/printf.c:431

			/*
			 * do the ZERO pad.
			 */
			if (IS_FLAG_ZERO(flags_used)) {
    a6be:	9b1d      	ldr	r3, [sp, #116]	; 0x74
    a6c0:	2208      	movs	r2, #8
    a6c2:	4013      	ands	r3, r2
    a6c4:	d013      	beq.n	a6ee <printk+0x272>
F:\WorkSpace\AHL-GEC-EXP\Temp\LCD\Debug/srcc/printf.c:432
				if (schar)
    a6c6:	9b18      	ldr	r3, [sp, #96]	; 0x60
    a6c8:	2b00      	cmp	r3, #0
    a6ca:	d005      	beq.n	a6d8 <printk+0x25c>
F:\WorkSpace\AHL-GEC-EXP\Temp\LCD\Debug/srcc/printf.c:433
					printk_putc(schar, &count, info);  //输出符号
    a6cc:	9a03      	ldr	r2, [sp, #12]
    a6ce:	a909      	add	r1, sp, #36	; 0x24
    a6d0:	9b18      	ldr	r3, [sp, #96]	; 0x60
    a6d2:	0018      	movs	r0, r3
    a6d4:	f7ff fcc0 	bl	a058 <printk_putc>
F:\WorkSpace\AHL-GEC-EXP\Temp\LCD\Debug/srcc/printf.c:434
				dschar = TRUE;
    a6d8:	2301      	movs	r3, #1
    a6da:	9317      	str	r3, [sp, #92]	; 0x5c
F:\WorkSpace\AHL-GEC-EXP\Temp\LCD\Debug/srcc/printf.c:435
				printk_pad_zero(vlen, field_width, &count, info);
    a6dc:	9b03      	ldr	r3, [sp, #12]
    a6de:	aa09      	add	r2, sp, #36	; 0x24
    a6e0:	991c      	ldr	r1, [sp, #112]	; 0x70
    a6e2:	981f      	ldr	r0, [sp, #124]	; 0x7c
    a6e4:	f7ff fe96 	bl	a414 <printk_pad_zero>
F:\WorkSpace\AHL-GEC-EXP\Temp\LCD\Debug/srcc/printf.c:436
				vlen = field_width;
    a6e8:	9b1c      	ldr	r3, [sp, #112]	; 0x70
    a6ea:	931f      	str	r3, [sp, #124]	; 0x7c
    a6ec:	e014      	b.n	a718 <printk+0x29c>
F:\WorkSpace\AHL-GEC-EXP\Temp\LCD\Debug/srcc/printf.c:439
			}
			else {
				if (!IS_FLAG_MINUS(flags_used)) {
    a6ee:	9b1d      	ldr	r3, [sp, #116]	; 0x74
    a6f0:	2201      	movs	r2, #1
    a6f2:	4013      	ands	r3, r2
    a6f4:	d110      	bne.n	a718 <printk+0x29c>
F:\WorkSpace\AHL-GEC-EXP\Temp\LCD\Debug/srcc/printf.c:440
					printk_pad_space(vlen, field_width, &count, info);  //输出空格
    a6f6:	9b03      	ldr	r3, [sp, #12]
    a6f8:	aa09      	add	r2, sp, #36	; 0x24
    a6fa:	991c      	ldr	r1, [sp, #112]	; 0x70
    a6fc:	981f      	ldr	r0, [sp, #124]	; 0x7c
    a6fe:	f7ff fea3 	bl	a448 <printk_pad_space>
F:\WorkSpace\AHL-GEC-EXP\Temp\LCD\Debug/srcc/printf.c:442

					if (schar)
    a702:	9b18      	ldr	r3, [sp, #96]	; 0x60
    a704:	2b00      	cmp	r3, #0
    a706:	d005      	beq.n	a714 <printk+0x298>
F:\WorkSpace\AHL-GEC-EXP\Temp\LCD\Debug/srcc/printf.c:443
						printk_putc(schar, &count, info);
    a708:	9a03      	ldr	r2, [sp, #12]
    a70a:	a909      	add	r1, sp, #36	; 0x24
    a70c:	9b18      	ldr	r3, [sp, #96]	; 0x60
    a70e:	0018      	movs	r0, r3
    a710:	f7ff fca2 	bl	a058 <printk_putc>
F:\WorkSpace\AHL-GEC-EXP\Temp\LCD\Debug/srcc/printf.c:444
					dschar = TRUE;
    a714:	2301      	movs	r3, #1
    a716:	9317      	str	r3, [sp, #92]	; 0x5c
F:\WorkSpace\AHL-GEC-EXP\Temp\LCD\Debug/srcc/printf.c:450
				}
			}

			/* the string was built in reverse order, now display in */
			/* correct order */
			if (!dschar && schar) {
    a718:	9b17      	ldr	r3, [sp, #92]	; 0x5c
    a71a:	2b00      	cmp	r3, #0
    a71c:	d000      	beq.n	a720 <printk+0x2a4>
    a71e:	e190      	b.n	aa42 <printk+0x5c6>
F:\WorkSpace\AHL-GEC-EXP\Temp\LCD\Debug/srcc/printf.c:450 (discriminator 1)
    a720:	9b18      	ldr	r3, [sp, #96]	; 0x60
    a722:	2b00      	cmp	r3, #0
    a724:	d100      	bne.n	a728 <printk+0x2ac>
    a726:	e18c      	b.n	aa42 <printk+0x5c6>
F:\WorkSpace\AHL-GEC-EXP\Temp\LCD\Debug/srcc/printf.c:451
				printk_putc(schar, &count, info);
    a728:	9a03      	ldr	r2, [sp, #12]
    a72a:	a909      	add	r1, sp, #36	; 0x24
    a72c:	9b18      	ldr	r3, [sp, #96]	; 0x60
    a72e:	0018      	movs	r0, r3
    a730:	f7ff fc92 	bl	a058 <printk_putc>
F:\WorkSpace\AHL-GEC-EXP\Temp\LCD\Debug/srcc/printf.c:453
			}
			goto cont_xd;  //开始跳转
    a734:	e185      	b.n	aa42 <printk+0x5c6>
F:\WorkSpace\AHL-GEC-EXP\Temp\LCD\Debug/srcc/printf.c:464
			//3.140001 对double数:0x40091EB85F577E6C
			//实际传入变参数 函数后 浮点数变为:0x6000000040091EB8 实际是将其转化为double型数据
			//但是顺序反了，我们要做的是将后四字节提前，然后把0x60移到紧接着前四个字节后的位置。

			//【20200816】  XSX，解决浮点数不优化问题
			ap = ap + 4;
    a736:	9b01      	ldr	r3, [sp, #4]
    a738:	3304      	adds	r3, #4
    a73a:	9301      	str	r3, [sp, #4]
F:\WorkSpace\AHL-GEC-EXP\Temp\LCD\Debug/srcc/printf.c:465
			fval = (double)va_arg(ap, double);
    a73c:	9b01      	ldr	r3, [sp, #4]
    a73e:	3308      	adds	r3, #8
    a740:	9301      	str	r3, [sp, #4]
    a742:	9b01      	ldr	r3, [sp, #4]
    a744:	3b08      	subs	r3, #8
    a746:	681a      	ldr	r2, [r3, #0]
    a748:	685b      	ldr	r3, [r3, #4]
    a74a:	9206      	str	r2, [sp, #24]
    a74c:	9307      	str	r3, [sp, #28]
F:\WorkSpace\AHL-GEC-EXP\Temp\LCD\Debug/srcc/printf.c:469

			//【20200816】  XSX，解决负数的浮点数输出问题
			//若参数小于0，添加'-'号，并将字符长度加1
			if (fval < 0) {
    a74e:	9806      	ldr	r0, [sp, #24]
    a750:	9907      	ldr	r1, [sp, #28]
    a752:	2200      	movs	r2, #0
    a754:	2300      	movs	r3, #0
    a756:	f7fc fc33 	bl	6fc0 <__aeabi_dcmplt>
    a75a:	1e03      	subs	r3, r0, #0
    a75c:	d00f      	beq.n	a77e <printk+0x302>
F:\WorkSpace\AHL-GEC-EXP\Temp\LCD\Debug/srcc/printf.c:470
				schar = '-';
    a75e:	232d      	movs	r3, #45	; 0x2d
    a760:	9318      	str	r3, [sp, #96]	; 0x60
F:\WorkSpace\AHL-GEC-EXP\Temp\LCD\Debug/srcc/printf.c:471
				fval = -fval;				//负数取它的正数
    a762:	9a06      	ldr	r2, [sp, #24]
    a764:	9b07      	ldr	r3, [sp, #28]
    a766:	0011      	movs	r1, r2
    a768:	000c      	movs	r4, r1
    a76a:	2180      	movs	r1, #128	; 0x80
    a76c:	0609      	lsls	r1, r1, #24
    a76e:	4059      	eors	r1, r3
    a770:	000d      	movs	r5, r1
    a772:	9406      	str	r4, [sp, #24]
    a774:	9507      	str	r5, [sp, #28]
F:\WorkSpace\AHL-GEC-EXP\Temp\LCD\Debug/srcc/printf.c:472
				++vlen;
    a776:	9b1f      	ldr	r3, [sp, #124]	; 0x7c
    a778:	3301      	adds	r3, #1
    a77a:	931f      	str	r3, [sp, #124]	; 0x7c
    a77c:	e015      	b.n	a7aa <printk+0x32e>
F:\WorkSpace\AHL-GEC-EXP\Temp\LCD\Debug/srcc/printf.c:476
			}
			//若参数不小于0，添加‘+’号或者‘ ’或者为0，并将字符长度加1
			else {
				if (IS_FLAG_PLUS(flags_used)) {
    a77e:	9b1d      	ldr	r3, [sp, #116]	; 0x74
    a780:	2202      	movs	r2, #2
    a782:	4013      	ands	r3, r2
    a784:	d005      	beq.n	a792 <printk+0x316>
F:\WorkSpace\AHL-GEC-EXP\Temp\LCD\Debug/srcc/printf.c:477
					schar = '+';
    a786:	232b      	movs	r3, #43	; 0x2b
    a788:	9318      	str	r3, [sp, #96]	; 0x60
F:\WorkSpace\AHL-GEC-EXP\Temp\LCD\Debug/srcc/printf.c:478
					++vlen;
    a78a:	9b1f      	ldr	r3, [sp, #124]	; 0x7c
    a78c:	3301      	adds	r3, #1
    a78e:	931f      	str	r3, [sp, #124]	; 0x7c
    a790:	e00b      	b.n	a7aa <printk+0x32e>
F:\WorkSpace\AHL-GEC-EXP\Temp\LCD\Debug/srcc/printf.c:481
				}
				else {
					if (IS_FLAG_SPACE(flags_used)) {
    a792:	9b1d      	ldr	r3, [sp, #116]	; 0x74
    a794:	2204      	movs	r2, #4
    a796:	4013      	ands	r3, r2
    a798:	d005      	beq.n	a7a6 <printk+0x32a>
F:\WorkSpace\AHL-GEC-EXP\Temp\LCD\Debug/srcc/printf.c:482
						schar = ' ';
    a79a:	2320      	movs	r3, #32
    a79c:	9318      	str	r3, [sp, #96]	; 0x60
F:\WorkSpace\AHL-GEC-EXP\Temp\LCD\Debug/srcc/printf.c:483
						++vlen;
    a79e:	9b1f      	ldr	r3, [sp, #124]	; 0x7c
    a7a0:	3301      	adds	r3, #1
    a7a2:	931f      	str	r3, [sp, #124]	; 0x7c
    a7a4:	e001      	b.n	a7aa <printk+0x32e>
F:\WorkSpace\AHL-GEC-EXP\Temp\LCD\Debug/srcc/printf.c:486
					}
					else {
						schar = 0;
    a7a6:	2300      	movs	r3, #0
    a7a8:	9318      	str	r3, [sp, #96]	; 0x60
F:\WorkSpace\AHL-GEC-EXP\Temp\LCD\Debug/srcc/printf.c:490
					}
				}
			}
			dschar = FALSE;
    a7aa:	2300      	movs	r3, #0
    a7ac:	9317      	str	r3, [sp, #92]	; 0x5c
F:\WorkSpace\AHL-GEC-EXP\Temp\LCD\Debug/srcc/printf.c:493

			//确定是否使用小数点精度数值
			if (precision_used)
    a7ae:	9b1a      	ldr	r3, [sp, #104]	; 0x68
    a7b0:	2b00      	cmp	r3, #0
    a7b2:	d00a      	beq.n	a7ca <printk+0x34e>
F:\WorkSpace\AHL-GEC-EXP\Temp\LCD\Debug/srcc/printf.c:496
			{
				//将整型转换成字符型保存在vstr中，返回字符数vlen
				vlen = printk_mkfloatstr(&fval, vstr, precision_width);
    a7b4:	9a19      	ldr	r2, [sp, #100]	; 0x64
    a7b6:	a90a      	add	r1, sp, #40	; 0x28
    a7b8:	ab06      	add	r3, sp, #24
    a7ba:	0018      	movs	r0, r3
    a7bc:	f7ff fc72 	bl	a0a4 <printk_mkfloatstr>
    a7c0:	0003      	movs	r3, r0
    a7c2:	931f      	str	r3, [sp, #124]	; 0x7c
F:\WorkSpace\AHL-GEC-EXP\Temp\LCD\Debug/srcc/printf.c:497
				vstrp = &vstr[0];  //指向转换后的第一个字符
    a7c4:	ab0a      	add	r3, sp, #40	; 0x28
    a7c6:	9320      	str	r3, [sp, #128]	; 0x80
    a7c8:	e017      	b.n	a7fa <printk+0x37e>
F:\WorkSpace\AHL-GEC-EXP\Temp\LCD\Debug/srcc/printf.c:501
			}
			else
			{	//浮点型精度到小数点后8位
				if (length_modifier == 0)
    a7ca:	9b1b      	ldr	r3, [sp, #108]	; 0x6c
    a7cc:	2b00      	cmp	r3, #0
    a7ce:	d10a      	bne.n	a7e6 <printk+0x36a>
F:\WorkSpace\AHL-GEC-EXP\Temp\LCD\Debug/srcc/printf.c:503
				{	//将整型转换成字符型保存在vstr中，返回字符数vlen
					vlen = printk_mkfloatstr(&fval, vstr, 8);
    a7d0:	a90a      	add	r1, sp, #40	; 0x28
    a7d2:	ab06      	add	r3, sp, #24
    a7d4:	2208      	movs	r2, #8
    a7d6:	0018      	movs	r0, r3
    a7d8:	f7ff fc64 	bl	a0a4 <printk_mkfloatstr>
    a7dc:	0003      	movs	r3, r0
    a7de:	931f      	str	r3, [sp, #124]	; 0x7c
F:\WorkSpace\AHL-GEC-EXP\Temp\LCD\Debug/srcc/printf.c:505
					//指向转换后的第一个字符
					vstrp = &vstr[0];
    a7e0:	ab0a      	add	r3, sp, #40	; 0x28
    a7e2:	9320      	str	r3, [sp, #128]	; 0x80
    a7e4:	e009      	b.n	a7fa <printk+0x37e>
F:\WorkSpace\AHL-GEC-EXP\Temp\LCD\Debug/srcc/printf.c:509
				}
				else
				{	//将整型转换成字符型保存在vstr中，返回字符数vlen
					vlen = printk_mkfloatstr(&fval, vstr, precision_width);
    a7e6:	9a19      	ldr	r2, [sp, #100]	; 0x64
    a7e8:	a90a      	add	r1, sp, #40	; 0x28
    a7ea:	ab06      	add	r3, sp, #24
    a7ec:	0018      	movs	r0, r3
    a7ee:	f7ff fc59 	bl	a0a4 <printk_mkfloatstr>
    a7f2:	0003      	movs	r3, r0
    a7f4:	931f      	str	r3, [sp, #124]	; 0x7c
F:\WorkSpace\AHL-GEC-EXP\Temp\LCD\Debug/srcc/printf.c:511
					//指向转换后的第一个字符
					vstrp = &vstr[0];
    a7f6:	ab0a      	add	r3, sp, #40	; 0x28
    a7f8:	9320      	str	r3, [sp, #128]	; 0x80
F:\WorkSpace\AHL-GEC-EXP\Temp\LCD\Debug/srcc/printf.c:521


			/*
			 * do the ZERO pad.
			 */
			if (IS_FLAG_ZERO(flags_used)) {
    a7fa:	9b1d      	ldr	r3, [sp, #116]	; 0x74
    a7fc:	2208      	movs	r2, #8
    a7fe:	4013      	ands	r3, r2
    a800:	d018      	beq.n	a834 <printk+0x3b8>
F:\WorkSpace\AHL-GEC-EXP\Temp\LCD\Debug/srcc/printf.c:522
				if (schar)
    a802:	9b18      	ldr	r3, [sp, #96]	; 0x60
    a804:	2b00      	cmp	r3, #0
    a806:	d005      	beq.n	a814 <printk+0x398>
F:\WorkSpace\AHL-GEC-EXP\Temp\LCD\Debug/srcc/printf.c:523
					printk_putc(schar, &count, info);  //输出符号
    a808:	9a03      	ldr	r2, [sp, #12]
    a80a:	a909      	add	r1, sp, #36	; 0x24
    a80c:	9b18      	ldr	r3, [sp, #96]	; 0x60
    a80e:	0018      	movs	r0, r3
    a810:	f7ff fc22 	bl	a058 <printk_putc>
F:\WorkSpace\AHL-GEC-EXP\Temp\LCD\Debug/srcc/printf.c:524
				dschar = TRUE;
    a814:	2301      	movs	r3, #1
    a816:	9317      	str	r3, [sp, #92]	; 0x5c
F:\WorkSpace\AHL-GEC-EXP\Temp\LCD\Debug/srcc/printf.c:525
				printk_pad_zero(vlen, field_width, &count, info);
    a818:	9b03      	ldr	r3, [sp, #12]
    a81a:	aa09      	add	r2, sp, #36	; 0x24
    a81c:	991c      	ldr	r1, [sp, #112]	; 0x70
    a81e:	981f      	ldr	r0, [sp, #124]	; 0x7c
    a820:	f7ff fdf8 	bl	a414 <printk_pad_zero>
F:\WorkSpace\AHL-GEC-EXP\Temp\LCD\Debug/srcc/printf.c:526
				vlen = field_width;
    a824:	9b1c      	ldr	r3, [sp, #112]	; 0x70
    a826:	931f      	str	r3, [sp, #124]	; 0x7c
    a828:	e019      	b.n	a85e <printk+0x3e2>
    a82a:	46c0      	nop			; (mov r8, r8)
    a82c:	0000b478 	.word	0x0000b478
    a830:	0000b4bc 	.word	0x0000b4bc
F:\WorkSpace\AHL-GEC-EXP\Temp\LCD\Debug/srcc/printf.c:529
			}
			else {
				if (!IS_FLAG_MINUS(flags_used)) {
    a834:	9b1d      	ldr	r3, [sp, #116]	; 0x74
    a836:	2201      	movs	r2, #1
    a838:	4013      	ands	r3, r2
    a83a:	d110      	bne.n	a85e <printk+0x3e2>
F:\WorkSpace\AHL-GEC-EXP\Temp\LCD\Debug/srcc/printf.c:530
					printk_pad_space(vlen, field_width, &count, info);  //输出空格
    a83c:	9b03      	ldr	r3, [sp, #12]
    a83e:	aa09      	add	r2, sp, #36	; 0x24
    a840:	991c      	ldr	r1, [sp, #112]	; 0x70
    a842:	981f      	ldr	r0, [sp, #124]	; 0x7c
    a844:	f7ff fe00 	bl	a448 <printk_pad_space>
F:\WorkSpace\AHL-GEC-EXP\Temp\LCD\Debug/srcc/printf.c:532

					if (schar)
    a848:	9b18      	ldr	r3, [sp, #96]	; 0x60
    a84a:	2b00      	cmp	r3, #0
    a84c:	d005      	beq.n	a85a <printk+0x3de>
F:\WorkSpace\AHL-GEC-EXP\Temp\LCD\Debug/srcc/printf.c:533
						printk_putc(schar, &count, info);
    a84e:	9a03      	ldr	r2, [sp, #12]
    a850:	a909      	add	r1, sp, #36	; 0x24
    a852:	9b18      	ldr	r3, [sp, #96]	; 0x60
    a854:	0018      	movs	r0, r3
    a856:	f7ff fbff 	bl	a058 <printk_putc>
F:\WorkSpace\AHL-GEC-EXP\Temp\LCD\Debug/srcc/printf.c:534
					dschar = TRUE;
    a85a:	2301      	movs	r3, #1
    a85c:	9317      	str	r3, [sp, #92]	; 0x5c
F:\WorkSpace\AHL-GEC-EXP\Temp\LCD\Debug/srcc/printf.c:540
				}
			}

			/* the string was built in reverse order, now display in */
			/* correct order */
			if (!dschar && schar) {
    a85e:	9b17      	ldr	r3, [sp, #92]	; 0x5c
    a860:	2b00      	cmp	r3, #0
    a862:	d114      	bne.n	a88e <printk+0x412>
F:\WorkSpace\AHL-GEC-EXP\Temp\LCD\Debug/srcc/printf.c:540 (discriminator 1)
    a864:	9b18      	ldr	r3, [sp, #96]	; 0x60
    a866:	2b00      	cmp	r3, #0
    a868:	d011      	beq.n	a88e <printk+0x412>
F:\WorkSpace\AHL-GEC-EXP\Temp\LCD\Debug/srcc/printf.c:541
				printk_putc(schar, &count, info);
    a86a:	9a03      	ldr	r2, [sp, #12]
    a86c:	a909      	add	r1, sp, #36	; 0x24
    a86e:	9b18      	ldr	r3, [sp, #96]	; 0x60
    a870:	0018      	movs	r0, r3
    a872:	f7ff fbf1 	bl	a058 <printk_putc>
F:\WorkSpace\AHL-GEC-EXP\Temp\LCD\Debug/srcc/printf.c:543
			}
			while (*vstrp)
    a876:	e00a      	b.n	a88e <printk+0x412>
F:\WorkSpace\AHL-GEC-EXP\Temp\LCD\Debug/srcc/printf.c:544
				printk_putc(*vstrp++, &count, info);
    a878:	9b20      	ldr	r3, [sp, #128]	; 0x80
    a87a:	1c5a      	adds	r2, r3, #1
    a87c:	9220      	str	r2, [sp, #128]	; 0x80
    a87e:	781b      	ldrb	r3, [r3, #0]
    a880:	b25b      	sxtb	r3, r3
    a882:	0018      	movs	r0, r3
    a884:	9a03      	ldr	r2, [sp, #12]
    a886:	ab09      	add	r3, sp, #36	; 0x24
    a888:	0019      	movs	r1, r3
    a88a:	f7ff fbe5 	bl	a058 <printk_putc>
F:\WorkSpace\AHL-GEC-EXP\Temp\LCD\Debug/srcc/printf.c:543
			while (*vstrp)
    a88e:	9b20      	ldr	r3, [sp, #128]	; 0x80
    a890:	781b      	ldrb	r3, [r3, #0]
    a892:	b25b      	sxtb	r3, r3
    a894:	2b00      	cmp	r3, #0
    a896:	d1ef      	bne.n	a878 <printk+0x3fc>
F:\WorkSpace\AHL-GEC-EXP\Temp\LCD\Debug/srcc/printf.c:545
			if (IS_FLAG_MINUS(flags_used)) {
    a898:	9b1d      	ldr	r3, [sp, #116]	; 0x74
    a89a:	2201      	movs	r2, #1
    a89c:	4013      	ands	r3, r2
    a89e:	d100      	bne.n	a8a2 <printk+0x426>
    a8a0:	e162      	b.n	ab68 <printk+0x6ec>
F:\WorkSpace\AHL-GEC-EXP\Temp\LCD\Debug/srcc/printf.c:546
				printk_pad_space(vlen, field_width, &count, info);
    a8a2:	9b03      	ldr	r3, [sp, #12]
    a8a4:	aa09      	add	r2, sp, #36	; 0x24
    a8a6:	991c      	ldr	r1, [sp, #112]	; 0x70
    a8a8:	981f      	ldr	r0, [sp, #124]	; 0x7c
    a8aa:	f7ff fdcd 	bl	a448 <printk_pad_space>
F:\WorkSpace\AHL-GEC-EXP\Temp\LCD\Debug/srcc/printf.c:548
			}
			break;
    a8ae:	e15b      	b.n	ab68 <printk+0x6ec>
F:\WorkSpace\AHL-GEC-EXP\Temp\LCD\Debug/srcc/printf.c:552
			//以下是16进制整形输出
		case 'x':
		case 'X':
			uval = (unsigned int)va_arg(ap, unsigned int);
    a8b0:	9b01      	ldr	r3, [sp, #4]
    a8b2:	3304      	adds	r3, #4
    a8b4:	9301      	str	r3, [sp, #4]
    a8b6:	9b01      	ldr	r3, [sp, #4]
    a8b8:	3b04      	subs	r3, #4
    a8ba:	681b      	ldr	r3, [r3, #0]
    a8bc:	9305      	str	r3, [sp, #20]
F:\WorkSpace\AHL-GEC-EXP\Temp\LCD\Debug/srcc/printf.c:553
			vlen = printk_mknumstr(vstr, &uval, FALSE, 16);
    a8be:	a905      	add	r1, sp, #20
    a8c0:	a80a      	add	r0, sp, #40	; 0x28
    a8c2:	2310      	movs	r3, #16
    a8c4:	2200      	movs	r2, #0
    a8c6:	f7ff fd29 	bl	a31c <printk_mknumstr>
    a8ca:	0003      	movs	r3, r0
    a8cc:	931f      	str	r3, [sp, #124]	; 0x7c
F:\WorkSpace\AHL-GEC-EXP\Temp\LCD\Debug/srcc/printf.c:554
			vstrp = &vstr[vlen];
    a8ce:	aa0a      	add	r2, sp, #40	; 0x28
    a8d0:	9b1f      	ldr	r3, [sp, #124]	; 0x7c
    a8d2:	18d3      	adds	r3, r2, r3
    a8d4:	9320      	str	r3, [sp, #128]	; 0x80
F:\WorkSpace\AHL-GEC-EXP\Temp\LCD\Debug/srcc/printf.c:556

			dschar = FALSE;
    a8d6:	2300      	movs	r3, #0
    a8d8:	9317      	str	r3, [sp, #92]	; 0x5c
F:\WorkSpace\AHL-GEC-EXP\Temp\LCD\Debug/srcc/printf.c:557
			if (IS_FLAG_ZERO(flags_used)) {
    a8da:	9b1d      	ldr	r3, [sp, #116]	; 0x74
    a8dc:	2208      	movs	r2, #8
    a8de:	4013      	ands	r3, r2
    a8e0:	d01a      	beq.n	a918 <printk+0x49c>
F:\WorkSpace\AHL-GEC-EXP\Temp\LCD\Debug/srcc/printf.c:558
				if (IS_FLAG_POUND(flags_used)) {
    a8e2:	9b1d      	ldr	r3, [sp, #116]	; 0x74
    a8e4:	2210      	movs	r2, #16
    a8e6:	4013      	ands	r3, r2
    a8e8:	d00d      	beq.n	a906 <printk+0x48a>
F:\WorkSpace\AHL-GEC-EXP\Temp\LCD\Debug/srcc/printf.c:559
					printk_putc('0', &count, info);
    a8ea:	9a03      	ldr	r2, [sp, #12]
    a8ec:	ab09      	add	r3, sp, #36	; 0x24
    a8ee:	0019      	movs	r1, r3
    a8f0:	2030      	movs	r0, #48	; 0x30
    a8f2:	f7ff fbb1 	bl	a058 <printk_putc>
F:\WorkSpace\AHL-GEC-EXP\Temp\LCD\Debug/srcc/printf.c:560
					printk_putc('x', &count, info);
    a8f6:	9a03      	ldr	r2, [sp, #12]
    a8f8:	ab09      	add	r3, sp, #36	; 0x24
    a8fa:	0019      	movs	r1, r3
    a8fc:	2078      	movs	r0, #120	; 0x78
    a8fe:	f7ff fbab 	bl	a058 <printk_putc>
F:\WorkSpace\AHL-GEC-EXP\Temp\LCD\Debug/srcc/printf.c:562
					/*vlen += 2;*/
					dschar = TRUE;
    a902:	2301      	movs	r3, #1
    a904:	9317      	str	r3, [sp, #92]	; 0x5c
F:\WorkSpace\AHL-GEC-EXP\Temp\LCD\Debug/srcc/printf.c:564
				}
				printk_pad_zero(vlen, field_width, &count, info);
    a906:	9b03      	ldr	r3, [sp, #12]
    a908:	aa09      	add	r2, sp, #36	; 0x24
    a90a:	991c      	ldr	r1, [sp, #112]	; 0x70
    a90c:	981f      	ldr	r0, [sp, #124]	; 0x7c
    a90e:	f7ff fd81 	bl	a414 <printk_pad_zero>
F:\WorkSpace\AHL-GEC-EXP\Temp\LCD\Debug/srcc/printf.c:565
				vlen = field_width;
    a912:	9b1c      	ldr	r3, [sp, #112]	; 0x70
    a914:	931f      	str	r3, [sp, #124]	; 0x7c
    a916:	e022      	b.n	a95e <printk+0x4e2>
F:\WorkSpace\AHL-GEC-EXP\Temp\LCD\Debug/srcc/printf.c:568
			}
			else {
				if (!IS_FLAG_MINUS(flags_used)) {
    a918:	9b1d      	ldr	r3, [sp, #116]	; 0x74
    a91a:	2201      	movs	r2, #1
    a91c:	4013      	ands	r3, r2
    a91e:	d11e      	bne.n	a95e <printk+0x4e2>
F:\WorkSpace\AHL-GEC-EXP\Temp\LCD\Debug/srcc/printf.c:569
					if (IS_FLAG_POUND(flags_used)) {
    a920:	9b1d      	ldr	r3, [sp, #116]	; 0x74
    a922:	2210      	movs	r2, #16
    a924:	4013      	ands	r3, r2
    a926:	d002      	beq.n	a92e <printk+0x4b2>
F:\WorkSpace\AHL-GEC-EXP\Temp\LCD\Debug/srcc/printf.c:570
						vlen += 2;
    a928:	9b1f      	ldr	r3, [sp, #124]	; 0x7c
    a92a:	3302      	adds	r3, #2
    a92c:	931f      	str	r3, [sp, #124]	; 0x7c
F:\WorkSpace\AHL-GEC-EXP\Temp\LCD\Debug/srcc/printf.c:572
					}
					printk_pad_space(vlen, field_width, &count, info);
    a92e:	9b03      	ldr	r3, [sp, #12]
    a930:	aa09      	add	r2, sp, #36	; 0x24
    a932:	991c      	ldr	r1, [sp, #112]	; 0x70
    a934:	981f      	ldr	r0, [sp, #124]	; 0x7c
    a936:	f7ff fd87 	bl	a448 <printk_pad_space>
F:\WorkSpace\AHL-GEC-EXP\Temp\LCD\Debug/srcc/printf.c:573
					if (IS_FLAG_POUND(flags_used)) {
    a93a:	9b1d      	ldr	r3, [sp, #116]	; 0x74
    a93c:	2210      	movs	r2, #16
    a93e:	4013      	ands	r3, r2
    a940:	d00d      	beq.n	a95e <printk+0x4e2>
F:\WorkSpace\AHL-GEC-EXP\Temp\LCD\Debug/srcc/printf.c:574
						printk_putc('0', &count, info);
    a942:	9a03      	ldr	r2, [sp, #12]
    a944:	ab09      	add	r3, sp, #36	; 0x24
    a946:	0019      	movs	r1, r3
    a948:	2030      	movs	r0, #48	; 0x30
    a94a:	f7ff fb85 	bl	a058 <printk_putc>
F:\WorkSpace\AHL-GEC-EXP\Temp\LCD\Debug/srcc/printf.c:575
						printk_putc('x', &count, info);
    a94e:	9a03      	ldr	r2, [sp, #12]
    a950:	ab09      	add	r3, sp, #36	; 0x24
    a952:	0019      	movs	r1, r3
    a954:	2078      	movs	r0, #120	; 0x78
    a956:	f7ff fb7f 	bl	a058 <printk_putc>
F:\WorkSpace\AHL-GEC-EXP\Temp\LCD\Debug/srcc/printf.c:576
						dschar = TRUE;
    a95a:	2301      	movs	r3, #1
    a95c:	9317      	str	r3, [sp, #92]	; 0x5c
F:\WorkSpace\AHL-GEC-EXP\Temp\LCD\Debug/srcc/printf.c:581
					}
				}
			}

			if ((IS_FLAG_POUND(flags_used)) && !dschar) {
    a95e:	9b1d      	ldr	r3, [sp, #116]	; 0x74
    a960:	2210      	movs	r2, #16
    a962:	4013      	ands	r3, r2
    a964:	d06f      	beq.n	aa46 <printk+0x5ca>
F:\WorkSpace\AHL-GEC-EXP\Temp\LCD\Debug/srcc/printf.c:581 (discriminator 1)
    a966:	9b17      	ldr	r3, [sp, #92]	; 0x5c
    a968:	2b00      	cmp	r3, #0
    a96a:	d16c      	bne.n	aa46 <printk+0x5ca>
F:\WorkSpace\AHL-GEC-EXP\Temp\LCD\Debug/srcc/printf.c:582
				printk_putc('0', &count, info);
    a96c:	9a03      	ldr	r2, [sp, #12]
    a96e:	ab09      	add	r3, sp, #36	; 0x24
    a970:	0019      	movs	r1, r3
    a972:	2030      	movs	r0, #48	; 0x30
    a974:	f7ff fb70 	bl	a058 <printk_putc>
F:\WorkSpace\AHL-GEC-EXP\Temp\LCD\Debug/srcc/printf.c:583
				printk_putc('x', &count, info);
    a978:	9a03      	ldr	r2, [sp, #12]
    a97a:	ab09      	add	r3, sp, #36	; 0x24
    a97c:	0019      	movs	r1, r3
    a97e:	2078      	movs	r0, #120	; 0x78
    a980:	f7ff fb6a 	bl	a058 <printk_putc>
F:\WorkSpace\AHL-GEC-EXP\Temp\LCD\Debug/srcc/printf.c:584
				vlen += 2;
    a984:	9b1f      	ldr	r3, [sp, #124]	; 0x7c
    a986:	3302      	adds	r3, #2
    a988:	931f      	str	r3, [sp, #124]	; 0x7c
F:\WorkSpace\AHL-GEC-EXP\Temp\LCD\Debug/srcc/printf.c:586
			}
			goto cont_xd;
    a98a:	e05c      	b.n	aa46 <printk+0x5ca>
F:\WorkSpace\AHL-GEC-EXP\Temp\LCD\Debug/srcc/printf.c:589
			//无符号以八进制表示的整数输出
		case 'o':
			uval = (unsigned int)va_arg(ap, unsigned int);
    a98c:	9b01      	ldr	r3, [sp, #4]
    a98e:	3304      	adds	r3, #4
    a990:	9301      	str	r3, [sp, #4]
    a992:	9b01      	ldr	r3, [sp, #4]
    a994:	3b04      	subs	r3, #4
    a996:	681b      	ldr	r3, [r3, #0]
    a998:	9305      	str	r3, [sp, #20]
F:\WorkSpace\AHL-GEC-EXP\Temp\LCD\Debug/srcc/printf.c:590
			vlen = printk_mknumstr(vstr, &uval, FALSE, 8);
    a99a:	a905      	add	r1, sp, #20
    a99c:	a80a      	add	r0, sp, #40	; 0x28
    a99e:	2308      	movs	r3, #8
    a9a0:	2200      	movs	r2, #0
    a9a2:	f7ff fcbb 	bl	a31c <printk_mknumstr>
    a9a6:	0003      	movs	r3, r0
    a9a8:	931f      	str	r3, [sp, #124]	; 0x7c
F:\WorkSpace\AHL-GEC-EXP\Temp\LCD\Debug/srcc/printf.c:591
			goto cont_u;
    a9aa:	e02e      	b.n	aa0a <printk+0x58e>
F:\WorkSpace\AHL-GEC-EXP\Temp\LCD\Debug/srcc/printf.c:594
			//二进制输出
		case 'b':
			uval = (unsigned int)va_arg(ap, unsigned int);
    a9ac:	9b01      	ldr	r3, [sp, #4]
    a9ae:	3304      	adds	r3, #4
    a9b0:	9301      	str	r3, [sp, #4]
    a9b2:	9b01      	ldr	r3, [sp, #4]
    a9b4:	3b04      	subs	r3, #4
    a9b6:	681b      	ldr	r3, [r3, #0]
    a9b8:	9305      	str	r3, [sp, #20]
F:\WorkSpace\AHL-GEC-EXP\Temp\LCD\Debug/srcc/printf.c:595
			vlen = printk_mknumstr(vstr, &uval, FALSE, 2);
    a9ba:	a905      	add	r1, sp, #20
    a9bc:	a80a      	add	r0, sp, #40	; 0x28
    a9be:	2302      	movs	r3, #2
    a9c0:	2200      	movs	r2, #0
    a9c2:	f7ff fcab 	bl	a31c <printk_mknumstr>
    a9c6:	0003      	movs	r3, r0
    a9c8:	931f      	str	r3, [sp, #124]	; 0x7c
F:\WorkSpace\AHL-GEC-EXP\Temp\LCD\Debug/srcc/printf.c:596
			goto cont_u;
    a9ca:	e01e      	b.n	aa0a <printk+0x58e>
F:\WorkSpace\AHL-GEC-EXP\Temp\LCD\Debug/srcc/printf.c:599
			//输出指针的值
		case 'p':
			uval = (unsigned int)va_arg(ap, void*);
    a9cc:	9b01      	ldr	r3, [sp, #4]
    a9ce:	3304      	adds	r3, #4
    a9d0:	9301      	str	r3, [sp, #4]
    a9d2:	9b01      	ldr	r3, [sp, #4]
    a9d4:	3b04      	subs	r3, #4
    a9d6:	681b      	ldr	r3, [r3, #0]
    a9d8:	9305      	str	r3, [sp, #20]
F:\WorkSpace\AHL-GEC-EXP\Temp\LCD\Debug/srcc/printf.c:600
			vlen = printk_mknumstr(vstr, &uval, FALSE, 16);
    a9da:	a905      	add	r1, sp, #20
    a9dc:	a80a      	add	r0, sp, #40	; 0x28
    a9de:	2310      	movs	r3, #16
    a9e0:	2200      	movs	r2, #0
    a9e2:	f7ff fc9b 	bl	a31c <printk_mknumstr>
    a9e6:	0003      	movs	r3, r0
    a9e8:	931f      	str	r3, [sp, #124]	; 0x7c
F:\WorkSpace\AHL-GEC-EXP\Temp\LCD\Debug/srcc/printf.c:601
			goto cont_u;
    a9ea:	e00e      	b.n	aa0a <printk+0x58e>
F:\WorkSpace\AHL-GEC-EXP\Temp\LCD\Debug/srcc/printf.c:603
		case 'u':
			uval = (unsigned int)va_arg(ap, unsigned int);
    a9ec:	9b01      	ldr	r3, [sp, #4]
    a9ee:	3304      	adds	r3, #4
    a9f0:	9301      	str	r3, [sp, #4]
    a9f2:	9b01      	ldr	r3, [sp, #4]
    a9f4:	3b04      	subs	r3, #4
    a9f6:	681b      	ldr	r3, [r3, #0]
    a9f8:	9305      	str	r3, [sp, #20]
F:\WorkSpace\AHL-GEC-EXP\Temp\LCD\Debug/srcc/printf.c:604
			vlen = printk_mknumstr(vstr, &uval, FALSE, 10);
    a9fa:	a905      	add	r1, sp, #20
    a9fc:	a80a      	add	r0, sp, #40	; 0x28
    a9fe:	230a      	movs	r3, #10
    aa00:	2200      	movs	r2, #0
    aa02:	f7ff fc8b 	bl	a31c <printk_mknumstr>
    aa06:	0003      	movs	r3, r0
    aa08:	931f      	str	r3, [sp, #124]	; 0x7c
F:\WorkSpace\AHL-GEC-EXP\Temp\LCD\Debug/srcc/printf.c:606

			cont_u: vstrp = &vstr[vlen];
    aa0a:	aa0a      	add	r2, sp, #40	; 0x28
    aa0c:	9b1f      	ldr	r3, [sp, #124]	; 0x7c
    aa0e:	18d3      	adds	r3, r2, r3
    aa10:	9320      	str	r3, [sp, #128]	; 0x80
F:\WorkSpace\AHL-GEC-EXP\Temp\LCD\Debug/srcc/printf.c:608

			if (IS_FLAG_ZERO(flags_used)) {
    aa12:	9b1d      	ldr	r3, [sp, #116]	; 0x74
    aa14:	2208      	movs	r2, #8
    aa16:	4013      	ands	r3, r2
    aa18:	d008      	beq.n	aa2c <printk+0x5b0>
F:\WorkSpace\AHL-GEC-EXP\Temp\LCD\Debug/srcc/printf.c:609
				printk_pad_zero(vlen, field_width, &count, info);
    aa1a:	9b03      	ldr	r3, [sp, #12]
    aa1c:	aa09      	add	r2, sp, #36	; 0x24
    aa1e:	991c      	ldr	r1, [sp, #112]	; 0x70
    aa20:	981f      	ldr	r0, [sp, #124]	; 0x7c
    aa22:	f7ff fcf7 	bl	a414 <printk_pad_zero>
F:\WorkSpace\AHL-GEC-EXP\Temp\LCD\Debug/srcc/printf.c:610
				vlen = field_width;
    aa26:	9b1c      	ldr	r3, [sp, #112]	; 0x70
    aa28:	931f      	str	r3, [sp, #124]	; 0x7c
    aa2a:	e01b      	b.n	aa64 <printk+0x5e8>
F:\WorkSpace\AHL-GEC-EXP\Temp\LCD\Debug/srcc/printf.c:613
			}
			else {
				if (!IS_FLAG_MINUS(flags_used)) {
    aa2c:	9b1d      	ldr	r3, [sp, #116]	; 0x74
    aa2e:	2201      	movs	r2, #1
    aa30:	4013      	ands	r3, r2
    aa32:	d10a      	bne.n	aa4a <printk+0x5ce>
F:\WorkSpace\AHL-GEC-EXP\Temp\LCD\Debug/srcc/printf.c:614
					printk_pad_space(vlen, field_width, &count, info);
    aa34:	9b03      	ldr	r3, [sp, #12]
    aa36:	aa09      	add	r2, sp, #36	; 0x24
    aa38:	991c      	ldr	r1, [sp, #112]	; 0x70
    aa3a:	981f      	ldr	r0, [sp, #124]	; 0x7c
    aa3c:	f7ff fd04 	bl	a448 <printk_pad_space>
    aa40:	e010      	b.n	aa64 <printk+0x5e8>
F:\WorkSpace\AHL-GEC-EXP\Temp\LCD\Debug/srcc/printf.c:453
			goto cont_xd;  //开始跳转
    aa42:	46c0      	nop			; (mov r8, r8)
    aa44:	e00e      	b.n	aa64 <printk+0x5e8>
F:\WorkSpace\AHL-GEC-EXP\Temp\LCD\Debug/srcc/printf.c:586
			goto cont_xd;
    aa46:	46c0      	nop			; (mov r8, r8)
    aa48:	e00c      	b.n	aa64 <printk+0x5e8>
F:\WorkSpace\AHL-GEC-EXP\Temp\LCD\Debug/srcc/printf.c:618
				}
			}

			cont_xd: while (*vstrp)
    aa4a:	46c0      	nop			; (mov r8, r8)
    aa4c:	e00a      	b.n	aa64 <printk+0x5e8>
F:\WorkSpace\AHL-GEC-EXP\Temp\LCD\Debug/srcc/printf.c:619
				printk_putc(*vstrp--, &count, info);
    aa4e:	9b20      	ldr	r3, [sp, #128]	; 0x80
    aa50:	1e5a      	subs	r2, r3, #1
    aa52:	9220      	str	r2, [sp, #128]	; 0x80
    aa54:	781b      	ldrb	r3, [r3, #0]
    aa56:	b25b      	sxtb	r3, r3
    aa58:	0018      	movs	r0, r3
    aa5a:	9a03      	ldr	r2, [sp, #12]
    aa5c:	ab09      	add	r3, sp, #36	; 0x24
    aa5e:	0019      	movs	r1, r3
    aa60:	f7ff fafa 	bl	a058 <printk_putc>
F:\WorkSpace\AHL-GEC-EXP\Temp\LCD\Debug/srcc/printf.c:618 (discriminator 1)
			cont_xd: while (*vstrp)
    aa64:	9b20      	ldr	r3, [sp, #128]	; 0x80
    aa66:	781b      	ldrb	r3, [r3, #0]
    aa68:	b25b      	sxtb	r3, r3
    aa6a:	2b00      	cmp	r3, #0
    aa6c:	d1ef      	bne.n	aa4e <printk+0x5d2>
F:\WorkSpace\AHL-GEC-EXP\Temp\LCD\Debug/srcc/printf.c:621

			if (IS_FLAG_MINUS(flags_used)) {
    aa6e:	9b1d      	ldr	r3, [sp, #116]	; 0x74
    aa70:	2201      	movs	r2, #1
    aa72:	4013      	ands	r3, r2
    aa74:	d100      	bne.n	aa78 <printk+0x5fc>
    aa76:	e079      	b.n	ab6c <printk+0x6f0>
F:\WorkSpace\AHL-GEC-EXP\Temp\LCD\Debug/srcc/printf.c:622
				printk_pad_space(vlen, field_width, &count, info);
    aa78:	9b03      	ldr	r3, [sp, #12]
    aa7a:	aa09      	add	r2, sp, #36	; 0x24
    aa7c:	991c      	ldr	r1, [sp, #112]	; 0x70
    aa7e:	981f      	ldr	r0, [sp, #124]	; 0x7c
    aa80:	f7ff fce2 	bl	a448 <printk_pad_space>
F:\WorkSpace\AHL-GEC-EXP\Temp\LCD\Debug/srcc/printf.c:625
			}

			break;
    aa84:	e072      	b.n	ab6c <printk+0x6f0>
F:\WorkSpace\AHL-GEC-EXP\Temp\LCD\Debug/srcc/printf.c:628
			//字符型输出
		case 'c':
			cval = (char)va_arg(ap, unsigned int);
    aa86:	9b01      	ldr	r3, [sp, #4]
    aa88:	3304      	adds	r3, #4
    aa8a:	9301      	str	r3, [sp, #4]
    aa8c:	9b01      	ldr	r3, [sp, #4]
    aa8e:	3b04      	subs	r3, #4
    aa90:	681b      	ldr	r3, [r3, #0]
    aa92:	b25b      	sxtb	r3, r3
    aa94:	9313      	str	r3, [sp, #76]	; 0x4c
F:\WorkSpace\AHL-GEC-EXP\Temp\LCD\Debug/srcc/printf.c:629
			printk_putc(cval, &count, info);
    aa96:	9a03      	ldr	r2, [sp, #12]
    aa98:	a909      	add	r1, sp, #36	; 0x24
    aa9a:	9b13      	ldr	r3, [sp, #76]	; 0x4c
    aa9c:	0018      	movs	r0, r3
    aa9e:	f7ff fadb 	bl	a058 <printk_putc>
F:\WorkSpace\AHL-GEC-EXP\Temp\LCD\Debug/srcc/printf.c:630
			break;
    aaa2:	e066      	b.n	ab72 <printk+0x6f6>
F:\WorkSpace\AHL-GEC-EXP\Temp\LCD\Debug/srcc/printf.c:632
		case 's':
			sval = (char*)va_arg(ap, char*);
    aaa4:	9b01      	ldr	r3, [sp, #4]
    aaa6:	3304      	adds	r3, #4
    aaa8:	9301      	str	r3, [sp, #4]
    aaaa:	9b01      	ldr	r3, [sp, #4]
    aaac:	3b04      	subs	r3, #4
    aaae:	681b      	ldr	r3, [r3, #0]
    aab0:	9316      	str	r3, [sp, #88]	; 0x58
F:\WorkSpace\AHL-GEC-EXP\Temp\LCD\Debug/srcc/printf.c:633
			if (sval) {
    aab2:	9b16      	ldr	r3, [sp, #88]	; 0x58
    aab4:	2b00      	cmp	r3, #0
    aab6:	d05b      	beq.n	ab70 <printk+0x6f4>
F:\WorkSpace\AHL-GEC-EXP\Temp\LCD\Debug/srcc/printf.c:634
				vlen = strlen(sval);
    aab8:	9b16      	ldr	r3, [sp, #88]	; 0x58
    aaba:	0018      	movs	r0, r3
    aabc:	f7fd fb72 	bl	81a4 <strlen>
    aac0:	0003      	movs	r3, r0
    aac2:	931f      	str	r3, [sp, #124]	; 0x7c
F:\WorkSpace\AHL-GEC-EXP\Temp\LCD\Debug/srcc/printf.c:635
				if (!IS_FLAG_MINUS(flags_used)) {
    aac4:	9b1d      	ldr	r3, [sp, #116]	; 0x74
    aac6:	2201      	movs	r2, #1
    aac8:	4013      	ands	r3, r2
    aaca:	d105      	bne.n	aad8 <printk+0x65c>
F:\WorkSpace\AHL-GEC-EXP\Temp\LCD\Debug/srcc/printf.c:636
					printk_pad_space(vlen, field_width, &count, info);
    aacc:	9b03      	ldr	r3, [sp, #12]
    aace:	aa09      	add	r2, sp, #36	; 0x24
    aad0:	991c      	ldr	r1, [sp, #112]	; 0x70
    aad2:	981f      	ldr	r0, [sp, #124]	; 0x7c
    aad4:	f7ff fcb8 	bl	a448 <printk_pad_space>
F:\WorkSpace\AHL-GEC-EXP\Temp\LCD\Debug/srcc/printf.c:638
				}
				if (precision_width != 0)
    aad8:	9b19      	ldr	r3, [sp, #100]	; 0x64
    aada:	2b00      	cmp	r3, #0
    aadc:	d022      	beq.n	ab24 <printk+0x6a8>
F:\WorkSpace\AHL-GEC-EXP\Temp\LCD\Debug/srcc/printf.c:640
				{
					while (*sval)
    aade:	e010      	b.n	ab02 <printk+0x686>
F:\WorkSpace\AHL-GEC-EXP\Temp\LCD\Debug/srcc/printf.c:642
					{
						if (precision_width >= 1)
    aae0:	9b19      	ldr	r3, [sp, #100]	; 0x64
    aae2:	2b00      	cmp	r3, #0
    aae4:	dd0d      	ble.n	ab02 <printk+0x686>
F:\WorkSpace\AHL-GEC-EXP\Temp\LCD\Debug/srcc/printf.c:644
						{
							precision_width--;
    aae6:	9b19      	ldr	r3, [sp, #100]	; 0x64
    aae8:	3b01      	subs	r3, #1
    aaea:	9319      	str	r3, [sp, #100]	; 0x64
F:\WorkSpace\AHL-GEC-EXP\Temp\LCD\Debug/srcc/printf.c:645
							printk_putc(*sval++, &count, info);
    aaec:	9b16      	ldr	r3, [sp, #88]	; 0x58
    aaee:	1c5a      	adds	r2, r3, #1
    aaf0:	9216      	str	r2, [sp, #88]	; 0x58
    aaf2:	781b      	ldrb	r3, [r3, #0]
    aaf4:	b25b      	sxtb	r3, r3
    aaf6:	0018      	movs	r0, r3
    aaf8:	9a03      	ldr	r2, [sp, #12]
    aafa:	ab09      	add	r3, sp, #36	; 0x24
    aafc:	0019      	movs	r1, r3
    aafe:	f7ff faab 	bl	a058 <printk_putc>
F:\WorkSpace\AHL-GEC-EXP\Temp\LCD\Debug/srcc/printf.c:640
					while (*sval)
    ab02:	9b16      	ldr	r3, [sp, #88]	; 0x58
    ab04:	781b      	ldrb	r3, [r3, #0]
    ab06:	b25b      	sxtb	r3, r3
    ab08:	2b00      	cmp	r3, #0
    ab0a:	d1e9      	bne.n	aae0 <printk+0x664>
    ab0c:	e00f      	b.n	ab2e <printk+0x6b2>
F:\WorkSpace\AHL-GEC-EXP\Temp\LCD\Debug/srcc/printf.c:652
					}
				}
				else    //precision_width=0情况
				{
					while (*sval)
						printk_putc(*sval++, &count, info);
    ab0e:	9b16      	ldr	r3, [sp, #88]	; 0x58
    ab10:	1c5a      	adds	r2, r3, #1
    ab12:	9216      	str	r2, [sp, #88]	; 0x58
    ab14:	781b      	ldrb	r3, [r3, #0]
    ab16:	b25b      	sxtb	r3, r3
    ab18:	0018      	movs	r0, r3
    ab1a:	9a03      	ldr	r2, [sp, #12]
    ab1c:	ab09      	add	r3, sp, #36	; 0x24
    ab1e:	0019      	movs	r1, r3
    ab20:	f7ff fa9a 	bl	a058 <printk_putc>
F:\WorkSpace\AHL-GEC-EXP\Temp\LCD\Debug/srcc/printf.c:651
					while (*sval)
    ab24:	9b16      	ldr	r3, [sp, #88]	; 0x58
    ab26:	781b      	ldrb	r3, [r3, #0]
    ab28:	b25b      	sxtb	r3, r3
    ab2a:	2b00      	cmp	r3, #0
    ab2c:	d1ef      	bne.n	ab0e <printk+0x692>
F:\WorkSpace\AHL-GEC-EXP\Temp\LCD\Debug/srcc/printf.c:654
				}
				if (IS_FLAG_MINUS(flags_used)) {
    ab2e:	9b1d      	ldr	r3, [sp, #116]	; 0x74
    ab30:	2201      	movs	r2, #1
    ab32:	4013      	ands	r3, r2
    ab34:	d01c      	beq.n	ab70 <printk+0x6f4>
F:\WorkSpace\AHL-GEC-EXP\Temp\LCD\Debug/srcc/printf.c:655
					printk_pad_space(vlen, field_width, &count, info);
    ab36:	9b03      	ldr	r3, [sp, #12]
    ab38:	aa09      	add	r2, sp, #36	; 0x24
    ab3a:	991c      	ldr	r1, [sp, #112]	; 0x70
    ab3c:	981f      	ldr	r0, [sp, #124]	; 0x7c
    ab3e:	f7ff fc83 	bl	a448 <printk_pad_space>
F:\WorkSpace\AHL-GEC-EXP\Temp\LCD\Debug/srcc/printf.c:658
				}
			}
			break;
    ab42:	e015      	b.n	ab70 <printk+0x6f4>
F:\WorkSpace\AHL-GEC-EXP\Temp\LCD\Debug/srcc/printf.c:660
		case 'n':
			ivalp = (int*)va_arg(ap, int*);
    ab44:	9b01      	ldr	r3, [sp, #4]
    ab46:	3304      	adds	r3, #4
    ab48:	9301      	str	r3, [sp, #4]
    ab4a:	9b01      	ldr	r3, [sp, #4]
    ab4c:	3b04      	subs	r3, #4
    ab4e:	681b      	ldr	r3, [r3, #0]
    ab50:	9314      	str	r3, [sp, #80]	; 0x50
F:\WorkSpace\AHL-GEC-EXP\Temp\LCD\Debug/srcc/printf.c:661
			*ivalp = count;
    ab52:	9a09      	ldr	r2, [sp, #36]	; 0x24
    ab54:	9b14      	ldr	r3, [sp, #80]	; 0x50
    ab56:	601a      	str	r2, [r3, #0]
F:\WorkSpace\AHL-GEC-EXP\Temp\LCD\Debug/srcc/printf.c:662
			break;
    ab58:	e00b      	b.n	ab72 <printk+0x6f6>
F:\WorkSpace\AHL-GEC-EXP\Temp\LCD\Debug/srcc/printf.c:665

		default:
			printk_putc(c, &count, info);
    ab5a:	9a03      	ldr	r2, [sp, #12]
    ab5c:	a909      	add	r1, sp, #36	; 0x24
    ab5e:	9b15      	ldr	r3, [sp, #84]	; 0x54
    ab60:	0018      	movs	r0, r3
    ab62:	f7ff fa79 	bl	a058 <printk_putc>
F:\WorkSpace\AHL-GEC-EXP\Temp\LCD\Debug/srcc/printf.c:666
			break;
    ab66:	e004      	b.n	ab72 <printk+0x6f6>
F:\WorkSpace\AHL-GEC-EXP\Temp\LCD\Debug/srcc/printf.c:548
			break;
    ab68:	46c0      	nop			; (mov r8, r8)
    ab6a:	e002      	b.n	ab72 <printk+0x6f6>
F:\WorkSpace\AHL-GEC-EXP\Temp\LCD\Debug/srcc/printf.c:625
			break;
    ab6c:	46c0      	nop			; (mov r8, r8)
    ab6e:	e000      	b.n	ab72 <printk+0x6f6>
F:\WorkSpace\AHL-GEC-EXP\Temp\LCD\Debug/srcc/printf.c:658
			break;
    ab70:	46c0      	nop			; (mov r8, r8)
F:\WorkSpace\AHL-GEC-EXP\Temp\LCD\Debug/srcc/printf.c:257 (discriminator 2)
	for (p = (char*)fmt; (c = *p) != 0; p++)
    ab72:	9b21      	ldr	r3, [sp, #132]	; 0x84
    ab74:	3301      	adds	r3, #1
    ab76:	9321      	str	r3, [sp, #132]	; 0x84
F:\WorkSpace\AHL-GEC-EXP\Temp\LCD\Debug/srcc/printf.c:257 (discriminator 1)
    ab78:	9b21      	ldr	r3, [sp, #132]	; 0x84
    ab7a:	781b      	ldrb	r3, [r3, #0]
    ab7c:	b25b      	sxtb	r3, r3
    ab7e:	9315      	str	r3, [sp, #84]	; 0x54
    ab80:	9b15      	ldr	r3, [sp, #84]	; 0x54
    ab82:	2b00      	cmp	r3, #0
    ab84:	d000      	beq.n	ab88 <printk+0x70c>
    ab86:	e491      	b.n	a4ac <printk+0x30>
F:\WorkSpace\AHL-GEC-EXP\Temp\LCD\Debug/srcc/printf.c:669
		}
	}
	return count;
    ab88:	9b09      	ldr	r3, [sp, #36]	; 0x24
F:\WorkSpace\AHL-GEC-EXP\Temp\LCD\Debug/srcc/printf.c:670
}
    ab8a:	0018      	movs	r0, r3
    ab8c:	b023      	add	sp, #140	; 0x8c
    ab8e:	bd30      	pop	{r4, r5, pc}

0000ab90 <myprintf>:
myprintf():
F:\WorkSpace\AHL-GEC-EXP\Temp\LCD\Debug/srcc/printf.c:678
//参数说明：const char *:打印参数字符串：对输入的字符串进行解析并按格式输出
//       例如： printf("c=%c\n",c); 将c按char型进行输出
//函数返回：字符串长度
//======================================================================
int myprintf(const char* fmt, ...)
{
    ab90:	b40f      	push	{r0, r1, r2, r3}
    ab92:	b500      	push	{lr}
    ab94:	b087      	sub	sp, #28
F:\WorkSpace\AHL-GEC-EXP\Temp\LCD\Debug/srcc/printf.c:682
	char* ap;
	int rvalue;
	PRINTK_INFO info;
	info.dest = DEST_CONSOLE;  //宏定义为1
    ab96:	ab01      	add	r3, sp, #4
    ab98:	2201      	movs	r2, #1
    ab9a:	601a      	str	r2, [r3, #0]
F:\WorkSpace\AHL-GEC-EXP\Temp\LCD\Debug/srcc/printf.c:683
	info.func = &out_char;     //调用的串口输出函数
    ab9c:	ab01      	add	r3, sp, #4
    ab9e:	4a0a      	ldr	r2, [pc, #40]	; (abc8 <myprintf+0x38>)
    aba0:	605a      	str	r2, [r3, #4]
F:\WorkSpace\AHL-GEC-EXP\Temp\LCD\Debug/srcc/printf.c:685
	//对ap 进行初始化，让它指向可变参数表里面的第一个参数
	va_start(ap, fmt);
    aba2:	ab09      	add	r3, sp, #36	; 0x24
    aba4:	9305      	str	r3, [sp, #20]
F:\WorkSpace\AHL-GEC-EXP\Temp\LCD\Debug/srcc/printf.c:686
	rvalue = printk(&info, fmt, ap);
    aba6:	9908      	ldr	r1, [sp, #32]
    aba8:	9a05      	ldr	r2, [sp, #20]
    abaa:	ab01      	add	r3, sp, #4
    abac:	0018      	movs	r0, r3
    abae:	f7ff fc65 	bl	a47c <printk>
    abb2:	0003      	movs	r3, r0
    abb4:	9304      	str	r3, [sp, #16]
F:\WorkSpace\AHL-GEC-EXP\Temp\LCD\Debug/srcc/printf.c:688

	va_end(ap);
    abb6:	2300      	movs	r3, #0
    abb8:	9305      	str	r3, [sp, #20]
F:\WorkSpace\AHL-GEC-EXP\Temp\LCD\Debug/srcc/printf.c:690

	return rvalue;
    abba:	9b04      	ldr	r3, [sp, #16]
F:\WorkSpace\AHL-GEC-EXP\Temp\LCD\Debug/srcc/printf.c:691
}
    abbc:	0018      	movs	r0, r3
    abbe:	b007      	add	sp, #28
    abc0:	bc08      	pop	{r3}
    abc2:	b004      	add	sp, #16
    abc4:	4718      	bx	r3
    abc6:	46c0      	nop			; (mov r8, r8)
    abc8:	0000a039 	.word	0x0000a039

0000abcc <memcpy>:
memcpy():
    abcc:	2300      	movs	r3, #0
    abce:	b510      	push	{r4, lr}
    abd0:	429a      	cmp	r2, r3
    abd2:	d100      	bne.n	abd6 <memcpy+0xa>
    abd4:	bd10      	pop	{r4, pc}
    abd6:	5ccc      	ldrb	r4, [r1, r3]
    abd8:	54c4      	strb	r4, [r0, r3]
    abda:	3301      	adds	r3, #1
    abdc:	e7f8      	b.n	abd0 <memcpy+0x4>

0000abde <memset>:
memset():
    abde:	0003      	movs	r3, r0
    abe0:	1882      	adds	r2, r0, r2
    abe2:	4293      	cmp	r3, r2
    abe4:	d100      	bne.n	abe8 <memset+0xa>
    abe6:	4770      	bx	lr
    abe8:	7019      	strb	r1, [r3, #0]
    abea:	3301      	adds	r3, #1
    abec:	e7f9      	b.n	abe2 <memset+0x4>
    abee:	0000      	movs	r0, r0
    abf0:	6c6c6548 	.word	0x6c6c6548
    abf4:	77202c6f 	.word	0x77202c6f
    abf8:	646c726f 	.word	0x646c726f
    abfc:	00000000 	.word	0x00000000
    ac00:	fac1c5d5 	.word	0xfac1c5d5
    ac04:	0000fecd 	.word	0x0000fecd
    ac08:	b6d2efc7 	.word	0xb6d2efc7
    ac0c:	a3bdc0d2 	.word	0xa3bdc0d2
    ac10:	00000000 	.word	0x00000000
    ac14:	6c696146 	.word	0x6c696146
    ac18:	206f7420 	.word	0x206f7420
    ac1c:	74696e69 	.word	0x74696e69
    ac20:	726f7020 	.word	0x726f7020
    ac24:	6e692074 	.word	0x6e692074
    ac28:	75726574 	.word	0x75726574
    ac2c:	a1a37470 	.word	0xa1a37470
    ac30:	a1a3a1a3 	.word	0xa1a3a1a3
    ac34:	0000000a 	.word	0x0000000a
    ac38:	61656c50 	.word	0x61656c50
    ac3c:	73206573 	.word	0x73206573
    ac40:	63656c65 	.word	0x63656c65
    ac44:	72612074 	.word	0x72612074
    ac48:	646e756f 	.word	0x646e756f
    ac4c:	726f5020 	.word	0x726f5020
    ac50:	20412074 	.word	0x20412074
    ac54:	4320726f 	.word	0x4320726f
    ac58:	20726f20 	.word	0x20726f20
    ac5c:	00000a44 	.word	0x00000a44
    ac60:	33323130 	.word	0x33323130
    ac64:	37363534 	.word	0x37363534
    ac68:	42413938 	.word	0x42413938
    ac6c:	46454443 	.word	0x46454443
    ac70:	30323032 	.word	0x30323032
    ac74:	36313730 	.word	0x36313730
    ac78:	00000000 	.word	0x00000000
    ac7c:	bea12020 	.word	0xbea12020
    ac80:	72657355 	.word	0x72657355
    ac84:	becae1cc 	.word	0xbecae1cc
    ac88:	baa3bfa1 	.word	0xbaa3bfa1
    ac8c:	f8bdabbd 	.word	0xf8bdabbd
    ac90:	7355ebc8 	.word	0x7355ebc8
    ac94:	c4b57265 	.word	0xc4b57265
    ac98:	6e69616d 	.word	0x6e69616d
    ac9c:	b4d62928 	.word	0xb4d62928
    aca0:	2e2ed0d0 	.word	0x2e2ed0d0
    aca4:	000a0d2e 	.word	0x000a0d2e
    aca8:	6e654c67 	.word	0x6e654c67
    acac:	203a6874 	.word	0x203a6874
    acb0:	000a6425 	.word	0x000a6425
    acb4:	00007630 	.word	0x00007630
    acb8:	0000755e 	.word	0x0000755e
    acbc:	0000755e 	.word	0x0000755e
    acc0:	0000755a 	.word	0x0000755a
    acc4:	00007564 	.word	0x00007564
    acc8:	00007564 	.word	0x00007564
    accc:	00007850 	.word	0x00007850
    acd0:	0000755a 	.word	0x0000755a
    acd4:	00007564 	.word	0x00007564
    acd8:	00007850 	.word	0x00007850
    acdc:	00007564 	.word	0x00007564
    ace0:	0000755a 	.word	0x0000755a
    ace4:	000077ee 	.word	0x000077ee
    ace8:	000077ee 	.word	0x000077ee
    acec:	000077ee 	.word	0x000077ee
    acf0:	000078ba 	.word	0x000078ba

0000acf4 <PORT_ARR>:
    acf4:	40049000 4004a000 4004b000 4004c000     ...@...@...@...@
    ad04:	4004d000                                ...@

0000ad08 <GPIO_ARR>:
    ad08:	400ff000 400ff040 400ff080 400ff0c0     ...@@..@...@...@
    ad18:	400ff100                                ...@

0000ad1c <UART_ARR>:
    ad1c:	4006b000 4006c000                       ...@...@

0000ad24 <nAsciiDot>:
	...
    ad34:	3c180000 18183c3c 18180018 00000000     ...<<<..........
    ad44:	66666600 00000024 00000000 00000000     .fff$...........
    ad54:	36000000 36367f36 36367f36 00000000     ...66.666.66....
    ad64:	633e1818 603e0343 183e6361 00000018     ..>cC.>`ac>.....
    ad74:	00000000 18306343 6163060c 00000000     ....Cc0...ca....
    ad84:	361c0000 3b6e1c36 6e333333 00000000     ...66.n;333n....
    ad94:	0c0c0c00 00000006 00000000 00000000     ................
    ada4:	18300000 0c0c0c0c 30180c0c 00000000     ..0........0....
    adb4:	180c0000 30303030 0c183030 00000000     ....000000......
    adc4:	00000000 ff3c6600 0000663c 00000000     .....f<.<f......
    add4:	00000000 7e181800 00001818 00000000     .......~........
	...
    adec:	18181800 0000000c 00000000 7f000000     ................
	...
    ae0c:	18180000 00000000 00000000 18306040     ............@`0.
    ae1c:	0103060c 00000000 633e0000 6b6b7363     ..........>ccskk
    ae2c:	3e636367 00000000 1c180000 1818181e     gcc>............
    ae3c:	7e181818 00000000 633e0000 0c183060     ...~......>c`0..
    ae4c:	7f630306 00000000 633e0000 603c6060     ..c.......>c``<`
    ae5c:	3e636060 00000000 38300000 7f33363c     ``c>......08<63.
    ae6c:	78303030 00000000 037f0000 703f0303     000x..........?p
    ae7c:	3e636060 00000000 061c0000 633f0303     ``c>..........?c
    ae8c:	3e636363 00000000 637f0000 18306060     ccc>.......c``0.
    ae9c:	0c0c0c0c 00000000 633e0000 633e6363     ..........>ccc>c
    aeac:	3e636363 00000000 633e0000 607e6363     ccc>......>ccc~`
    aebc:	1e306060 00000000 00000000 00001818     ``0.............
    aecc:	00181800 00000000 00000000 00001818     ................
    aedc:	0c181800 00000000 60000000 060c1830     ...........`0...
    aeec:	6030180c 00000000 00000000 007f0000     ..0`............
    aefc:	00007f00 00000000 06000000 6030180c     ..............0`
    af0c:	060c1830 00000000 633e0000 18183063     0.........>cc0..
    af1c:	18180018 00000000 3e000000 7b7b6363     ...........>cc{{
    af2c:	3e033b7b 00000000 1c080000 7f636336     {;.>........6cc.
    af3c:	63636363 00000000 663f0000 663e6666     cccc......?fff>f
    af4c:	3f666666 00000000 663c0000 03030343     fff?......<fC...
    af5c:	3c664303 00000000 361f0000 66666666     .Cf<.......6ffff
    af6c:	1f366666 00000000 667f0000 161e1646     ff6........fF...
    af7c:	7f664606 00000000 667f0000 161e1646     .Ff........fF...
    af8c:	0f060606 00000000 663c0000 7b030343     ..........<fC..{
    af9c:	5c666363 00000000 63630000 637f6363     ccf\......cccc.c
    afac:	63636363 00000000 183c0000 18181818     cccc......<.....
    afbc:	3c181818 00000000 30780000 30303030     ...<......x00000
    afcc:	1e333333 00000000 66670000 1e1e3636     333.......gf66..
    afdc:	67666636 00000000 060f0000 06060606     6ffg............
    afec:	7f664606 00000000 77630000 636b7f7f     .Ff.......cw..kc
    affc:	63636363 00000000 67630000 737b7f6f     cccc......cgo.{s
    b00c:	63636363 00000000 361c0000 63636363     cccc.......6cccc
    b01c:	1c366363 00000000 663f0000 063e6666     cc6.......?fff>.
    b02c:	0f060606 00000000 633e0000 63636363     ..........>ccccc
    b03c:	3e7b6b63 00007030 663f0000 363e6666     ck{>0p....?fff>6
    b04c:	67666666 00000000 633e0000 301c0663     fffg......>cc..0
    b05c:	3e636360 00000000 7e7e0000 1818185a     `cc>......~~Z...
    b06c:	3c181818 00000000 63630000 63636363     ...<......cccccc
    b07c:	3e636363 00000000 63630000 63636363     ccc>......cccccc
    b08c:	081c3663 00000000 63630000 6b636363     c6........ccccck
    b09c:	36367f6b 00000000 63630000 1c1c3636     k.66......cc66..
    b0ac:	63633636 00000000 66660000 183c6666     66cc......ffff<.
    b0bc:	3c181818 00000000 637f0000 0c183061     ...<.......ca0..
    b0cc:	7f634306 00000000 0c3c0000 0c0c0c0c     .Cc.......<.....
    b0dc:	3c0c0c0c 00000000 01000000 1c0e0703     ...<............
    b0ec:	40607038 00000000 303c0000 30303030     8p`@......<00000
    b0fc:	3c303030 00000000 63361c08 00000000     000<......6c....
	...
    b120:	0000ff00 00180c0c 00000000 00000000     ................
	...
    b138:	3e301e00 6e333333 00000000 06070000     ..0>333n........
    b148:	66361e06 3b666666 00000000 00000000     ..6ffff;........
    b158:	03633e00 3e630303 00000000 30380000     .>c...c>......80
    b168:	33363c30 6e333333 00000000 00000000     0<63333n........
    b178:	7f633e00 3e630303 00000000 361c0000     .>c...c>.......6
    b188:	060f0626 0f060606 00000000 00000000     &...............
    b198:	33336e00 3e333333 001e3330 06070000     .n33333>03......
    b1a8:	666e3606 67666666 00000000 18180000     .6nffffg........
    b1b8:	18181c00 3c181818 00000000 60600000     .......<......``
    b1c8:	60607000 60606060 003c6666 06070000     .p``````ff<.....
    b1d8:	1e366606 6766361e 00000000 181c0000     .f6..6fg........
    b1e8:	18181818 3c181818 00000000 00000000     .......<........
    b1f8:	6b7f3700 6b6b6b6b 00000000 00000000     .7.kkkkk........
    b208:	66663b00 66666666 00000000 00000000     .;ffffff........
    b218:	63633e00 3e636363 00000000 00000000     .>ccccc>........
    b228:	66663b00 3e666666 000f0606 00000000     .;fffff>........
    b238:	33336e00 3e333333 00783030 00000000     .n33333>00x.....
    b248:	466e3b00 0f060606 00000000 00000000     .;nF............
    b258:	06633e00 3e63301c 00000000 0c080000     .>c..0c>........
    b268:	0c0c3f0c 386c0c0c 00000000 00000000     .?....l8........
    b278:	33333300 6e333333 00000000 00000000     .333333n........
    b288:	66666600 183c6666 00000000 00000000     .fffff<.........
    b298:	63636300 367f6b6b 00000000 00000000     .ccckk.6........
    b2a8:	1c366300 63361c1c 00000000 00000000     .c6...6c........
    b2b8:	63636300 7e636363 001f3060 00000000     .cccccc~`0......
    b2c8:	18337f00 7f63060c 00000000 18700000     ..3...c.......p.
    b2d8:	180e1818 70181818 00000000 18180000     .......p........
    b2e8:	18001818 18181818 00000000 180e0000     ................
    b2f8:	18701818 0e181818 00000000 3b6e0000     ..p...........n;
	...
    b318:	63361c08 007f6363 00000000              ..6ccc......

0000b324 <GB_16>:
    b324:	0080f0bd 01400080 04100220 77f40a08     ......@. ......w
    b334:	00802083 00800ff8 04900888 3ffe12a0     . .............?
    b344:	f9ba0000 22200220 02207fff 22903e10     .... . ".. ..>."
    b354:	3e1023fe 22fc2250 22443e44 227c2244     .#.>P"."D>D"D"|"
    b364:	10802944 0410abc2 7fff2410 10800410     D).......$......
    b374:	10043ffc 1ffc1004 00041004 00040004     .?..............
    b384:	00020002 c5d50001 109f0080 08901090     ................
    b394:	029e0490 7fe20082 049e0282 08900490     ................
    b3a4:	22901090 0084418a 0420fac1 08200820     ...".A.... . . .
    b3b4:	7fff0020 11200120 09201120 03100510      ... . . . .....
    b3c4:	41884108 7e224144 fecd0001 24001400     .A.ADA"~.......$
    b3d4:	7ffc0400 04040404 244427fc 15fc2444     .........'D$D$..
    b3e4:	09141524 544248a4 411962a2 0210efc7     $....HBT.b.A....
    b3f4:	020f0238 22880208 128822bf 021c0a4c     8......"."..L...
    b404:	052a052a 08880909 20481088 b6d24028     *.*.......H (@..
    b414:	04000400 0412041e 04120412 04127fd2     ................
    b424:	04120412 0412041e 04000400 04000400     ................
    b434:	0110c0d2 02100210 01087fe8 028c010c     ................
    b444:	12c9228a 04980ca8 10880888 41882288     ."...........".A
    b454:	a3bd0088 20102010 24482028 25022484     ..... . ( H$.$.%
    b464:	2400247d 24902488 24442492 21e02044     }$.$.$.$.$D$D .!
    b474:	1004281e 0000a51c 0000a53a 0000a53a     .(......:...:...
    b484:	0000a530 0000a53a 0000a53a 0000a53a     0...:...:...:...
    b494:	0000a53a 0000a53a 0000a53a 0000a53a     :...:...:...:...
    b4a4:	0000a512 0000a53a 0000a508 0000a53a     ....:.......:...
    b4b4:	0000a53a 0000a526 0000a8b0 0000ab5a     :...&.......Z...
    b4c4:	0000ab5a 0000ab5a 0000ab5a 0000ab5a     Z...Z...Z...Z...
    b4d4:	0000ab5a 0000ab5a 0000ab5a 0000ab5a     Z...Z...Z...Z...
    b4e4:	0000a9ac 0000aa86 0000a656 0000ab5a     ........V...Z...
    b4f4:	0000a736 0000ab5a 0000ab5a 0000a656     6...Z...Z...V...
    b504:	0000ab5a 0000ab5a 0000ab5a 0000ab5a     Z...Z...Z...Z...
    b514:	0000ab44 0000a98c 0000a9cc 0000ab5a     D...........Z...
    b524:	0000ab5a 0000aaa4 0000ab5a 0000a9ec     Z.......Z.......
    b534:	0000ab5a 0000ab5a 0000a8b0              Z...Z.......

0000b540 <_init>:
_init():
    b540:	b5f8      	push	{r3, r4, r5, r6, r7, lr}
    b542:	46c0      	nop			; (mov r8, r8)
    b544:	bcf8      	pop	{r3, r4, r5, r6, r7}
    b546:	bc08      	pop	{r3}
    b548:	469e      	mov	lr, r3
    b54a:	4770      	bx	lr

0000b54c <_fini>:
_fini():
    b54c:	b5f8      	push	{r3, r4, r5, r6, r7, lr}
    b54e:	46c0      	nop			; (mov r8, r8)
    b550:	bcf8      	pop	{r3, r4, r5, r6, r7}
    b552:	bc08      	pop	{r3}
    b554:	469e      	mov	lr, r3
    b556:	4770      	bx	lr
