
PWM_Music.elf:     file format elf32-littlearm
PWM_Music.elf
architecture: armv6s-m, flags 0x00000112:
EXEC_P, HAS_SYMS, D_PAGED
start address 0x00006c59

Program Header:
    LOAD off    0x00000000 vaddr 0x00000000 paddr 0x00000000 align 2**16
         filesz 0x000068c0 memsz 0x000068c0 flags r--
    LOAD off    0x00006c00 vaddr 0x00006c00 paddr 0x00006c00 align 2**16
         filesz 0x00000010 memsz 0x00000010 flags r--
    LOAD off    0x00006c10 vaddr 0x00006c10 paddr 0x00006c10 align 2**16
         filesz 0x0000521c memsz 0x0000521c flags rwx
    LOAD off    0x00010400 vaddr 0x20000400 paddr 0x0000be2c align 2**16
         filesz 0x00000024 memsz 0x000003b8 flags rw-
private flags = 5000200: [Version5 EABI] [soft-float ABI]

Sections:
Idx Name            Size      VMA       LMA       File off  Algn  Flags
  0 .interrupts     000000c0  00006800  00006800  00006800  2**2  CONTENTS, ALLOC, LOAD, READONLY, DATA
  1 .flash_config   00000010  00006c00  00006c00  00006c00  2**0  CONTENTS, ALLOC, LOAD, READONLY, DATA
  2 .text           0000520c  00006c10  00006c10  00006c10  2**2  CONTENTS, ALLOC, LOAD, READONLY, CODE
  3 .ARM            00000008  0000be1c  0000be1c  0000be1c  2**2  CONTENTS, ALLOC, LOAD, READONLY, DATA
  4 .init_array     00000004  0000be24  0000be24  0000be24  2**2  CONTENTS, ALLOC, LOAD, DATA
  5 .fini_array     00000004  0000be28  0000be28  0000be28  2**2  CONTENTS, ALLOC, LOAD, DATA
  6 .mtb            00000000  20000400  20000400  00010424  2**0  CONTENTS
  7 .data           00000024  20000400  0000be2c  00010400  2**2  CONTENTS, ALLOC, LOAD, DATA
  8 .bss            00000090  20000424  0000be50  00010424  2**2  ALLOC
  9 .heap           00000204  200004b4  0000bee0  00010424  2**0  ALLOC
 10 .stack          00000100  200006b8  0000c0e4  00010424  2**0  ALLOC
 11 .ARM.attributes 00000028  00000000  00000000  00010424  2**0  CONTENTS, READONLY
 12 .debug_info     00007bfc  00000000  00000000  0001044c  2**0  CONTENTS, READONLY, DEBUGGING, OCTETS
 13 .debug_abbrev   000019c4  00000000  00000000  00018048  2**0  CONTENTS, READONLY, DEBUGGING, OCTETS
 14 .debug_aranges  00000340  00000000  00000000  00019a10  2**3  CONTENTS, READONLY, DEBUGGING, OCTETS
 15 .debug_ranges   00000270  00000000  00000000  00019d50  2**0  CONTENTS, READONLY, DEBUGGING, OCTETS
 16 .debug_macro    0000f98e  00000000  00000000  00019fc0  2**0  CONTENTS, READONLY, DEBUGGING, OCTETS
 17 .debug_line     00003d03  00000000  00000000  0002994e  2**0  CONTENTS, READONLY, DEBUGGING, OCTETS
 18 .debug_str      0004f0ed  00000000  00000000  0002d651  2**0  CONTENTS, READONLY, DEBUGGING, OCTETS
 19 .comment        0000004c  00000000  00000000  0007c73e  2**0  CONTENTS, READONLY
 20 .debug_frame    00000b28  00000000  00000000  0007c78c  2**2  CONTENTS, READONLY, DEBUGGING, OCTETS
SYMBOL TABLE:
00006800 l    d  .interrupts	00000000 .interrupts
00006c00 l    d  .flash_config	00000000 .flash_config
00006c10 l    d  .text	00000000 .text
0000be1c l    d  .ARM	00000000 .ARM
0000be24 l    d  .init_array	00000000 .init_array
0000be28 l    d  .fini_array	00000000 .fini_array
20000400 l    d  .mtb	00000000 .mtb
20000400 l    d  .data	00000000 .data
20000424 l    d  .bss	00000000 .bss
200004b4 l    d  .heap	00000000 .heap
200006b8 l    d  .stack	00000000 .stack
00000000 l    d  .ARM.attributes	00000000 .ARM.attributes
00000000 l    d  .debug_info	00000000 .debug_info
00000000 l    d  .debug_abbrev	00000000 .debug_abbrev
00000000 l    d  .debug_aranges	00000000 .debug_aranges
00000000 l    d  .debug_ranges	00000000 .debug_ranges
00000000 l    d  .debug_macro	00000000 .debug_macro
00000000 l    d  .debug_line	00000000 .debug_line
00000000 l    d  .debug_str	00000000 .debug_str
00000000 l    d  .comment	00000000 .comment
00000000 l    d  .debug_frame	00000000 .debug_frame
00000000 l    df *ABS*	00000000 ./obj/startup_MKL36Z4.o
00000000 l    df *ABS*	00000000 crtstuff.c
0000be04 l     O .text	00000000 __EH_FRAME_BEGIN__
00006c10 l     F .text	00000000 __do_global_dtors_aux
20000424 l       .bss	00000001 completed.8914
0000be28 l     O .fini_array	00000000 __do_global_dtors_aux_fini_array_entry
00006c38 l     F .text	00000000 frame_dummy
20000428 l       .bss	00000018 object.8919
0000be24 l     O .init_array	00000000 __frame_dummy_init_array_entry
00000000 l    df *ABS*	00000000 _udivsi3.o
00006ca8 l       .text	00000000 .udivsi3_skip_div0_test
00000000 l    df *ABS*	00000000 _divsi3.o
00006dbc l       .text	00000000 .divsi3_skip_div0_test
00000000 l    df *ABS*	00000000 _dvmd_tls.o
00000000 l    df *ABS*	00000000 _arm_cmpdf2.o
00000000 l    df *ABS*	00000000 _arm_cmpsf2.o
00000000 l    df *ABS*	00000000 _aeabi_uldivmod.o
00000000 l    df *ABS*	00000000 libgcc2.c
00000000 l    df *ABS*	00000000 libgcc2.c
00000000 l    df *ABS*	00000000 libgcc2.c
00000000 l    df *ABS*	00000000 libgcc2.c
00000000 l    df *ABS*	00000000 divsf3.c
00000000 l    df *ABS*	00000000 eqsf2.c
00000000 l    df *ABS*	00000000 gesf2.c
00000000 l    df *ABS*	00000000 lesf2.c
00000000 l    df *ABS*	00000000 mulsf3.c
00000000 l    df *ABS*	00000000 subsf3.c
00000000 l    df *ABS*	00000000 fixsfsi.c
00000000 l    df *ABS*	00000000 floatsisf.c
00000000 l    df *ABS*	00000000 floatunsisf.c
00000000 l    df *ABS*	00000000 eqdf2.c
00000000 l    df *ABS*	00000000 gedf2.c
00000000 l    df *ABS*	00000000 ledf2.c
00000000 l    df *ABS*	00000000 muldf3.c
00000000 l    df *ABS*	00000000 subdf3.c
00000000 l    df *ABS*	00000000 fixdfsi.c
00000000 l    df *ABS*	00000000 floatunsidf.c
00000000 l    df *ABS*	00000000 _clzsi2.o
00000000 l    df *ABS*	00000000 _clzdi2.o
00000000 l    df *ABS*	00000000 lib_a-strlen.o
00000000 l    df *ABS*	00000000 timer.c
00008cf4 l     F .text	0000002c NVIC_EnableIRQ
00000000 l    df *ABS*	00000000 system_MKL36Z4.c
00000000 l    df *ABS*	00000000 main.c
00000000 l    df *ABS*	00000000 flash.c
00000000 l    df *ABS*	00000000 wdog.c
00000000 l    df *ABS*	00000000 pwm.c
0000bd20 l     O .text	00000014 PORT_ARR
000098dc l     F .text	00000120 tpm_mux_val
000099fc l     F .text	00000110 tpm_timer_init1
00000000 l    df *ABS*	00000000 gec.c
00000000 l    df *ABS*	00000000 uart.c
00009be0 l     F .text	0000002c NVIC_EnableIRQ
00000000 l    df *ABS*	00000000 music.c
00000000 l    df *ABS*	00000000 isr.c
00000000 l    df *ABS*	00000000 printf.c
0000b030 l     F .text	0000004c printk_putc
0000b2f4 l     F .text	000000f8 printk_mknumstr
0000b3ec l     F .text	00000034 printk_pad_zero
0000b420 l     F .text	00000034 printk_pad_space
00000000 l    df *ABS*	00000000 memcpy-stub.c
00000000 l    df *ABS*	00000000 memset.c
00000000 l    df *ABS*	00000000 d:/tools/armnoneeabi/bin/../lib/gcc/arm-none-eabi/9.3.1/thumb/v6-m/nofp/crti.o
00000000 l    df *ABS*	00000000 d:/tools/armnoneeabi/bin/../lib/gcc/arm-none-eabi/9.3.1/thumb/v6-m/nofp/crtn.o
00000000 l    df *ABS*	00000000 
0000be28 l       .init_array	00000000 __init_array_end
0000be24 l       .init_array	00000000 __preinit_array_end
0000be24 l       .init_array	00000000 __init_array_start
0000be24 l       .init_array	00000000 __preinit_array_start
200004b8 g       .heap	00000000 __HeapBase
00006fd4 g     F .text	00000012 .hidden __aeabi_dcmple
00009348 g     F .text	00000028 flash_read_physical
00007da0 g     F .text	00000078 .hidden __eqdf2
20000400 g       .data	00000000 __data_start__
00000100 g       *ABS*	00000000 STACK_SIZE
00006ca0  w    F .text	00000006 I2C0_IRQHandler
00008e70 g     F .text	0000001c lptmr_enable_int
0000003e g       *ABS*	00000000 GEC_USER_SECTOR_END
00006ca0  w    F .text	00000006 HardFault_Handler
20000440 g     O .bss	00000004 gBeat
00006ca0  w    F .text	00000006 SysTick_Handler
00006ca0  w    F .text	00000006 PendSV_Handler
00006ca0  w    F .text	00000006 NMI_Handler
0000be24 g       .ARM	00000000 __exidx_end
00006ca0  w    F .text	00000006 PORTC_PORTD_IRQHandler
00008d7c g     F .text	00000044 timer_enable_int
00006ca0  w    F .text	00000006 I2C1_IRQHandler
00006ca0  w    F .text	00000006 UART1_IRQHandler
00007e18 g     F .text	000000e4 .hidden __gtdf2
0000be2c g       .fini_array	00000000 __etext
00006ca0  w    F .text	00000006 DMA2_IRQHandler
20000444 g     O .bss	00000064 gRecvBuff
00009ff4 g     F .text	00000080 uart_enable_re_int
00006ca0  w    F .text	00000006 TPM0_IRQHandler
20000400 g     O .data	0000000c TPM_ARR
00006fa4 g     F .text	00000010 .hidden __aeabi_cdcmple
0000a804 g     F .text	000007c4 playTenderLines
00006ca0  w    F .text	00000006 I2S0_IRQHandler
00006ca0  w    F .text	00000006 LLWU_IRQHandler
0000001a g       *ABS*	00000000 GEC_USER_SECTOR_START
00006ca0  w    F .text	00000006 TSI0_IRQHandler
0000afc8 g     F .text	00000028 UART0_IRQHandler
00009034 g     F .text	00000034 tpm_clear_int
0000bba4 g     F .text	00000012 memcpy
00006f94 g     F .text	00000020 .hidden __aeabi_cdrcmple
0000a4ac g     F .text	00000358 playFarewell
0000705c g     F .text	00000012 .hidden __aeabi_fcmpgt
00007efc g     F .text	000000e0 .hidden __ltdf2
0000be24 g       .init_array	00000000 __DTOR_END__
00007084 g     F .text	0000003e .hidden __aeabi_uldivmod
20000410 g     O .data	00000004 SystemCoreClock
00006ca0  w    F .text	00000006 ADC0_IRQHandler
00006ca8 g     F .text	0000010a .hidden __udivsi3
20000424 g       .bss	00000000 __START_BSS
00007c9c g     F .text	0000008c .hidden __aeabi_i2f
00007604 g     F .text	00000092 .hidden __lesf2
000070f4 g     F .text	0000003c .hidden __fixunsdfsi
200006b8 g       .heap	00000000 __HeapLimit
20000424 g       .bss	00000000 __bss_start__
00009220 g     F .text	00000098 flash_erase
00008c44 g     F .text	0000004c .hidden __aeabi_ui2d
00006ca0  w    F .text	00000006 SPI1_IRQHandler
0000716c g     F .text	00000196 .hidden __udivmoddi4
00006ca0  w    F .text	00000006 DefaultISR
00006fc0 g     F .text	00000012 .hidden __aeabi_dcmplt
200004a8 g     O .bss	00000001 gSelect
0000751c g     F .text	0000004e .hidden __nesf2
0000be1c g       .ARM	00000000 __exidx_start
00007fdc g     F .text	000004d8 .hidden __aeabi_dmul
0000b07c g     F .text	00000278 printk_mkfloatstr
0000be04 g     F .text	00000000 _init
00006ca0  w    F .text	00000006 TPM2_IRQHandler
00008dc0 g     F .text	00000050 timer_clear_int
00007130 g     F .text	0000003c .hidden __aeabi_d2ulz
000078cc g     F .text	00000390 .hidden __aeabi_fsub
00006ca0  w    F .text	00000006 RTC_IRQHandler
00000400 g       *ABS*	00000000 MCU_SECTORSIZE
00006c58  w    F .text	00000048 Reset_Handler
00007070 g     F .text	00000012 .hidden __aeabi_fcmpge
00006ca0  w    F .text	00000006 LCD_IRQHandler
00008d20 g     F .text	0000005c timer_init
0000756c g     F .text	00000098 .hidden __gtsf2
0000946c g     F .text	00000470 pwm_init
2000040c g     O .data	00000003 TPM_IRQ
00007efc g     F .text	000000e0 .hidden __ledf2
200017ff g       *ABS*	00000000 GEC_USER_RAM_END
0000bb68 g     F .text	0000003c myprintf
00007048 g     F .text	00000012 .hidden __aeabi_fcmple
00006ca0  w    F .text	00000006 RTC_Seconds_IRQHandler
00006dbc g     F .text	00000000 .hidden __aeabi_idiv
00006ca0  w    F .text	00000006 MCG_IRQHandler
00006ca0  w    F .text	00000006 UART2_IRQHandler
20000424 g       .data	00000000 __data_end__
0000be24 g       .init_array	00000000 __CTOR_LIST__
00000200 g       *ABS*	00000000 HEAP_SIZE
00006fe8 g     F .text	00000012 .hidden __aeabi_dcmpgt
00008c90 g     F .text	0000003c .hidden __clzsi2
00009c0c g     F .text	00000274 uart_init
200004b4 g       .bss	00000000 __bss_end__
00006ca0  w    F .text	00000006 Reserved20_IRQHandler
00006ffc g     F .text	00000012 .hidden __aeabi_dcmpge
000093e4 g     F .text	00000068 flash_cmd_launch
200004ac g     O .bss	00000003 gTime
000084b4 g     F .text	00000724 .hidden __aeabi_dsub
200004b0 g     O .bss	00000004 component_fun
20000400 g       *ABS*	00000000 GEC_USER_RAM_START
0000a094 g     F .text	00000048 play
0000bd34 g     O .text	00000008 UART_ARR
00007c5c g     F .text	00000040 .hidden __aeabi_f2iz
0000751c g     F .text	0000004e .hidden __eqsf2
00008e10 g     F .text	00000060 lptmr_init
00007304 g     F .text	00000218 .hidden __aeabi_fdiv
0000b010 g     F .text	00000020 out_char
0000b454 g     F .text	00000714 printk
00006f90  w    F .text	00000002 .hidden __aeabi_ldiv0
20000420 g     O .data	00000003 table_irq_uart
00007d28 g     F .text	00000078 .hidden __aeabi_ui2f
00009f2c g     F .text	000000c8 uart_re1
0000bbb6 g     F .text	00000010 memset
00006800 g       .interrupts	000000c0 __isr_vector
00009180 g     F .text	000000a0 main
00006ca0  w    F .text	00000006 PIT_IRQHandler
00007604 g     F .text	00000092 .hidden __ltsf2
00006ca8 g     F .text	00000000 .hidden __aeabi_uidiv
00006ca0  w    F .text	00000006 SVC_Handler
20000400 g       .data	00000000 __DATA_RAM
00008ffc g     F .text	00000038 tpm_enable_int
200004b8 g       .heap	00000000 __end__
00007018 g     F .text	00000010 .hidden __aeabi_cfcmple
00006dbc g     F .text	000001cc .hidden __divsi3
0000be24 g       .init_array	00000000 __CTOR_END__
00006ca0  w    F .text	00000006 DMA3_IRQHandler
0000be24 g       .init_array	00000000 __DTOR_LIST__
200004b4 g       .bss	00000000 __END_BSS
00009068 g     F .text	00000118 SystemInit
00006ca0  w    F .text	00000006 DMA0_IRQHandler
00007da0 g     F .text	00000078 .hidden __nedf2
00007130 g     F .text	0000003c .hidden __fixunsdfdi
0000be10 g     F .text	00000000 _fini
00006ca0  w    F .text	00000006 DAC0_IRQHandler
0000756c g     F .text	00000098 .hidden __gesf2
20001800 g       .stack	00000000 __StackTop
0000a170 g     F .text	0000014c playHappyBirthday
00007028 g     F .text	0000000c .hidden __aeabi_fcmpeq
00007698 g     F .text	00000234 .hidden __aeabi_fmul
000092b8 g     F .text	00000090 flash_write_physical
20000400 g       .mtb	00000000 _mtb_end
00007010 g     F .text	00000018 .hidden __aeabi_cfrcmple
0000be50 g       *ABS*	00000000 __DATA_END
00009370 g     F .text	00000072 flash_isempty
000070f4 g     F .text	0000003c .hidden __aeabi_d2uiz
0000aff0 g     F .text	00000020 TPM1_IRQHandler
00007034 g     F .text	00000012 .hidden __aeabi_fcmplt
00009b0c g     F .text	000000d4 Vectors_Init
20001800 g       *ABS*	00000000 __stack
00006db4 g     F .text	00000008 .hidden __aeabi_uidivmod
00006fb4 g     F .text	0000000c .hidden __aeabi_dcmpeq
00006ca0  w    F .text	00000006 LVD_LVW_IRQHandler
00006ca0  w    F .text	00000006 SPI0_IRQHandler
00006ca0  w    F .text	00000006 PORTA_IRQHandler
00006800 g       .interrupts	00000000 __VECTOR_TABLE
0000be2c g       .fini_array	00000000 __DATA_ROM
000070c4 g     F .text	00000030 .hidden __aeabi_f2uiz
20001700 g       *ABS*	00000000 __StackLimit
20000414 g     O .data	0000000c PWM_ARR
00006ca0  w    F .text	00000006 FTFA_IRQHandler
00008bd8 g     F .text	0000006c .hidden __aeabi_d2iz
00007018 g     F .text	00000010 .hidden __aeabi_cfcmpeq
20000400 g       .mtb	00000000 _mtb_start
00006ca0  w    F .text	00000006 Reserved40_IRQHandler
0000a0dc g     F .text	00000094 playStart
00006f90  w    F .text	00000002 .hidden __aeabi_idiv0
000070c4 g     F .text	00000030 .hidden __fixunssfsi
00006ca0  w    F .text	00000006 LPTMR0_IRQHandler
00008ce4 g     F .text	0000000e strlen
00006fa4 g     F .text	00000010 .hidden __aeabi_cdcmpeq
00007e18 g     F .text	000000e4 .hidden __gedf2
00009e80 g     F .text	000000ac uart_send1
0000944c g     F .text	00000020 wdog_stop
0000a074 g     F .text	00000020 uart_is_uartNo
00008ccc g     F .text	00000016 .hidden __clzdi2
00006ca0  w    F .text	00000006 CMP0_IRQHandler
00006f88 g     F .text	00000008 .hidden __aeabi_idivmod
00008e8c g     F .text	00000170 tpm_timer_init
00000000 g       *ABS*	00000000 MCU_FLASH_ADDR_START
00006ca0  w    F .text	00000006 DMA1_IRQHandler
0000a2bc g     F .text	000001f0 playMyth



Disassembly of section .text:

00006c10 <__do_global_dtors_aux>:
__do_global_dtors_aux():
    6c10:	b510      	push	{r4, lr}
    6c12:	4c06      	ldr	r4, [pc, #24]	; (6c2c <__do_global_dtors_aux+0x1c>)
    6c14:	7823      	ldrb	r3, [r4, #0]
    6c16:	2b00      	cmp	r3, #0
    6c18:	d107      	bne.n	6c2a <__do_global_dtors_aux+0x1a>
    6c1a:	4b05      	ldr	r3, [pc, #20]	; (6c30 <__do_global_dtors_aux+0x20>)
    6c1c:	2b00      	cmp	r3, #0
    6c1e:	d002      	beq.n	6c26 <__do_global_dtors_aux+0x16>
    6c20:	4804      	ldr	r0, [pc, #16]	; (6c34 <__do_global_dtors_aux+0x24>)
    6c22:	e000      	b.n	6c26 <__do_global_dtors_aux+0x16>
    6c24:	bf00      	nop
    6c26:	2301      	movs	r3, #1
    6c28:	7023      	strb	r3, [r4, #0]
    6c2a:	bd10      	pop	{r4, pc}
    6c2c:	20000424 	.word	0x20000424
    6c30:	00000000 	.word	0x00000000
    6c34:	0000be04 	.word	0x0000be04

00006c38 <frame_dummy>:
frame_dummy():
    6c38:	4b04      	ldr	r3, [pc, #16]	; (6c4c <frame_dummy+0x14>)
    6c3a:	b510      	push	{r4, lr}
    6c3c:	2b00      	cmp	r3, #0
    6c3e:	d003      	beq.n	6c48 <frame_dummy+0x10>
    6c40:	4903      	ldr	r1, [pc, #12]	; (6c50 <frame_dummy+0x18>)
    6c42:	4804      	ldr	r0, [pc, #16]	; (6c54 <frame_dummy+0x1c>)
    6c44:	e000      	b.n	6c48 <frame_dummy+0x10>
    6c46:	bf00      	nop
    6c48:	bd10      	pop	{r4, pc}
    6c4a:	46c0      	nop			; (mov r8, r8)
    6c4c:	00000000 	.word	0x00000000
    6c50:	20000428 	.word	0x20000428
    6c54:	0000be04 	.word	0x0000be04

00006c58 <Reset_Handler>:
Reset_Handler():
F:\WorkSpace\AHL-GEC-EXP\Temp\PWM_Music\Debug/srcs/startup_MKL36Z4.S:118
    .align 2
    .globl   Reset_Handler
    .weak    Reset_Handler
    .type    Reset_Handler, %function
Reset_Handler:
    cpsid   i               /* Mask interrupts */
    6c58:	b672      	cpsid	i
F:\WorkSpace\AHL-GEC-EXP\Temp\PWM_Music\Debug/srcs/startup_MKL36Z4.S:120
#ifndef __NO_SYSTEM_INIT
    bl SystemInit
    6c5a:	f002 fa05 	bl	9068 <SystemInit>
F:\WorkSpace\AHL-GEC-EXP\Temp\PWM_Music\Debug/srcs/startup_MKL36Z4.S:122
#endif
    cpsie   i               /* Unmask interrupts */
    6c5e:	b662      	cpsie	i
F:\WorkSpace\AHL-GEC-EXP\Temp\PWM_Music\Debug/srcs/startup_MKL36Z4.S:130
 *      linker script.
 *      __etext: End of code section, i.e., begin of data sections to copy from.
 *      __data_start__/__data_end__: RAM address range that data should be
 *      copied to. Both must be aligned to 4 bytes boundary.  */

    ldr    r1, =__etext
    6c60:	490a      	ldr	r1, [pc, #40]	; (6c8c <Reset_Handler+0x34>)
F:\WorkSpace\AHL-GEC-EXP\Temp\PWM_Music\Debug/srcs/startup_MKL36Z4.S:131
    ldr    r2, =__data_start__
    6c62:	4a0b      	ldr	r2, [pc, #44]	; (6c90 <Reset_Handler+0x38>)
F:\WorkSpace\AHL-GEC-EXP\Temp\PWM_Music\Debug/srcs/startup_MKL36Z4.S:132
    ldr    r3, =__data_end__
    6c64:	4b0b      	ldr	r3, [pc, #44]	; (6c94 <Reset_Handler+0x3c>)
F:\WorkSpace\AHL-GEC-EXP\Temp\PWM_Music\Debug/srcs/startup_MKL36Z4.S:134

    subs    r3, r2
    6c66:	1a9b      	subs	r3, r3, r2
F:\WorkSpace\AHL-GEC-EXP\Temp\PWM_Music\Debug/srcs/startup_MKL36Z4.S:135
    ble     .LC0
    6c68:	dd03      	ble.n	6c72 <Reset_Handler+0x1a>
F:\WorkSpace\AHL-GEC-EXP\Temp\PWM_Music\Debug/srcs/startup_MKL36Z4.S:138

.LC1:
    subs    r3, 4
    6c6a:	3b04      	subs	r3, #4
F:\WorkSpace\AHL-GEC-EXP\Temp\PWM_Music\Debug/srcs/startup_MKL36Z4.S:139
    ldr    r0, [r1,r3]
    6c6c:	58c8      	ldr	r0, [r1, r3]
F:\WorkSpace\AHL-GEC-EXP\Temp\PWM_Music\Debug/srcs/startup_MKL36Z4.S:140
    str    r0, [r2,r3]
    6c6e:	50d0      	str	r0, [r2, r3]
F:\WorkSpace\AHL-GEC-EXP\Temp\PWM_Music\Debug/srcs/startup_MKL36Z4.S:141
    bgt    .LC1
    6c70:	dcfb      	bgt.n	6c6a <Reset_Handler+0x12>
F:\WorkSpace\AHL-GEC-EXP\Temp\PWM_Music\Debug/srcs/startup_MKL36Z4.S:154
 *     Loop to zero out BSS section, which uses following symbols
 *     in linker script:
 *      __bss_start__: start of BSS section. Must align to 4
 *      __bss_end__: end of BSS section. Must align to 4
 */
    ldr r1, =__bss_start__
    6c72:	4909      	ldr	r1, [pc, #36]	; (6c98 <Reset_Handler+0x40>)
F:\WorkSpace\AHL-GEC-EXP\Temp\PWM_Music\Debug/srcs/startup_MKL36Z4.S:155
    ldr r2, =__bss_end__
    6c74:	4a09      	ldr	r2, [pc, #36]	; (6c9c <Reset_Handler+0x44>)
F:\WorkSpace\AHL-GEC-EXP\Temp\PWM_Music\Debug/srcs/startup_MKL36Z4.S:157

    subs    r2, r1
    6c76:	1a52      	subs	r2, r2, r1
F:\WorkSpace\AHL-GEC-EXP\Temp\PWM_Music\Debug/srcs/startup_MKL36Z4.S:158
    ble .LC3
    6c78:	dd03      	ble.n	6c82 <Reset_Handler+0x2a>
F:\WorkSpace\AHL-GEC-EXP\Temp\PWM_Music\Debug/srcs/startup_MKL36Z4.S:160

    movs    r0, 0
    6c7a:	2000      	movs	r0, #0
F:\WorkSpace\AHL-GEC-EXP\Temp\PWM_Music\Debug/srcs/startup_MKL36Z4.S:162
.LC2:
    str r0, [r1, r2]
    6c7c:	5088      	str	r0, [r1, r2]
F:\WorkSpace\AHL-GEC-EXP\Temp\PWM_Music\Debug/srcs/startup_MKL36Z4.S:163
    subs    r2, 4
    6c7e:	3a04      	subs	r2, #4
F:\WorkSpace\AHL-GEC-EXP\Temp\PWM_Music\Debug/srcs/startup_MKL36Z4.S:164
    bge .LC2
    6c80:	dafc      	bge.n	6c7c <Reset_Handler+0x24>
F:\WorkSpace\AHL-GEC-EXP\Temp\PWM_Music\Debug/srcs/startup_MKL36Z4.S:173
#define __START _start
#endif


/*【User程序修改处1】*/
	bl	 Vectors_Init  
    6c82:	f002 ff43 	bl	9b0c <Vectors_Init>
F:\WorkSpace\AHL-GEC-EXP\Temp\PWM_Music\Debug/srcs/startup_MKL36Z4.S:175
  //  bl    __START
   bl main
    6c86:	f002 fa7b 	bl	9180 <main>
    6c8a:	0000      	.short	0x0000
F:\WorkSpace\AHL-GEC-EXP\Temp\PWM_Music\Debug/srcs/startup_MKL36Z4.S:130
    ldr    r1, =__etext
    6c8c:	0000be2c 	.word	0x0000be2c
F:\WorkSpace\AHL-GEC-EXP\Temp\PWM_Music\Debug/srcs/startup_MKL36Z4.S:131
    ldr    r2, =__data_start__
    6c90:	20000400 	.word	0x20000400
F:\WorkSpace\AHL-GEC-EXP\Temp\PWM_Music\Debug/srcs/startup_MKL36Z4.S:132
    ldr    r3, =__data_end__
    6c94:	20000424 	.word	0x20000424
F:\WorkSpace\AHL-GEC-EXP\Temp\PWM_Music\Debug/srcs/startup_MKL36Z4.S:154
    ldr r1, =__bss_start__
    6c98:	20000424 	.word	0x20000424
F:\WorkSpace\AHL-GEC-EXP\Temp\PWM_Music\Debug/srcs/startup_MKL36Z4.S:155
    ldr r2, =__bss_end__
    6c9c:	200004b4 	.word	0x200004b4

00006ca0 <ADC0_IRQHandler>:
I2C0_IRQHandler():
F:\WorkSpace\AHL-GEC-EXP\Temp\PWM_Music\Debug/srcs/startup_MKL36Z4.S:186
    .weak DefaultISR
    .type DefaultISR, %function
DefaultISR:    
    //ldr	r0, =DefaultISR   //误中断，进入无限循环
    //bx r0
       push  {lr}        //【20200326】WYH改，误中断，回原处
    6ca0:	b500      	push	{lr}
F:\WorkSpace\AHL-GEC-EXP\Temp\PWM_Music\Debug/srcs/startup_MKL36Z4.S:187
       nop
    6ca2:	46c0      	nop			; (mov r8, r8)
F:\WorkSpace\AHL-GEC-EXP\Temp\PWM_Music\Debug/srcs/startup_MKL36Z4.S:188
       pop   {pc}
    6ca4:	bd00      	pop	{pc}
    6ca6:	46c0      	nop			; (mov r8, r8)

00006ca8 <__udivsi3>:
__udivsi3():
    6ca8:	2200      	movs	r2, #0
    6caa:	0843      	lsrs	r3, r0, #1
    6cac:	428b      	cmp	r3, r1
    6cae:	d374      	bcc.n	6d9a <__udivsi3+0xf2>
    6cb0:	0903      	lsrs	r3, r0, #4
    6cb2:	428b      	cmp	r3, r1
    6cb4:	d35f      	bcc.n	6d76 <__udivsi3+0xce>
    6cb6:	0a03      	lsrs	r3, r0, #8
    6cb8:	428b      	cmp	r3, r1
    6cba:	d344      	bcc.n	6d46 <__udivsi3+0x9e>
    6cbc:	0b03      	lsrs	r3, r0, #12
    6cbe:	428b      	cmp	r3, r1
    6cc0:	d328      	bcc.n	6d14 <__udivsi3+0x6c>
    6cc2:	0c03      	lsrs	r3, r0, #16
    6cc4:	428b      	cmp	r3, r1
    6cc6:	d30d      	bcc.n	6ce4 <__udivsi3+0x3c>
    6cc8:	22ff      	movs	r2, #255	; 0xff
    6cca:	0209      	lsls	r1, r1, #8
    6ccc:	ba12      	rev	r2, r2
    6cce:	0c03      	lsrs	r3, r0, #16
    6cd0:	428b      	cmp	r3, r1
    6cd2:	d302      	bcc.n	6cda <__udivsi3+0x32>
    6cd4:	1212      	asrs	r2, r2, #8
    6cd6:	0209      	lsls	r1, r1, #8
    6cd8:	d065      	beq.n	6da6 <__udivsi3+0xfe>
    6cda:	0b03      	lsrs	r3, r0, #12
    6cdc:	428b      	cmp	r3, r1
    6cde:	d319      	bcc.n	6d14 <__udivsi3+0x6c>
    6ce0:	e000      	b.n	6ce4 <__udivsi3+0x3c>
    6ce2:	0a09      	lsrs	r1, r1, #8
    6ce4:	0bc3      	lsrs	r3, r0, #15
    6ce6:	428b      	cmp	r3, r1
    6ce8:	d301      	bcc.n	6cee <__udivsi3+0x46>
    6cea:	03cb      	lsls	r3, r1, #15
    6cec:	1ac0      	subs	r0, r0, r3
    6cee:	4152      	adcs	r2, r2
    6cf0:	0b83      	lsrs	r3, r0, #14
    6cf2:	428b      	cmp	r3, r1
    6cf4:	d301      	bcc.n	6cfa <__udivsi3+0x52>
    6cf6:	038b      	lsls	r3, r1, #14
    6cf8:	1ac0      	subs	r0, r0, r3
    6cfa:	4152      	adcs	r2, r2
    6cfc:	0b43      	lsrs	r3, r0, #13
    6cfe:	428b      	cmp	r3, r1
    6d00:	d301      	bcc.n	6d06 <__udivsi3+0x5e>
    6d02:	034b      	lsls	r3, r1, #13
    6d04:	1ac0      	subs	r0, r0, r3
    6d06:	4152      	adcs	r2, r2
    6d08:	0b03      	lsrs	r3, r0, #12
    6d0a:	428b      	cmp	r3, r1
    6d0c:	d301      	bcc.n	6d12 <__udivsi3+0x6a>
    6d0e:	030b      	lsls	r3, r1, #12
    6d10:	1ac0      	subs	r0, r0, r3
    6d12:	4152      	adcs	r2, r2
    6d14:	0ac3      	lsrs	r3, r0, #11
    6d16:	428b      	cmp	r3, r1
    6d18:	d301      	bcc.n	6d1e <__udivsi3+0x76>
    6d1a:	02cb      	lsls	r3, r1, #11
    6d1c:	1ac0      	subs	r0, r0, r3
    6d1e:	4152      	adcs	r2, r2
    6d20:	0a83      	lsrs	r3, r0, #10
    6d22:	428b      	cmp	r3, r1
    6d24:	d301      	bcc.n	6d2a <__udivsi3+0x82>
    6d26:	028b      	lsls	r3, r1, #10
    6d28:	1ac0      	subs	r0, r0, r3
    6d2a:	4152      	adcs	r2, r2
    6d2c:	0a43      	lsrs	r3, r0, #9
    6d2e:	428b      	cmp	r3, r1
    6d30:	d301      	bcc.n	6d36 <__udivsi3+0x8e>
    6d32:	024b      	lsls	r3, r1, #9
    6d34:	1ac0      	subs	r0, r0, r3
    6d36:	4152      	adcs	r2, r2
    6d38:	0a03      	lsrs	r3, r0, #8
    6d3a:	428b      	cmp	r3, r1
    6d3c:	d301      	bcc.n	6d42 <__udivsi3+0x9a>
    6d3e:	020b      	lsls	r3, r1, #8
    6d40:	1ac0      	subs	r0, r0, r3
    6d42:	4152      	adcs	r2, r2
    6d44:	d2cd      	bcs.n	6ce2 <__udivsi3+0x3a>
    6d46:	09c3      	lsrs	r3, r0, #7
    6d48:	428b      	cmp	r3, r1
    6d4a:	d301      	bcc.n	6d50 <__udivsi3+0xa8>
    6d4c:	01cb      	lsls	r3, r1, #7
    6d4e:	1ac0      	subs	r0, r0, r3
    6d50:	4152      	adcs	r2, r2
    6d52:	0983      	lsrs	r3, r0, #6
    6d54:	428b      	cmp	r3, r1
    6d56:	d301      	bcc.n	6d5c <__udivsi3+0xb4>
    6d58:	018b      	lsls	r3, r1, #6
    6d5a:	1ac0      	subs	r0, r0, r3
    6d5c:	4152      	adcs	r2, r2
    6d5e:	0943      	lsrs	r3, r0, #5
    6d60:	428b      	cmp	r3, r1
    6d62:	d301      	bcc.n	6d68 <__udivsi3+0xc0>
    6d64:	014b      	lsls	r3, r1, #5
    6d66:	1ac0      	subs	r0, r0, r3
    6d68:	4152      	adcs	r2, r2
    6d6a:	0903      	lsrs	r3, r0, #4
    6d6c:	428b      	cmp	r3, r1
    6d6e:	d301      	bcc.n	6d74 <__udivsi3+0xcc>
    6d70:	010b      	lsls	r3, r1, #4
    6d72:	1ac0      	subs	r0, r0, r3
    6d74:	4152      	adcs	r2, r2
    6d76:	08c3      	lsrs	r3, r0, #3
    6d78:	428b      	cmp	r3, r1
    6d7a:	d301      	bcc.n	6d80 <__udivsi3+0xd8>
    6d7c:	00cb      	lsls	r3, r1, #3
    6d7e:	1ac0      	subs	r0, r0, r3
    6d80:	4152      	adcs	r2, r2
    6d82:	0883      	lsrs	r3, r0, #2
    6d84:	428b      	cmp	r3, r1
    6d86:	d301      	bcc.n	6d8c <__udivsi3+0xe4>
    6d88:	008b      	lsls	r3, r1, #2
    6d8a:	1ac0      	subs	r0, r0, r3
    6d8c:	4152      	adcs	r2, r2
    6d8e:	0843      	lsrs	r3, r0, #1
    6d90:	428b      	cmp	r3, r1
    6d92:	d301      	bcc.n	6d98 <__udivsi3+0xf0>
    6d94:	004b      	lsls	r3, r1, #1
    6d96:	1ac0      	subs	r0, r0, r3
    6d98:	4152      	adcs	r2, r2
    6d9a:	1a41      	subs	r1, r0, r1
    6d9c:	d200      	bcs.n	6da0 <__udivsi3+0xf8>
    6d9e:	4601      	mov	r1, r0
    6da0:	4152      	adcs	r2, r2
    6da2:	4610      	mov	r0, r2
    6da4:	4770      	bx	lr
    6da6:	e7ff      	b.n	6da8 <__udivsi3+0x100>
    6da8:	b501      	push	{r0, lr}
    6daa:	2000      	movs	r0, #0
    6dac:	f000 f8f0 	bl	6f90 <__aeabi_idiv0>
    6db0:	bd02      	pop	{r1, pc}
    6db2:	46c0      	nop			; (mov r8, r8)

00006db4 <__aeabi_uidivmod>:
__aeabi_uidivmod():
    6db4:	2900      	cmp	r1, #0
    6db6:	d0f7      	beq.n	6da8 <__udivsi3+0x100>
    6db8:	e776      	b.n	6ca8 <__udivsi3>
    6dba:	4770      	bx	lr

00006dbc <__divsi3>:
__divsi3():
    6dbc:	4603      	mov	r3, r0
    6dbe:	430b      	orrs	r3, r1
    6dc0:	d47f      	bmi.n	6ec2 <__divsi3+0x106>
    6dc2:	2200      	movs	r2, #0
    6dc4:	0843      	lsrs	r3, r0, #1
    6dc6:	428b      	cmp	r3, r1
    6dc8:	d374      	bcc.n	6eb4 <__divsi3+0xf8>
    6dca:	0903      	lsrs	r3, r0, #4
    6dcc:	428b      	cmp	r3, r1
    6dce:	d35f      	bcc.n	6e90 <__divsi3+0xd4>
    6dd0:	0a03      	lsrs	r3, r0, #8
    6dd2:	428b      	cmp	r3, r1
    6dd4:	d344      	bcc.n	6e60 <__divsi3+0xa4>
    6dd6:	0b03      	lsrs	r3, r0, #12
    6dd8:	428b      	cmp	r3, r1
    6dda:	d328      	bcc.n	6e2e <__divsi3+0x72>
    6ddc:	0c03      	lsrs	r3, r0, #16
    6dde:	428b      	cmp	r3, r1
    6de0:	d30d      	bcc.n	6dfe <__divsi3+0x42>
    6de2:	22ff      	movs	r2, #255	; 0xff
    6de4:	0209      	lsls	r1, r1, #8
    6de6:	ba12      	rev	r2, r2
    6de8:	0c03      	lsrs	r3, r0, #16
    6dea:	428b      	cmp	r3, r1
    6dec:	d302      	bcc.n	6df4 <__divsi3+0x38>
    6dee:	1212      	asrs	r2, r2, #8
    6df0:	0209      	lsls	r1, r1, #8
    6df2:	d065      	beq.n	6ec0 <__divsi3+0x104>
    6df4:	0b03      	lsrs	r3, r0, #12
    6df6:	428b      	cmp	r3, r1
    6df8:	d319      	bcc.n	6e2e <__divsi3+0x72>
    6dfa:	e000      	b.n	6dfe <__divsi3+0x42>
    6dfc:	0a09      	lsrs	r1, r1, #8
    6dfe:	0bc3      	lsrs	r3, r0, #15
    6e00:	428b      	cmp	r3, r1
    6e02:	d301      	bcc.n	6e08 <__divsi3+0x4c>
    6e04:	03cb      	lsls	r3, r1, #15
    6e06:	1ac0      	subs	r0, r0, r3
    6e08:	4152      	adcs	r2, r2
    6e0a:	0b83      	lsrs	r3, r0, #14
    6e0c:	428b      	cmp	r3, r1
    6e0e:	d301      	bcc.n	6e14 <__divsi3+0x58>
    6e10:	038b      	lsls	r3, r1, #14
    6e12:	1ac0      	subs	r0, r0, r3
    6e14:	4152      	adcs	r2, r2
    6e16:	0b43      	lsrs	r3, r0, #13
    6e18:	428b      	cmp	r3, r1
    6e1a:	d301      	bcc.n	6e20 <__divsi3+0x64>
    6e1c:	034b      	lsls	r3, r1, #13
    6e1e:	1ac0      	subs	r0, r0, r3
    6e20:	4152      	adcs	r2, r2
    6e22:	0b03      	lsrs	r3, r0, #12
    6e24:	428b      	cmp	r3, r1
    6e26:	d301      	bcc.n	6e2c <__divsi3+0x70>
    6e28:	030b      	lsls	r3, r1, #12
    6e2a:	1ac0      	subs	r0, r0, r3
    6e2c:	4152      	adcs	r2, r2
    6e2e:	0ac3      	lsrs	r3, r0, #11
    6e30:	428b      	cmp	r3, r1
    6e32:	d301      	bcc.n	6e38 <__divsi3+0x7c>
    6e34:	02cb      	lsls	r3, r1, #11
    6e36:	1ac0      	subs	r0, r0, r3
    6e38:	4152      	adcs	r2, r2
    6e3a:	0a83      	lsrs	r3, r0, #10
    6e3c:	428b      	cmp	r3, r1
    6e3e:	d301      	bcc.n	6e44 <__divsi3+0x88>
    6e40:	028b      	lsls	r3, r1, #10
    6e42:	1ac0      	subs	r0, r0, r3
    6e44:	4152      	adcs	r2, r2
    6e46:	0a43      	lsrs	r3, r0, #9
    6e48:	428b      	cmp	r3, r1
    6e4a:	d301      	bcc.n	6e50 <__divsi3+0x94>
    6e4c:	024b      	lsls	r3, r1, #9
    6e4e:	1ac0      	subs	r0, r0, r3
    6e50:	4152      	adcs	r2, r2
    6e52:	0a03      	lsrs	r3, r0, #8
    6e54:	428b      	cmp	r3, r1
    6e56:	d301      	bcc.n	6e5c <__divsi3+0xa0>
    6e58:	020b      	lsls	r3, r1, #8
    6e5a:	1ac0      	subs	r0, r0, r3
    6e5c:	4152      	adcs	r2, r2
    6e5e:	d2cd      	bcs.n	6dfc <__divsi3+0x40>
    6e60:	09c3      	lsrs	r3, r0, #7
    6e62:	428b      	cmp	r3, r1
    6e64:	d301      	bcc.n	6e6a <__divsi3+0xae>
    6e66:	01cb      	lsls	r3, r1, #7
    6e68:	1ac0      	subs	r0, r0, r3
    6e6a:	4152      	adcs	r2, r2
    6e6c:	0983      	lsrs	r3, r0, #6
    6e6e:	428b      	cmp	r3, r1
    6e70:	d301      	bcc.n	6e76 <__divsi3+0xba>
    6e72:	018b      	lsls	r3, r1, #6
    6e74:	1ac0      	subs	r0, r0, r3
    6e76:	4152      	adcs	r2, r2
    6e78:	0943      	lsrs	r3, r0, #5
    6e7a:	428b      	cmp	r3, r1
    6e7c:	d301      	bcc.n	6e82 <__divsi3+0xc6>
    6e7e:	014b      	lsls	r3, r1, #5
    6e80:	1ac0      	subs	r0, r0, r3
    6e82:	4152      	adcs	r2, r2
    6e84:	0903      	lsrs	r3, r0, #4
    6e86:	428b      	cmp	r3, r1
    6e88:	d301      	bcc.n	6e8e <__divsi3+0xd2>
    6e8a:	010b      	lsls	r3, r1, #4
    6e8c:	1ac0      	subs	r0, r0, r3
    6e8e:	4152      	adcs	r2, r2
    6e90:	08c3      	lsrs	r3, r0, #3
    6e92:	428b      	cmp	r3, r1
    6e94:	d301      	bcc.n	6e9a <__divsi3+0xde>
    6e96:	00cb      	lsls	r3, r1, #3
    6e98:	1ac0      	subs	r0, r0, r3
    6e9a:	4152      	adcs	r2, r2
    6e9c:	0883      	lsrs	r3, r0, #2
    6e9e:	428b      	cmp	r3, r1
    6ea0:	d301      	bcc.n	6ea6 <__divsi3+0xea>
    6ea2:	008b      	lsls	r3, r1, #2
    6ea4:	1ac0      	subs	r0, r0, r3
    6ea6:	4152      	adcs	r2, r2
    6ea8:	0843      	lsrs	r3, r0, #1
    6eaa:	428b      	cmp	r3, r1
    6eac:	d301      	bcc.n	6eb2 <__divsi3+0xf6>
    6eae:	004b      	lsls	r3, r1, #1
    6eb0:	1ac0      	subs	r0, r0, r3
    6eb2:	4152      	adcs	r2, r2
    6eb4:	1a41      	subs	r1, r0, r1
    6eb6:	d200      	bcs.n	6eba <__divsi3+0xfe>
    6eb8:	4601      	mov	r1, r0
    6eba:	4152      	adcs	r2, r2
    6ebc:	4610      	mov	r0, r2
    6ebe:	4770      	bx	lr
    6ec0:	e05d      	b.n	6f7e <__divsi3+0x1c2>
    6ec2:	0fca      	lsrs	r2, r1, #31
    6ec4:	d000      	beq.n	6ec8 <__divsi3+0x10c>
    6ec6:	4249      	negs	r1, r1
    6ec8:	1003      	asrs	r3, r0, #32
    6eca:	d300      	bcc.n	6ece <__divsi3+0x112>
    6ecc:	4240      	negs	r0, r0
    6ece:	4053      	eors	r3, r2
    6ed0:	2200      	movs	r2, #0
    6ed2:	469c      	mov	ip, r3
    6ed4:	0903      	lsrs	r3, r0, #4
    6ed6:	428b      	cmp	r3, r1
    6ed8:	d32d      	bcc.n	6f36 <__divsi3+0x17a>
    6eda:	0a03      	lsrs	r3, r0, #8
    6edc:	428b      	cmp	r3, r1
    6ede:	d312      	bcc.n	6f06 <__divsi3+0x14a>
    6ee0:	22fc      	movs	r2, #252	; 0xfc
    6ee2:	0189      	lsls	r1, r1, #6
    6ee4:	ba12      	rev	r2, r2
    6ee6:	0a03      	lsrs	r3, r0, #8
    6ee8:	428b      	cmp	r3, r1
    6eea:	d30c      	bcc.n	6f06 <__divsi3+0x14a>
    6eec:	0189      	lsls	r1, r1, #6
    6eee:	1192      	asrs	r2, r2, #6
    6ef0:	428b      	cmp	r3, r1
    6ef2:	d308      	bcc.n	6f06 <__divsi3+0x14a>
    6ef4:	0189      	lsls	r1, r1, #6
    6ef6:	1192      	asrs	r2, r2, #6
    6ef8:	428b      	cmp	r3, r1
    6efa:	d304      	bcc.n	6f06 <__divsi3+0x14a>
    6efc:	0189      	lsls	r1, r1, #6
    6efe:	d03a      	beq.n	6f76 <__divsi3+0x1ba>
    6f00:	1192      	asrs	r2, r2, #6
    6f02:	e000      	b.n	6f06 <__divsi3+0x14a>
    6f04:	0989      	lsrs	r1, r1, #6
    6f06:	09c3      	lsrs	r3, r0, #7
    6f08:	428b      	cmp	r3, r1
    6f0a:	d301      	bcc.n	6f10 <__divsi3+0x154>
    6f0c:	01cb      	lsls	r3, r1, #7
    6f0e:	1ac0      	subs	r0, r0, r3
    6f10:	4152      	adcs	r2, r2
    6f12:	0983      	lsrs	r3, r0, #6
    6f14:	428b      	cmp	r3, r1
    6f16:	d301      	bcc.n	6f1c <__divsi3+0x160>
    6f18:	018b      	lsls	r3, r1, #6
    6f1a:	1ac0      	subs	r0, r0, r3
    6f1c:	4152      	adcs	r2, r2
    6f1e:	0943      	lsrs	r3, r0, #5
    6f20:	428b      	cmp	r3, r1
    6f22:	d301      	bcc.n	6f28 <__divsi3+0x16c>
    6f24:	014b      	lsls	r3, r1, #5
    6f26:	1ac0      	subs	r0, r0, r3
    6f28:	4152      	adcs	r2, r2
    6f2a:	0903      	lsrs	r3, r0, #4
    6f2c:	428b      	cmp	r3, r1
    6f2e:	d301      	bcc.n	6f34 <__divsi3+0x178>
    6f30:	010b      	lsls	r3, r1, #4
    6f32:	1ac0      	subs	r0, r0, r3
    6f34:	4152      	adcs	r2, r2
    6f36:	08c3      	lsrs	r3, r0, #3
    6f38:	428b      	cmp	r3, r1
    6f3a:	d301      	bcc.n	6f40 <__divsi3+0x184>
    6f3c:	00cb      	lsls	r3, r1, #3
    6f3e:	1ac0      	subs	r0, r0, r3
    6f40:	4152      	adcs	r2, r2
    6f42:	0883      	lsrs	r3, r0, #2
    6f44:	428b      	cmp	r3, r1
    6f46:	d301      	bcc.n	6f4c <__divsi3+0x190>
    6f48:	008b      	lsls	r3, r1, #2
    6f4a:	1ac0      	subs	r0, r0, r3
    6f4c:	4152      	adcs	r2, r2
    6f4e:	d2d9      	bcs.n	6f04 <__divsi3+0x148>
    6f50:	0843      	lsrs	r3, r0, #1
    6f52:	428b      	cmp	r3, r1
    6f54:	d301      	bcc.n	6f5a <__divsi3+0x19e>
    6f56:	004b      	lsls	r3, r1, #1
    6f58:	1ac0      	subs	r0, r0, r3
    6f5a:	4152      	adcs	r2, r2
    6f5c:	1a41      	subs	r1, r0, r1
    6f5e:	d200      	bcs.n	6f62 <__divsi3+0x1a6>
    6f60:	4601      	mov	r1, r0
    6f62:	4663      	mov	r3, ip
    6f64:	4152      	adcs	r2, r2
    6f66:	105b      	asrs	r3, r3, #1
    6f68:	4610      	mov	r0, r2
    6f6a:	d301      	bcc.n	6f70 <__divsi3+0x1b4>
    6f6c:	4240      	negs	r0, r0
    6f6e:	2b00      	cmp	r3, #0
    6f70:	d500      	bpl.n	6f74 <__divsi3+0x1b8>
    6f72:	4249      	negs	r1, r1
    6f74:	4770      	bx	lr
    6f76:	4663      	mov	r3, ip
    6f78:	105b      	asrs	r3, r3, #1
    6f7a:	d300      	bcc.n	6f7e <__divsi3+0x1c2>
    6f7c:	4240      	negs	r0, r0
    6f7e:	b501      	push	{r0, lr}
    6f80:	2000      	movs	r0, #0
    6f82:	f000 f805 	bl	6f90 <__aeabi_idiv0>
    6f86:	bd02      	pop	{r1, pc}

00006f88 <__aeabi_idivmod>:
__aeabi_idivmod():
    6f88:	2900      	cmp	r1, #0
    6f8a:	d0f8      	beq.n	6f7e <__divsi3+0x1c2>
    6f8c:	e716      	b.n	6dbc <__divsi3>
    6f8e:	4770      	bx	lr

00006f90 <__aeabi_idiv0>:
__aeabi_ldiv0():
    6f90:	4770      	bx	lr
    6f92:	46c0      	nop			; (mov r8, r8)

00006f94 <__aeabi_cdrcmple>:
__aeabi_cdrcmple():
    6f94:	4684      	mov	ip, r0
    6f96:	1c10      	adds	r0, r2, #0
    6f98:	4662      	mov	r2, ip
    6f9a:	468c      	mov	ip, r1
    6f9c:	1c19      	adds	r1, r3, #0
    6f9e:	4663      	mov	r3, ip
    6fa0:	e000      	b.n	6fa4 <__aeabi_cdcmpeq>
    6fa2:	46c0      	nop			; (mov r8, r8)

00006fa4 <__aeabi_cdcmpeq>:
    6fa4:	b51f      	push	{r0, r1, r2, r3, r4, lr}
    6fa6:	f000 ffa9 	bl	7efc <__ledf2>
    6faa:	2800      	cmp	r0, #0
    6fac:	d401      	bmi.n	6fb2 <__aeabi_cdcmpeq+0xe>
    6fae:	2100      	movs	r1, #0
    6fb0:	42c8      	cmn	r0, r1
    6fb2:	bd1f      	pop	{r0, r1, r2, r3, r4, pc}

00006fb4 <__aeabi_dcmpeq>:
__aeabi_dcmpeq():
    6fb4:	b510      	push	{r4, lr}
    6fb6:	f000 fef3 	bl	7da0 <__eqdf2>
    6fba:	4240      	negs	r0, r0
    6fbc:	3001      	adds	r0, #1
    6fbe:	bd10      	pop	{r4, pc}

00006fc0 <__aeabi_dcmplt>:
__aeabi_dcmplt():
    6fc0:	b510      	push	{r4, lr}
    6fc2:	f000 ff9b 	bl	7efc <__ledf2>
    6fc6:	2800      	cmp	r0, #0
    6fc8:	db01      	blt.n	6fce <__aeabi_dcmplt+0xe>
    6fca:	2000      	movs	r0, #0
    6fcc:	bd10      	pop	{r4, pc}
    6fce:	2001      	movs	r0, #1
    6fd0:	bd10      	pop	{r4, pc}
    6fd2:	46c0      	nop			; (mov r8, r8)

00006fd4 <__aeabi_dcmple>:
__aeabi_dcmple():
    6fd4:	b510      	push	{r4, lr}
    6fd6:	f000 ff91 	bl	7efc <__ledf2>
    6fda:	2800      	cmp	r0, #0
    6fdc:	dd01      	ble.n	6fe2 <__aeabi_dcmple+0xe>
    6fde:	2000      	movs	r0, #0
    6fe0:	bd10      	pop	{r4, pc}
    6fe2:	2001      	movs	r0, #1
    6fe4:	bd10      	pop	{r4, pc}
    6fe6:	46c0      	nop			; (mov r8, r8)

00006fe8 <__aeabi_dcmpgt>:
__aeabi_dcmpgt():
    6fe8:	b510      	push	{r4, lr}
    6fea:	f000 ff15 	bl	7e18 <__gedf2>
    6fee:	2800      	cmp	r0, #0
    6ff0:	dc01      	bgt.n	6ff6 <__aeabi_dcmpgt+0xe>
    6ff2:	2000      	movs	r0, #0
    6ff4:	bd10      	pop	{r4, pc}
    6ff6:	2001      	movs	r0, #1
    6ff8:	bd10      	pop	{r4, pc}
    6ffa:	46c0      	nop			; (mov r8, r8)

00006ffc <__aeabi_dcmpge>:
__aeabi_dcmpge():
    6ffc:	b510      	push	{r4, lr}
    6ffe:	f000 ff0b 	bl	7e18 <__gedf2>
    7002:	2800      	cmp	r0, #0
    7004:	da01      	bge.n	700a <__aeabi_dcmpge+0xe>
    7006:	2000      	movs	r0, #0
    7008:	bd10      	pop	{r4, pc}
    700a:	2001      	movs	r0, #1
    700c:	bd10      	pop	{r4, pc}
    700e:	46c0      	nop			; (mov r8, r8)

00007010 <__aeabi_cfrcmple>:
__aeabi_cfrcmple():
    7010:	4684      	mov	ip, r0
    7012:	1c08      	adds	r0, r1, #0
    7014:	4661      	mov	r1, ip
    7016:	e7ff      	b.n	7018 <__aeabi_cfcmpeq>

00007018 <__aeabi_cfcmpeq>:
    7018:	b51f      	push	{r0, r1, r2, r3, r4, lr}
    701a:	f000 faf3 	bl	7604 <__lesf2>
    701e:	2800      	cmp	r0, #0
    7020:	d401      	bmi.n	7026 <__aeabi_cfcmpeq+0xe>
    7022:	2100      	movs	r1, #0
    7024:	42c8      	cmn	r0, r1
    7026:	bd1f      	pop	{r0, r1, r2, r3, r4, pc}

00007028 <__aeabi_fcmpeq>:
__aeabi_fcmpeq():
    7028:	b510      	push	{r4, lr}
    702a:	f000 fa77 	bl	751c <__eqsf2>
    702e:	4240      	negs	r0, r0
    7030:	3001      	adds	r0, #1
    7032:	bd10      	pop	{r4, pc}

00007034 <__aeabi_fcmplt>:
__aeabi_fcmplt():
    7034:	b510      	push	{r4, lr}
    7036:	f000 fae5 	bl	7604 <__lesf2>
    703a:	2800      	cmp	r0, #0
    703c:	db01      	blt.n	7042 <__aeabi_fcmplt+0xe>
    703e:	2000      	movs	r0, #0
    7040:	bd10      	pop	{r4, pc}
    7042:	2001      	movs	r0, #1
    7044:	bd10      	pop	{r4, pc}
    7046:	46c0      	nop			; (mov r8, r8)

00007048 <__aeabi_fcmple>:
__aeabi_fcmple():
    7048:	b510      	push	{r4, lr}
    704a:	f000 fadb 	bl	7604 <__lesf2>
    704e:	2800      	cmp	r0, #0
    7050:	dd01      	ble.n	7056 <__aeabi_fcmple+0xe>
    7052:	2000      	movs	r0, #0
    7054:	bd10      	pop	{r4, pc}
    7056:	2001      	movs	r0, #1
    7058:	bd10      	pop	{r4, pc}
    705a:	46c0      	nop			; (mov r8, r8)

0000705c <__aeabi_fcmpgt>:
__aeabi_fcmpgt():
    705c:	b510      	push	{r4, lr}
    705e:	f000 fa85 	bl	756c <__gesf2>
    7062:	2800      	cmp	r0, #0
    7064:	dc01      	bgt.n	706a <__aeabi_fcmpgt+0xe>
    7066:	2000      	movs	r0, #0
    7068:	bd10      	pop	{r4, pc}
    706a:	2001      	movs	r0, #1
    706c:	bd10      	pop	{r4, pc}
    706e:	46c0      	nop			; (mov r8, r8)

00007070 <__aeabi_fcmpge>:
__aeabi_fcmpge():
    7070:	b510      	push	{r4, lr}
    7072:	f000 fa7b 	bl	756c <__gesf2>
    7076:	2800      	cmp	r0, #0
    7078:	da01      	bge.n	707e <__aeabi_fcmpge+0xe>
    707a:	2000      	movs	r0, #0
    707c:	bd10      	pop	{r4, pc}
    707e:	2001      	movs	r0, #1
    7080:	bd10      	pop	{r4, pc}
    7082:	46c0      	nop			; (mov r8, r8)

00007084 <__aeabi_uldivmod>:
__aeabi_uldivmod():
    7084:	2b00      	cmp	r3, #0
    7086:	d111      	bne.n	70ac <__aeabi_uldivmod+0x28>
    7088:	2a00      	cmp	r2, #0
    708a:	d10f      	bne.n	70ac <__aeabi_uldivmod+0x28>
    708c:	2900      	cmp	r1, #0
    708e:	d100      	bne.n	7092 <__aeabi_uldivmod+0xe>
    7090:	2800      	cmp	r0, #0
    7092:	d002      	beq.n	709a <__aeabi_uldivmod+0x16>
    7094:	2100      	movs	r1, #0
    7096:	43c9      	mvns	r1, r1
    7098:	1c08      	adds	r0, r1, #0
    709a:	b407      	push	{r0, r1, r2}
    709c:	4802      	ldr	r0, [pc, #8]	; (70a8 <__aeabi_uldivmod+0x24>)
    709e:	a102      	add	r1, pc, #8	; (adr r1, 70a8 <__aeabi_uldivmod+0x24>)
    70a0:	1840      	adds	r0, r0, r1
    70a2:	9002      	str	r0, [sp, #8]
    70a4:	bd03      	pop	{r0, r1, pc}
    70a6:	46c0      	nop			; (mov r8, r8)
    70a8:	fffffee9 	.word	0xfffffee9
    70ac:	b403      	push	{r0, r1}
    70ae:	4668      	mov	r0, sp
    70b0:	b501      	push	{r0, lr}
    70b2:	9802      	ldr	r0, [sp, #8]
    70b4:	f000 f85a 	bl	716c <__udivmoddi4>
    70b8:	9b01      	ldr	r3, [sp, #4]
    70ba:	469e      	mov	lr, r3
    70bc:	b002      	add	sp, #8
    70be:	bc0c      	pop	{r2, r3}
    70c0:	4770      	bx	lr
    70c2:	46c0      	nop			; (mov r8, r8)

000070c4 <__aeabi_f2uiz>:
__aeabi_f2uiz():
    70c4:	219e      	movs	r1, #158	; 0x9e
    70c6:	b510      	push	{r4, lr}
    70c8:	05c9      	lsls	r1, r1, #23
    70ca:	1c04      	adds	r4, r0, #0
    70cc:	f7ff ffd0 	bl	7070 <__aeabi_fcmpge>
    70d0:	2800      	cmp	r0, #0
    70d2:	d103      	bne.n	70dc <__aeabi_f2uiz+0x18>
    70d4:	1c20      	adds	r0, r4, #0
    70d6:	f000 fdc1 	bl	7c5c <__aeabi_f2iz>
    70da:	bd10      	pop	{r4, pc}
    70dc:	219e      	movs	r1, #158	; 0x9e
    70de:	1c20      	adds	r0, r4, #0
    70e0:	05c9      	lsls	r1, r1, #23
    70e2:	f000 fbf3 	bl	78cc <__aeabi_fsub>
    70e6:	f000 fdb9 	bl	7c5c <__aeabi_f2iz>
    70ea:	2380      	movs	r3, #128	; 0x80
    70ec:	061b      	lsls	r3, r3, #24
    70ee:	469c      	mov	ip, r3
    70f0:	4460      	add	r0, ip
    70f2:	e7f2      	b.n	70da <__aeabi_f2uiz+0x16>

000070f4 <__aeabi_d2uiz>:
__fixunsdfsi():
    70f4:	b570      	push	{r4, r5, r6, lr}
    70f6:	2200      	movs	r2, #0
    70f8:	4b0c      	ldr	r3, [pc, #48]	; (712c <__aeabi_d2uiz+0x38>)
    70fa:	0004      	movs	r4, r0
    70fc:	000d      	movs	r5, r1
    70fe:	f7ff ff7d 	bl	6ffc <__aeabi_dcmpge>
    7102:	2800      	cmp	r0, #0
    7104:	d104      	bne.n	7110 <__aeabi_d2uiz+0x1c>
    7106:	0020      	movs	r0, r4
    7108:	0029      	movs	r1, r5
    710a:	f001 fd65 	bl	8bd8 <__aeabi_d2iz>
    710e:	bd70      	pop	{r4, r5, r6, pc}
    7110:	4b06      	ldr	r3, [pc, #24]	; (712c <__aeabi_d2uiz+0x38>)
    7112:	2200      	movs	r2, #0
    7114:	0020      	movs	r0, r4
    7116:	0029      	movs	r1, r5
    7118:	f001 f9cc 	bl	84b4 <__aeabi_dsub>
    711c:	f001 fd5c 	bl	8bd8 <__aeabi_d2iz>
    7120:	2380      	movs	r3, #128	; 0x80
    7122:	061b      	lsls	r3, r3, #24
    7124:	469c      	mov	ip, r3
    7126:	4460      	add	r0, ip
    7128:	e7f1      	b.n	710e <__aeabi_d2uiz+0x1a>
    712a:	46c0      	nop			; (mov r8, r8)
    712c:	41e00000 	.word	0x41e00000

00007130 <__aeabi_d2ulz>:
__aeabi_d2ulz():
    7130:	b570      	push	{r4, r5, r6, lr}
    7132:	2200      	movs	r2, #0
    7134:	4b0b      	ldr	r3, [pc, #44]	; (7164 <__aeabi_d2ulz+0x34>)
    7136:	000d      	movs	r5, r1
    7138:	0004      	movs	r4, r0
    713a:	f000 ff4f 	bl	7fdc <__aeabi_dmul>
    713e:	f7ff ffd9 	bl	70f4 <__aeabi_d2uiz>
    7142:	0006      	movs	r6, r0
    7144:	f001 fd7e 	bl	8c44 <__aeabi_ui2d>
    7148:	2200      	movs	r2, #0
    714a:	4b07      	ldr	r3, [pc, #28]	; (7168 <__aeabi_d2ulz+0x38>)
    714c:	f000 ff46 	bl	7fdc <__aeabi_dmul>
    7150:	0002      	movs	r2, r0
    7152:	000b      	movs	r3, r1
    7154:	0020      	movs	r0, r4
    7156:	0029      	movs	r1, r5
    7158:	f001 f9ac 	bl	84b4 <__aeabi_dsub>
    715c:	f7ff ffca 	bl	70f4 <__aeabi_d2uiz>
    7160:	0031      	movs	r1, r6
    7162:	bd70      	pop	{r4, r5, r6, pc}
    7164:	3df00000 	.word	0x3df00000
    7168:	41f00000 	.word	0x41f00000

0000716c <__udivmoddi4>:
__udivmoddi4():
    716c:	b5f0      	push	{r4, r5, r6, r7, lr}
    716e:	4657      	mov	r7, sl
    7170:	464e      	mov	r6, r9
    7172:	4645      	mov	r5, r8
    7174:	46de      	mov	lr, fp
    7176:	b5e0      	push	{r5, r6, r7, lr}
    7178:	0004      	movs	r4, r0
    717a:	000d      	movs	r5, r1
    717c:	4692      	mov	sl, r2
    717e:	4699      	mov	r9, r3
    7180:	b083      	sub	sp, #12
    7182:	428b      	cmp	r3, r1
    7184:	d830      	bhi.n	71e8 <__udivmoddi4+0x7c>
    7186:	d02d      	beq.n	71e4 <__udivmoddi4+0x78>
    7188:	4649      	mov	r1, r9
    718a:	4650      	mov	r0, sl
    718c:	f001 fd9e 	bl	8ccc <__clzdi2>
    7190:	0029      	movs	r1, r5
    7192:	0006      	movs	r6, r0
    7194:	0020      	movs	r0, r4
    7196:	f001 fd99 	bl	8ccc <__clzdi2>
    719a:	1a33      	subs	r3, r6, r0
    719c:	4698      	mov	r8, r3
    719e:	3b20      	subs	r3, #32
    71a0:	469b      	mov	fp, r3
    71a2:	d433      	bmi.n	720c <__udivmoddi4+0xa0>
    71a4:	465a      	mov	r2, fp
    71a6:	4653      	mov	r3, sl
    71a8:	4093      	lsls	r3, r2
    71aa:	4642      	mov	r2, r8
    71ac:	001f      	movs	r7, r3
    71ae:	4653      	mov	r3, sl
    71b0:	4093      	lsls	r3, r2
    71b2:	001e      	movs	r6, r3
    71b4:	42af      	cmp	r7, r5
    71b6:	d83a      	bhi.n	722e <__udivmoddi4+0xc2>
    71b8:	42af      	cmp	r7, r5
    71ba:	d100      	bne.n	71be <__udivmoddi4+0x52>
    71bc:	e078      	b.n	72b0 <__udivmoddi4+0x144>
    71be:	465b      	mov	r3, fp
    71c0:	1ba4      	subs	r4, r4, r6
    71c2:	41bd      	sbcs	r5, r7
    71c4:	2b00      	cmp	r3, #0
    71c6:	da00      	bge.n	71ca <__udivmoddi4+0x5e>
    71c8:	e075      	b.n	72b6 <__udivmoddi4+0x14a>
    71ca:	2200      	movs	r2, #0
    71cc:	2300      	movs	r3, #0
    71ce:	9200      	str	r2, [sp, #0]
    71d0:	9301      	str	r3, [sp, #4]
    71d2:	2301      	movs	r3, #1
    71d4:	465a      	mov	r2, fp
    71d6:	4093      	lsls	r3, r2
    71d8:	9301      	str	r3, [sp, #4]
    71da:	2301      	movs	r3, #1
    71dc:	4642      	mov	r2, r8
    71de:	4093      	lsls	r3, r2
    71e0:	9300      	str	r3, [sp, #0]
    71e2:	e028      	b.n	7236 <__udivmoddi4+0xca>
    71e4:	4282      	cmp	r2, r0
    71e6:	d9cf      	bls.n	7188 <__udivmoddi4+0x1c>
    71e8:	2200      	movs	r2, #0
    71ea:	2300      	movs	r3, #0
    71ec:	9200      	str	r2, [sp, #0]
    71ee:	9301      	str	r3, [sp, #4]
    71f0:	9b0c      	ldr	r3, [sp, #48]	; 0x30
    71f2:	2b00      	cmp	r3, #0
    71f4:	d001      	beq.n	71fa <__udivmoddi4+0x8e>
    71f6:	601c      	str	r4, [r3, #0]
    71f8:	605d      	str	r5, [r3, #4]
    71fa:	9800      	ldr	r0, [sp, #0]
    71fc:	9901      	ldr	r1, [sp, #4]
    71fe:	b003      	add	sp, #12
    7200:	bcf0      	pop	{r4, r5, r6, r7}
    7202:	46bb      	mov	fp, r7
    7204:	46b2      	mov	sl, r6
    7206:	46a9      	mov	r9, r5
    7208:	46a0      	mov	r8, r4
    720a:	bdf0      	pop	{r4, r5, r6, r7, pc}
    720c:	4642      	mov	r2, r8
    720e:	2320      	movs	r3, #32
    7210:	1a9b      	subs	r3, r3, r2
    7212:	4652      	mov	r2, sl
    7214:	40da      	lsrs	r2, r3
    7216:	4641      	mov	r1, r8
    7218:	0013      	movs	r3, r2
    721a:	464a      	mov	r2, r9
    721c:	408a      	lsls	r2, r1
    721e:	0017      	movs	r7, r2
    7220:	4642      	mov	r2, r8
    7222:	431f      	orrs	r7, r3
    7224:	4653      	mov	r3, sl
    7226:	4093      	lsls	r3, r2
    7228:	001e      	movs	r6, r3
    722a:	42af      	cmp	r7, r5
    722c:	d9c4      	bls.n	71b8 <__udivmoddi4+0x4c>
    722e:	2200      	movs	r2, #0
    7230:	2300      	movs	r3, #0
    7232:	9200      	str	r2, [sp, #0]
    7234:	9301      	str	r3, [sp, #4]
    7236:	4643      	mov	r3, r8
    7238:	2b00      	cmp	r3, #0
    723a:	d0d9      	beq.n	71f0 <__udivmoddi4+0x84>
    723c:	07fb      	lsls	r3, r7, #31
    723e:	0872      	lsrs	r2, r6, #1
    7240:	431a      	orrs	r2, r3
    7242:	4646      	mov	r6, r8
    7244:	087b      	lsrs	r3, r7, #1
    7246:	e00e      	b.n	7266 <__udivmoddi4+0xfa>
    7248:	42ab      	cmp	r3, r5
    724a:	d101      	bne.n	7250 <__udivmoddi4+0xe4>
    724c:	42a2      	cmp	r2, r4
    724e:	d80c      	bhi.n	726a <__udivmoddi4+0xfe>
    7250:	1aa4      	subs	r4, r4, r2
    7252:	419d      	sbcs	r5, r3
    7254:	2001      	movs	r0, #1
    7256:	1924      	adds	r4, r4, r4
    7258:	416d      	adcs	r5, r5
    725a:	2100      	movs	r1, #0
    725c:	3e01      	subs	r6, #1
    725e:	1824      	adds	r4, r4, r0
    7260:	414d      	adcs	r5, r1
    7262:	2e00      	cmp	r6, #0
    7264:	d006      	beq.n	7274 <__udivmoddi4+0x108>
    7266:	42ab      	cmp	r3, r5
    7268:	d9ee      	bls.n	7248 <__udivmoddi4+0xdc>
    726a:	3e01      	subs	r6, #1
    726c:	1924      	adds	r4, r4, r4
    726e:	416d      	adcs	r5, r5
    7270:	2e00      	cmp	r6, #0
    7272:	d1f8      	bne.n	7266 <__udivmoddi4+0xfa>
    7274:	9800      	ldr	r0, [sp, #0]
    7276:	9901      	ldr	r1, [sp, #4]
    7278:	465b      	mov	r3, fp
    727a:	1900      	adds	r0, r0, r4
    727c:	4169      	adcs	r1, r5
    727e:	2b00      	cmp	r3, #0
    7280:	db24      	blt.n	72cc <__udivmoddi4+0x160>
    7282:	002b      	movs	r3, r5
    7284:	465a      	mov	r2, fp
    7286:	4644      	mov	r4, r8
    7288:	40d3      	lsrs	r3, r2
    728a:	002a      	movs	r2, r5
    728c:	40e2      	lsrs	r2, r4
    728e:	001c      	movs	r4, r3
    7290:	465b      	mov	r3, fp
    7292:	0015      	movs	r5, r2
    7294:	2b00      	cmp	r3, #0
    7296:	db2a      	blt.n	72ee <__udivmoddi4+0x182>
    7298:	0026      	movs	r6, r4
    729a:	409e      	lsls	r6, r3
    729c:	0033      	movs	r3, r6
    729e:	0026      	movs	r6, r4
    72a0:	4647      	mov	r7, r8
    72a2:	40be      	lsls	r6, r7
    72a4:	0032      	movs	r2, r6
    72a6:	1a80      	subs	r0, r0, r2
    72a8:	4199      	sbcs	r1, r3
    72aa:	9000      	str	r0, [sp, #0]
    72ac:	9101      	str	r1, [sp, #4]
    72ae:	e79f      	b.n	71f0 <__udivmoddi4+0x84>
    72b0:	42a3      	cmp	r3, r4
    72b2:	d8bc      	bhi.n	722e <__udivmoddi4+0xc2>
    72b4:	e783      	b.n	71be <__udivmoddi4+0x52>
    72b6:	4642      	mov	r2, r8
    72b8:	2320      	movs	r3, #32
    72ba:	2100      	movs	r1, #0
    72bc:	1a9b      	subs	r3, r3, r2
    72be:	2200      	movs	r2, #0
    72c0:	9100      	str	r1, [sp, #0]
    72c2:	9201      	str	r2, [sp, #4]
    72c4:	2201      	movs	r2, #1
    72c6:	40da      	lsrs	r2, r3
    72c8:	9201      	str	r2, [sp, #4]
    72ca:	e786      	b.n	71da <__udivmoddi4+0x6e>
    72cc:	4642      	mov	r2, r8
    72ce:	2320      	movs	r3, #32
    72d0:	1a9b      	subs	r3, r3, r2
    72d2:	002a      	movs	r2, r5
    72d4:	4646      	mov	r6, r8
    72d6:	409a      	lsls	r2, r3
    72d8:	0023      	movs	r3, r4
    72da:	40f3      	lsrs	r3, r6
    72dc:	4644      	mov	r4, r8
    72de:	4313      	orrs	r3, r2
    72e0:	002a      	movs	r2, r5
    72e2:	40e2      	lsrs	r2, r4
    72e4:	001c      	movs	r4, r3
    72e6:	465b      	mov	r3, fp
    72e8:	0015      	movs	r5, r2
    72ea:	2b00      	cmp	r3, #0
    72ec:	dad4      	bge.n	7298 <__udivmoddi4+0x12c>
    72ee:	4642      	mov	r2, r8
    72f0:	002f      	movs	r7, r5
    72f2:	2320      	movs	r3, #32
    72f4:	0026      	movs	r6, r4
    72f6:	4097      	lsls	r7, r2
    72f8:	1a9b      	subs	r3, r3, r2
    72fa:	40de      	lsrs	r6, r3
    72fc:	003b      	movs	r3, r7
    72fe:	4333      	orrs	r3, r6
    7300:	e7cd      	b.n	729e <__udivmoddi4+0x132>
    7302:	46c0      	nop			; (mov r8, r8)

00007304 <__aeabi_fdiv>:
__aeabi_fdiv():
    7304:	b5f0      	push	{r4, r5, r6, r7, lr}
    7306:	464f      	mov	r7, r9
    7308:	4646      	mov	r6, r8
    730a:	46d6      	mov	lr, sl
    730c:	0245      	lsls	r5, r0, #9
    730e:	b5c0      	push	{r6, r7, lr}
    7310:	0047      	lsls	r7, r0, #1
    7312:	1c0c      	adds	r4, r1, #0
    7314:	0a6d      	lsrs	r5, r5, #9
    7316:	0e3f      	lsrs	r7, r7, #24
    7318:	0fc6      	lsrs	r6, r0, #31
    731a:	2f00      	cmp	r7, #0
    731c:	d066      	beq.n	73ec <__aeabi_fdiv+0xe8>
    731e:	2fff      	cmp	r7, #255	; 0xff
    7320:	d06c      	beq.n	73fc <__aeabi_fdiv+0xf8>
    7322:	2300      	movs	r3, #0
    7324:	00ea      	lsls	r2, r5, #3
    7326:	2580      	movs	r5, #128	; 0x80
    7328:	4699      	mov	r9, r3
    732a:	469a      	mov	sl, r3
    732c:	04ed      	lsls	r5, r5, #19
    732e:	4315      	orrs	r5, r2
    7330:	3f7f      	subs	r7, #127	; 0x7f
    7332:	0260      	lsls	r0, r4, #9
    7334:	0061      	lsls	r1, r4, #1
    7336:	0a43      	lsrs	r3, r0, #9
    7338:	4698      	mov	r8, r3
    733a:	0e09      	lsrs	r1, r1, #24
    733c:	0fe4      	lsrs	r4, r4, #31
    733e:	2900      	cmp	r1, #0
    7340:	d048      	beq.n	73d4 <__aeabi_fdiv+0xd0>
    7342:	29ff      	cmp	r1, #255	; 0xff
    7344:	d010      	beq.n	7368 <__aeabi_fdiv+0x64>
    7346:	2280      	movs	r2, #128	; 0x80
    7348:	00d8      	lsls	r0, r3, #3
    734a:	04d2      	lsls	r2, r2, #19
    734c:	4302      	orrs	r2, r0
    734e:	4690      	mov	r8, r2
    7350:	2000      	movs	r0, #0
    7352:	397f      	subs	r1, #127	; 0x7f
    7354:	464a      	mov	r2, r9
    7356:	0033      	movs	r3, r6
    7358:	1a7f      	subs	r7, r7, r1
    735a:	4302      	orrs	r2, r0
    735c:	496c      	ldr	r1, [pc, #432]	; (7510 <__aeabi_fdiv+0x20c>)
    735e:	0092      	lsls	r2, r2, #2
    7360:	588a      	ldr	r2, [r1, r2]
    7362:	4063      	eors	r3, r4
    7364:	b2db      	uxtb	r3, r3
    7366:	4697      	mov	pc, r2
    7368:	2b00      	cmp	r3, #0
    736a:	d16d      	bne.n	7448 <__aeabi_fdiv+0x144>
    736c:	2002      	movs	r0, #2
    736e:	3fff      	subs	r7, #255	; 0xff
    7370:	e033      	b.n	73da <__aeabi_fdiv+0xd6>
    7372:	2300      	movs	r3, #0
    7374:	4698      	mov	r8, r3
    7376:	0026      	movs	r6, r4
    7378:	4645      	mov	r5, r8
    737a:	4682      	mov	sl, r0
    737c:	4653      	mov	r3, sl
    737e:	2b02      	cmp	r3, #2
    7380:	d100      	bne.n	7384 <__aeabi_fdiv+0x80>
    7382:	e07f      	b.n	7484 <__aeabi_fdiv+0x180>
    7384:	2b03      	cmp	r3, #3
    7386:	d100      	bne.n	738a <__aeabi_fdiv+0x86>
    7388:	e094      	b.n	74b4 <__aeabi_fdiv+0x1b0>
    738a:	2b01      	cmp	r3, #1
    738c:	d017      	beq.n	73be <__aeabi_fdiv+0xba>
    738e:	0038      	movs	r0, r7
    7390:	307f      	adds	r0, #127	; 0x7f
    7392:	2800      	cmp	r0, #0
    7394:	dd5f      	ble.n	7456 <__aeabi_fdiv+0x152>
    7396:	076b      	lsls	r3, r5, #29
    7398:	d004      	beq.n	73a4 <__aeabi_fdiv+0xa0>
    739a:	230f      	movs	r3, #15
    739c:	402b      	ands	r3, r5
    739e:	2b04      	cmp	r3, #4
    73a0:	d000      	beq.n	73a4 <__aeabi_fdiv+0xa0>
    73a2:	3504      	adds	r5, #4
    73a4:	012b      	lsls	r3, r5, #4
    73a6:	d503      	bpl.n	73b0 <__aeabi_fdiv+0xac>
    73a8:	0038      	movs	r0, r7
    73aa:	4b5a      	ldr	r3, [pc, #360]	; (7514 <__aeabi_fdiv+0x210>)
    73ac:	3080      	adds	r0, #128	; 0x80
    73ae:	401d      	ands	r5, r3
    73b0:	28fe      	cmp	r0, #254	; 0xfe
    73b2:	dc67      	bgt.n	7484 <__aeabi_fdiv+0x180>
    73b4:	01ad      	lsls	r5, r5, #6
    73b6:	0a6d      	lsrs	r5, r5, #9
    73b8:	b2c0      	uxtb	r0, r0
    73ba:	e002      	b.n	73c2 <__aeabi_fdiv+0xbe>
    73bc:	001e      	movs	r6, r3
    73be:	2000      	movs	r0, #0
    73c0:	2500      	movs	r5, #0
    73c2:	05c0      	lsls	r0, r0, #23
    73c4:	4328      	orrs	r0, r5
    73c6:	07f6      	lsls	r6, r6, #31
    73c8:	4330      	orrs	r0, r6
    73ca:	bce0      	pop	{r5, r6, r7}
    73cc:	46ba      	mov	sl, r7
    73ce:	46b1      	mov	r9, r6
    73d0:	46a8      	mov	r8, r5
    73d2:	bdf0      	pop	{r4, r5, r6, r7, pc}
    73d4:	2b00      	cmp	r3, #0
    73d6:	d12b      	bne.n	7430 <__aeabi_fdiv+0x12c>
    73d8:	2001      	movs	r0, #1
    73da:	464a      	mov	r2, r9
    73dc:	0033      	movs	r3, r6
    73de:	494e      	ldr	r1, [pc, #312]	; (7518 <__aeabi_fdiv+0x214>)
    73e0:	4302      	orrs	r2, r0
    73e2:	0092      	lsls	r2, r2, #2
    73e4:	588a      	ldr	r2, [r1, r2]
    73e6:	4063      	eors	r3, r4
    73e8:	b2db      	uxtb	r3, r3
    73ea:	4697      	mov	pc, r2
    73ec:	2d00      	cmp	r5, #0
    73ee:	d113      	bne.n	7418 <__aeabi_fdiv+0x114>
    73f0:	2304      	movs	r3, #4
    73f2:	4699      	mov	r9, r3
    73f4:	3b03      	subs	r3, #3
    73f6:	2700      	movs	r7, #0
    73f8:	469a      	mov	sl, r3
    73fa:	e79a      	b.n	7332 <__aeabi_fdiv+0x2e>
    73fc:	2d00      	cmp	r5, #0
    73fe:	d105      	bne.n	740c <__aeabi_fdiv+0x108>
    7400:	2308      	movs	r3, #8
    7402:	4699      	mov	r9, r3
    7404:	3b06      	subs	r3, #6
    7406:	27ff      	movs	r7, #255	; 0xff
    7408:	469a      	mov	sl, r3
    740a:	e792      	b.n	7332 <__aeabi_fdiv+0x2e>
    740c:	230c      	movs	r3, #12
    740e:	4699      	mov	r9, r3
    7410:	3b09      	subs	r3, #9
    7412:	27ff      	movs	r7, #255	; 0xff
    7414:	469a      	mov	sl, r3
    7416:	e78c      	b.n	7332 <__aeabi_fdiv+0x2e>
    7418:	0028      	movs	r0, r5
    741a:	f001 fc39 	bl	8c90 <__clzsi2>
    741e:	2776      	movs	r7, #118	; 0x76
    7420:	1f43      	subs	r3, r0, #5
    7422:	409d      	lsls	r5, r3
    7424:	2300      	movs	r3, #0
    7426:	427f      	negs	r7, r7
    7428:	4699      	mov	r9, r3
    742a:	469a      	mov	sl, r3
    742c:	1a3f      	subs	r7, r7, r0
    742e:	e780      	b.n	7332 <__aeabi_fdiv+0x2e>
    7430:	0018      	movs	r0, r3
    7432:	f001 fc2d 	bl	8c90 <__clzsi2>
    7436:	4642      	mov	r2, r8
    7438:	1f43      	subs	r3, r0, #5
    743a:	2176      	movs	r1, #118	; 0x76
    743c:	409a      	lsls	r2, r3
    743e:	4249      	negs	r1, r1
    7440:	1a09      	subs	r1, r1, r0
    7442:	4690      	mov	r8, r2
    7444:	2000      	movs	r0, #0
    7446:	e785      	b.n	7354 <__aeabi_fdiv+0x50>
    7448:	21ff      	movs	r1, #255	; 0xff
    744a:	2003      	movs	r0, #3
    744c:	e782      	b.n	7354 <__aeabi_fdiv+0x50>
    744e:	001e      	movs	r6, r3
    7450:	20ff      	movs	r0, #255	; 0xff
    7452:	2500      	movs	r5, #0
    7454:	e7b5      	b.n	73c2 <__aeabi_fdiv+0xbe>
    7456:	2301      	movs	r3, #1
    7458:	1a1b      	subs	r3, r3, r0
    745a:	2b1b      	cmp	r3, #27
    745c:	dcaf      	bgt.n	73be <__aeabi_fdiv+0xba>
    745e:	379e      	adds	r7, #158	; 0x9e
    7460:	0029      	movs	r1, r5
    7462:	40bd      	lsls	r5, r7
    7464:	40d9      	lsrs	r1, r3
    7466:	1e6a      	subs	r2, r5, #1
    7468:	4195      	sbcs	r5, r2
    746a:	430d      	orrs	r5, r1
    746c:	076b      	lsls	r3, r5, #29
    746e:	d004      	beq.n	747a <__aeabi_fdiv+0x176>
    7470:	230f      	movs	r3, #15
    7472:	402b      	ands	r3, r5
    7474:	2b04      	cmp	r3, #4
    7476:	d000      	beq.n	747a <__aeabi_fdiv+0x176>
    7478:	3504      	adds	r5, #4
    747a:	016b      	lsls	r3, r5, #5
    747c:	d544      	bpl.n	7508 <__aeabi_fdiv+0x204>
    747e:	2001      	movs	r0, #1
    7480:	2500      	movs	r5, #0
    7482:	e79e      	b.n	73c2 <__aeabi_fdiv+0xbe>
    7484:	20ff      	movs	r0, #255	; 0xff
    7486:	2500      	movs	r5, #0
    7488:	e79b      	b.n	73c2 <__aeabi_fdiv+0xbe>
    748a:	2580      	movs	r5, #128	; 0x80
    748c:	2600      	movs	r6, #0
    748e:	20ff      	movs	r0, #255	; 0xff
    7490:	03ed      	lsls	r5, r5, #15
    7492:	e796      	b.n	73c2 <__aeabi_fdiv+0xbe>
    7494:	2300      	movs	r3, #0
    7496:	4698      	mov	r8, r3
    7498:	2080      	movs	r0, #128	; 0x80
    749a:	03c0      	lsls	r0, r0, #15
    749c:	4205      	tst	r5, r0
    749e:	d009      	beq.n	74b4 <__aeabi_fdiv+0x1b0>
    74a0:	4643      	mov	r3, r8
    74a2:	4203      	tst	r3, r0
    74a4:	d106      	bne.n	74b4 <__aeabi_fdiv+0x1b0>
    74a6:	4645      	mov	r5, r8
    74a8:	4305      	orrs	r5, r0
    74aa:	026d      	lsls	r5, r5, #9
    74ac:	0026      	movs	r6, r4
    74ae:	20ff      	movs	r0, #255	; 0xff
    74b0:	0a6d      	lsrs	r5, r5, #9
    74b2:	e786      	b.n	73c2 <__aeabi_fdiv+0xbe>
    74b4:	2080      	movs	r0, #128	; 0x80
    74b6:	03c0      	lsls	r0, r0, #15
    74b8:	4305      	orrs	r5, r0
    74ba:	026d      	lsls	r5, r5, #9
    74bc:	20ff      	movs	r0, #255	; 0xff
    74be:	0a6d      	lsrs	r5, r5, #9
    74c0:	e77f      	b.n	73c2 <__aeabi_fdiv+0xbe>
    74c2:	4641      	mov	r1, r8
    74c4:	016a      	lsls	r2, r5, #5
    74c6:	0148      	lsls	r0, r1, #5
    74c8:	4282      	cmp	r2, r0
    74ca:	d219      	bcs.n	7500 <__aeabi_fdiv+0x1fc>
    74cc:	211b      	movs	r1, #27
    74ce:	2500      	movs	r5, #0
    74d0:	3f01      	subs	r7, #1
    74d2:	2601      	movs	r6, #1
    74d4:	0014      	movs	r4, r2
    74d6:	006d      	lsls	r5, r5, #1
    74d8:	0052      	lsls	r2, r2, #1
    74da:	2c00      	cmp	r4, #0
    74dc:	db01      	blt.n	74e2 <__aeabi_fdiv+0x1de>
    74de:	4290      	cmp	r0, r2
    74e0:	d801      	bhi.n	74e6 <__aeabi_fdiv+0x1e2>
    74e2:	1a12      	subs	r2, r2, r0
    74e4:	4335      	orrs	r5, r6
    74e6:	3901      	subs	r1, #1
    74e8:	2900      	cmp	r1, #0
    74ea:	d1f3      	bne.n	74d4 <__aeabi_fdiv+0x1d0>
    74ec:	1e50      	subs	r0, r2, #1
    74ee:	4182      	sbcs	r2, r0
    74f0:	0038      	movs	r0, r7
    74f2:	307f      	adds	r0, #127	; 0x7f
    74f4:	001e      	movs	r6, r3
    74f6:	4315      	orrs	r5, r2
    74f8:	2800      	cmp	r0, #0
    74fa:	dd00      	ble.n	74fe <__aeabi_fdiv+0x1fa>
    74fc:	e74b      	b.n	7396 <__aeabi_fdiv+0x92>
    74fe:	e7aa      	b.n	7456 <__aeabi_fdiv+0x152>
    7500:	211a      	movs	r1, #26
    7502:	2501      	movs	r5, #1
    7504:	1a12      	subs	r2, r2, r0
    7506:	e7e4      	b.n	74d2 <__aeabi_fdiv+0x1ce>
    7508:	01ad      	lsls	r5, r5, #6
    750a:	2000      	movs	r0, #0
    750c:	0a6d      	lsrs	r5, r5, #9
    750e:	e758      	b.n	73c2 <__aeabi_fdiv+0xbe>
    7510:	0000bc20 	.word	0x0000bc20
    7514:	f7ffffff 	.word	0xf7ffffff
    7518:	0000bc60 	.word	0x0000bc60

0000751c <__eqsf2>:
__nesf2():
    751c:	b570      	push	{r4, r5, r6, lr}
    751e:	0042      	lsls	r2, r0, #1
    7520:	024e      	lsls	r6, r1, #9
    7522:	004c      	lsls	r4, r1, #1
    7524:	0245      	lsls	r5, r0, #9
    7526:	0a6d      	lsrs	r5, r5, #9
    7528:	0e12      	lsrs	r2, r2, #24
    752a:	0fc3      	lsrs	r3, r0, #31
    752c:	0a76      	lsrs	r6, r6, #9
    752e:	0e24      	lsrs	r4, r4, #24
    7530:	0fc9      	lsrs	r1, r1, #31
    7532:	2aff      	cmp	r2, #255	; 0xff
    7534:	d00f      	beq.n	7556 <__eqsf2+0x3a>
    7536:	2cff      	cmp	r4, #255	; 0xff
    7538:	d011      	beq.n	755e <__eqsf2+0x42>
    753a:	2001      	movs	r0, #1
    753c:	42a2      	cmp	r2, r4
    753e:	d000      	beq.n	7542 <__eqsf2+0x26>
    7540:	bd70      	pop	{r4, r5, r6, pc}
    7542:	42b5      	cmp	r5, r6
    7544:	d1fc      	bne.n	7540 <__eqsf2+0x24>
    7546:	428b      	cmp	r3, r1
    7548:	d00d      	beq.n	7566 <__eqsf2+0x4a>
    754a:	2a00      	cmp	r2, #0
    754c:	d1f8      	bne.n	7540 <__eqsf2+0x24>
    754e:	0028      	movs	r0, r5
    7550:	1e45      	subs	r5, r0, #1
    7552:	41a8      	sbcs	r0, r5
    7554:	e7f4      	b.n	7540 <__eqsf2+0x24>
    7556:	2001      	movs	r0, #1
    7558:	2d00      	cmp	r5, #0
    755a:	d1f1      	bne.n	7540 <__eqsf2+0x24>
    755c:	e7eb      	b.n	7536 <__eqsf2+0x1a>
    755e:	2001      	movs	r0, #1
    7560:	2e00      	cmp	r6, #0
    7562:	d1ed      	bne.n	7540 <__eqsf2+0x24>
    7564:	e7e9      	b.n	753a <__eqsf2+0x1e>
    7566:	2000      	movs	r0, #0
    7568:	e7ea      	b.n	7540 <__eqsf2+0x24>
    756a:	46c0      	nop			; (mov r8, r8)

0000756c <__gesf2>:
__gtsf2():
    756c:	b5f0      	push	{r4, r5, r6, r7, lr}
    756e:	0042      	lsls	r2, r0, #1
    7570:	0246      	lsls	r6, r0, #9
    7572:	024d      	lsls	r5, r1, #9
    7574:	004c      	lsls	r4, r1, #1
    7576:	0fc3      	lsrs	r3, r0, #31
    7578:	0a76      	lsrs	r6, r6, #9
    757a:	0e12      	lsrs	r2, r2, #24
    757c:	0a6d      	lsrs	r5, r5, #9
    757e:	0e24      	lsrs	r4, r4, #24
    7580:	0fc8      	lsrs	r0, r1, #31
    7582:	2aff      	cmp	r2, #255	; 0xff
    7584:	d01f      	beq.n	75c6 <__gesf2+0x5a>
    7586:	2cff      	cmp	r4, #255	; 0xff
    7588:	d010      	beq.n	75ac <__gesf2+0x40>
    758a:	2a00      	cmp	r2, #0
    758c:	d11f      	bne.n	75ce <__gesf2+0x62>
    758e:	4271      	negs	r1, r6
    7590:	4171      	adcs	r1, r6
    7592:	2c00      	cmp	r4, #0
    7594:	d101      	bne.n	759a <__gesf2+0x2e>
    7596:	2d00      	cmp	r5, #0
    7598:	d01e      	beq.n	75d8 <__gesf2+0x6c>
    759a:	2900      	cmp	r1, #0
    759c:	d10e      	bne.n	75bc <__gesf2+0x50>
    759e:	4283      	cmp	r3, r0
    75a0:	d01e      	beq.n	75e0 <__gesf2+0x74>
    75a2:	2102      	movs	r1, #2
    75a4:	1e58      	subs	r0, r3, #1
    75a6:	4008      	ands	r0, r1
    75a8:	3801      	subs	r0, #1
    75aa:	bdf0      	pop	{r4, r5, r6, r7, pc}
    75ac:	2d00      	cmp	r5, #0
    75ae:	d126      	bne.n	75fe <__gesf2+0x92>
    75b0:	2a00      	cmp	r2, #0
    75b2:	d1f4      	bne.n	759e <__gesf2+0x32>
    75b4:	4271      	negs	r1, r6
    75b6:	4171      	adcs	r1, r6
    75b8:	2900      	cmp	r1, #0
    75ba:	d0f0      	beq.n	759e <__gesf2+0x32>
    75bc:	2800      	cmp	r0, #0
    75be:	d1f4      	bne.n	75aa <__gesf2+0x3e>
    75c0:	2001      	movs	r0, #1
    75c2:	4240      	negs	r0, r0
    75c4:	e7f1      	b.n	75aa <__gesf2+0x3e>
    75c6:	2e00      	cmp	r6, #0
    75c8:	d119      	bne.n	75fe <__gesf2+0x92>
    75ca:	2cff      	cmp	r4, #255	; 0xff
    75cc:	d0ee      	beq.n	75ac <__gesf2+0x40>
    75ce:	2c00      	cmp	r4, #0
    75d0:	d1e5      	bne.n	759e <__gesf2+0x32>
    75d2:	2d00      	cmp	r5, #0
    75d4:	d1e3      	bne.n	759e <__gesf2+0x32>
    75d6:	e7e4      	b.n	75a2 <__gesf2+0x36>
    75d8:	2000      	movs	r0, #0
    75da:	2e00      	cmp	r6, #0
    75dc:	d0e5      	beq.n	75aa <__gesf2+0x3e>
    75de:	e7e0      	b.n	75a2 <__gesf2+0x36>
    75e0:	42a2      	cmp	r2, r4
    75e2:	dc05      	bgt.n	75f0 <__gesf2+0x84>
    75e4:	dbea      	blt.n	75bc <__gesf2+0x50>
    75e6:	42ae      	cmp	r6, r5
    75e8:	d802      	bhi.n	75f0 <__gesf2+0x84>
    75ea:	d3e7      	bcc.n	75bc <__gesf2+0x50>
    75ec:	2000      	movs	r0, #0
    75ee:	e7dc      	b.n	75aa <__gesf2+0x3e>
    75f0:	4241      	negs	r1, r0
    75f2:	4141      	adcs	r1, r0
    75f4:	4248      	negs	r0, r1
    75f6:	2102      	movs	r1, #2
    75f8:	4008      	ands	r0, r1
    75fa:	3801      	subs	r0, #1
    75fc:	e7d5      	b.n	75aa <__gesf2+0x3e>
    75fe:	2002      	movs	r0, #2
    7600:	4240      	negs	r0, r0
    7602:	e7d2      	b.n	75aa <__gesf2+0x3e>

00007604 <__lesf2>:
__lesf2():
    7604:	b5f0      	push	{r4, r5, r6, r7, lr}
    7606:	0042      	lsls	r2, r0, #1
    7608:	0246      	lsls	r6, r0, #9
    760a:	024d      	lsls	r5, r1, #9
    760c:	004c      	lsls	r4, r1, #1
    760e:	0fc3      	lsrs	r3, r0, #31
    7610:	0a76      	lsrs	r6, r6, #9
    7612:	0e12      	lsrs	r2, r2, #24
    7614:	0a6d      	lsrs	r5, r5, #9
    7616:	0e24      	lsrs	r4, r4, #24
    7618:	0fc8      	lsrs	r0, r1, #31
    761a:	2aff      	cmp	r2, #255	; 0xff
    761c:	d00d      	beq.n	763a <__lesf2+0x36>
    761e:	2cff      	cmp	r4, #255	; 0xff
    7620:	d00f      	beq.n	7642 <__lesf2+0x3e>
    7622:	2a00      	cmp	r2, #0
    7624:	d123      	bne.n	766e <__lesf2+0x6a>
    7626:	4271      	negs	r1, r6
    7628:	4171      	adcs	r1, r6
    762a:	2c00      	cmp	r4, #0
    762c:	d10f      	bne.n	764e <__lesf2+0x4a>
    762e:	2d00      	cmp	r5, #0
    7630:	d10d      	bne.n	764e <__lesf2+0x4a>
    7632:	2000      	movs	r0, #0
    7634:	2e00      	cmp	r6, #0
    7636:	d014      	beq.n	7662 <__lesf2+0x5e>
    7638:	e00d      	b.n	7656 <__lesf2+0x52>
    763a:	2e00      	cmp	r6, #0
    763c:	d110      	bne.n	7660 <__lesf2+0x5c>
    763e:	2cff      	cmp	r4, #255	; 0xff
    7640:	d115      	bne.n	766e <__lesf2+0x6a>
    7642:	2d00      	cmp	r5, #0
    7644:	d10c      	bne.n	7660 <__lesf2+0x5c>
    7646:	2a00      	cmp	r2, #0
    7648:	d103      	bne.n	7652 <__lesf2+0x4e>
    764a:	4271      	negs	r1, r6
    764c:	4171      	adcs	r1, r6
    764e:	2900      	cmp	r1, #0
    7650:	d108      	bne.n	7664 <__lesf2+0x60>
    7652:	4283      	cmp	r3, r0
    7654:	d010      	beq.n	7678 <__lesf2+0x74>
    7656:	2102      	movs	r1, #2
    7658:	1e58      	subs	r0, r3, #1
    765a:	4008      	ands	r0, r1
    765c:	3801      	subs	r0, #1
    765e:	e000      	b.n	7662 <__lesf2+0x5e>
    7660:	2002      	movs	r0, #2
    7662:	bdf0      	pop	{r4, r5, r6, r7, pc}
    7664:	2800      	cmp	r0, #0
    7666:	d1fc      	bne.n	7662 <__lesf2+0x5e>
    7668:	2001      	movs	r0, #1
    766a:	4240      	negs	r0, r0
    766c:	e7f9      	b.n	7662 <__lesf2+0x5e>
    766e:	2c00      	cmp	r4, #0
    7670:	d1ef      	bne.n	7652 <__lesf2+0x4e>
    7672:	2d00      	cmp	r5, #0
    7674:	d1ed      	bne.n	7652 <__lesf2+0x4e>
    7676:	e7ee      	b.n	7656 <__lesf2+0x52>
    7678:	42a2      	cmp	r2, r4
    767a:	dc05      	bgt.n	7688 <__lesf2+0x84>
    767c:	dbf2      	blt.n	7664 <__lesf2+0x60>
    767e:	42ae      	cmp	r6, r5
    7680:	d802      	bhi.n	7688 <__lesf2+0x84>
    7682:	d3ef      	bcc.n	7664 <__lesf2+0x60>
    7684:	2000      	movs	r0, #0
    7686:	e7ec      	b.n	7662 <__lesf2+0x5e>
    7688:	4241      	negs	r1, r0
    768a:	4141      	adcs	r1, r0
    768c:	4248      	negs	r0, r1
    768e:	2102      	movs	r1, #2
    7690:	4008      	ands	r0, r1
    7692:	3801      	subs	r0, #1
    7694:	e7e5      	b.n	7662 <__lesf2+0x5e>
    7696:	46c0      	nop			; (mov r8, r8)

00007698 <__aeabi_fmul>:
__aeabi_fmul():
    7698:	b5f8      	push	{r3, r4, r5, r6, r7, lr}
    769a:	4657      	mov	r7, sl
    769c:	464e      	mov	r6, r9
    769e:	4645      	mov	r5, r8
    76a0:	46de      	mov	lr, fp
    76a2:	0244      	lsls	r4, r0, #9
    76a4:	b5e0      	push	{r5, r6, r7, lr}
    76a6:	0045      	lsls	r5, r0, #1
    76a8:	1c0f      	adds	r7, r1, #0
    76aa:	0a64      	lsrs	r4, r4, #9
    76ac:	0e2d      	lsrs	r5, r5, #24
    76ae:	0fc6      	lsrs	r6, r0, #31
    76b0:	2d00      	cmp	r5, #0
    76b2:	d047      	beq.n	7744 <__aeabi_fmul+0xac>
    76b4:	2dff      	cmp	r5, #255	; 0xff
    76b6:	d04d      	beq.n	7754 <__aeabi_fmul+0xbc>
    76b8:	2300      	movs	r3, #0
    76ba:	2080      	movs	r0, #128	; 0x80
    76bc:	469a      	mov	sl, r3
    76be:	469b      	mov	fp, r3
    76c0:	00e4      	lsls	r4, r4, #3
    76c2:	04c0      	lsls	r0, r0, #19
    76c4:	4304      	orrs	r4, r0
    76c6:	3d7f      	subs	r5, #127	; 0x7f
    76c8:	0278      	lsls	r0, r7, #9
    76ca:	0a43      	lsrs	r3, r0, #9
    76cc:	4699      	mov	r9, r3
    76ce:	007a      	lsls	r2, r7, #1
    76d0:	0ffb      	lsrs	r3, r7, #31
    76d2:	4698      	mov	r8, r3
    76d4:	0e12      	lsrs	r2, r2, #24
    76d6:	464b      	mov	r3, r9
    76d8:	d044      	beq.n	7764 <__aeabi_fmul+0xcc>
    76da:	2aff      	cmp	r2, #255	; 0xff
    76dc:	d011      	beq.n	7702 <__aeabi_fmul+0x6a>
    76de:	00d8      	lsls	r0, r3, #3
    76e0:	2380      	movs	r3, #128	; 0x80
    76e2:	04db      	lsls	r3, r3, #19
    76e4:	4303      	orrs	r3, r0
    76e6:	4699      	mov	r9, r3
    76e8:	2000      	movs	r0, #0
    76ea:	3a7f      	subs	r2, #127	; 0x7f
    76ec:	18ad      	adds	r5, r5, r2
    76ee:	4647      	mov	r7, r8
    76f0:	4653      	mov	r3, sl
    76f2:	4077      	eors	r7, r6
    76f4:	1c69      	adds	r1, r5, #1
    76f6:	2b0f      	cmp	r3, #15
    76f8:	d83f      	bhi.n	777a <__aeabi_fmul+0xe2>
    76fa:	4a72      	ldr	r2, [pc, #456]	; (78c4 <__aeabi_fmul+0x22c>)
    76fc:	009b      	lsls	r3, r3, #2
    76fe:	58d3      	ldr	r3, [r2, r3]
    7700:	469f      	mov	pc, r3
    7702:	35ff      	adds	r5, #255	; 0xff
    7704:	2b00      	cmp	r3, #0
    7706:	d000      	beq.n	770a <__aeabi_fmul+0x72>
    7708:	e079      	b.n	77fe <__aeabi_fmul+0x166>
    770a:	4652      	mov	r2, sl
    770c:	2302      	movs	r3, #2
    770e:	431a      	orrs	r2, r3
    7710:	4692      	mov	sl, r2
    7712:	2002      	movs	r0, #2
    7714:	e7eb      	b.n	76ee <__aeabi_fmul+0x56>
    7716:	4647      	mov	r7, r8
    7718:	464c      	mov	r4, r9
    771a:	4683      	mov	fp, r0
    771c:	465b      	mov	r3, fp
    771e:	2b02      	cmp	r3, #2
    7720:	d028      	beq.n	7774 <__aeabi_fmul+0xdc>
    7722:	2b03      	cmp	r3, #3
    7724:	d100      	bne.n	7728 <__aeabi_fmul+0x90>
    7726:	e0c6      	b.n	78b6 <__aeabi_fmul+0x21e>
    7728:	2b01      	cmp	r3, #1
    772a:	d14f      	bne.n	77cc <__aeabi_fmul+0x134>
    772c:	2000      	movs	r0, #0
    772e:	2400      	movs	r4, #0
    7730:	05c0      	lsls	r0, r0, #23
    7732:	07ff      	lsls	r7, r7, #31
    7734:	4320      	orrs	r0, r4
    7736:	4338      	orrs	r0, r7
    7738:	bcf0      	pop	{r4, r5, r6, r7}
    773a:	46bb      	mov	fp, r7
    773c:	46b2      	mov	sl, r6
    773e:	46a9      	mov	r9, r5
    7740:	46a0      	mov	r8, r4
    7742:	bdf8      	pop	{r3, r4, r5, r6, r7, pc}
    7744:	2c00      	cmp	r4, #0
    7746:	d171      	bne.n	782c <__aeabi_fmul+0x194>
    7748:	2304      	movs	r3, #4
    774a:	469a      	mov	sl, r3
    774c:	3b03      	subs	r3, #3
    774e:	2500      	movs	r5, #0
    7750:	469b      	mov	fp, r3
    7752:	e7b9      	b.n	76c8 <__aeabi_fmul+0x30>
    7754:	2c00      	cmp	r4, #0
    7756:	d163      	bne.n	7820 <__aeabi_fmul+0x188>
    7758:	2308      	movs	r3, #8
    775a:	469a      	mov	sl, r3
    775c:	3b06      	subs	r3, #6
    775e:	25ff      	movs	r5, #255	; 0xff
    7760:	469b      	mov	fp, r3
    7762:	e7b1      	b.n	76c8 <__aeabi_fmul+0x30>
    7764:	2b00      	cmp	r3, #0
    7766:	d150      	bne.n	780a <__aeabi_fmul+0x172>
    7768:	4652      	mov	r2, sl
    776a:	3301      	adds	r3, #1
    776c:	431a      	orrs	r2, r3
    776e:	4692      	mov	sl, r2
    7770:	2001      	movs	r0, #1
    7772:	e7bc      	b.n	76ee <__aeabi_fmul+0x56>
    7774:	20ff      	movs	r0, #255	; 0xff
    7776:	2400      	movs	r4, #0
    7778:	e7da      	b.n	7730 <__aeabi_fmul+0x98>
    777a:	4648      	mov	r0, r9
    777c:	0c26      	lsrs	r6, r4, #16
    777e:	0424      	lsls	r4, r4, #16
    7780:	0c22      	lsrs	r2, r4, #16
    7782:	0404      	lsls	r4, r0, #16
    7784:	0c24      	lsrs	r4, r4, #16
    7786:	464b      	mov	r3, r9
    7788:	0020      	movs	r0, r4
    778a:	0c1b      	lsrs	r3, r3, #16
    778c:	4350      	muls	r0, r2
    778e:	4374      	muls	r4, r6
    7790:	435a      	muls	r2, r3
    7792:	435e      	muls	r6, r3
    7794:	1912      	adds	r2, r2, r4
    7796:	0c03      	lsrs	r3, r0, #16
    7798:	189b      	adds	r3, r3, r2
    779a:	429c      	cmp	r4, r3
    779c:	d903      	bls.n	77a6 <__aeabi_fmul+0x10e>
    779e:	2280      	movs	r2, #128	; 0x80
    77a0:	0252      	lsls	r2, r2, #9
    77a2:	4694      	mov	ip, r2
    77a4:	4466      	add	r6, ip
    77a6:	0400      	lsls	r0, r0, #16
    77a8:	041a      	lsls	r2, r3, #16
    77aa:	0c00      	lsrs	r0, r0, #16
    77ac:	1812      	adds	r2, r2, r0
    77ae:	0194      	lsls	r4, r2, #6
    77b0:	1e60      	subs	r0, r4, #1
    77b2:	4184      	sbcs	r4, r0
    77b4:	0c1b      	lsrs	r3, r3, #16
    77b6:	0e92      	lsrs	r2, r2, #26
    77b8:	199b      	adds	r3, r3, r6
    77ba:	4314      	orrs	r4, r2
    77bc:	019b      	lsls	r3, r3, #6
    77be:	431c      	orrs	r4, r3
    77c0:	011b      	lsls	r3, r3, #4
    77c2:	d572      	bpl.n	78aa <__aeabi_fmul+0x212>
    77c4:	2001      	movs	r0, #1
    77c6:	0863      	lsrs	r3, r4, #1
    77c8:	4004      	ands	r4, r0
    77ca:	431c      	orrs	r4, r3
    77cc:	0008      	movs	r0, r1
    77ce:	307f      	adds	r0, #127	; 0x7f
    77d0:	2800      	cmp	r0, #0
    77d2:	dd3c      	ble.n	784e <__aeabi_fmul+0x1b6>
    77d4:	0763      	lsls	r3, r4, #29
    77d6:	d004      	beq.n	77e2 <__aeabi_fmul+0x14a>
    77d8:	230f      	movs	r3, #15
    77da:	4023      	ands	r3, r4
    77dc:	2b04      	cmp	r3, #4
    77de:	d000      	beq.n	77e2 <__aeabi_fmul+0x14a>
    77e0:	3404      	adds	r4, #4
    77e2:	0123      	lsls	r3, r4, #4
    77e4:	d503      	bpl.n	77ee <__aeabi_fmul+0x156>
    77e6:	3180      	adds	r1, #128	; 0x80
    77e8:	0008      	movs	r0, r1
    77ea:	4b37      	ldr	r3, [pc, #220]	; (78c8 <__aeabi_fmul+0x230>)
    77ec:	401c      	ands	r4, r3
    77ee:	28fe      	cmp	r0, #254	; 0xfe
    77f0:	dcc0      	bgt.n	7774 <__aeabi_fmul+0xdc>
    77f2:	01a4      	lsls	r4, r4, #6
    77f4:	0a64      	lsrs	r4, r4, #9
    77f6:	b2c0      	uxtb	r0, r0
    77f8:	e79a      	b.n	7730 <__aeabi_fmul+0x98>
    77fa:	0037      	movs	r7, r6
    77fc:	e78e      	b.n	771c <__aeabi_fmul+0x84>
    77fe:	4652      	mov	r2, sl
    7800:	2303      	movs	r3, #3
    7802:	431a      	orrs	r2, r3
    7804:	4692      	mov	sl, r2
    7806:	2003      	movs	r0, #3
    7808:	e771      	b.n	76ee <__aeabi_fmul+0x56>
    780a:	4648      	mov	r0, r9
    780c:	f001 fa40 	bl	8c90 <__clzsi2>
    7810:	464a      	mov	r2, r9
    7812:	1f43      	subs	r3, r0, #5
    7814:	409a      	lsls	r2, r3
    7816:	1a2d      	subs	r5, r5, r0
    7818:	4691      	mov	r9, r2
    781a:	2000      	movs	r0, #0
    781c:	3d76      	subs	r5, #118	; 0x76
    781e:	e766      	b.n	76ee <__aeabi_fmul+0x56>
    7820:	230c      	movs	r3, #12
    7822:	469a      	mov	sl, r3
    7824:	3b09      	subs	r3, #9
    7826:	25ff      	movs	r5, #255	; 0xff
    7828:	469b      	mov	fp, r3
    782a:	e74d      	b.n	76c8 <__aeabi_fmul+0x30>
    782c:	0020      	movs	r0, r4
    782e:	f001 fa2f 	bl	8c90 <__clzsi2>
    7832:	2576      	movs	r5, #118	; 0x76
    7834:	1f43      	subs	r3, r0, #5
    7836:	409c      	lsls	r4, r3
    7838:	2300      	movs	r3, #0
    783a:	426d      	negs	r5, r5
    783c:	469a      	mov	sl, r3
    783e:	469b      	mov	fp, r3
    7840:	1a2d      	subs	r5, r5, r0
    7842:	e741      	b.n	76c8 <__aeabi_fmul+0x30>
    7844:	2480      	movs	r4, #128	; 0x80
    7846:	2700      	movs	r7, #0
    7848:	20ff      	movs	r0, #255	; 0xff
    784a:	03e4      	lsls	r4, r4, #15
    784c:	e770      	b.n	7730 <__aeabi_fmul+0x98>
    784e:	2301      	movs	r3, #1
    7850:	1a1b      	subs	r3, r3, r0
    7852:	2b1b      	cmp	r3, #27
    7854:	dd00      	ble.n	7858 <__aeabi_fmul+0x1c0>
    7856:	e769      	b.n	772c <__aeabi_fmul+0x94>
    7858:	319e      	adds	r1, #158	; 0x9e
    785a:	0020      	movs	r0, r4
    785c:	408c      	lsls	r4, r1
    785e:	40d8      	lsrs	r0, r3
    7860:	1e63      	subs	r3, r4, #1
    7862:	419c      	sbcs	r4, r3
    7864:	4304      	orrs	r4, r0
    7866:	0763      	lsls	r3, r4, #29
    7868:	d004      	beq.n	7874 <__aeabi_fmul+0x1dc>
    786a:	230f      	movs	r3, #15
    786c:	4023      	ands	r3, r4
    786e:	2b04      	cmp	r3, #4
    7870:	d000      	beq.n	7874 <__aeabi_fmul+0x1dc>
    7872:	3404      	adds	r4, #4
    7874:	0163      	lsls	r3, r4, #5
    7876:	d51a      	bpl.n	78ae <__aeabi_fmul+0x216>
    7878:	2001      	movs	r0, #1
    787a:	2400      	movs	r4, #0
    787c:	e758      	b.n	7730 <__aeabi_fmul+0x98>
    787e:	2080      	movs	r0, #128	; 0x80
    7880:	03c0      	lsls	r0, r0, #15
    7882:	4204      	tst	r4, r0
    7884:	d009      	beq.n	789a <__aeabi_fmul+0x202>
    7886:	464b      	mov	r3, r9
    7888:	4203      	tst	r3, r0
    788a:	d106      	bne.n	789a <__aeabi_fmul+0x202>
    788c:	464c      	mov	r4, r9
    788e:	4304      	orrs	r4, r0
    7890:	0264      	lsls	r4, r4, #9
    7892:	4647      	mov	r7, r8
    7894:	20ff      	movs	r0, #255	; 0xff
    7896:	0a64      	lsrs	r4, r4, #9
    7898:	e74a      	b.n	7730 <__aeabi_fmul+0x98>
    789a:	2080      	movs	r0, #128	; 0x80
    789c:	03c0      	lsls	r0, r0, #15
    789e:	4304      	orrs	r4, r0
    78a0:	0264      	lsls	r4, r4, #9
    78a2:	0037      	movs	r7, r6
    78a4:	20ff      	movs	r0, #255	; 0xff
    78a6:	0a64      	lsrs	r4, r4, #9
    78a8:	e742      	b.n	7730 <__aeabi_fmul+0x98>
    78aa:	0029      	movs	r1, r5
    78ac:	e78e      	b.n	77cc <__aeabi_fmul+0x134>
    78ae:	01a4      	lsls	r4, r4, #6
    78b0:	2000      	movs	r0, #0
    78b2:	0a64      	lsrs	r4, r4, #9
    78b4:	e73c      	b.n	7730 <__aeabi_fmul+0x98>
    78b6:	2080      	movs	r0, #128	; 0x80
    78b8:	03c0      	lsls	r0, r0, #15
    78ba:	4304      	orrs	r4, r0
    78bc:	0264      	lsls	r4, r4, #9
    78be:	20ff      	movs	r0, #255	; 0xff
    78c0:	0a64      	lsrs	r4, r4, #9
    78c2:	e735      	b.n	7730 <__aeabi_fmul+0x98>
    78c4:	0000bca0 	.word	0x0000bca0
    78c8:	f7ffffff 	.word	0xf7ffffff

000078cc <__aeabi_fsub>:
__aeabi_fsub():
    78cc:	b5f0      	push	{r4, r5, r6, r7, lr}
    78ce:	4646      	mov	r6, r8
    78d0:	46d6      	mov	lr, sl
    78d2:	464f      	mov	r7, r9
    78d4:	0243      	lsls	r3, r0, #9
    78d6:	0a5b      	lsrs	r3, r3, #9
    78d8:	00da      	lsls	r2, r3, #3
    78da:	4694      	mov	ip, r2
    78dc:	024a      	lsls	r2, r1, #9
    78de:	b5c0      	push	{r6, r7, lr}
    78e0:	0044      	lsls	r4, r0, #1
    78e2:	0a56      	lsrs	r6, r2, #9
    78e4:	1c05      	adds	r5, r0, #0
    78e6:	46b0      	mov	r8, r6
    78e8:	0e24      	lsrs	r4, r4, #24
    78ea:	004e      	lsls	r6, r1, #1
    78ec:	0992      	lsrs	r2, r2, #6
    78ee:	001f      	movs	r7, r3
    78f0:	0020      	movs	r0, r4
    78f2:	4692      	mov	sl, r2
    78f4:	0fed      	lsrs	r5, r5, #31
    78f6:	0e36      	lsrs	r6, r6, #24
    78f8:	0fc9      	lsrs	r1, r1, #31
    78fa:	2eff      	cmp	r6, #255	; 0xff
    78fc:	d100      	bne.n	7900 <__aeabi_fsub+0x34>
    78fe:	e07f      	b.n	7a00 <__aeabi_fsub+0x134>
    7900:	2201      	movs	r2, #1
    7902:	4051      	eors	r1, r2
    7904:	428d      	cmp	r5, r1
    7906:	d051      	beq.n	79ac <__aeabi_fsub+0xe0>
    7908:	1ba2      	subs	r2, r4, r6
    790a:	4691      	mov	r9, r2
    790c:	2a00      	cmp	r2, #0
    790e:	dc00      	bgt.n	7912 <__aeabi_fsub+0x46>
    7910:	e07e      	b.n	7a10 <__aeabi_fsub+0x144>
    7912:	2e00      	cmp	r6, #0
    7914:	d100      	bne.n	7918 <__aeabi_fsub+0x4c>
    7916:	e099      	b.n	7a4c <__aeabi_fsub+0x180>
    7918:	2cff      	cmp	r4, #255	; 0xff
    791a:	d100      	bne.n	791e <__aeabi_fsub+0x52>
    791c:	e08c      	b.n	7a38 <__aeabi_fsub+0x16c>
    791e:	2380      	movs	r3, #128	; 0x80
    7920:	4652      	mov	r2, sl
    7922:	04db      	lsls	r3, r3, #19
    7924:	431a      	orrs	r2, r3
    7926:	4692      	mov	sl, r2
    7928:	464a      	mov	r2, r9
    792a:	2301      	movs	r3, #1
    792c:	2a1b      	cmp	r2, #27
    792e:	dc08      	bgt.n	7942 <__aeabi_fsub+0x76>
    7930:	4653      	mov	r3, sl
    7932:	2120      	movs	r1, #32
    7934:	40d3      	lsrs	r3, r2
    7936:	1a89      	subs	r1, r1, r2
    7938:	4652      	mov	r2, sl
    793a:	408a      	lsls	r2, r1
    793c:	1e51      	subs	r1, r2, #1
    793e:	418a      	sbcs	r2, r1
    7940:	4313      	orrs	r3, r2
    7942:	4662      	mov	r2, ip
    7944:	1ad3      	subs	r3, r2, r3
    7946:	015a      	lsls	r2, r3, #5
    7948:	d400      	bmi.n	794c <__aeabi_fsub+0x80>
    794a:	e0f3      	b.n	7b34 <__aeabi_fsub+0x268>
    794c:	019b      	lsls	r3, r3, #6
    794e:	099e      	lsrs	r6, r3, #6
    7950:	0030      	movs	r0, r6
    7952:	f001 f99d 	bl	8c90 <__clzsi2>
    7956:	3805      	subs	r0, #5
    7958:	4086      	lsls	r6, r0
    795a:	4284      	cmp	r4, r0
    795c:	dd00      	ble.n	7960 <__aeabi_fsub+0x94>
    795e:	e0f7      	b.n	7b50 <__aeabi_fsub+0x284>
    7960:	0032      	movs	r2, r6
    7962:	1b04      	subs	r4, r0, r4
    7964:	2020      	movs	r0, #32
    7966:	3401      	adds	r4, #1
    7968:	40e2      	lsrs	r2, r4
    796a:	1b04      	subs	r4, r0, r4
    796c:	40a6      	lsls	r6, r4
    796e:	0033      	movs	r3, r6
    7970:	1e5e      	subs	r6, r3, #1
    7972:	41b3      	sbcs	r3, r6
    7974:	2400      	movs	r4, #0
    7976:	4313      	orrs	r3, r2
    7978:	075a      	lsls	r2, r3, #29
    797a:	d004      	beq.n	7986 <__aeabi_fsub+0xba>
    797c:	220f      	movs	r2, #15
    797e:	401a      	ands	r2, r3
    7980:	2a04      	cmp	r2, #4
    7982:	d000      	beq.n	7986 <__aeabi_fsub+0xba>
    7984:	3304      	adds	r3, #4
    7986:	015a      	lsls	r2, r3, #5
    7988:	d400      	bmi.n	798c <__aeabi_fsub+0xc0>
    798a:	e0d6      	b.n	7b3a <__aeabi_fsub+0x26e>
    798c:	1c62      	adds	r2, r4, #1
    798e:	2cfe      	cmp	r4, #254	; 0xfe
    7990:	d100      	bne.n	7994 <__aeabi_fsub+0xc8>
    7992:	e0da      	b.n	7b4a <__aeabi_fsub+0x27e>
    7994:	019b      	lsls	r3, r3, #6
    7996:	0a5f      	lsrs	r7, r3, #9
    7998:	b2d0      	uxtb	r0, r2
    799a:	05c0      	lsls	r0, r0, #23
    799c:	4338      	orrs	r0, r7
    799e:	07ed      	lsls	r5, r5, #31
    79a0:	4328      	orrs	r0, r5
    79a2:	bce0      	pop	{r5, r6, r7}
    79a4:	46ba      	mov	sl, r7
    79a6:	46b1      	mov	r9, r6
    79a8:	46a8      	mov	r8, r5
    79aa:	bdf0      	pop	{r4, r5, r6, r7, pc}
    79ac:	1ba2      	subs	r2, r4, r6
    79ae:	4691      	mov	r9, r2
    79b0:	2a00      	cmp	r2, #0
    79b2:	dd63      	ble.n	7a7c <__aeabi_fsub+0x1b0>
    79b4:	2e00      	cmp	r6, #0
    79b6:	d100      	bne.n	79ba <__aeabi_fsub+0xee>
    79b8:	e099      	b.n	7aee <__aeabi_fsub+0x222>
    79ba:	2cff      	cmp	r4, #255	; 0xff
    79bc:	d03c      	beq.n	7a38 <__aeabi_fsub+0x16c>
    79be:	2380      	movs	r3, #128	; 0x80
    79c0:	4652      	mov	r2, sl
    79c2:	04db      	lsls	r3, r3, #19
    79c4:	431a      	orrs	r2, r3
    79c6:	4692      	mov	sl, r2
    79c8:	464a      	mov	r2, r9
    79ca:	2301      	movs	r3, #1
    79cc:	2a1b      	cmp	r2, #27
    79ce:	dc08      	bgt.n	79e2 <__aeabi_fsub+0x116>
    79d0:	4653      	mov	r3, sl
    79d2:	2120      	movs	r1, #32
    79d4:	40d3      	lsrs	r3, r2
    79d6:	1a89      	subs	r1, r1, r2
    79d8:	4652      	mov	r2, sl
    79da:	408a      	lsls	r2, r1
    79dc:	1e51      	subs	r1, r2, #1
    79de:	418a      	sbcs	r2, r1
    79e0:	4313      	orrs	r3, r2
    79e2:	4463      	add	r3, ip
    79e4:	015a      	lsls	r2, r3, #5
    79e6:	d400      	bmi.n	79ea <__aeabi_fsub+0x11e>
    79e8:	e0a4      	b.n	7b34 <__aeabi_fsub+0x268>
    79ea:	3401      	adds	r4, #1
    79ec:	2cff      	cmp	r4, #255	; 0xff
    79ee:	d100      	bne.n	79f2 <__aeabi_fsub+0x126>
    79f0:	e0ab      	b.n	7b4a <__aeabi_fsub+0x27e>
    79f2:	2201      	movs	r2, #1
    79f4:	4997      	ldr	r1, [pc, #604]	; (7c54 <__aeabi_fsub+0x388>)
    79f6:	401a      	ands	r2, r3
    79f8:	085b      	lsrs	r3, r3, #1
    79fa:	400b      	ands	r3, r1
    79fc:	4313      	orrs	r3, r2
    79fe:	e7bb      	b.n	7978 <__aeabi_fsub+0xac>
    7a00:	2a00      	cmp	r2, #0
    7a02:	d032      	beq.n	7a6a <__aeabi_fsub+0x19e>
    7a04:	428d      	cmp	r5, r1
    7a06:	d035      	beq.n	7a74 <__aeabi_fsub+0x1a8>
    7a08:	22ff      	movs	r2, #255	; 0xff
    7a0a:	4252      	negs	r2, r2
    7a0c:	4691      	mov	r9, r2
    7a0e:	44a1      	add	r9, r4
    7a10:	464a      	mov	r2, r9
    7a12:	2a00      	cmp	r2, #0
    7a14:	d051      	beq.n	7aba <__aeabi_fsub+0x1ee>
    7a16:	1b30      	subs	r0, r6, r4
    7a18:	2c00      	cmp	r4, #0
    7a1a:	d000      	beq.n	7a1e <__aeabi_fsub+0x152>
    7a1c:	e09c      	b.n	7b58 <__aeabi_fsub+0x28c>
    7a1e:	4663      	mov	r3, ip
    7a20:	2b00      	cmp	r3, #0
    7a22:	d100      	bne.n	7a26 <__aeabi_fsub+0x15a>
    7a24:	e0df      	b.n	7be6 <__aeabi_fsub+0x31a>
    7a26:	3801      	subs	r0, #1
    7a28:	2800      	cmp	r0, #0
    7a2a:	d100      	bne.n	7a2e <__aeabi_fsub+0x162>
    7a2c:	e0f7      	b.n	7c1e <__aeabi_fsub+0x352>
    7a2e:	2eff      	cmp	r6, #255	; 0xff
    7a30:	d000      	beq.n	7a34 <__aeabi_fsub+0x168>
    7a32:	e099      	b.n	7b68 <__aeabi_fsub+0x29c>
    7a34:	000d      	movs	r5, r1
    7a36:	4643      	mov	r3, r8
    7a38:	2b00      	cmp	r3, #0
    7a3a:	d100      	bne.n	7a3e <__aeabi_fsub+0x172>
    7a3c:	e085      	b.n	7b4a <__aeabi_fsub+0x27e>
    7a3e:	2780      	movs	r7, #128	; 0x80
    7a40:	03ff      	lsls	r7, r7, #15
    7a42:	431f      	orrs	r7, r3
    7a44:	027f      	lsls	r7, r7, #9
    7a46:	20ff      	movs	r0, #255	; 0xff
    7a48:	0a7f      	lsrs	r7, r7, #9
    7a4a:	e7a6      	b.n	799a <__aeabi_fsub+0xce>
    7a4c:	4652      	mov	r2, sl
    7a4e:	2a00      	cmp	r2, #0
    7a50:	d074      	beq.n	7b3c <__aeabi_fsub+0x270>
    7a52:	2201      	movs	r2, #1
    7a54:	4252      	negs	r2, r2
    7a56:	4690      	mov	r8, r2
    7a58:	44c1      	add	r9, r8
    7a5a:	464a      	mov	r2, r9
    7a5c:	2a00      	cmp	r2, #0
    7a5e:	d100      	bne.n	7a62 <__aeabi_fsub+0x196>
    7a60:	e0c8      	b.n	7bf4 <__aeabi_fsub+0x328>
    7a62:	2cff      	cmp	r4, #255	; 0xff
    7a64:	d000      	beq.n	7a68 <__aeabi_fsub+0x19c>
    7a66:	e75f      	b.n	7928 <__aeabi_fsub+0x5c>
    7a68:	e7e6      	b.n	7a38 <__aeabi_fsub+0x16c>
    7a6a:	2201      	movs	r2, #1
    7a6c:	4051      	eors	r1, r2
    7a6e:	42a9      	cmp	r1, r5
    7a70:	d000      	beq.n	7a74 <__aeabi_fsub+0x1a8>
    7a72:	e749      	b.n	7908 <__aeabi_fsub+0x3c>
    7a74:	22ff      	movs	r2, #255	; 0xff
    7a76:	4252      	negs	r2, r2
    7a78:	4691      	mov	r9, r2
    7a7a:	44a1      	add	r9, r4
    7a7c:	464a      	mov	r2, r9
    7a7e:	2a00      	cmp	r2, #0
    7a80:	d043      	beq.n	7b0a <__aeabi_fsub+0x23e>
    7a82:	1b31      	subs	r1, r6, r4
    7a84:	2c00      	cmp	r4, #0
    7a86:	d100      	bne.n	7a8a <__aeabi_fsub+0x1be>
    7a88:	e08c      	b.n	7ba4 <__aeabi_fsub+0x2d8>
    7a8a:	2eff      	cmp	r6, #255	; 0xff
    7a8c:	d100      	bne.n	7a90 <__aeabi_fsub+0x1c4>
    7a8e:	e092      	b.n	7bb6 <__aeabi_fsub+0x2ea>
    7a90:	2380      	movs	r3, #128	; 0x80
    7a92:	4662      	mov	r2, ip
    7a94:	04db      	lsls	r3, r3, #19
    7a96:	431a      	orrs	r2, r3
    7a98:	4694      	mov	ip, r2
    7a9a:	2301      	movs	r3, #1
    7a9c:	291b      	cmp	r1, #27
    7a9e:	dc09      	bgt.n	7ab4 <__aeabi_fsub+0x1e8>
    7aa0:	2020      	movs	r0, #32
    7aa2:	4663      	mov	r3, ip
    7aa4:	4662      	mov	r2, ip
    7aa6:	40cb      	lsrs	r3, r1
    7aa8:	1a41      	subs	r1, r0, r1
    7aaa:	408a      	lsls	r2, r1
    7aac:	0011      	movs	r1, r2
    7aae:	1e48      	subs	r0, r1, #1
    7ab0:	4181      	sbcs	r1, r0
    7ab2:	430b      	orrs	r3, r1
    7ab4:	0034      	movs	r4, r6
    7ab6:	4453      	add	r3, sl
    7ab8:	e794      	b.n	79e4 <__aeabi_fsub+0x118>
    7aba:	22fe      	movs	r2, #254	; 0xfe
    7abc:	1c66      	adds	r6, r4, #1
    7abe:	4232      	tst	r2, r6
    7ac0:	d164      	bne.n	7b8c <__aeabi_fsub+0x2c0>
    7ac2:	2c00      	cmp	r4, #0
    7ac4:	d000      	beq.n	7ac8 <__aeabi_fsub+0x1fc>
    7ac6:	e082      	b.n	7bce <__aeabi_fsub+0x302>
    7ac8:	4663      	mov	r3, ip
    7aca:	2b00      	cmp	r3, #0
    7acc:	d100      	bne.n	7ad0 <__aeabi_fsub+0x204>
    7ace:	e0ab      	b.n	7c28 <__aeabi_fsub+0x35c>
    7ad0:	4653      	mov	r3, sl
    7ad2:	2b00      	cmp	r3, #0
    7ad4:	d100      	bne.n	7ad8 <__aeabi_fsub+0x20c>
    7ad6:	e760      	b.n	799a <__aeabi_fsub+0xce>
    7ad8:	4663      	mov	r3, ip
    7ada:	4652      	mov	r2, sl
    7adc:	1a9b      	subs	r3, r3, r2
    7ade:	015a      	lsls	r2, r3, #5
    7ae0:	d400      	bmi.n	7ae4 <__aeabi_fsub+0x218>
    7ae2:	e0aa      	b.n	7c3a <__aeabi_fsub+0x36e>
    7ae4:	4663      	mov	r3, ip
    7ae6:	4652      	mov	r2, sl
    7ae8:	000d      	movs	r5, r1
    7aea:	1ad3      	subs	r3, r2, r3
    7aec:	e744      	b.n	7978 <__aeabi_fsub+0xac>
    7aee:	4652      	mov	r2, sl
    7af0:	2a00      	cmp	r2, #0
    7af2:	d023      	beq.n	7b3c <__aeabi_fsub+0x270>
    7af4:	2201      	movs	r2, #1
    7af6:	4252      	negs	r2, r2
    7af8:	4690      	mov	r8, r2
    7afa:	44c1      	add	r9, r8
    7afc:	464a      	mov	r2, r9
    7afe:	2a00      	cmp	r2, #0
    7b00:	d075      	beq.n	7bee <__aeabi_fsub+0x322>
    7b02:	2cff      	cmp	r4, #255	; 0xff
    7b04:	d000      	beq.n	7b08 <__aeabi_fsub+0x23c>
    7b06:	e75f      	b.n	79c8 <__aeabi_fsub+0xfc>
    7b08:	e796      	b.n	7a38 <__aeabi_fsub+0x16c>
    7b0a:	26fe      	movs	r6, #254	; 0xfe
    7b0c:	3401      	adds	r4, #1
    7b0e:	4226      	tst	r6, r4
    7b10:	d153      	bne.n	7bba <__aeabi_fsub+0x2ee>
    7b12:	2800      	cmp	r0, #0
    7b14:	d172      	bne.n	7bfc <__aeabi_fsub+0x330>
    7b16:	4663      	mov	r3, ip
    7b18:	2b00      	cmp	r3, #0
    7b1a:	d100      	bne.n	7b1e <__aeabi_fsub+0x252>
    7b1c:	e093      	b.n	7c46 <__aeabi_fsub+0x37a>
    7b1e:	4653      	mov	r3, sl
    7b20:	2b00      	cmp	r3, #0
    7b22:	d100      	bne.n	7b26 <__aeabi_fsub+0x25a>
    7b24:	e739      	b.n	799a <__aeabi_fsub+0xce>
    7b26:	4463      	add	r3, ip
    7b28:	2400      	movs	r4, #0
    7b2a:	015a      	lsls	r2, r3, #5
    7b2c:	d502      	bpl.n	7b34 <__aeabi_fsub+0x268>
    7b2e:	4a4a      	ldr	r2, [pc, #296]	; (7c58 <__aeabi_fsub+0x38c>)
    7b30:	3401      	adds	r4, #1
    7b32:	4013      	ands	r3, r2
    7b34:	075a      	lsls	r2, r3, #29
    7b36:	d000      	beq.n	7b3a <__aeabi_fsub+0x26e>
    7b38:	e720      	b.n	797c <__aeabi_fsub+0xb0>
    7b3a:	08db      	lsrs	r3, r3, #3
    7b3c:	2cff      	cmp	r4, #255	; 0xff
    7b3e:	d100      	bne.n	7b42 <__aeabi_fsub+0x276>
    7b40:	e77a      	b.n	7a38 <__aeabi_fsub+0x16c>
    7b42:	025b      	lsls	r3, r3, #9
    7b44:	0a5f      	lsrs	r7, r3, #9
    7b46:	b2e0      	uxtb	r0, r4
    7b48:	e727      	b.n	799a <__aeabi_fsub+0xce>
    7b4a:	20ff      	movs	r0, #255	; 0xff
    7b4c:	2700      	movs	r7, #0
    7b4e:	e724      	b.n	799a <__aeabi_fsub+0xce>
    7b50:	4b41      	ldr	r3, [pc, #260]	; (7c58 <__aeabi_fsub+0x38c>)
    7b52:	1a24      	subs	r4, r4, r0
    7b54:	4033      	ands	r3, r6
    7b56:	e70f      	b.n	7978 <__aeabi_fsub+0xac>
    7b58:	2eff      	cmp	r6, #255	; 0xff
    7b5a:	d100      	bne.n	7b5e <__aeabi_fsub+0x292>
    7b5c:	e76a      	b.n	7a34 <__aeabi_fsub+0x168>
    7b5e:	2380      	movs	r3, #128	; 0x80
    7b60:	4662      	mov	r2, ip
    7b62:	04db      	lsls	r3, r3, #19
    7b64:	431a      	orrs	r2, r3
    7b66:	4694      	mov	ip, r2
    7b68:	2301      	movs	r3, #1
    7b6a:	281b      	cmp	r0, #27
    7b6c:	dc09      	bgt.n	7b82 <__aeabi_fsub+0x2b6>
    7b6e:	2420      	movs	r4, #32
    7b70:	4663      	mov	r3, ip
    7b72:	4662      	mov	r2, ip
    7b74:	40c3      	lsrs	r3, r0
    7b76:	1a20      	subs	r0, r4, r0
    7b78:	4082      	lsls	r2, r0
    7b7a:	0010      	movs	r0, r2
    7b7c:	1e44      	subs	r4, r0, #1
    7b7e:	41a0      	sbcs	r0, r4
    7b80:	4303      	orrs	r3, r0
    7b82:	4652      	mov	r2, sl
    7b84:	000d      	movs	r5, r1
    7b86:	0034      	movs	r4, r6
    7b88:	1ad3      	subs	r3, r2, r3
    7b8a:	e6dc      	b.n	7946 <__aeabi_fsub+0x7a>
    7b8c:	4663      	mov	r3, ip
    7b8e:	4652      	mov	r2, sl
    7b90:	1a9e      	subs	r6, r3, r2
    7b92:	0173      	lsls	r3, r6, #5
    7b94:	d417      	bmi.n	7bc6 <__aeabi_fsub+0x2fa>
    7b96:	2e00      	cmp	r6, #0
    7b98:	d000      	beq.n	7b9c <__aeabi_fsub+0x2d0>
    7b9a:	e6d9      	b.n	7950 <__aeabi_fsub+0x84>
    7b9c:	2500      	movs	r5, #0
    7b9e:	2000      	movs	r0, #0
    7ba0:	2700      	movs	r7, #0
    7ba2:	e6fa      	b.n	799a <__aeabi_fsub+0xce>
    7ba4:	4663      	mov	r3, ip
    7ba6:	2b00      	cmp	r3, #0
    7ba8:	d044      	beq.n	7c34 <__aeabi_fsub+0x368>
    7baa:	3901      	subs	r1, #1
    7bac:	2900      	cmp	r1, #0
    7bae:	d04c      	beq.n	7c4a <__aeabi_fsub+0x37e>
    7bb0:	2eff      	cmp	r6, #255	; 0xff
    7bb2:	d000      	beq.n	7bb6 <__aeabi_fsub+0x2ea>
    7bb4:	e771      	b.n	7a9a <__aeabi_fsub+0x1ce>
    7bb6:	4643      	mov	r3, r8
    7bb8:	e73e      	b.n	7a38 <__aeabi_fsub+0x16c>
    7bba:	2cff      	cmp	r4, #255	; 0xff
    7bbc:	d0c5      	beq.n	7b4a <__aeabi_fsub+0x27e>
    7bbe:	4652      	mov	r2, sl
    7bc0:	4462      	add	r2, ip
    7bc2:	0853      	lsrs	r3, r2, #1
    7bc4:	e7b6      	b.n	7b34 <__aeabi_fsub+0x268>
    7bc6:	4663      	mov	r3, ip
    7bc8:	000d      	movs	r5, r1
    7bca:	1ad6      	subs	r6, r2, r3
    7bcc:	e6c0      	b.n	7950 <__aeabi_fsub+0x84>
    7bce:	4662      	mov	r2, ip
    7bd0:	2a00      	cmp	r2, #0
    7bd2:	d116      	bne.n	7c02 <__aeabi_fsub+0x336>
    7bd4:	4653      	mov	r3, sl
    7bd6:	2b00      	cmp	r3, #0
    7bd8:	d000      	beq.n	7bdc <__aeabi_fsub+0x310>
    7bda:	e72b      	b.n	7a34 <__aeabi_fsub+0x168>
    7bdc:	2780      	movs	r7, #128	; 0x80
    7bde:	2500      	movs	r5, #0
    7be0:	20ff      	movs	r0, #255	; 0xff
    7be2:	03ff      	lsls	r7, r7, #15
    7be4:	e6d9      	b.n	799a <__aeabi_fsub+0xce>
    7be6:	000d      	movs	r5, r1
    7be8:	4643      	mov	r3, r8
    7bea:	0034      	movs	r4, r6
    7bec:	e7a6      	b.n	7b3c <__aeabi_fsub+0x270>
    7bee:	4653      	mov	r3, sl
    7bf0:	4463      	add	r3, ip
    7bf2:	e6f7      	b.n	79e4 <__aeabi_fsub+0x118>
    7bf4:	4663      	mov	r3, ip
    7bf6:	4652      	mov	r2, sl
    7bf8:	1a9b      	subs	r3, r3, r2
    7bfa:	e6a4      	b.n	7946 <__aeabi_fsub+0x7a>
    7bfc:	4662      	mov	r2, ip
    7bfe:	2a00      	cmp	r2, #0
    7c00:	d0d9      	beq.n	7bb6 <__aeabi_fsub+0x2ea>
    7c02:	4652      	mov	r2, sl
    7c04:	2a00      	cmp	r2, #0
    7c06:	d100      	bne.n	7c0a <__aeabi_fsub+0x33e>
    7c08:	e716      	b.n	7a38 <__aeabi_fsub+0x16c>
    7c0a:	2280      	movs	r2, #128	; 0x80
    7c0c:	03d2      	lsls	r2, r2, #15
    7c0e:	4213      	tst	r3, r2
    7c10:	d100      	bne.n	7c14 <__aeabi_fsub+0x348>
    7c12:	e711      	b.n	7a38 <__aeabi_fsub+0x16c>
    7c14:	4640      	mov	r0, r8
    7c16:	4210      	tst	r0, r2
    7c18:	d000      	beq.n	7c1c <__aeabi_fsub+0x350>
    7c1a:	e70d      	b.n	7a38 <__aeabi_fsub+0x16c>
    7c1c:	e70a      	b.n	7a34 <__aeabi_fsub+0x168>
    7c1e:	4652      	mov	r2, sl
    7c20:	000d      	movs	r5, r1
    7c22:	0034      	movs	r4, r6
    7c24:	1ad3      	subs	r3, r2, r3
    7c26:	e68e      	b.n	7946 <__aeabi_fsub+0x7a>
    7c28:	4653      	mov	r3, sl
    7c2a:	2b00      	cmp	r3, #0
    7c2c:	d008      	beq.n	7c40 <__aeabi_fsub+0x374>
    7c2e:	000d      	movs	r5, r1
    7c30:	4647      	mov	r7, r8
    7c32:	e6b2      	b.n	799a <__aeabi_fsub+0xce>
    7c34:	4643      	mov	r3, r8
    7c36:	0034      	movs	r4, r6
    7c38:	e780      	b.n	7b3c <__aeabi_fsub+0x270>
    7c3a:	2b00      	cmp	r3, #0
    7c3c:	d000      	beq.n	7c40 <__aeabi_fsub+0x374>
    7c3e:	e779      	b.n	7b34 <__aeabi_fsub+0x268>
    7c40:	2500      	movs	r5, #0
    7c42:	2700      	movs	r7, #0
    7c44:	e6a9      	b.n	799a <__aeabi_fsub+0xce>
    7c46:	4647      	mov	r7, r8
    7c48:	e6a7      	b.n	799a <__aeabi_fsub+0xce>
    7c4a:	4653      	mov	r3, sl
    7c4c:	0034      	movs	r4, r6
    7c4e:	4463      	add	r3, ip
    7c50:	e6c8      	b.n	79e4 <__aeabi_fsub+0x118>
    7c52:	46c0      	nop			; (mov r8, r8)
    7c54:	7dffffff 	.word	0x7dffffff
    7c58:	fbffffff 	.word	0xfbffffff

00007c5c <__aeabi_f2iz>:
__aeabi_f2iz():
    7c5c:	0241      	lsls	r1, r0, #9
    7c5e:	0042      	lsls	r2, r0, #1
    7c60:	0fc3      	lsrs	r3, r0, #31
    7c62:	0a49      	lsrs	r1, r1, #9
    7c64:	2000      	movs	r0, #0
    7c66:	0e12      	lsrs	r2, r2, #24
    7c68:	2a7e      	cmp	r2, #126	; 0x7e
    7c6a:	d903      	bls.n	7c74 <__aeabi_f2iz+0x18>
    7c6c:	2a9d      	cmp	r2, #157	; 0x9d
    7c6e:	d902      	bls.n	7c76 <__aeabi_f2iz+0x1a>
    7c70:	4a09      	ldr	r2, [pc, #36]	; (7c98 <__aeabi_f2iz+0x3c>)
    7c72:	1898      	adds	r0, r3, r2
    7c74:	4770      	bx	lr
    7c76:	2080      	movs	r0, #128	; 0x80
    7c78:	0400      	lsls	r0, r0, #16
    7c7a:	4301      	orrs	r1, r0
    7c7c:	2a95      	cmp	r2, #149	; 0x95
    7c7e:	dc07      	bgt.n	7c90 <__aeabi_f2iz+0x34>
    7c80:	2096      	movs	r0, #150	; 0x96
    7c82:	1a82      	subs	r2, r0, r2
    7c84:	40d1      	lsrs	r1, r2
    7c86:	4248      	negs	r0, r1
    7c88:	2b00      	cmp	r3, #0
    7c8a:	d1f3      	bne.n	7c74 <__aeabi_f2iz+0x18>
    7c8c:	0008      	movs	r0, r1
    7c8e:	e7f1      	b.n	7c74 <__aeabi_f2iz+0x18>
    7c90:	3a96      	subs	r2, #150	; 0x96
    7c92:	4091      	lsls	r1, r2
    7c94:	e7f7      	b.n	7c86 <__aeabi_f2iz+0x2a>
    7c96:	46c0      	nop			; (mov r8, r8)
    7c98:	7fffffff 	.word	0x7fffffff

00007c9c <__aeabi_i2f>:
__aeabi_i2f():
    7c9c:	b570      	push	{r4, r5, r6, lr}
    7c9e:	2800      	cmp	r0, #0
    7ca0:	d013      	beq.n	7cca <__aeabi_i2f+0x2e>
    7ca2:	17c3      	asrs	r3, r0, #31
    7ca4:	18c5      	adds	r5, r0, r3
    7ca6:	405d      	eors	r5, r3
    7ca8:	0fc4      	lsrs	r4, r0, #31
    7caa:	0028      	movs	r0, r5
    7cac:	f000 fff0 	bl	8c90 <__clzsi2>
    7cb0:	239e      	movs	r3, #158	; 0x9e
    7cb2:	0001      	movs	r1, r0
    7cb4:	1a1b      	subs	r3, r3, r0
    7cb6:	2b96      	cmp	r3, #150	; 0x96
    7cb8:	dc0f      	bgt.n	7cda <__aeabi_i2f+0x3e>
    7cba:	2808      	cmp	r0, #8
    7cbc:	dd01      	ble.n	7cc2 <__aeabi_i2f+0x26>
    7cbe:	3908      	subs	r1, #8
    7cc0:	408d      	lsls	r5, r1
    7cc2:	026d      	lsls	r5, r5, #9
    7cc4:	0a6d      	lsrs	r5, r5, #9
    7cc6:	b2d8      	uxtb	r0, r3
    7cc8:	e002      	b.n	7cd0 <__aeabi_i2f+0x34>
    7cca:	2400      	movs	r4, #0
    7ccc:	2000      	movs	r0, #0
    7cce:	2500      	movs	r5, #0
    7cd0:	05c0      	lsls	r0, r0, #23
    7cd2:	4328      	orrs	r0, r5
    7cd4:	07e4      	lsls	r4, r4, #31
    7cd6:	4320      	orrs	r0, r4
    7cd8:	bd70      	pop	{r4, r5, r6, pc}
    7cda:	2b99      	cmp	r3, #153	; 0x99
    7cdc:	dd0b      	ble.n	7cf6 <__aeabi_i2f+0x5a>
    7cde:	2205      	movs	r2, #5
    7ce0:	002e      	movs	r6, r5
    7ce2:	1a12      	subs	r2, r2, r0
    7ce4:	40d6      	lsrs	r6, r2
    7ce6:	0002      	movs	r2, r0
    7ce8:	321b      	adds	r2, #27
    7cea:	4095      	lsls	r5, r2
    7cec:	0028      	movs	r0, r5
    7cee:	1e45      	subs	r5, r0, #1
    7cf0:	41a8      	sbcs	r0, r5
    7cf2:	0035      	movs	r5, r6
    7cf4:	4305      	orrs	r5, r0
    7cf6:	2905      	cmp	r1, #5
    7cf8:	dd01      	ble.n	7cfe <__aeabi_i2f+0x62>
    7cfa:	1f4a      	subs	r2, r1, #5
    7cfc:	4095      	lsls	r5, r2
    7cfe:	002a      	movs	r2, r5
    7d00:	4e08      	ldr	r6, [pc, #32]	; (7d24 <__aeabi_i2f+0x88>)
    7d02:	4032      	ands	r2, r6
    7d04:	0768      	lsls	r0, r5, #29
    7d06:	d009      	beq.n	7d1c <__aeabi_i2f+0x80>
    7d08:	200f      	movs	r0, #15
    7d0a:	4028      	ands	r0, r5
    7d0c:	2804      	cmp	r0, #4
    7d0e:	d005      	beq.n	7d1c <__aeabi_i2f+0x80>
    7d10:	3204      	adds	r2, #4
    7d12:	0150      	lsls	r0, r2, #5
    7d14:	d502      	bpl.n	7d1c <__aeabi_i2f+0x80>
    7d16:	239f      	movs	r3, #159	; 0x9f
    7d18:	4032      	ands	r2, r6
    7d1a:	1a5b      	subs	r3, r3, r1
    7d1c:	0192      	lsls	r2, r2, #6
    7d1e:	0a55      	lsrs	r5, r2, #9
    7d20:	b2d8      	uxtb	r0, r3
    7d22:	e7d5      	b.n	7cd0 <__aeabi_i2f+0x34>
    7d24:	fbffffff 	.word	0xfbffffff

00007d28 <__aeabi_ui2f>:
__aeabi_ui2f():
    7d28:	b570      	push	{r4, r5, r6, lr}
    7d2a:	1e05      	subs	r5, r0, #0
    7d2c:	d00e      	beq.n	7d4c <__aeabi_ui2f+0x24>
    7d2e:	f000 ffaf 	bl	8c90 <__clzsi2>
    7d32:	239e      	movs	r3, #158	; 0x9e
    7d34:	0004      	movs	r4, r0
    7d36:	1a1b      	subs	r3, r3, r0
    7d38:	2b96      	cmp	r3, #150	; 0x96
    7d3a:	dc0c      	bgt.n	7d56 <__aeabi_ui2f+0x2e>
    7d3c:	2808      	cmp	r0, #8
    7d3e:	dd01      	ble.n	7d44 <__aeabi_ui2f+0x1c>
    7d40:	3c08      	subs	r4, #8
    7d42:	40a5      	lsls	r5, r4
    7d44:	026d      	lsls	r5, r5, #9
    7d46:	0a6d      	lsrs	r5, r5, #9
    7d48:	b2d8      	uxtb	r0, r3
    7d4a:	e001      	b.n	7d50 <__aeabi_ui2f+0x28>
    7d4c:	2000      	movs	r0, #0
    7d4e:	2500      	movs	r5, #0
    7d50:	05c0      	lsls	r0, r0, #23
    7d52:	4328      	orrs	r0, r5
    7d54:	bd70      	pop	{r4, r5, r6, pc}
    7d56:	2b99      	cmp	r3, #153	; 0x99
    7d58:	dd09      	ble.n	7d6e <__aeabi_ui2f+0x46>
    7d5a:	0002      	movs	r2, r0
    7d5c:	0029      	movs	r1, r5
    7d5e:	321b      	adds	r2, #27
    7d60:	4091      	lsls	r1, r2
    7d62:	1e4a      	subs	r2, r1, #1
    7d64:	4191      	sbcs	r1, r2
    7d66:	2205      	movs	r2, #5
    7d68:	1a12      	subs	r2, r2, r0
    7d6a:	40d5      	lsrs	r5, r2
    7d6c:	430d      	orrs	r5, r1
    7d6e:	2c05      	cmp	r4, #5
    7d70:	dd01      	ble.n	7d76 <__aeabi_ui2f+0x4e>
    7d72:	1f62      	subs	r2, r4, #5
    7d74:	4095      	lsls	r5, r2
    7d76:	0029      	movs	r1, r5
    7d78:	4e08      	ldr	r6, [pc, #32]	; (7d9c <__aeabi_ui2f+0x74>)
    7d7a:	4031      	ands	r1, r6
    7d7c:	076a      	lsls	r2, r5, #29
    7d7e:	d009      	beq.n	7d94 <__aeabi_ui2f+0x6c>
    7d80:	200f      	movs	r0, #15
    7d82:	4028      	ands	r0, r5
    7d84:	2804      	cmp	r0, #4
    7d86:	d005      	beq.n	7d94 <__aeabi_ui2f+0x6c>
    7d88:	3104      	adds	r1, #4
    7d8a:	014a      	lsls	r2, r1, #5
    7d8c:	d502      	bpl.n	7d94 <__aeabi_ui2f+0x6c>
    7d8e:	239f      	movs	r3, #159	; 0x9f
    7d90:	4031      	ands	r1, r6
    7d92:	1b1b      	subs	r3, r3, r4
    7d94:	0189      	lsls	r1, r1, #6
    7d96:	0a4d      	lsrs	r5, r1, #9
    7d98:	b2d8      	uxtb	r0, r3
    7d9a:	e7d9      	b.n	7d50 <__aeabi_ui2f+0x28>
    7d9c:	fbffffff 	.word	0xfbffffff

00007da0 <__eqdf2>:
__eqdf2():
    7da0:	b5f0      	push	{r4, r5, r6, r7, lr}
    7da2:	464f      	mov	r7, r9
    7da4:	4646      	mov	r6, r8
    7da6:	46d6      	mov	lr, sl
    7da8:	4694      	mov	ip, r2
    7daa:	4691      	mov	r9, r2
    7dac:	031a      	lsls	r2, r3, #12
    7dae:	0b12      	lsrs	r2, r2, #12
    7db0:	4d18      	ldr	r5, [pc, #96]	; (7e14 <__eqdf2+0x74>)
    7db2:	b5c0      	push	{r6, r7, lr}
    7db4:	004c      	lsls	r4, r1, #1
    7db6:	030f      	lsls	r7, r1, #12
    7db8:	4692      	mov	sl, r2
    7dba:	005a      	lsls	r2, r3, #1
    7dbc:	0006      	movs	r6, r0
    7dbe:	4680      	mov	r8, r0
    7dc0:	0b3f      	lsrs	r7, r7, #12
    7dc2:	2001      	movs	r0, #1
    7dc4:	0d64      	lsrs	r4, r4, #21
    7dc6:	0fc9      	lsrs	r1, r1, #31
    7dc8:	0d52      	lsrs	r2, r2, #21
    7dca:	0fdb      	lsrs	r3, r3, #31
    7dcc:	42ac      	cmp	r4, r5
    7dce:	d00a      	beq.n	7de6 <__eqdf2+0x46>
    7dd0:	42aa      	cmp	r2, r5
    7dd2:	d003      	beq.n	7ddc <__eqdf2+0x3c>
    7dd4:	4294      	cmp	r4, r2
    7dd6:	d101      	bne.n	7ddc <__eqdf2+0x3c>
    7dd8:	4557      	cmp	r7, sl
    7dda:	d00d      	beq.n	7df8 <__eqdf2+0x58>
    7ddc:	bce0      	pop	{r5, r6, r7}
    7dde:	46ba      	mov	sl, r7
    7de0:	46b1      	mov	r9, r6
    7de2:	46a8      	mov	r8, r5
    7de4:	bdf0      	pop	{r4, r5, r6, r7, pc}
    7de6:	003d      	movs	r5, r7
    7de8:	4335      	orrs	r5, r6
    7dea:	d1f7      	bne.n	7ddc <__eqdf2+0x3c>
    7dec:	42a2      	cmp	r2, r4
    7dee:	d1f5      	bne.n	7ddc <__eqdf2+0x3c>
    7df0:	4652      	mov	r2, sl
    7df2:	4665      	mov	r5, ip
    7df4:	432a      	orrs	r2, r5
    7df6:	d1f1      	bne.n	7ddc <__eqdf2+0x3c>
    7df8:	2001      	movs	r0, #1
    7dfa:	45c8      	cmp	r8, r9
    7dfc:	d1ee      	bne.n	7ddc <__eqdf2+0x3c>
    7dfe:	4299      	cmp	r1, r3
    7e00:	d006      	beq.n	7e10 <__eqdf2+0x70>
    7e02:	2c00      	cmp	r4, #0
    7e04:	d1ea      	bne.n	7ddc <__eqdf2+0x3c>
    7e06:	433e      	orrs	r6, r7
    7e08:	0030      	movs	r0, r6
    7e0a:	1e46      	subs	r6, r0, #1
    7e0c:	41b0      	sbcs	r0, r6
    7e0e:	e7e5      	b.n	7ddc <__eqdf2+0x3c>
    7e10:	2000      	movs	r0, #0
    7e12:	e7e3      	b.n	7ddc <__eqdf2+0x3c>
    7e14:	000007ff 	.word	0x000007ff

00007e18 <__gedf2>:
__gtdf2():
    7e18:	b5f0      	push	{r4, r5, r6, r7, lr}
    7e1a:	464e      	mov	r6, r9
    7e1c:	4645      	mov	r5, r8
    7e1e:	4657      	mov	r7, sl
    7e20:	46de      	mov	lr, fp
    7e22:	0004      	movs	r4, r0
    7e24:	0018      	movs	r0, r3
    7e26:	b5e0      	push	{r5, r6, r7, lr}
    7e28:	0016      	movs	r6, r2
    7e2a:	031b      	lsls	r3, r3, #12
    7e2c:	0b1b      	lsrs	r3, r3, #12
    7e2e:	4d32      	ldr	r5, [pc, #200]	; (7ef8 <__gedf2+0xe0>)
    7e30:	030f      	lsls	r7, r1, #12
    7e32:	004a      	lsls	r2, r1, #1
    7e34:	4699      	mov	r9, r3
    7e36:	0043      	lsls	r3, r0, #1
    7e38:	46a4      	mov	ip, r4
    7e3a:	46b0      	mov	r8, r6
    7e3c:	0b3f      	lsrs	r7, r7, #12
    7e3e:	0d52      	lsrs	r2, r2, #21
    7e40:	0fc9      	lsrs	r1, r1, #31
    7e42:	0d5b      	lsrs	r3, r3, #21
    7e44:	0fc0      	lsrs	r0, r0, #31
    7e46:	42aa      	cmp	r2, r5
    7e48:	d029      	beq.n	7e9e <__gedf2+0x86>
    7e4a:	42ab      	cmp	r3, r5
    7e4c:	d018      	beq.n	7e80 <__gedf2+0x68>
    7e4e:	2a00      	cmp	r2, #0
    7e50:	d12a      	bne.n	7ea8 <__gedf2+0x90>
    7e52:	433c      	orrs	r4, r7
    7e54:	46a3      	mov	fp, r4
    7e56:	4265      	negs	r5, r4
    7e58:	4165      	adcs	r5, r4
    7e5a:	2b00      	cmp	r3, #0
    7e5c:	d102      	bne.n	7e64 <__gedf2+0x4c>
    7e5e:	464c      	mov	r4, r9
    7e60:	4326      	orrs	r6, r4
    7e62:	d027      	beq.n	7eb4 <__gedf2+0x9c>
    7e64:	2d00      	cmp	r5, #0
    7e66:	d115      	bne.n	7e94 <__gedf2+0x7c>
    7e68:	4281      	cmp	r1, r0
    7e6a:	d028      	beq.n	7ebe <__gedf2+0xa6>
    7e6c:	2002      	movs	r0, #2
    7e6e:	3901      	subs	r1, #1
    7e70:	4008      	ands	r0, r1
    7e72:	3801      	subs	r0, #1
    7e74:	bcf0      	pop	{r4, r5, r6, r7}
    7e76:	46bb      	mov	fp, r7
    7e78:	46b2      	mov	sl, r6
    7e7a:	46a9      	mov	r9, r5
    7e7c:	46a0      	mov	r8, r4
    7e7e:	bdf0      	pop	{r4, r5, r6, r7, pc}
    7e80:	464d      	mov	r5, r9
    7e82:	432e      	orrs	r6, r5
    7e84:	d12f      	bne.n	7ee6 <__gedf2+0xce>
    7e86:	2a00      	cmp	r2, #0
    7e88:	d1ee      	bne.n	7e68 <__gedf2+0x50>
    7e8a:	433c      	orrs	r4, r7
    7e8c:	4265      	negs	r5, r4
    7e8e:	4165      	adcs	r5, r4
    7e90:	2d00      	cmp	r5, #0
    7e92:	d0e9      	beq.n	7e68 <__gedf2+0x50>
    7e94:	2800      	cmp	r0, #0
    7e96:	d1ed      	bne.n	7e74 <__gedf2+0x5c>
    7e98:	2001      	movs	r0, #1
    7e9a:	4240      	negs	r0, r0
    7e9c:	e7ea      	b.n	7e74 <__gedf2+0x5c>
    7e9e:	003d      	movs	r5, r7
    7ea0:	4325      	orrs	r5, r4
    7ea2:	d120      	bne.n	7ee6 <__gedf2+0xce>
    7ea4:	4293      	cmp	r3, r2
    7ea6:	d0eb      	beq.n	7e80 <__gedf2+0x68>
    7ea8:	2b00      	cmp	r3, #0
    7eaa:	d1dd      	bne.n	7e68 <__gedf2+0x50>
    7eac:	464c      	mov	r4, r9
    7eae:	4326      	orrs	r6, r4
    7eb0:	d1da      	bne.n	7e68 <__gedf2+0x50>
    7eb2:	e7db      	b.n	7e6c <__gedf2+0x54>
    7eb4:	465b      	mov	r3, fp
    7eb6:	2000      	movs	r0, #0
    7eb8:	2b00      	cmp	r3, #0
    7eba:	d0db      	beq.n	7e74 <__gedf2+0x5c>
    7ebc:	e7d6      	b.n	7e6c <__gedf2+0x54>
    7ebe:	429a      	cmp	r2, r3
    7ec0:	dc0a      	bgt.n	7ed8 <__gedf2+0xc0>
    7ec2:	dbe7      	blt.n	7e94 <__gedf2+0x7c>
    7ec4:	454f      	cmp	r7, r9
    7ec6:	d8d1      	bhi.n	7e6c <__gedf2+0x54>
    7ec8:	d010      	beq.n	7eec <__gedf2+0xd4>
    7eca:	2000      	movs	r0, #0
    7ecc:	454f      	cmp	r7, r9
    7ece:	d2d1      	bcs.n	7e74 <__gedf2+0x5c>
    7ed0:	2900      	cmp	r1, #0
    7ed2:	d0e1      	beq.n	7e98 <__gedf2+0x80>
    7ed4:	0008      	movs	r0, r1
    7ed6:	e7cd      	b.n	7e74 <__gedf2+0x5c>
    7ed8:	4243      	negs	r3, r0
    7eda:	4158      	adcs	r0, r3
    7edc:	2302      	movs	r3, #2
    7ede:	4240      	negs	r0, r0
    7ee0:	4018      	ands	r0, r3
    7ee2:	3801      	subs	r0, #1
    7ee4:	e7c6      	b.n	7e74 <__gedf2+0x5c>
    7ee6:	2002      	movs	r0, #2
    7ee8:	4240      	negs	r0, r0
    7eea:	e7c3      	b.n	7e74 <__gedf2+0x5c>
    7eec:	45c4      	cmp	ip, r8
    7eee:	d8bd      	bhi.n	7e6c <__gedf2+0x54>
    7ef0:	2000      	movs	r0, #0
    7ef2:	45c4      	cmp	ip, r8
    7ef4:	d2be      	bcs.n	7e74 <__gedf2+0x5c>
    7ef6:	e7eb      	b.n	7ed0 <__gedf2+0xb8>
    7ef8:	000007ff 	.word	0x000007ff

00007efc <__ledf2>:
__ltdf2():
    7efc:	b5f0      	push	{r4, r5, r6, r7, lr}
    7efe:	464e      	mov	r6, r9
    7f00:	4645      	mov	r5, r8
    7f02:	4657      	mov	r7, sl
    7f04:	46de      	mov	lr, fp
    7f06:	0004      	movs	r4, r0
    7f08:	0018      	movs	r0, r3
    7f0a:	b5e0      	push	{r5, r6, r7, lr}
    7f0c:	0016      	movs	r6, r2
    7f0e:	031b      	lsls	r3, r3, #12
    7f10:	0b1b      	lsrs	r3, r3, #12
    7f12:	4d31      	ldr	r5, [pc, #196]	; (7fd8 <__ledf2+0xdc>)
    7f14:	030f      	lsls	r7, r1, #12
    7f16:	004a      	lsls	r2, r1, #1
    7f18:	4699      	mov	r9, r3
    7f1a:	0043      	lsls	r3, r0, #1
    7f1c:	46a4      	mov	ip, r4
    7f1e:	46b0      	mov	r8, r6
    7f20:	0b3f      	lsrs	r7, r7, #12
    7f22:	0d52      	lsrs	r2, r2, #21
    7f24:	0fc9      	lsrs	r1, r1, #31
    7f26:	0d5b      	lsrs	r3, r3, #21
    7f28:	0fc0      	lsrs	r0, r0, #31
    7f2a:	42aa      	cmp	r2, r5
    7f2c:	d011      	beq.n	7f52 <__ledf2+0x56>
    7f2e:	42ab      	cmp	r3, r5
    7f30:	d014      	beq.n	7f5c <__ledf2+0x60>
    7f32:	2a00      	cmp	r2, #0
    7f34:	d12f      	bne.n	7f96 <__ledf2+0x9a>
    7f36:	433c      	orrs	r4, r7
    7f38:	46a3      	mov	fp, r4
    7f3a:	4265      	negs	r5, r4
    7f3c:	4165      	adcs	r5, r4
    7f3e:	2b00      	cmp	r3, #0
    7f40:	d114      	bne.n	7f6c <__ledf2+0x70>
    7f42:	464c      	mov	r4, r9
    7f44:	4326      	orrs	r6, r4
    7f46:	d111      	bne.n	7f6c <__ledf2+0x70>
    7f48:	465b      	mov	r3, fp
    7f4a:	2000      	movs	r0, #0
    7f4c:	2b00      	cmp	r3, #0
    7f4e:	d017      	beq.n	7f80 <__ledf2+0x84>
    7f50:	e010      	b.n	7f74 <__ledf2+0x78>
    7f52:	003d      	movs	r5, r7
    7f54:	4325      	orrs	r5, r4
    7f56:	d112      	bne.n	7f7e <__ledf2+0x82>
    7f58:	4293      	cmp	r3, r2
    7f5a:	d11c      	bne.n	7f96 <__ledf2+0x9a>
    7f5c:	464d      	mov	r5, r9
    7f5e:	432e      	orrs	r6, r5
    7f60:	d10d      	bne.n	7f7e <__ledf2+0x82>
    7f62:	2a00      	cmp	r2, #0
    7f64:	d104      	bne.n	7f70 <__ledf2+0x74>
    7f66:	433c      	orrs	r4, r7
    7f68:	4265      	negs	r5, r4
    7f6a:	4165      	adcs	r5, r4
    7f6c:	2d00      	cmp	r5, #0
    7f6e:	d10d      	bne.n	7f8c <__ledf2+0x90>
    7f70:	4281      	cmp	r1, r0
    7f72:	d016      	beq.n	7fa2 <__ledf2+0xa6>
    7f74:	2002      	movs	r0, #2
    7f76:	3901      	subs	r1, #1
    7f78:	4008      	ands	r0, r1
    7f7a:	3801      	subs	r0, #1
    7f7c:	e000      	b.n	7f80 <__ledf2+0x84>
    7f7e:	2002      	movs	r0, #2
    7f80:	bcf0      	pop	{r4, r5, r6, r7}
    7f82:	46bb      	mov	fp, r7
    7f84:	46b2      	mov	sl, r6
    7f86:	46a9      	mov	r9, r5
    7f88:	46a0      	mov	r8, r4
    7f8a:	bdf0      	pop	{r4, r5, r6, r7, pc}
    7f8c:	2800      	cmp	r0, #0
    7f8e:	d1f7      	bne.n	7f80 <__ledf2+0x84>
    7f90:	2001      	movs	r0, #1
    7f92:	4240      	negs	r0, r0
    7f94:	e7f4      	b.n	7f80 <__ledf2+0x84>
    7f96:	2b00      	cmp	r3, #0
    7f98:	d1ea      	bne.n	7f70 <__ledf2+0x74>
    7f9a:	464c      	mov	r4, r9
    7f9c:	4326      	orrs	r6, r4
    7f9e:	d1e7      	bne.n	7f70 <__ledf2+0x74>
    7fa0:	e7e8      	b.n	7f74 <__ledf2+0x78>
    7fa2:	429a      	cmp	r2, r3
    7fa4:	dd06      	ble.n	7fb4 <__ledf2+0xb8>
    7fa6:	4243      	negs	r3, r0
    7fa8:	4158      	adcs	r0, r3
    7faa:	2302      	movs	r3, #2
    7fac:	4240      	negs	r0, r0
    7fae:	4018      	ands	r0, r3
    7fb0:	3801      	subs	r0, #1
    7fb2:	e7e5      	b.n	7f80 <__ledf2+0x84>
    7fb4:	429a      	cmp	r2, r3
    7fb6:	dbe9      	blt.n	7f8c <__ledf2+0x90>
    7fb8:	454f      	cmp	r7, r9
    7fba:	d8db      	bhi.n	7f74 <__ledf2+0x78>
    7fbc:	d006      	beq.n	7fcc <__ledf2+0xd0>
    7fbe:	2000      	movs	r0, #0
    7fc0:	454f      	cmp	r7, r9
    7fc2:	d2dd      	bcs.n	7f80 <__ledf2+0x84>
    7fc4:	2900      	cmp	r1, #0
    7fc6:	d0e3      	beq.n	7f90 <__ledf2+0x94>
    7fc8:	0008      	movs	r0, r1
    7fca:	e7d9      	b.n	7f80 <__ledf2+0x84>
    7fcc:	45c4      	cmp	ip, r8
    7fce:	d8d1      	bhi.n	7f74 <__ledf2+0x78>
    7fd0:	2000      	movs	r0, #0
    7fd2:	45c4      	cmp	ip, r8
    7fd4:	d2d4      	bcs.n	7f80 <__ledf2+0x84>
    7fd6:	e7f5      	b.n	7fc4 <__ledf2+0xc8>
    7fd8:	000007ff 	.word	0x000007ff

00007fdc <__aeabi_dmul>:
__aeabi_dmul():
    7fdc:	b5f0      	push	{r4, r5, r6, r7, lr}
    7fde:	4657      	mov	r7, sl
    7fe0:	464e      	mov	r6, r9
    7fe2:	4645      	mov	r5, r8
    7fe4:	46de      	mov	lr, fp
    7fe6:	b5e0      	push	{r5, r6, r7, lr}
    7fe8:	4698      	mov	r8, r3
    7fea:	030c      	lsls	r4, r1, #12
    7fec:	004b      	lsls	r3, r1, #1
    7fee:	0006      	movs	r6, r0
    7ff0:	4692      	mov	sl, r2
    7ff2:	b087      	sub	sp, #28
    7ff4:	0b24      	lsrs	r4, r4, #12
    7ff6:	0d5b      	lsrs	r3, r3, #21
    7ff8:	0fcf      	lsrs	r7, r1, #31
    7ffa:	2b00      	cmp	r3, #0
    7ffc:	d06c      	beq.n	80d8 <__aeabi_dmul+0xfc>
    7ffe:	4add      	ldr	r2, [pc, #884]	; (8374 <__aeabi_dmul+0x398>)
    8000:	4293      	cmp	r3, r2
    8002:	d100      	bne.n	8006 <__aeabi_dmul+0x2a>
    8004:	e086      	b.n	8114 <__aeabi_dmul+0x138>
    8006:	0f42      	lsrs	r2, r0, #29
    8008:	00e4      	lsls	r4, r4, #3
    800a:	4314      	orrs	r4, r2
    800c:	2280      	movs	r2, #128	; 0x80
    800e:	0412      	lsls	r2, r2, #16
    8010:	4314      	orrs	r4, r2
    8012:	4ad9      	ldr	r2, [pc, #868]	; (8378 <__aeabi_dmul+0x39c>)
    8014:	00c5      	lsls	r5, r0, #3
    8016:	4694      	mov	ip, r2
    8018:	4463      	add	r3, ip
    801a:	9300      	str	r3, [sp, #0]
    801c:	2300      	movs	r3, #0
    801e:	4699      	mov	r9, r3
    8020:	469b      	mov	fp, r3
    8022:	4643      	mov	r3, r8
    8024:	4642      	mov	r2, r8
    8026:	031e      	lsls	r6, r3, #12
    8028:	0fd2      	lsrs	r2, r2, #31
    802a:	005b      	lsls	r3, r3, #1
    802c:	4650      	mov	r0, sl
    802e:	4690      	mov	r8, r2
    8030:	0b36      	lsrs	r6, r6, #12
    8032:	0d5b      	lsrs	r3, r3, #21
    8034:	d100      	bne.n	8038 <__aeabi_dmul+0x5c>
    8036:	e078      	b.n	812a <__aeabi_dmul+0x14e>
    8038:	4ace      	ldr	r2, [pc, #824]	; (8374 <__aeabi_dmul+0x398>)
    803a:	4293      	cmp	r3, r2
    803c:	d01d      	beq.n	807a <__aeabi_dmul+0x9e>
    803e:	49ce      	ldr	r1, [pc, #824]	; (8378 <__aeabi_dmul+0x39c>)
    8040:	0f42      	lsrs	r2, r0, #29
    8042:	468c      	mov	ip, r1
    8044:	9900      	ldr	r1, [sp, #0]
    8046:	4463      	add	r3, ip
    8048:	00f6      	lsls	r6, r6, #3
    804a:	468c      	mov	ip, r1
    804c:	4316      	orrs	r6, r2
    804e:	2280      	movs	r2, #128	; 0x80
    8050:	449c      	add	ip, r3
    8052:	0412      	lsls	r2, r2, #16
    8054:	4663      	mov	r3, ip
    8056:	4316      	orrs	r6, r2
    8058:	00c2      	lsls	r2, r0, #3
    805a:	2000      	movs	r0, #0
    805c:	9300      	str	r3, [sp, #0]
    805e:	9900      	ldr	r1, [sp, #0]
    8060:	4643      	mov	r3, r8
    8062:	3101      	adds	r1, #1
    8064:	468c      	mov	ip, r1
    8066:	4649      	mov	r1, r9
    8068:	407b      	eors	r3, r7
    806a:	9301      	str	r3, [sp, #4]
    806c:	290f      	cmp	r1, #15
    806e:	d900      	bls.n	8072 <__aeabi_dmul+0x96>
    8070:	e07e      	b.n	8170 <__aeabi_dmul+0x194>
    8072:	4bc2      	ldr	r3, [pc, #776]	; (837c <__aeabi_dmul+0x3a0>)
    8074:	0089      	lsls	r1, r1, #2
    8076:	5859      	ldr	r1, [r3, r1]
    8078:	468f      	mov	pc, r1
    807a:	4652      	mov	r2, sl
    807c:	9b00      	ldr	r3, [sp, #0]
    807e:	4332      	orrs	r2, r6
    8080:	d000      	beq.n	8084 <__aeabi_dmul+0xa8>
    8082:	e156      	b.n	8332 <__aeabi_dmul+0x356>
    8084:	49bb      	ldr	r1, [pc, #748]	; (8374 <__aeabi_dmul+0x398>)
    8086:	2600      	movs	r6, #0
    8088:	468c      	mov	ip, r1
    808a:	4463      	add	r3, ip
    808c:	4649      	mov	r1, r9
    808e:	9300      	str	r3, [sp, #0]
    8090:	2302      	movs	r3, #2
    8092:	4319      	orrs	r1, r3
    8094:	4689      	mov	r9, r1
    8096:	2002      	movs	r0, #2
    8098:	e7e1      	b.n	805e <__aeabi_dmul+0x82>
    809a:	4643      	mov	r3, r8
    809c:	9301      	str	r3, [sp, #4]
    809e:	0034      	movs	r4, r6
    80a0:	0015      	movs	r5, r2
    80a2:	4683      	mov	fp, r0
    80a4:	465b      	mov	r3, fp
    80a6:	2b02      	cmp	r3, #2
    80a8:	d05e      	beq.n	8168 <__aeabi_dmul+0x18c>
    80aa:	2b03      	cmp	r3, #3
    80ac:	d100      	bne.n	80b0 <__aeabi_dmul+0xd4>
    80ae:	e1f3      	b.n	8498 <__aeabi_dmul+0x4bc>
    80b0:	2b01      	cmp	r3, #1
    80b2:	d000      	beq.n	80b6 <__aeabi_dmul+0xda>
    80b4:	e118      	b.n	82e8 <__aeabi_dmul+0x30c>
    80b6:	2200      	movs	r2, #0
    80b8:	2400      	movs	r4, #0
    80ba:	2500      	movs	r5, #0
    80bc:	9b01      	ldr	r3, [sp, #4]
    80be:	0512      	lsls	r2, r2, #20
    80c0:	4322      	orrs	r2, r4
    80c2:	07db      	lsls	r3, r3, #31
    80c4:	431a      	orrs	r2, r3
    80c6:	0028      	movs	r0, r5
    80c8:	0011      	movs	r1, r2
    80ca:	b007      	add	sp, #28
    80cc:	bcf0      	pop	{r4, r5, r6, r7}
    80ce:	46bb      	mov	fp, r7
    80d0:	46b2      	mov	sl, r6
    80d2:	46a9      	mov	r9, r5
    80d4:	46a0      	mov	r8, r4
    80d6:	bdf0      	pop	{r4, r5, r6, r7, pc}
    80d8:	0025      	movs	r5, r4
    80da:	4305      	orrs	r5, r0
    80dc:	d100      	bne.n	80e0 <__aeabi_dmul+0x104>
    80de:	e141      	b.n	8364 <__aeabi_dmul+0x388>
    80e0:	2c00      	cmp	r4, #0
    80e2:	d100      	bne.n	80e6 <__aeabi_dmul+0x10a>
    80e4:	e1ad      	b.n	8442 <__aeabi_dmul+0x466>
    80e6:	0020      	movs	r0, r4
    80e8:	f000 fdd2 	bl	8c90 <__clzsi2>
    80ec:	0001      	movs	r1, r0
    80ee:	0002      	movs	r2, r0
    80f0:	390b      	subs	r1, #11
    80f2:	231d      	movs	r3, #29
    80f4:	0010      	movs	r0, r2
    80f6:	1a5b      	subs	r3, r3, r1
    80f8:	0031      	movs	r1, r6
    80fa:	0035      	movs	r5, r6
    80fc:	3808      	subs	r0, #8
    80fe:	4084      	lsls	r4, r0
    8100:	40d9      	lsrs	r1, r3
    8102:	4085      	lsls	r5, r0
    8104:	430c      	orrs	r4, r1
    8106:	489e      	ldr	r0, [pc, #632]	; (8380 <__aeabi_dmul+0x3a4>)
    8108:	1a83      	subs	r3, r0, r2
    810a:	9300      	str	r3, [sp, #0]
    810c:	2300      	movs	r3, #0
    810e:	4699      	mov	r9, r3
    8110:	469b      	mov	fp, r3
    8112:	e786      	b.n	8022 <__aeabi_dmul+0x46>
    8114:	0005      	movs	r5, r0
    8116:	4325      	orrs	r5, r4
    8118:	d000      	beq.n	811c <__aeabi_dmul+0x140>
    811a:	e11c      	b.n	8356 <__aeabi_dmul+0x37a>
    811c:	2208      	movs	r2, #8
    811e:	9300      	str	r3, [sp, #0]
    8120:	2302      	movs	r3, #2
    8122:	2400      	movs	r4, #0
    8124:	4691      	mov	r9, r2
    8126:	469b      	mov	fp, r3
    8128:	e77b      	b.n	8022 <__aeabi_dmul+0x46>
    812a:	4652      	mov	r2, sl
    812c:	4332      	orrs	r2, r6
    812e:	d100      	bne.n	8132 <__aeabi_dmul+0x156>
    8130:	e10a      	b.n	8348 <__aeabi_dmul+0x36c>
    8132:	2e00      	cmp	r6, #0
    8134:	d100      	bne.n	8138 <__aeabi_dmul+0x15c>
    8136:	e176      	b.n	8426 <__aeabi_dmul+0x44a>
    8138:	0030      	movs	r0, r6
    813a:	f000 fda9 	bl	8c90 <__clzsi2>
    813e:	0002      	movs	r2, r0
    8140:	3a0b      	subs	r2, #11
    8142:	231d      	movs	r3, #29
    8144:	0001      	movs	r1, r0
    8146:	1a9b      	subs	r3, r3, r2
    8148:	4652      	mov	r2, sl
    814a:	3908      	subs	r1, #8
    814c:	40da      	lsrs	r2, r3
    814e:	408e      	lsls	r6, r1
    8150:	4316      	orrs	r6, r2
    8152:	4652      	mov	r2, sl
    8154:	408a      	lsls	r2, r1
    8156:	9b00      	ldr	r3, [sp, #0]
    8158:	4989      	ldr	r1, [pc, #548]	; (8380 <__aeabi_dmul+0x3a4>)
    815a:	1a18      	subs	r0, r3, r0
    815c:	0003      	movs	r3, r0
    815e:	468c      	mov	ip, r1
    8160:	4463      	add	r3, ip
    8162:	2000      	movs	r0, #0
    8164:	9300      	str	r3, [sp, #0]
    8166:	e77a      	b.n	805e <__aeabi_dmul+0x82>
    8168:	2400      	movs	r4, #0
    816a:	2500      	movs	r5, #0
    816c:	4a81      	ldr	r2, [pc, #516]	; (8374 <__aeabi_dmul+0x398>)
    816e:	e7a5      	b.n	80bc <__aeabi_dmul+0xe0>
    8170:	0c2f      	lsrs	r7, r5, #16
    8172:	042d      	lsls	r5, r5, #16
    8174:	0c2d      	lsrs	r5, r5, #16
    8176:	002b      	movs	r3, r5
    8178:	0c11      	lsrs	r1, r2, #16
    817a:	0412      	lsls	r2, r2, #16
    817c:	0c12      	lsrs	r2, r2, #16
    817e:	4353      	muls	r3, r2
    8180:	4698      	mov	r8, r3
    8182:	0013      	movs	r3, r2
    8184:	0028      	movs	r0, r5
    8186:	437b      	muls	r3, r7
    8188:	4699      	mov	r9, r3
    818a:	4348      	muls	r0, r1
    818c:	4448      	add	r0, r9
    818e:	4683      	mov	fp, r0
    8190:	4640      	mov	r0, r8
    8192:	000b      	movs	r3, r1
    8194:	0c00      	lsrs	r0, r0, #16
    8196:	4682      	mov	sl, r0
    8198:	4658      	mov	r0, fp
    819a:	437b      	muls	r3, r7
    819c:	4450      	add	r0, sl
    819e:	9302      	str	r3, [sp, #8]
    81a0:	4581      	cmp	r9, r0
    81a2:	d906      	bls.n	81b2 <__aeabi_dmul+0x1d6>
    81a4:	469a      	mov	sl, r3
    81a6:	2380      	movs	r3, #128	; 0x80
    81a8:	025b      	lsls	r3, r3, #9
    81aa:	4699      	mov	r9, r3
    81ac:	44ca      	add	sl, r9
    81ae:	4653      	mov	r3, sl
    81b0:	9302      	str	r3, [sp, #8]
    81b2:	0c03      	lsrs	r3, r0, #16
    81b4:	469b      	mov	fp, r3
    81b6:	4643      	mov	r3, r8
    81b8:	041b      	lsls	r3, r3, #16
    81ba:	0400      	lsls	r0, r0, #16
    81bc:	0c1b      	lsrs	r3, r3, #16
    81be:	4698      	mov	r8, r3
    81c0:	0003      	movs	r3, r0
    81c2:	4443      	add	r3, r8
    81c4:	9304      	str	r3, [sp, #16]
    81c6:	0c33      	lsrs	r3, r6, #16
    81c8:	4699      	mov	r9, r3
    81ca:	002b      	movs	r3, r5
    81cc:	0436      	lsls	r6, r6, #16
    81ce:	0c36      	lsrs	r6, r6, #16
    81d0:	4373      	muls	r3, r6
    81d2:	4698      	mov	r8, r3
    81d4:	0033      	movs	r3, r6
    81d6:	437b      	muls	r3, r7
    81d8:	469a      	mov	sl, r3
    81da:	464b      	mov	r3, r9
    81dc:	435d      	muls	r5, r3
    81de:	435f      	muls	r7, r3
    81e0:	4643      	mov	r3, r8
    81e2:	4455      	add	r5, sl
    81e4:	0c18      	lsrs	r0, r3, #16
    81e6:	1940      	adds	r0, r0, r5
    81e8:	4582      	cmp	sl, r0
    81ea:	d903      	bls.n	81f4 <__aeabi_dmul+0x218>
    81ec:	2380      	movs	r3, #128	; 0x80
    81ee:	025b      	lsls	r3, r3, #9
    81f0:	469a      	mov	sl, r3
    81f2:	4457      	add	r7, sl
    81f4:	0c05      	lsrs	r5, r0, #16
    81f6:	19eb      	adds	r3, r5, r7
    81f8:	9305      	str	r3, [sp, #20]
    81fa:	4643      	mov	r3, r8
    81fc:	041d      	lsls	r5, r3, #16
    81fe:	0c2d      	lsrs	r5, r5, #16
    8200:	0400      	lsls	r0, r0, #16
    8202:	1940      	adds	r0, r0, r5
    8204:	0c25      	lsrs	r5, r4, #16
    8206:	0424      	lsls	r4, r4, #16
    8208:	0c24      	lsrs	r4, r4, #16
    820a:	0027      	movs	r7, r4
    820c:	4357      	muls	r7, r2
    820e:	436a      	muls	r2, r5
    8210:	4690      	mov	r8, r2
    8212:	002a      	movs	r2, r5
    8214:	0c3b      	lsrs	r3, r7, #16
    8216:	469a      	mov	sl, r3
    8218:	434a      	muls	r2, r1
    821a:	4361      	muls	r1, r4
    821c:	4441      	add	r1, r8
    821e:	4451      	add	r1, sl
    8220:	4483      	add	fp, r0
    8222:	4588      	cmp	r8, r1
    8224:	d903      	bls.n	822e <__aeabi_dmul+0x252>
    8226:	2380      	movs	r3, #128	; 0x80
    8228:	025b      	lsls	r3, r3, #9
    822a:	4698      	mov	r8, r3
    822c:	4442      	add	r2, r8
    822e:	043f      	lsls	r7, r7, #16
    8230:	0c0b      	lsrs	r3, r1, #16
    8232:	0c3f      	lsrs	r7, r7, #16
    8234:	0409      	lsls	r1, r1, #16
    8236:	19c9      	adds	r1, r1, r7
    8238:	0027      	movs	r7, r4
    823a:	4698      	mov	r8, r3
    823c:	464b      	mov	r3, r9
    823e:	4377      	muls	r7, r6
    8240:	435c      	muls	r4, r3
    8242:	436e      	muls	r6, r5
    8244:	435d      	muls	r5, r3
    8246:	0c3b      	lsrs	r3, r7, #16
    8248:	4699      	mov	r9, r3
    824a:	19a4      	adds	r4, r4, r6
    824c:	444c      	add	r4, r9
    824e:	4442      	add	r2, r8
    8250:	9503      	str	r5, [sp, #12]
    8252:	42a6      	cmp	r6, r4
    8254:	d904      	bls.n	8260 <__aeabi_dmul+0x284>
    8256:	2380      	movs	r3, #128	; 0x80
    8258:	025b      	lsls	r3, r3, #9
    825a:	4698      	mov	r8, r3
    825c:	4445      	add	r5, r8
    825e:	9503      	str	r5, [sp, #12]
    8260:	9b02      	ldr	r3, [sp, #8]
    8262:	043f      	lsls	r7, r7, #16
    8264:	445b      	add	r3, fp
    8266:	001e      	movs	r6, r3
    8268:	4283      	cmp	r3, r0
    826a:	4180      	sbcs	r0, r0
    826c:	0423      	lsls	r3, r4, #16
    826e:	4698      	mov	r8, r3
    8270:	9b05      	ldr	r3, [sp, #20]
    8272:	0c3f      	lsrs	r7, r7, #16
    8274:	4447      	add	r7, r8
    8276:	4698      	mov	r8, r3
    8278:	1876      	adds	r6, r6, r1
    827a:	428e      	cmp	r6, r1
    827c:	4189      	sbcs	r1, r1
    827e:	4447      	add	r7, r8
    8280:	4240      	negs	r0, r0
    8282:	183d      	adds	r5, r7, r0
    8284:	46a8      	mov	r8, r5
    8286:	4693      	mov	fp, r2
    8288:	4249      	negs	r1, r1
    828a:	468a      	mov	sl, r1
    828c:	44c3      	add	fp, r8
    828e:	429f      	cmp	r7, r3
    8290:	41bf      	sbcs	r7, r7
    8292:	4580      	cmp	r8, r0
    8294:	4180      	sbcs	r0, r0
    8296:	9b03      	ldr	r3, [sp, #12]
    8298:	44da      	add	sl, fp
    829a:	4698      	mov	r8, r3
    829c:	4653      	mov	r3, sl
    829e:	4240      	negs	r0, r0
    82a0:	427f      	negs	r7, r7
    82a2:	4307      	orrs	r7, r0
    82a4:	0c24      	lsrs	r4, r4, #16
    82a6:	4593      	cmp	fp, r2
    82a8:	4192      	sbcs	r2, r2
    82aa:	458a      	cmp	sl, r1
    82ac:	4189      	sbcs	r1, r1
    82ae:	193f      	adds	r7, r7, r4
    82b0:	0ddc      	lsrs	r4, r3, #23
    82b2:	9b04      	ldr	r3, [sp, #16]
    82b4:	0275      	lsls	r5, r6, #9
    82b6:	431d      	orrs	r5, r3
    82b8:	1e68      	subs	r0, r5, #1
    82ba:	4185      	sbcs	r5, r0
    82bc:	4653      	mov	r3, sl
    82be:	4252      	negs	r2, r2
    82c0:	4249      	negs	r1, r1
    82c2:	430a      	orrs	r2, r1
    82c4:	18bf      	adds	r7, r7, r2
    82c6:	4447      	add	r7, r8
    82c8:	0df6      	lsrs	r6, r6, #23
    82ca:	027f      	lsls	r7, r7, #9
    82cc:	4335      	orrs	r5, r6
    82ce:	025a      	lsls	r2, r3, #9
    82d0:	433c      	orrs	r4, r7
    82d2:	4315      	orrs	r5, r2
    82d4:	01fb      	lsls	r3, r7, #7
    82d6:	d400      	bmi.n	82da <__aeabi_dmul+0x2fe>
    82d8:	e0c1      	b.n	845e <__aeabi_dmul+0x482>
    82da:	2101      	movs	r1, #1
    82dc:	086a      	lsrs	r2, r5, #1
    82de:	400d      	ands	r5, r1
    82e0:	4315      	orrs	r5, r2
    82e2:	07e2      	lsls	r2, r4, #31
    82e4:	4315      	orrs	r5, r2
    82e6:	0864      	lsrs	r4, r4, #1
    82e8:	4926      	ldr	r1, [pc, #152]	; (8384 <__aeabi_dmul+0x3a8>)
    82ea:	4461      	add	r1, ip
    82ec:	2900      	cmp	r1, #0
    82ee:	dd56      	ble.n	839e <__aeabi_dmul+0x3c2>
    82f0:	076b      	lsls	r3, r5, #29
    82f2:	d009      	beq.n	8308 <__aeabi_dmul+0x32c>
    82f4:	220f      	movs	r2, #15
    82f6:	402a      	ands	r2, r5
    82f8:	2a04      	cmp	r2, #4
    82fa:	d005      	beq.n	8308 <__aeabi_dmul+0x32c>
    82fc:	1d2a      	adds	r2, r5, #4
    82fe:	42aa      	cmp	r2, r5
    8300:	41ad      	sbcs	r5, r5
    8302:	426d      	negs	r5, r5
    8304:	1964      	adds	r4, r4, r5
    8306:	0015      	movs	r5, r2
    8308:	01e3      	lsls	r3, r4, #7
    830a:	d504      	bpl.n	8316 <__aeabi_dmul+0x33a>
    830c:	2180      	movs	r1, #128	; 0x80
    830e:	4a1e      	ldr	r2, [pc, #120]	; (8388 <__aeabi_dmul+0x3ac>)
    8310:	00c9      	lsls	r1, r1, #3
    8312:	4014      	ands	r4, r2
    8314:	4461      	add	r1, ip
    8316:	4a1d      	ldr	r2, [pc, #116]	; (838c <__aeabi_dmul+0x3b0>)
    8318:	4291      	cmp	r1, r2
    831a:	dd00      	ble.n	831e <__aeabi_dmul+0x342>
    831c:	e724      	b.n	8168 <__aeabi_dmul+0x18c>
    831e:	0762      	lsls	r2, r4, #29
    8320:	08ed      	lsrs	r5, r5, #3
    8322:	0264      	lsls	r4, r4, #9
    8324:	0549      	lsls	r1, r1, #21
    8326:	4315      	orrs	r5, r2
    8328:	0b24      	lsrs	r4, r4, #12
    832a:	0d4a      	lsrs	r2, r1, #21
    832c:	e6c6      	b.n	80bc <__aeabi_dmul+0xe0>
    832e:	9701      	str	r7, [sp, #4]
    8330:	e6b8      	b.n	80a4 <__aeabi_dmul+0xc8>
    8332:	4a10      	ldr	r2, [pc, #64]	; (8374 <__aeabi_dmul+0x398>)
    8334:	2003      	movs	r0, #3
    8336:	4694      	mov	ip, r2
    8338:	4463      	add	r3, ip
    833a:	464a      	mov	r2, r9
    833c:	9300      	str	r3, [sp, #0]
    833e:	2303      	movs	r3, #3
    8340:	431a      	orrs	r2, r3
    8342:	4691      	mov	r9, r2
    8344:	4652      	mov	r2, sl
    8346:	e68a      	b.n	805e <__aeabi_dmul+0x82>
    8348:	4649      	mov	r1, r9
    834a:	2301      	movs	r3, #1
    834c:	4319      	orrs	r1, r3
    834e:	4689      	mov	r9, r1
    8350:	2600      	movs	r6, #0
    8352:	2001      	movs	r0, #1
    8354:	e683      	b.n	805e <__aeabi_dmul+0x82>
    8356:	220c      	movs	r2, #12
    8358:	9300      	str	r3, [sp, #0]
    835a:	2303      	movs	r3, #3
    835c:	0005      	movs	r5, r0
    835e:	4691      	mov	r9, r2
    8360:	469b      	mov	fp, r3
    8362:	e65e      	b.n	8022 <__aeabi_dmul+0x46>
    8364:	2304      	movs	r3, #4
    8366:	4699      	mov	r9, r3
    8368:	2300      	movs	r3, #0
    836a:	9300      	str	r3, [sp, #0]
    836c:	3301      	adds	r3, #1
    836e:	2400      	movs	r4, #0
    8370:	469b      	mov	fp, r3
    8372:	e656      	b.n	8022 <__aeabi_dmul+0x46>
    8374:	000007ff 	.word	0x000007ff
    8378:	fffffc01 	.word	0xfffffc01
    837c:	0000bce0 	.word	0x0000bce0
    8380:	fffffc0d 	.word	0xfffffc0d
    8384:	000003ff 	.word	0x000003ff
    8388:	feffffff 	.word	0xfeffffff
    838c:	000007fe 	.word	0x000007fe
    8390:	2300      	movs	r3, #0
    8392:	2480      	movs	r4, #128	; 0x80
    8394:	2500      	movs	r5, #0
    8396:	4a44      	ldr	r2, [pc, #272]	; (84a8 <__aeabi_dmul+0x4cc>)
    8398:	9301      	str	r3, [sp, #4]
    839a:	0324      	lsls	r4, r4, #12
    839c:	e68e      	b.n	80bc <__aeabi_dmul+0xe0>
    839e:	2001      	movs	r0, #1
    83a0:	1a40      	subs	r0, r0, r1
    83a2:	2838      	cmp	r0, #56	; 0x38
    83a4:	dd00      	ble.n	83a8 <__aeabi_dmul+0x3cc>
    83a6:	e686      	b.n	80b6 <__aeabi_dmul+0xda>
    83a8:	281f      	cmp	r0, #31
    83aa:	dd5b      	ble.n	8464 <__aeabi_dmul+0x488>
    83ac:	221f      	movs	r2, #31
    83ae:	0023      	movs	r3, r4
    83b0:	4252      	negs	r2, r2
    83b2:	1a51      	subs	r1, r2, r1
    83b4:	40cb      	lsrs	r3, r1
    83b6:	0019      	movs	r1, r3
    83b8:	2820      	cmp	r0, #32
    83ba:	d003      	beq.n	83c4 <__aeabi_dmul+0x3e8>
    83bc:	4a3b      	ldr	r2, [pc, #236]	; (84ac <__aeabi_dmul+0x4d0>)
    83be:	4462      	add	r2, ip
    83c0:	4094      	lsls	r4, r2
    83c2:	4325      	orrs	r5, r4
    83c4:	1e6a      	subs	r2, r5, #1
    83c6:	4195      	sbcs	r5, r2
    83c8:	002a      	movs	r2, r5
    83ca:	430a      	orrs	r2, r1
    83cc:	2107      	movs	r1, #7
    83ce:	000d      	movs	r5, r1
    83d0:	2400      	movs	r4, #0
    83d2:	4015      	ands	r5, r2
    83d4:	4211      	tst	r1, r2
    83d6:	d05b      	beq.n	8490 <__aeabi_dmul+0x4b4>
    83d8:	210f      	movs	r1, #15
    83da:	2400      	movs	r4, #0
    83dc:	4011      	ands	r1, r2
    83de:	2904      	cmp	r1, #4
    83e0:	d053      	beq.n	848a <__aeabi_dmul+0x4ae>
    83e2:	1d11      	adds	r1, r2, #4
    83e4:	4291      	cmp	r1, r2
    83e6:	4192      	sbcs	r2, r2
    83e8:	4252      	negs	r2, r2
    83ea:	18a4      	adds	r4, r4, r2
    83ec:	000a      	movs	r2, r1
    83ee:	0223      	lsls	r3, r4, #8
    83f0:	d54b      	bpl.n	848a <__aeabi_dmul+0x4ae>
    83f2:	2201      	movs	r2, #1
    83f4:	2400      	movs	r4, #0
    83f6:	2500      	movs	r5, #0
    83f8:	e660      	b.n	80bc <__aeabi_dmul+0xe0>
    83fa:	2380      	movs	r3, #128	; 0x80
    83fc:	031b      	lsls	r3, r3, #12
    83fe:	421c      	tst	r4, r3
    8400:	d009      	beq.n	8416 <__aeabi_dmul+0x43a>
    8402:	421e      	tst	r6, r3
    8404:	d107      	bne.n	8416 <__aeabi_dmul+0x43a>
    8406:	4333      	orrs	r3, r6
    8408:	031c      	lsls	r4, r3, #12
    840a:	4643      	mov	r3, r8
    840c:	0015      	movs	r5, r2
    840e:	0b24      	lsrs	r4, r4, #12
    8410:	4a25      	ldr	r2, [pc, #148]	; (84a8 <__aeabi_dmul+0x4cc>)
    8412:	9301      	str	r3, [sp, #4]
    8414:	e652      	b.n	80bc <__aeabi_dmul+0xe0>
    8416:	2280      	movs	r2, #128	; 0x80
    8418:	0312      	lsls	r2, r2, #12
    841a:	4314      	orrs	r4, r2
    841c:	0324      	lsls	r4, r4, #12
    841e:	4a22      	ldr	r2, [pc, #136]	; (84a8 <__aeabi_dmul+0x4cc>)
    8420:	0b24      	lsrs	r4, r4, #12
    8422:	9701      	str	r7, [sp, #4]
    8424:	e64a      	b.n	80bc <__aeabi_dmul+0xe0>
    8426:	f000 fc33 	bl	8c90 <__clzsi2>
    842a:	0003      	movs	r3, r0
    842c:	001a      	movs	r2, r3
    842e:	3215      	adds	r2, #21
    8430:	3020      	adds	r0, #32
    8432:	2a1c      	cmp	r2, #28
    8434:	dc00      	bgt.n	8438 <__aeabi_dmul+0x45c>
    8436:	e684      	b.n	8142 <__aeabi_dmul+0x166>
    8438:	4656      	mov	r6, sl
    843a:	3b08      	subs	r3, #8
    843c:	2200      	movs	r2, #0
    843e:	409e      	lsls	r6, r3
    8440:	e689      	b.n	8156 <__aeabi_dmul+0x17a>
    8442:	f000 fc25 	bl	8c90 <__clzsi2>
    8446:	0001      	movs	r1, r0
    8448:	0002      	movs	r2, r0
    844a:	3115      	adds	r1, #21
    844c:	3220      	adds	r2, #32
    844e:	291c      	cmp	r1, #28
    8450:	dc00      	bgt.n	8454 <__aeabi_dmul+0x478>
    8452:	e64e      	b.n	80f2 <__aeabi_dmul+0x116>
    8454:	0034      	movs	r4, r6
    8456:	3808      	subs	r0, #8
    8458:	2500      	movs	r5, #0
    845a:	4084      	lsls	r4, r0
    845c:	e653      	b.n	8106 <__aeabi_dmul+0x12a>
    845e:	9b00      	ldr	r3, [sp, #0]
    8460:	469c      	mov	ip, r3
    8462:	e741      	b.n	82e8 <__aeabi_dmul+0x30c>
    8464:	4912      	ldr	r1, [pc, #72]	; (84b0 <__aeabi_dmul+0x4d4>)
    8466:	0022      	movs	r2, r4
    8468:	4461      	add	r1, ip
    846a:	002e      	movs	r6, r5
    846c:	408d      	lsls	r5, r1
    846e:	408a      	lsls	r2, r1
    8470:	40c6      	lsrs	r6, r0
    8472:	1e69      	subs	r1, r5, #1
    8474:	418d      	sbcs	r5, r1
    8476:	4332      	orrs	r2, r6
    8478:	432a      	orrs	r2, r5
    847a:	40c4      	lsrs	r4, r0
    847c:	0753      	lsls	r3, r2, #29
    847e:	d0b6      	beq.n	83ee <__aeabi_dmul+0x412>
    8480:	210f      	movs	r1, #15
    8482:	4011      	ands	r1, r2
    8484:	2904      	cmp	r1, #4
    8486:	d1ac      	bne.n	83e2 <__aeabi_dmul+0x406>
    8488:	e7b1      	b.n	83ee <__aeabi_dmul+0x412>
    848a:	0765      	lsls	r5, r4, #29
    848c:	0264      	lsls	r4, r4, #9
    848e:	0b24      	lsrs	r4, r4, #12
    8490:	08d2      	lsrs	r2, r2, #3
    8492:	4315      	orrs	r5, r2
    8494:	2200      	movs	r2, #0
    8496:	e611      	b.n	80bc <__aeabi_dmul+0xe0>
    8498:	2280      	movs	r2, #128	; 0x80
    849a:	0312      	lsls	r2, r2, #12
    849c:	4314      	orrs	r4, r2
    849e:	0324      	lsls	r4, r4, #12
    84a0:	4a01      	ldr	r2, [pc, #4]	; (84a8 <__aeabi_dmul+0x4cc>)
    84a2:	0b24      	lsrs	r4, r4, #12
    84a4:	e60a      	b.n	80bc <__aeabi_dmul+0xe0>
    84a6:	46c0      	nop			; (mov r8, r8)
    84a8:	000007ff 	.word	0x000007ff
    84ac:	0000043e 	.word	0x0000043e
    84b0:	0000041e 	.word	0x0000041e

000084b4 <__aeabi_dsub>:
__aeabi_dsub():
    84b4:	b5f8      	push	{r3, r4, r5, r6, r7, lr}
    84b6:	4657      	mov	r7, sl
    84b8:	464e      	mov	r6, r9
    84ba:	4645      	mov	r5, r8
    84bc:	46de      	mov	lr, fp
    84be:	0004      	movs	r4, r0
    84c0:	b5e0      	push	{r5, r6, r7, lr}
    84c2:	001f      	movs	r7, r3
    84c4:	0010      	movs	r0, r2
    84c6:	030b      	lsls	r3, r1, #12
    84c8:	0f62      	lsrs	r2, r4, #29
    84ca:	004e      	lsls	r6, r1, #1
    84cc:	0fcd      	lsrs	r5, r1, #31
    84ce:	0a5b      	lsrs	r3, r3, #9
    84d0:	0339      	lsls	r1, r7, #12
    84d2:	4313      	orrs	r3, r2
    84d4:	0a49      	lsrs	r1, r1, #9
    84d6:	00e2      	lsls	r2, r4, #3
    84d8:	0f44      	lsrs	r4, r0, #29
    84da:	4321      	orrs	r1, r4
    84dc:	4cc2      	ldr	r4, [pc, #776]	; (87e8 <__aeabi_dsub+0x334>)
    84de:	4691      	mov	r9, r2
    84e0:	4692      	mov	sl, r2
    84e2:	00c0      	lsls	r0, r0, #3
    84e4:	007a      	lsls	r2, r7, #1
    84e6:	4680      	mov	r8, r0
    84e8:	0d76      	lsrs	r6, r6, #21
    84ea:	0d52      	lsrs	r2, r2, #21
    84ec:	0fff      	lsrs	r7, r7, #31
    84ee:	42a2      	cmp	r2, r4
    84f0:	d100      	bne.n	84f4 <__aeabi_dsub+0x40>
    84f2:	e0b4      	b.n	865e <__aeabi_dsub+0x1aa>
    84f4:	2401      	movs	r4, #1
    84f6:	4067      	eors	r7, r4
    84f8:	46bb      	mov	fp, r7
    84fa:	42bd      	cmp	r5, r7
    84fc:	d100      	bne.n	8500 <__aeabi_dsub+0x4c>
    84fe:	e088      	b.n	8612 <__aeabi_dsub+0x15e>
    8500:	1ab4      	subs	r4, r6, r2
    8502:	46a4      	mov	ip, r4
    8504:	2c00      	cmp	r4, #0
    8506:	dc00      	bgt.n	850a <__aeabi_dsub+0x56>
    8508:	e0b2      	b.n	8670 <__aeabi_dsub+0x1bc>
    850a:	2a00      	cmp	r2, #0
    850c:	d100      	bne.n	8510 <__aeabi_dsub+0x5c>
    850e:	e0c5      	b.n	869c <__aeabi_dsub+0x1e8>
    8510:	4ab5      	ldr	r2, [pc, #724]	; (87e8 <__aeabi_dsub+0x334>)
    8512:	4296      	cmp	r6, r2
    8514:	d100      	bne.n	8518 <__aeabi_dsub+0x64>
    8516:	e28b      	b.n	8a30 <__aeabi_dsub+0x57c>
    8518:	2280      	movs	r2, #128	; 0x80
    851a:	0412      	lsls	r2, r2, #16
    851c:	4311      	orrs	r1, r2
    851e:	4662      	mov	r2, ip
    8520:	2a38      	cmp	r2, #56	; 0x38
    8522:	dd00      	ble.n	8526 <__aeabi_dsub+0x72>
    8524:	e1a1      	b.n	886a <__aeabi_dsub+0x3b6>
    8526:	2a1f      	cmp	r2, #31
    8528:	dd00      	ble.n	852c <__aeabi_dsub+0x78>
    852a:	e216      	b.n	895a <__aeabi_dsub+0x4a6>
    852c:	2720      	movs	r7, #32
    852e:	000c      	movs	r4, r1
    8530:	1abf      	subs	r7, r7, r2
    8532:	40bc      	lsls	r4, r7
    8534:	0002      	movs	r2, r0
    8536:	46a0      	mov	r8, r4
    8538:	4664      	mov	r4, ip
    853a:	40b8      	lsls	r0, r7
    853c:	40e2      	lsrs	r2, r4
    853e:	4644      	mov	r4, r8
    8540:	4314      	orrs	r4, r2
    8542:	0002      	movs	r2, r0
    8544:	1e50      	subs	r0, r2, #1
    8546:	4182      	sbcs	r2, r0
    8548:	4660      	mov	r0, ip
    854a:	40c1      	lsrs	r1, r0
    854c:	4322      	orrs	r2, r4
    854e:	1a5b      	subs	r3, r3, r1
    8550:	4649      	mov	r1, r9
    8552:	1a8c      	subs	r4, r1, r2
    8554:	45a1      	cmp	r9, r4
    8556:	4192      	sbcs	r2, r2
    8558:	4252      	negs	r2, r2
    855a:	1a9b      	subs	r3, r3, r2
    855c:	4698      	mov	r8, r3
    855e:	4643      	mov	r3, r8
    8560:	021b      	lsls	r3, r3, #8
    8562:	d400      	bmi.n	8566 <__aeabi_dsub+0xb2>
    8564:	e117      	b.n	8796 <__aeabi_dsub+0x2e2>
    8566:	4643      	mov	r3, r8
    8568:	025b      	lsls	r3, r3, #9
    856a:	0a5b      	lsrs	r3, r3, #9
    856c:	4698      	mov	r8, r3
    856e:	4643      	mov	r3, r8
    8570:	2b00      	cmp	r3, #0
    8572:	d100      	bne.n	8576 <__aeabi_dsub+0xc2>
    8574:	e16c      	b.n	8850 <__aeabi_dsub+0x39c>
    8576:	4640      	mov	r0, r8
    8578:	f000 fb8a 	bl	8c90 <__clzsi2>
    857c:	0002      	movs	r2, r0
    857e:	3a08      	subs	r2, #8
    8580:	2120      	movs	r1, #32
    8582:	0020      	movs	r0, r4
    8584:	4643      	mov	r3, r8
    8586:	1a89      	subs	r1, r1, r2
    8588:	4093      	lsls	r3, r2
    858a:	40c8      	lsrs	r0, r1
    858c:	4094      	lsls	r4, r2
    858e:	4303      	orrs	r3, r0
    8590:	4296      	cmp	r6, r2
    8592:	dd00      	ble.n	8596 <__aeabi_dsub+0xe2>
    8594:	e157      	b.n	8846 <__aeabi_dsub+0x392>
    8596:	1b96      	subs	r6, r2, r6
    8598:	1c71      	adds	r1, r6, #1
    859a:	291f      	cmp	r1, #31
    859c:	dd00      	ble.n	85a0 <__aeabi_dsub+0xec>
    859e:	e1cb      	b.n	8938 <__aeabi_dsub+0x484>
    85a0:	2220      	movs	r2, #32
    85a2:	0018      	movs	r0, r3
    85a4:	0026      	movs	r6, r4
    85a6:	1a52      	subs	r2, r2, r1
    85a8:	4094      	lsls	r4, r2
    85aa:	4090      	lsls	r0, r2
    85ac:	40ce      	lsrs	r6, r1
    85ae:	40cb      	lsrs	r3, r1
    85b0:	1e62      	subs	r2, r4, #1
    85b2:	4194      	sbcs	r4, r2
    85b4:	4330      	orrs	r0, r6
    85b6:	4698      	mov	r8, r3
    85b8:	2600      	movs	r6, #0
    85ba:	4304      	orrs	r4, r0
    85bc:	0763      	lsls	r3, r4, #29
    85be:	d009      	beq.n	85d4 <__aeabi_dsub+0x120>
    85c0:	230f      	movs	r3, #15
    85c2:	4023      	ands	r3, r4
    85c4:	2b04      	cmp	r3, #4
    85c6:	d005      	beq.n	85d4 <__aeabi_dsub+0x120>
    85c8:	1d23      	adds	r3, r4, #4
    85ca:	42a3      	cmp	r3, r4
    85cc:	41a4      	sbcs	r4, r4
    85ce:	4264      	negs	r4, r4
    85d0:	44a0      	add	r8, r4
    85d2:	001c      	movs	r4, r3
    85d4:	4643      	mov	r3, r8
    85d6:	021b      	lsls	r3, r3, #8
    85d8:	d400      	bmi.n	85dc <__aeabi_dsub+0x128>
    85da:	e0df      	b.n	879c <__aeabi_dsub+0x2e8>
    85dc:	4b82      	ldr	r3, [pc, #520]	; (87e8 <__aeabi_dsub+0x334>)
    85de:	3601      	adds	r6, #1
    85e0:	429e      	cmp	r6, r3
    85e2:	d100      	bne.n	85e6 <__aeabi_dsub+0x132>
    85e4:	e0fb      	b.n	87de <__aeabi_dsub+0x32a>
    85e6:	4642      	mov	r2, r8
    85e8:	4b80      	ldr	r3, [pc, #512]	; (87ec <__aeabi_dsub+0x338>)
    85ea:	08e4      	lsrs	r4, r4, #3
    85ec:	401a      	ands	r2, r3
    85ee:	0013      	movs	r3, r2
    85f0:	0571      	lsls	r1, r6, #21
    85f2:	0752      	lsls	r2, r2, #29
    85f4:	025b      	lsls	r3, r3, #9
    85f6:	4322      	orrs	r2, r4
    85f8:	0b1b      	lsrs	r3, r3, #12
    85fa:	0d49      	lsrs	r1, r1, #21
    85fc:	0509      	lsls	r1, r1, #20
    85fe:	07ed      	lsls	r5, r5, #31
    8600:	4319      	orrs	r1, r3
    8602:	4329      	orrs	r1, r5
    8604:	0010      	movs	r0, r2
    8606:	bcf0      	pop	{r4, r5, r6, r7}
    8608:	46bb      	mov	fp, r7
    860a:	46b2      	mov	sl, r6
    860c:	46a9      	mov	r9, r5
    860e:	46a0      	mov	r8, r4
    8610:	bdf8      	pop	{r3, r4, r5, r6, r7, pc}
    8612:	1ab4      	subs	r4, r6, r2
    8614:	46a4      	mov	ip, r4
    8616:	2c00      	cmp	r4, #0
    8618:	dd58      	ble.n	86cc <__aeabi_dsub+0x218>
    861a:	2a00      	cmp	r2, #0
    861c:	d100      	bne.n	8620 <__aeabi_dsub+0x16c>
    861e:	e09e      	b.n	875e <__aeabi_dsub+0x2aa>
    8620:	4a71      	ldr	r2, [pc, #452]	; (87e8 <__aeabi_dsub+0x334>)
    8622:	4296      	cmp	r6, r2
    8624:	d100      	bne.n	8628 <__aeabi_dsub+0x174>
    8626:	e13b      	b.n	88a0 <__aeabi_dsub+0x3ec>
    8628:	2280      	movs	r2, #128	; 0x80
    862a:	0412      	lsls	r2, r2, #16
    862c:	4311      	orrs	r1, r2
    862e:	4662      	mov	r2, ip
    8630:	2a38      	cmp	r2, #56	; 0x38
    8632:	dd00      	ble.n	8636 <__aeabi_dsub+0x182>
    8634:	e0c1      	b.n	87ba <__aeabi_dsub+0x306>
    8636:	2a1f      	cmp	r2, #31
    8638:	dc00      	bgt.n	863c <__aeabi_dsub+0x188>
    863a:	e1bb      	b.n	89b4 <__aeabi_dsub+0x500>
    863c:	000c      	movs	r4, r1
    863e:	3a20      	subs	r2, #32
    8640:	40d4      	lsrs	r4, r2
    8642:	0022      	movs	r2, r4
    8644:	4664      	mov	r4, ip
    8646:	2c20      	cmp	r4, #32
    8648:	d004      	beq.n	8654 <__aeabi_dsub+0x1a0>
    864a:	2740      	movs	r7, #64	; 0x40
    864c:	1b3f      	subs	r7, r7, r4
    864e:	40b9      	lsls	r1, r7
    8650:	4308      	orrs	r0, r1
    8652:	4680      	mov	r8, r0
    8654:	4644      	mov	r4, r8
    8656:	1e61      	subs	r1, r4, #1
    8658:	418c      	sbcs	r4, r1
    865a:	4314      	orrs	r4, r2
    865c:	e0b1      	b.n	87c2 <__aeabi_dsub+0x30e>
    865e:	000c      	movs	r4, r1
    8660:	4304      	orrs	r4, r0
    8662:	d02a      	beq.n	86ba <__aeabi_dsub+0x206>
    8664:	46bb      	mov	fp, r7
    8666:	42bd      	cmp	r5, r7
    8668:	d02d      	beq.n	86c6 <__aeabi_dsub+0x212>
    866a:	4c61      	ldr	r4, [pc, #388]	; (87f0 <__aeabi_dsub+0x33c>)
    866c:	46a4      	mov	ip, r4
    866e:	44b4      	add	ip, r6
    8670:	4664      	mov	r4, ip
    8672:	2c00      	cmp	r4, #0
    8674:	d05c      	beq.n	8730 <__aeabi_dsub+0x27c>
    8676:	1b94      	subs	r4, r2, r6
    8678:	46a4      	mov	ip, r4
    867a:	2e00      	cmp	r6, #0
    867c:	d000      	beq.n	8680 <__aeabi_dsub+0x1cc>
    867e:	e115      	b.n	88ac <__aeabi_dsub+0x3f8>
    8680:	464d      	mov	r5, r9
    8682:	431d      	orrs	r5, r3
    8684:	d100      	bne.n	8688 <__aeabi_dsub+0x1d4>
    8686:	e1c3      	b.n	8a10 <__aeabi_dsub+0x55c>
    8688:	1e65      	subs	r5, r4, #1
    868a:	2c01      	cmp	r4, #1
    868c:	d100      	bne.n	8690 <__aeabi_dsub+0x1dc>
    868e:	e20c      	b.n	8aaa <__aeabi_dsub+0x5f6>
    8690:	4e55      	ldr	r6, [pc, #340]	; (87e8 <__aeabi_dsub+0x334>)
    8692:	42b4      	cmp	r4, r6
    8694:	d100      	bne.n	8698 <__aeabi_dsub+0x1e4>
    8696:	e1f8      	b.n	8a8a <__aeabi_dsub+0x5d6>
    8698:	46ac      	mov	ip, r5
    869a:	e10e      	b.n	88ba <__aeabi_dsub+0x406>
    869c:	000a      	movs	r2, r1
    869e:	4302      	orrs	r2, r0
    86a0:	d100      	bne.n	86a4 <__aeabi_dsub+0x1f0>
    86a2:	e136      	b.n	8912 <__aeabi_dsub+0x45e>
    86a4:	0022      	movs	r2, r4
    86a6:	3a01      	subs	r2, #1
    86a8:	2c01      	cmp	r4, #1
    86aa:	d100      	bne.n	86ae <__aeabi_dsub+0x1fa>
    86ac:	e1c6      	b.n	8a3c <__aeabi_dsub+0x588>
    86ae:	4c4e      	ldr	r4, [pc, #312]	; (87e8 <__aeabi_dsub+0x334>)
    86b0:	45a4      	cmp	ip, r4
    86b2:	d100      	bne.n	86b6 <__aeabi_dsub+0x202>
    86b4:	e0f4      	b.n	88a0 <__aeabi_dsub+0x3ec>
    86b6:	4694      	mov	ip, r2
    86b8:	e731      	b.n	851e <__aeabi_dsub+0x6a>
    86ba:	2401      	movs	r4, #1
    86bc:	4067      	eors	r7, r4
    86be:	46bb      	mov	fp, r7
    86c0:	42bd      	cmp	r5, r7
    86c2:	d000      	beq.n	86c6 <__aeabi_dsub+0x212>
    86c4:	e71c      	b.n	8500 <__aeabi_dsub+0x4c>
    86c6:	4c4a      	ldr	r4, [pc, #296]	; (87f0 <__aeabi_dsub+0x33c>)
    86c8:	46a4      	mov	ip, r4
    86ca:	44b4      	add	ip, r6
    86cc:	4664      	mov	r4, ip
    86ce:	2c00      	cmp	r4, #0
    86d0:	d100      	bne.n	86d4 <__aeabi_dsub+0x220>
    86d2:	e0cf      	b.n	8874 <__aeabi_dsub+0x3c0>
    86d4:	1b94      	subs	r4, r2, r6
    86d6:	46a4      	mov	ip, r4
    86d8:	2e00      	cmp	r6, #0
    86da:	d100      	bne.n	86de <__aeabi_dsub+0x22a>
    86dc:	e15c      	b.n	8998 <__aeabi_dsub+0x4e4>
    86de:	4e42      	ldr	r6, [pc, #264]	; (87e8 <__aeabi_dsub+0x334>)
    86e0:	42b2      	cmp	r2, r6
    86e2:	d100      	bne.n	86e6 <__aeabi_dsub+0x232>
    86e4:	e1ec      	b.n	8ac0 <__aeabi_dsub+0x60c>
    86e6:	2680      	movs	r6, #128	; 0x80
    86e8:	0436      	lsls	r6, r6, #16
    86ea:	4333      	orrs	r3, r6
    86ec:	4664      	mov	r4, ip
    86ee:	2c38      	cmp	r4, #56	; 0x38
    86f0:	dd00      	ble.n	86f4 <__aeabi_dsub+0x240>
    86f2:	e1b3      	b.n	8a5c <__aeabi_dsub+0x5a8>
    86f4:	2c1f      	cmp	r4, #31
    86f6:	dd00      	ble.n	86fa <__aeabi_dsub+0x246>
    86f8:	e238      	b.n	8b6c <__aeabi_dsub+0x6b8>
    86fa:	2620      	movs	r6, #32
    86fc:	1b36      	subs	r6, r6, r4
    86fe:	001c      	movs	r4, r3
    8700:	40b4      	lsls	r4, r6
    8702:	464f      	mov	r7, r9
    8704:	46a0      	mov	r8, r4
    8706:	4664      	mov	r4, ip
    8708:	40e7      	lsrs	r7, r4
    870a:	4644      	mov	r4, r8
    870c:	433c      	orrs	r4, r7
    870e:	464f      	mov	r7, r9
    8710:	40b7      	lsls	r7, r6
    8712:	003e      	movs	r6, r7
    8714:	1e77      	subs	r7, r6, #1
    8716:	41be      	sbcs	r6, r7
    8718:	4334      	orrs	r4, r6
    871a:	4666      	mov	r6, ip
    871c:	40f3      	lsrs	r3, r6
    871e:	18c9      	adds	r1, r1, r3
    8720:	1824      	adds	r4, r4, r0
    8722:	4284      	cmp	r4, r0
    8724:	419b      	sbcs	r3, r3
    8726:	425b      	negs	r3, r3
    8728:	4698      	mov	r8, r3
    872a:	0016      	movs	r6, r2
    872c:	4488      	add	r8, r1
    872e:	e04e      	b.n	87ce <__aeabi_dsub+0x31a>
    8730:	4a30      	ldr	r2, [pc, #192]	; (87f4 <__aeabi_dsub+0x340>)
    8732:	1c74      	adds	r4, r6, #1
    8734:	4214      	tst	r4, r2
    8736:	d000      	beq.n	873a <__aeabi_dsub+0x286>
    8738:	e0d6      	b.n	88e8 <__aeabi_dsub+0x434>
    873a:	464a      	mov	r2, r9
    873c:	431a      	orrs	r2, r3
    873e:	2e00      	cmp	r6, #0
    8740:	d000      	beq.n	8744 <__aeabi_dsub+0x290>
    8742:	e15b      	b.n	89fc <__aeabi_dsub+0x548>
    8744:	2a00      	cmp	r2, #0
    8746:	d100      	bne.n	874a <__aeabi_dsub+0x296>
    8748:	e1a5      	b.n	8a96 <__aeabi_dsub+0x5e2>
    874a:	000a      	movs	r2, r1
    874c:	4302      	orrs	r2, r0
    874e:	d000      	beq.n	8752 <__aeabi_dsub+0x29e>
    8750:	e1bb      	b.n	8aca <__aeabi_dsub+0x616>
    8752:	464a      	mov	r2, r9
    8754:	0759      	lsls	r1, r3, #29
    8756:	08d2      	lsrs	r2, r2, #3
    8758:	430a      	orrs	r2, r1
    875a:	08db      	lsrs	r3, r3, #3
    875c:	e027      	b.n	87ae <__aeabi_dsub+0x2fa>
    875e:	000a      	movs	r2, r1
    8760:	4302      	orrs	r2, r0
    8762:	d100      	bne.n	8766 <__aeabi_dsub+0x2b2>
    8764:	e174      	b.n	8a50 <__aeabi_dsub+0x59c>
    8766:	0022      	movs	r2, r4
    8768:	3a01      	subs	r2, #1
    876a:	2c01      	cmp	r4, #1
    876c:	d005      	beq.n	877a <__aeabi_dsub+0x2c6>
    876e:	4c1e      	ldr	r4, [pc, #120]	; (87e8 <__aeabi_dsub+0x334>)
    8770:	45a4      	cmp	ip, r4
    8772:	d100      	bne.n	8776 <__aeabi_dsub+0x2c2>
    8774:	e094      	b.n	88a0 <__aeabi_dsub+0x3ec>
    8776:	4694      	mov	ip, r2
    8778:	e759      	b.n	862e <__aeabi_dsub+0x17a>
    877a:	4448      	add	r0, r9
    877c:	4548      	cmp	r0, r9
    877e:	4192      	sbcs	r2, r2
    8780:	185b      	adds	r3, r3, r1
    8782:	4698      	mov	r8, r3
    8784:	0004      	movs	r4, r0
    8786:	4252      	negs	r2, r2
    8788:	4490      	add	r8, r2
    878a:	4643      	mov	r3, r8
    878c:	2602      	movs	r6, #2
    878e:	021b      	lsls	r3, r3, #8
    8790:	d500      	bpl.n	8794 <__aeabi_dsub+0x2e0>
    8792:	e0c4      	b.n	891e <__aeabi_dsub+0x46a>
    8794:	3e01      	subs	r6, #1
    8796:	0763      	lsls	r3, r4, #29
    8798:	d000      	beq.n	879c <__aeabi_dsub+0x2e8>
    879a:	e711      	b.n	85c0 <__aeabi_dsub+0x10c>
    879c:	4643      	mov	r3, r8
    879e:	46b4      	mov	ip, r6
    87a0:	0759      	lsls	r1, r3, #29
    87a2:	08e2      	lsrs	r2, r4, #3
    87a4:	430a      	orrs	r2, r1
    87a6:	08db      	lsrs	r3, r3, #3
    87a8:	490f      	ldr	r1, [pc, #60]	; (87e8 <__aeabi_dsub+0x334>)
    87aa:	458c      	cmp	ip, r1
    87ac:	d040      	beq.n	8830 <__aeabi_dsub+0x37c>
    87ae:	4661      	mov	r1, ip
    87b0:	031b      	lsls	r3, r3, #12
    87b2:	0549      	lsls	r1, r1, #21
    87b4:	0b1b      	lsrs	r3, r3, #12
    87b6:	0d49      	lsrs	r1, r1, #21
    87b8:	e720      	b.n	85fc <__aeabi_dsub+0x148>
    87ba:	4301      	orrs	r1, r0
    87bc:	000c      	movs	r4, r1
    87be:	1e61      	subs	r1, r4, #1
    87c0:	418c      	sbcs	r4, r1
    87c2:	444c      	add	r4, r9
    87c4:	454c      	cmp	r4, r9
    87c6:	4192      	sbcs	r2, r2
    87c8:	4252      	negs	r2, r2
    87ca:	4690      	mov	r8, r2
    87cc:	4498      	add	r8, r3
    87ce:	4643      	mov	r3, r8
    87d0:	021b      	lsls	r3, r3, #8
    87d2:	d5e0      	bpl.n	8796 <__aeabi_dsub+0x2e2>
    87d4:	4b04      	ldr	r3, [pc, #16]	; (87e8 <__aeabi_dsub+0x334>)
    87d6:	3601      	adds	r6, #1
    87d8:	429e      	cmp	r6, r3
    87da:	d000      	beq.n	87de <__aeabi_dsub+0x32a>
    87dc:	e09f      	b.n	891e <__aeabi_dsub+0x46a>
    87de:	0031      	movs	r1, r6
    87e0:	2300      	movs	r3, #0
    87e2:	2200      	movs	r2, #0
    87e4:	e70a      	b.n	85fc <__aeabi_dsub+0x148>
    87e6:	46c0      	nop			; (mov r8, r8)
    87e8:	000007ff 	.word	0x000007ff
    87ec:	ff7fffff 	.word	0xff7fffff
    87f0:	fffff801 	.word	0xfffff801
    87f4:	000007fe 	.word	0x000007fe
    87f8:	2a00      	cmp	r2, #0
    87fa:	d100      	bne.n	87fe <__aeabi_dsub+0x34a>
    87fc:	e160      	b.n	8ac0 <__aeabi_dsub+0x60c>
    87fe:	000a      	movs	r2, r1
    8800:	4302      	orrs	r2, r0
    8802:	d04d      	beq.n	88a0 <__aeabi_dsub+0x3ec>
    8804:	464a      	mov	r2, r9
    8806:	075c      	lsls	r4, r3, #29
    8808:	08d2      	lsrs	r2, r2, #3
    880a:	4322      	orrs	r2, r4
    880c:	2480      	movs	r4, #128	; 0x80
    880e:	08db      	lsrs	r3, r3, #3
    8810:	0324      	lsls	r4, r4, #12
    8812:	4223      	tst	r3, r4
    8814:	d007      	beq.n	8826 <__aeabi_dsub+0x372>
    8816:	08ce      	lsrs	r6, r1, #3
    8818:	4226      	tst	r6, r4
    881a:	d104      	bne.n	8826 <__aeabi_dsub+0x372>
    881c:	465d      	mov	r5, fp
    881e:	0033      	movs	r3, r6
    8820:	08c2      	lsrs	r2, r0, #3
    8822:	0749      	lsls	r1, r1, #29
    8824:	430a      	orrs	r2, r1
    8826:	0f51      	lsrs	r1, r2, #29
    8828:	00d2      	lsls	r2, r2, #3
    882a:	08d2      	lsrs	r2, r2, #3
    882c:	0749      	lsls	r1, r1, #29
    882e:	430a      	orrs	r2, r1
    8830:	0011      	movs	r1, r2
    8832:	4319      	orrs	r1, r3
    8834:	d100      	bne.n	8838 <__aeabi_dsub+0x384>
    8836:	e1c8      	b.n	8bca <__aeabi_dsub+0x716>
    8838:	2180      	movs	r1, #128	; 0x80
    883a:	0309      	lsls	r1, r1, #12
    883c:	430b      	orrs	r3, r1
    883e:	031b      	lsls	r3, r3, #12
    8840:	49d5      	ldr	r1, [pc, #852]	; (8b98 <__aeabi_dsub+0x6e4>)
    8842:	0b1b      	lsrs	r3, r3, #12
    8844:	e6da      	b.n	85fc <__aeabi_dsub+0x148>
    8846:	49d5      	ldr	r1, [pc, #852]	; (8b9c <__aeabi_dsub+0x6e8>)
    8848:	1ab6      	subs	r6, r6, r2
    884a:	400b      	ands	r3, r1
    884c:	4698      	mov	r8, r3
    884e:	e6b5      	b.n	85bc <__aeabi_dsub+0x108>
    8850:	0020      	movs	r0, r4
    8852:	f000 fa1d 	bl	8c90 <__clzsi2>
    8856:	0002      	movs	r2, r0
    8858:	3218      	adds	r2, #24
    885a:	2a1f      	cmp	r2, #31
    885c:	dc00      	bgt.n	8860 <__aeabi_dsub+0x3ac>
    885e:	e68f      	b.n	8580 <__aeabi_dsub+0xcc>
    8860:	0023      	movs	r3, r4
    8862:	3808      	subs	r0, #8
    8864:	4083      	lsls	r3, r0
    8866:	2400      	movs	r4, #0
    8868:	e692      	b.n	8590 <__aeabi_dsub+0xdc>
    886a:	4308      	orrs	r0, r1
    886c:	0002      	movs	r2, r0
    886e:	1e50      	subs	r0, r2, #1
    8870:	4182      	sbcs	r2, r0
    8872:	e66d      	b.n	8550 <__aeabi_dsub+0x9c>
    8874:	4cca      	ldr	r4, [pc, #808]	; (8ba0 <__aeabi_dsub+0x6ec>)
    8876:	1c72      	adds	r2, r6, #1
    8878:	4222      	tst	r2, r4
    887a:	d000      	beq.n	887e <__aeabi_dsub+0x3ca>
    887c:	e0ad      	b.n	89da <__aeabi_dsub+0x526>
    887e:	464a      	mov	r2, r9
    8880:	431a      	orrs	r2, r3
    8882:	2e00      	cmp	r6, #0
    8884:	d1b8      	bne.n	87f8 <__aeabi_dsub+0x344>
    8886:	2a00      	cmp	r2, #0
    8888:	d100      	bne.n	888c <__aeabi_dsub+0x3d8>
    888a:	e158      	b.n	8b3e <__aeabi_dsub+0x68a>
    888c:	000a      	movs	r2, r1
    888e:	4302      	orrs	r2, r0
    8890:	d000      	beq.n	8894 <__aeabi_dsub+0x3e0>
    8892:	e159      	b.n	8b48 <__aeabi_dsub+0x694>
    8894:	464a      	mov	r2, r9
    8896:	0759      	lsls	r1, r3, #29
    8898:	08d2      	lsrs	r2, r2, #3
    889a:	430a      	orrs	r2, r1
    889c:	08db      	lsrs	r3, r3, #3
    889e:	e786      	b.n	87ae <__aeabi_dsub+0x2fa>
    88a0:	464a      	mov	r2, r9
    88a2:	0759      	lsls	r1, r3, #29
    88a4:	08d2      	lsrs	r2, r2, #3
    88a6:	430a      	orrs	r2, r1
    88a8:	08db      	lsrs	r3, r3, #3
    88aa:	e7c1      	b.n	8830 <__aeabi_dsub+0x37c>
    88ac:	4dba      	ldr	r5, [pc, #744]	; (8b98 <__aeabi_dsub+0x6e4>)
    88ae:	42aa      	cmp	r2, r5
    88b0:	d100      	bne.n	88b4 <__aeabi_dsub+0x400>
    88b2:	e11e      	b.n	8af2 <__aeabi_dsub+0x63e>
    88b4:	2580      	movs	r5, #128	; 0x80
    88b6:	042d      	lsls	r5, r5, #16
    88b8:	432b      	orrs	r3, r5
    88ba:	4664      	mov	r4, ip
    88bc:	2c38      	cmp	r4, #56	; 0x38
    88be:	dc5d      	bgt.n	897c <__aeabi_dsub+0x4c8>
    88c0:	2c1f      	cmp	r4, #31
    88c2:	dd00      	ble.n	88c6 <__aeabi_dsub+0x412>
    88c4:	e0d0      	b.n	8a68 <__aeabi_dsub+0x5b4>
    88c6:	2520      	movs	r5, #32
    88c8:	4667      	mov	r7, ip
    88ca:	1b2d      	subs	r5, r5, r4
    88cc:	464e      	mov	r6, r9
    88ce:	001c      	movs	r4, r3
    88d0:	40fe      	lsrs	r6, r7
    88d2:	40ac      	lsls	r4, r5
    88d4:	4334      	orrs	r4, r6
    88d6:	464e      	mov	r6, r9
    88d8:	40ae      	lsls	r6, r5
    88da:	0035      	movs	r5, r6
    88dc:	40fb      	lsrs	r3, r7
    88de:	1e6e      	subs	r6, r5, #1
    88e0:	41b5      	sbcs	r5, r6
    88e2:	1ac9      	subs	r1, r1, r3
    88e4:	432c      	orrs	r4, r5
    88e6:	e04e      	b.n	8986 <__aeabi_dsub+0x4d2>
    88e8:	464a      	mov	r2, r9
    88ea:	1a14      	subs	r4, r2, r0
    88ec:	45a1      	cmp	r9, r4
    88ee:	4192      	sbcs	r2, r2
    88f0:	4252      	negs	r2, r2
    88f2:	4690      	mov	r8, r2
    88f4:	1a5f      	subs	r7, r3, r1
    88f6:	003a      	movs	r2, r7
    88f8:	4647      	mov	r7, r8
    88fa:	1bd2      	subs	r2, r2, r7
    88fc:	4690      	mov	r8, r2
    88fe:	0212      	lsls	r2, r2, #8
    8900:	d500      	bpl.n	8904 <__aeabi_dsub+0x450>
    8902:	e08b      	b.n	8a1c <__aeabi_dsub+0x568>
    8904:	4642      	mov	r2, r8
    8906:	4322      	orrs	r2, r4
    8908:	d000      	beq.n	890c <__aeabi_dsub+0x458>
    890a:	e630      	b.n	856e <__aeabi_dsub+0xba>
    890c:	2300      	movs	r3, #0
    890e:	2500      	movs	r5, #0
    8910:	e74d      	b.n	87ae <__aeabi_dsub+0x2fa>
    8912:	464a      	mov	r2, r9
    8914:	0759      	lsls	r1, r3, #29
    8916:	08d2      	lsrs	r2, r2, #3
    8918:	430a      	orrs	r2, r1
    891a:	08db      	lsrs	r3, r3, #3
    891c:	e744      	b.n	87a8 <__aeabi_dsub+0x2f4>
    891e:	4642      	mov	r2, r8
    8920:	4b9e      	ldr	r3, [pc, #632]	; (8b9c <__aeabi_dsub+0x6e8>)
    8922:	0861      	lsrs	r1, r4, #1
    8924:	401a      	ands	r2, r3
    8926:	0013      	movs	r3, r2
    8928:	2201      	movs	r2, #1
    892a:	4014      	ands	r4, r2
    892c:	430c      	orrs	r4, r1
    892e:	07da      	lsls	r2, r3, #31
    8930:	085b      	lsrs	r3, r3, #1
    8932:	4698      	mov	r8, r3
    8934:	4314      	orrs	r4, r2
    8936:	e641      	b.n	85bc <__aeabi_dsub+0x108>
    8938:	001a      	movs	r2, r3
    893a:	3e1f      	subs	r6, #31
    893c:	40f2      	lsrs	r2, r6
    893e:	0016      	movs	r6, r2
    8940:	2920      	cmp	r1, #32
    8942:	d003      	beq.n	894c <__aeabi_dsub+0x498>
    8944:	2240      	movs	r2, #64	; 0x40
    8946:	1a51      	subs	r1, r2, r1
    8948:	408b      	lsls	r3, r1
    894a:	431c      	orrs	r4, r3
    894c:	1e62      	subs	r2, r4, #1
    894e:	4194      	sbcs	r4, r2
    8950:	2300      	movs	r3, #0
    8952:	4334      	orrs	r4, r6
    8954:	4698      	mov	r8, r3
    8956:	2600      	movs	r6, #0
    8958:	e71d      	b.n	8796 <__aeabi_dsub+0x2e2>
    895a:	000c      	movs	r4, r1
    895c:	3a20      	subs	r2, #32
    895e:	40d4      	lsrs	r4, r2
    8960:	0022      	movs	r2, r4
    8962:	4664      	mov	r4, ip
    8964:	2c20      	cmp	r4, #32
    8966:	d004      	beq.n	8972 <__aeabi_dsub+0x4be>
    8968:	2740      	movs	r7, #64	; 0x40
    896a:	1b3f      	subs	r7, r7, r4
    896c:	40b9      	lsls	r1, r7
    896e:	4308      	orrs	r0, r1
    8970:	4680      	mov	r8, r0
    8972:	4644      	mov	r4, r8
    8974:	1e61      	subs	r1, r4, #1
    8976:	418c      	sbcs	r4, r1
    8978:	4322      	orrs	r2, r4
    897a:	e5e9      	b.n	8550 <__aeabi_dsub+0x9c>
    897c:	464c      	mov	r4, r9
    897e:	4323      	orrs	r3, r4
    8980:	001c      	movs	r4, r3
    8982:	1e63      	subs	r3, r4, #1
    8984:	419c      	sbcs	r4, r3
    8986:	1b04      	subs	r4, r0, r4
    8988:	42a0      	cmp	r0, r4
    898a:	419b      	sbcs	r3, r3
    898c:	425b      	negs	r3, r3
    898e:	1acb      	subs	r3, r1, r3
    8990:	4698      	mov	r8, r3
    8992:	465d      	mov	r5, fp
    8994:	0016      	movs	r6, r2
    8996:	e5e2      	b.n	855e <__aeabi_dsub+0xaa>
    8998:	464e      	mov	r6, r9
    899a:	431e      	orrs	r6, r3
    899c:	d100      	bne.n	89a0 <__aeabi_dsub+0x4ec>
    899e:	e0ae      	b.n	8afe <__aeabi_dsub+0x64a>
    89a0:	1e66      	subs	r6, r4, #1
    89a2:	2c01      	cmp	r4, #1
    89a4:	d100      	bne.n	89a8 <__aeabi_dsub+0x4f4>
    89a6:	e0fd      	b.n	8ba4 <__aeabi_dsub+0x6f0>
    89a8:	4f7b      	ldr	r7, [pc, #492]	; (8b98 <__aeabi_dsub+0x6e4>)
    89aa:	42bc      	cmp	r4, r7
    89ac:	d100      	bne.n	89b0 <__aeabi_dsub+0x4fc>
    89ae:	e107      	b.n	8bc0 <__aeabi_dsub+0x70c>
    89b0:	46b4      	mov	ip, r6
    89b2:	e69b      	b.n	86ec <__aeabi_dsub+0x238>
    89b4:	4664      	mov	r4, ip
    89b6:	2220      	movs	r2, #32
    89b8:	1b12      	subs	r2, r2, r4
    89ba:	000c      	movs	r4, r1
    89bc:	4094      	lsls	r4, r2
    89be:	0007      	movs	r7, r0
    89c0:	4090      	lsls	r0, r2
    89c2:	46a0      	mov	r8, r4
    89c4:	4664      	mov	r4, ip
    89c6:	1e42      	subs	r2, r0, #1
    89c8:	4190      	sbcs	r0, r2
    89ca:	4662      	mov	r2, ip
    89cc:	40e7      	lsrs	r7, r4
    89ce:	4644      	mov	r4, r8
    89d0:	40d1      	lsrs	r1, r2
    89d2:	433c      	orrs	r4, r7
    89d4:	4304      	orrs	r4, r0
    89d6:	185b      	adds	r3, r3, r1
    89d8:	e6f3      	b.n	87c2 <__aeabi_dsub+0x30e>
    89da:	4c6f      	ldr	r4, [pc, #444]	; (8b98 <__aeabi_dsub+0x6e4>)
    89dc:	42a2      	cmp	r2, r4
    89de:	d100      	bne.n	89e2 <__aeabi_dsub+0x52e>
    89e0:	e0d5      	b.n	8b8e <__aeabi_dsub+0x6da>
    89e2:	4448      	add	r0, r9
    89e4:	185b      	adds	r3, r3, r1
    89e6:	4548      	cmp	r0, r9
    89e8:	4189      	sbcs	r1, r1
    89ea:	4249      	negs	r1, r1
    89ec:	185b      	adds	r3, r3, r1
    89ee:	07dc      	lsls	r4, r3, #31
    89f0:	0840      	lsrs	r0, r0, #1
    89f2:	085b      	lsrs	r3, r3, #1
    89f4:	4698      	mov	r8, r3
    89f6:	0016      	movs	r6, r2
    89f8:	4304      	orrs	r4, r0
    89fa:	e6cc      	b.n	8796 <__aeabi_dsub+0x2e2>
    89fc:	2a00      	cmp	r2, #0
    89fe:	d000      	beq.n	8a02 <__aeabi_dsub+0x54e>
    8a00:	e082      	b.n	8b08 <__aeabi_dsub+0x654>
    8a02:	000a      	movs	r2, r1
    8a04:	4302      	orrs	r2, r0
    8a06:	d140      	bne.n	8a8a <__aeabi_dsub+0x5d6>
    8a08:	2380      	movs	r3, #128	; 0x80
    8a0a:	2500      	movs	r5, #0
    8a0c:	031b      	lsls	r3, r3, #12
    8a0e:	e713      	b.n	8838 <__aeabi_dsub+0x384>
    8a10:	074b      	lsls	r3, r1, #29
    8a12:	08c2      	lsrs	r2, r0, #3
    8a14:	431a      	orrs	r2, r3
    8a16:	465d      	mov	r5, fp
    8a18:	08cb      	lsrs	r3, r1, #3
    8a1a:	e6c5      	b.n	87a8 <__aeabi_dsub+0x2f4>
    8a1c:	464a      	mov	r2, r9
    8a1e:	1a84      	subs	r4, r0, r2
    8a20:	42a0      	cmp	r0, r4
    8a22:	4192      	sbcs	r2, r2
    8a24:	1acb      	subs	r3, r1, r3
    8a26:	4252      	negs	r2, r2
    8a28:	1a9b      	subs	r3, r3, r2
    8a2a:	4698      	mov	r8, r3
    8a2c:	465d      	mov	r5, fp
    8a2e:	e59e      	b.n	856e <__aeabi_dsub+0xba>
    8a30:	464a      	mov	r2, r9
    8a32:	0759      	lsls	r1, r3, #29
    8a34:	08d2      	lsrs	r2, r2, #3
    8a36:	430a      	orrs	r2, r1
    8a38:	08db      	lsrs	r3, r3, #3
    8a3a:	e6f9      	b.n	8830 <__aeabi_dsub+0x37c>
    8a3c:	464a      	mov	r2, r9
    8a3e:	1a14      	subs	r4, r2, r0
    8a40:	45a1      	cmp	r9, r4
    8a42:	4192      	sbcs	r2, r2
    8a44:	1a5b      	subs	r3, r3, r1
    8a46:	4252      	negs	r2, r2
    8a48:	1a9b      	subs	r3, r3, r2
    8a4a:	4698      	mov	r8, r3
    8a4c:	2601      	movs	r6, #1
    8a4e:	e586      	b.n	855e <__aeabi_dsub+0xaa>
    8a50:	464a      	mov	r2, r9
    8a52:	0759      	lsls	r1, r3, #29
    8a54:	08d2      	lsrs	r2, r2, #3
    8a56:	430a      	orrs	r2, r1
    8a58:	08db      	lsrs	r3, r3, #3
    8a5a:	e6a5      	b.n	87a8 <__aeabi_dsub+0x2f4>
    8a5c:	464c      	mov	r4, r9
    8a5e:	4323      	orrs	r3, r4
    8a60:	001c      	movs	r4, r3
    8a62:	1e63      	subs	r3, r4, #1
    8a64:	419c      	sbcs	r4, r3
    8a66:	e65b      	b.n	8720 <__aeabi_dsub+0x26c>
    8a68:	4665      	mov	r5, ip
    8a6a:	001e      	movs	r6, r3
    8a6c:	3d20      	subs	r5, #32
    8a6e:	40ee      	lsrs	r6, r5
    8a70:	2c20      	cmp	r4, #32
    8a72:	d005      	beq.n	8a80 <__aeabi_dsub+0x5cc>
    8a74:	2540      	movs	r5, #64	; 0x40
    8a76:	1b2d      	subs	r5, r5, r4
    8a78:	40ab      	lsls	r3, r5
    8a7a:	464c      	mov	r4, r9
    8a7c:	431c      	orrs	r4, r3
    8a7e:	46a2      	mov	sl, r4
    8a80:	4654      	mov	r4, sl
    8a82:	1e63      	subs	r3, r4, #1
    8a84:	419c      	sbcs	r4, r3
    8a86:	4334      	orrs	r4, r6
    8a88:	e77d      	b.n	8986 <__aeabi_dsub+0x4d2>
    8a8a:	074b      	lsls	r3, r1, #29
    8a8c:	08c2      	lsrs	r2, r0, #3
    8a8e:	431a      	orrs	r2, r3
    8a90:	465d      	mov	r5, fp
    8a92:	08cb      	lsrs	r3, r1, #3
    8a94:	e6cc      	b.n	8830 <__aeabi_dsub+0x37c>
    8a96:	000a      	movs	r2, r1
    8a98:	4302      	orrs	r2, r0
    8a9a:	d100      	bne.n	8a9e <__aeabi_dsub+0x5ea>
    8a9c:	e736      	b.n	890c <__aeabi_dsub+0x458>
    8a9e:	074b      	lsls	r3, r1, #29
    8aa0:	08c2      	lsrs	r2, r0, #3
    8aa2:	431a      	orrs	r2, r3
    8aa4:	465d      	mov	r5, fp
    8aa6:	08cb      	lsrs	r3, r1, #3
    8aa8:	e681      	b.n	87ae <__aeabi_dsub+0x2fa>
    8aaa:	464a      	mov	r2, r9
    8aac:	1a84      	subs	r4, r0, r2
    8aae:	42a0      	cmp	r0, r4
    8ab0:	4192      	sbcs	r2, r2
    8ab2:	1acb      	subs	r3, r1, r3
    8ab4:	4252      	negs	r2, r2
    8ab6:	1a9b      	subs	r3, r3, r2
    8ab8:	4698      	mov	r8, r3
    8aba:	465d      	mov	r5, fp
    8abc:	2601      	movs	r6, #1
    8abe:	e54e      	b.n	855e <__aeabi_dsub+0xaa>
    8ac0:	074b      	lsls	r3, r1, #29
    8ac2:	08c2      	lsrs	r2, r0, #3
    8ac4:	431a      	orrs	r2, r3
    8ac6:	08cb      	lsrs	r3, r1, #3
    8ac8:	e6b2      	b.n	8830 <__aeabi_dsub+0x37c>
    8aca:	464a      	mov	r2, r9
    8acc:	1a14      	subs	r4, r2, r0
    8ace:	45a1      	cmp	r9, r4
    8ad0:	4192      	sbcs	r2, r2
    8ad2:	1a5f      	subs	r7, r3, r1
    8ad4:	4252      	negs	r2, r2
    8ad6:	1aba      	subs	r2, r7, r2
    8ad8:	4690      	mov	r8, r2
    8ada:	0212      	lsls	r2, r2, #8
    8adc:	d56b      	bpl.n	8bb6 <__aeabi_dsub+0x702>
    8ade:	464a      	mov	r2, r9
    8ae0:	1a84      	subs	r4, r0, r2
    8ae2:	42a0      	cmp	r0, r4
    8ae4:	4192      	sbcs	r2, r2
    8ae6:	1acb      	subs	r3, r1, r3
    8ae8:	4252      	negs	r2, r2
    8aea:	1a9b      	subs	r3, r3, r2
    8aec:	4698      	mov	r8, r3
    8aee:	465d      	mov	r5, fp
    8af0:	e564      	b.n	85bc <__aeabi_dsub+0x108>
    8af2:	074b      	lsls	r3, r1, #29
    8af4:	08c2      	lsrs	r2, r0, #3
    8af6:	431a      	orrs	r2, r3
    8af8:	465d      	mov	r5, fp
    8afa:	08cb      	lsrs	r3, r1, #3
    8afc:	e698      	b.n	8830 <__aeabi_dsub+0x37c>
    8afe:	074b      	lsls	r3, r1, #29
    8b00:	08c2      	lsrs	r2, r0, #3
    8b02:	431a      	orrs	r2, r3
    8b04:	08cb      	lsrs	r3, r1, #3
    8b06:	e64f      	b.n	87a8 <__aeabi_dsub+0x2f4>
    8b08:	000a      	movs	r2, r1
    8b0a:	4302      	orrs	r2, r0
    8b0c:	d090      	beq.n	8a30 <__aeabi_dsub+0x57c>
    8b0e:	464a      	mov	r2, r9
    8b10:	075c      	lsls	r4, r3, #29
    8b12:	08d2      	lsrs	r2, r2, #3
    8b14:	4314      	orrs	r4, r2
    8b16:	2280      	movs	r2, #128	; 0x80
    8b18:	08db      	lsrs	r3, r3, #3
    8b1a:	0312      	lsls	r2, r2, #12
    8b1c:	4213      	tst	r3, r2
    8b1e:	d008      	beq.n	8b32 <__aeabi_dsub+0x67e>
    8b20:	08ce      	lsrs	r6, r1, #3
    8b22:	4216      	tst	r6, r2
    8b24:	d105      	bne.n	8b32 <__aeabi_dsub+0x67e>
    8b26:	08c0      	lsrs	r0, r0, #3
    8b28:	0749      	lsls	r1, r1, #29
    8b2a:	4308      	orrs	r0, r1
    8b2c:	0004      	movs	r4, r0
    8b2e:	465d      	mov	r5, fp
    8b30:	0033      	movs	r3, r6
    8b32:	0f61      	lsrs	r1, r4, #29
    8b34:	00e2      	lsls	r2, r4, #3
    8b36:	0749      	lsls	r1, r1, #29
    8b38:	08d2      	lsrs	r2, r2, #3
    8b3a:	430a      	orrs	r2, r1
    8b3c:	e678      	b.n	8830 <__aeabi_dsub+0x37c>
    8b3e:	074b      	lsls	r3, r1, #29
    8b40:	08c2      	lsrs	r2, r0, #3
    8b42:	431a      	orrs	r2, r3
    8b44:	08cb      	lsrs	r3, r1, #3
    8b46:	e632      	b.n	87ae <__aeabi_dsub+0x2fa>
    8b48:	4448      	add	r0, r9
    8b4a:	185b      	adds	r3, r3, r1
    8b4c:	4548      	cmp	r0, r9
    8b4e:	4192      	sbcs	r2, r2
    8b50:	4698      	mov	r8, r3
    8b52:	4252      	negs	r2, r2
    8b54:	4490      	add	r8, r2
    8b56:	4643      	mov	r3, r8
    8b58:	0004      	movs	r4, r0
    8b5a:	021b      	lsls	r3, r3, #8
    8b5c:	d400      	bmi.n	8b60 <__aeabi_dsub+0x6ac>
    8b5e:	e61a      	b.n	8796 <__aeabi_dsub+0x2e2>
    8b60:	4642      	mov	r2, r8
    8b62:	4b0e      	ldr	r3, [pc, #56]	; (8b9c <__aeabi_dsub+0x6e8>)
    8b64:	2601      	movs	r6, #1
    8b66:	401a      	ands	r2, r3
    8b68:	4690      	mov	r8, r2
    8b6a:	e614      	b.n	8796 <__aeabi_dsub+0x2e2>
    8b6c:	4666      	mov	r6, ip
    8b6e:	001f      	movs	r7, r3
    8b70:	3e20      	subs	r6, #32
    8b72:	40f7      	lsrs	r7, r6
    8b74:	2c20      	cmp	r4, #32
    8b76:	d005      	beq.n	8b84 <__aeabi_dsub+0x6d0>
    8b78:	2640      	movs	r6, #64	; 0x40
    8b7a:	1b36      	subs	r6, r6, r4
    8b7c:	40b3      	lsls	r3, r6
    8b7e:	464c      	mov	r4, r9
    8b80:	431c      	orrs	r4, r3
    8b82:	46a2      	mov	sl, r4
    8b84:	4654      	mov	r4, sl
    8b86:	1e63      	subs	r3, r4, #1
    8b88:	419c      	sbcs	r4, r3
    8b8a:	433c      	orrs	r4, r7
    8b8c:	e5c8      	b.n	8720 <__aeabi_dsub+0x26c>
    8b8e:	0011      	movs	r1, r2
    8b90:	2300      	movs	r3, #0
    8b92:	2200      	movs	r2, #0
    8b94:	e532      	b.n	85fc <__aeabi_dsub+0x148>
    8b96:	46c0      	nop			; (mov r8, r8)
    8b98:	000007ff 	.word	0x000007ff
    8b9c:	ff7fffff 	.word	0xff7fffff
    8ba0:	000007fe 	.word	0x000007fe
    8ba4:	464a      	mov	r2, r9
    8ba6:	1814      	adds	r4, r2, r0
    8ba8:	4284      	cmp	r4, r0
    8baa:	4192      	sbcs	r2, r2
    8bac:	185b      	adds	r3, r3, r1
    8bae:	4698      	mov	r8, r3
    8bb0:	4252      	negs	r2, r2
    8bb2:	4490      	add	r8, r2
    8bb4:	e5e9      	b.n	878a <__aeabi_dsub+0x2d6>
    8bb6:	4642      	mov	r2, r8
    8bb8:	4322      	orrs	r2, r4
    8bba:	d100      	bne.n	8bbe <__aeabi_dsub+0x70a>
    8bbc:	e6a6      	b.n	890c <__aeabi_dsub+0x458>
    8bbe:	e5ea      	b.n	8796 <__aeabi_dsub+0x2e2>
    8bc0:	074b      	lsls	r3, r1, #29
    8bc2:	08c2      	lsrs	r2, r0, #3
    8bc4:	431a      	orrs	r2, r3
    8bc6:	08cb      	lsrs	r3, r1, #3
    8bc8:	e632      	b.n	8830 <__aeabi_dsub+0x37c>
    8bca:	2200      	movs	r2, #0
    8bcc:	4901      	ldr	r1, [pc, #4]	; (8bd4 <__aeabi_dsub+0x720>)
    8bce:	0013      	movs	r3, r2
    8bd0:	e514      	b.n	85fc <__aeabi_dsub+0x148>
    8bd2:	46c0      	nop			; (mov r8, r8)
    8bd4:	000007ff 	.word	0x000007ff

00008bd8 <__aeabi_d2iz>:
__aeabi_d2iz():
    8bd8:	000a      	movs	r2, r1
    8bda:	b530      	push	{r4, r5, lr}
    8bdc:	4c13      	ldr	r4, [pc, #76]	; (8c2c <__aeabi_d2iz+0x54>)
    8bde:	0053      	lsls	r3, r2, #1
    8be0:	0309      	lsls	r1, r1, #12
    8be2:	0005      	movs	r5, r0
    8be4:	0b09      	lsrs	r1, r1, #12
    8be6:	2000      	movs	r0, #0
    8be8:	0d5b      	lsrs	r3, r3, #21
    8bea:	0fd2      	lsrs	r2, r2, #31
    8bec:	42a3      	cmp	r3, r4
    8bee:	dd04      	ble.n	8bfa <__aeabi_d2iz+0x22>
    8bf0:	480f      	ldr	r0, [pc, #60]	; (8c30 <__aeabi_d2iz+0x58>)
    8bf2:	4283      	cmp	r3, r0
    8bf4:	dd02      	ble.n	8bfc <__aeabi_d2iz+0x24>
    8bf6:	4b0f      	ldr	r3, [pc, #60]	; (8c34 <__aeabi_d2iz+0x5c>)
    8bf8:	18d0      	adds	r0, r2, r3
    8bfa:	bd30      	pop	{r4, r5, pc}
    8bfc:	2080      	movs	r0, #128	; 0x80
    8bfe:	0340      	lsls	r0, r0, #13
    8c00:	4301      	orrs	r1, r0
    8c02:	480d      	ldr	r0, [pc, #52]	; (8c38 <__aeabi_d2iz+0x60>)
    8c04:	1ac0      	subs	r0, r0, r3
    8c06:	281f      	cmp	r0, #31
    8c08:	dd08      	ble.n	8c1c <__aeabi_d2iz+0x44>
    8c0a:	480c      	ldr	r0, [pc, #48]	; (8c3c <__aeabi_d2iz+0x64>)
    8c0c:	1ac3      	subs	r3, r0, r3
    8c0e:	40d9      	lsrs	r1, r3
    8c10:	000b      	movs	r3, r1
    8c12:	4258      	negs	r0, r3
    8c14:	2a00      	cmp	r2, #0
    8c16:	d1f0      	bne.n	8bfa <__aeabi_d2iz+0x22>
    8c18:	0018      	movs	r0, r3
    8c1a:	e7ee      	b.n	8bfa <__aeabi_d2iz+0x22>
    8c1c:	4c08      	ldr	r4, [pc, #32]	; (8c40 <__aeabi_d2iz+0x68>)
    8c1e:	40c5      	lsrs	r5, r0
    8c20:	46a4      	mov	ip, r4
    8c22:	4463      	add	r3, ip
    8c24:	4099      	lsls	r1, r3
    8c26:	000b      	movs	r3, r1
    8c28:	432b      	orrs	r3, r5
    8c2a:	e7f2      	b.n	8c12 <__aeabi_d2iz+0x3a>
    8c2c:	000003fe 	.word	0x000003fe
    8c30:	0000041d 	.word	0x0000041d
    8c34:	7fffffff 	.word	0x7fffffff
    8c38:	00000433 	.word	0x00000433
    8c3c:	00000413 	.word	0x00000413
    8c40:	fffffbed 	.word	0xfffffbed

00008c44 <__aeabi_ui2d>:
__aeabi_ui2d():
    8c44:	b510      	push	{r4, lr}
    8c46:	1e04      	subs	r4, r0, #0
    8c48:	d010      	beq.n	8c6c <__aeabi_ui2d+0x28>
    8c4a:	f000 f821 	bl	8c90 <__clzsi2>
    8c4e:	4b0f      	ldr	r3, [pc, #60]	; (8c8c <__aeabi_ui2d+0x48>)
    8c50:	1a1b      	subs	r3, r3, r0
    8c52:	280a      	cmp	r0, #10
    8c54:	dc11      	bgt.n	8c7a <__aeabi_ui2d+0x36>
    8c56:	220b      	movs	r2, #11
    8c58:	0021      	movs	r1, r4
    8c5a:	1a12      	subs	r2, r2, r0
    8c5c:	40d1      	lsrs	r1, r2
    8c5e:	3015      	adds	r0, #21
    8c60:	030a      	lsls	r2, r1, #12
    8c62:	055b      	lsls	r3, r3, #21
    8c64:	4084      	lsls	r4, r0
    8c66:	0b12      	lsrs	r2, r2, #12
    8c68:	0d5b      	lsrs	r3, r3, #21
    8c6a:	e001      	b.n	8c70 <__aeabi_ui2d+0x2c>
    8c6c:	2300      	movs	r3, #0
    8c6e:	2200      	movs	r2, #0
    8c70:	051b      	lsls	r3, r3, #20
    8c72:	4313      	orrs	r3, r2
    8c74:	0020      	movs	r0, r4
    8c76:	0019      	movs	r1, r3
    8c78:	bd10      	pop	{r4, pc}
    8c7a:	0022      	movs	r2, r4
    8c7c:	380b      	subs	r0, #11
    8c7e:	4082      	lsls	r2, r0
    8c80:	055b      	lsls	r3, r3, #21
    8c82:	0312      	lsls	r2, r2, #12
    8c84:	2400      	movs	r4, #0
    8c86:	0b12      	lsrs	r2, r2, #12
    8c88:	0d5b      	lsrs	r3, r3, #21
    8c8a:	e7f1      	b.n	8c70 <__aeabi_ui2d+0x2c>
    8c8c:	0000041e 	.word	0x0000041e

00008c90 <__clzsi2>:
__clzsi2():
    8c90:	211c      	movs	r1, #28
    8c92:	2301      	movs	r3, #1
    8c94:	041b      	lsls	r3, r3, #16
    8c96:	4298      	cmp	r0, r3
    8c98:	d301      	bcc.n	8c9e <__clzsi2+0xe>
    8c9a:	0c00      	lsrs	r0, r0, #16
    8c9c:	3910      	subs	r1, #16
    8c9e:	0a1b      	lsrs	r3, r3, #8
    8ca0:	4298      	cmp	r0, r3
    8ca2:	d301      	bcc.n	8ca8 <__clzsi2+0x18>
    8ca4:	0a00      	lsrs	r0, r0, #8
    8ca6:	3908      	subs	r1, #8
    8ca8:	091b      	lsrs	r3, r3, #4
    8caa:	4298      	cmp	r0, r3
    8cac:	d301      	bcc.n	8cb2 <__clzsi2+0x22>
    8cae:	0900      	lsrs	r0, r0, #4
    8cb0:	3904      	subs	r1, #4
    8cb2:	a202      	add	r2, pc, #8	; (adr r2, 8cbc <__clzsi2+0x2c>)
    8cb4:	5c10      	ldrb	r0, [r2, r0]
    8cb6:	1840      	adds	r0, r0, r1
    8cb8:	4770      	bx	lr
    8cba:	46c0      	nop			; (mov r8, r8)
    8cbc:	02020304 	.word	0x02020304
    8cc0:	01010101 	.word	0x01010101
	...

00008ccc <__clzdi2>:
__clzdi2():
    8ccc:	b510      	push	{r4, lr}
    8cce:	2900      	cmp	r1, #0
    8cd0:	d103      	bne.n	8cda <__clzdi2+0xe>
    8cd2:	f7ff ffdd 	bl	8c90 <__clzsi2>
    8cd6:	3020      	adds	r0, #32
    8cd8:	e002      	b.n	8ce0 <__clzdi2+0x14>
    8cda:	1c08      	adds	r0, r1, #0
    8cdc:	f7ff ffd8 	bl	8c90 <__clzsi2>
    8ce0:	bd10      	pop	{r4, pc}
    8ce2:	46c0      	nop			; (mov r8, r8)

00008ce4 <strlen>:
strlen():
    8ce4:	2300      	movs	r3, #0
    8ce6:	5cc2      	ldrb	r2, [r0, r3]
    8ce8:	3301      	adds	r3, #1
    8cea:	2a00      	cmp	r2, #0
    8cec:	d1fb      	bne.n	8ce6 <strlen+0x2>
    8cee:	1e58      	subs	r0, r3, #1
    8cf0:	4770      	bx	lr
	...

00008cf4 <NVIC_EnableIRQ>:
NVIC_EnableIRQ():
F:\WorkSpace\AHL-GEC-EXP\Temp\PWM_Music\02_CPU/core_cm0plus.h:684
    The function enables a device-specific interrupt in the NVIC interrupt controller.

    \param [in]      IRQn  External interrupt number. Value cannot be negative.
 */
__STATIC_INLINE void NVIC_EnableIRQ(IRQn_Type IRQn)
{
    8cf4:	b082      	sub	sp, #8
    8cf6:	0002      	movs	r2, r0
    8cf8:	466b      	mov	r3, sp
    8cfa:	3307      	adds	r3, #7
    8cfc:	701a      	strb	r2, [r3, #0]
F:\WorkSpace\AHL-GEC-EXP\Temp\PWM_Music\02_CPU/core_cm0plus.h:685
  NVIC->ISER[0] = (uint32_t)(1UL << (((uint32_t)(int32_t)IRQn) & 0x1FUL));
    8cfe:	466b      	mov	r3, sp
    8d00:	3307      	adds	r3, #7
    8d02:	781b      	ldrb	r3, [r3, #0]
    8d04:	001a      	movs	r2, r3
    8d06:	231f      	movs	r3, #31
    8d08:	401a      	ands	r2, r3
    8d0a:	4b04      	ldr	r3, [pc, #16]	; (8d1c <NVIC_EnableIRQ+0x28>)
    8d0c:	2101      	movs	r1, #1
    8d0e:	4091      	lsls	r1, r2
    8d10:	000a      	movs	r2, r1
    8d12:	601a      	str	r2, [r3, #0]
F:\WorkSpace\AHL-GEC-EXP\Temp\PWM_Music\02_CPU/core_cm0plus.h:686
}
    8d14:	46c0      	nop			; (mov r8, r8)
    8d16:	b002      	add	sp, #8
    8d18:	4770      	bx	lr
    8d1a:	46c0      	nop			; (mov r8, r8)
    8d1c:	e000e100 	.word	0xe000e100

00008d20 <timer_init>:
timer_init():
F:\WorkSpace\AHL-GEC-EXP\Temp\PWM_Music\Debug/srcc/timer.c:37
//        time_ms 定时器中断的时间间隔，单位为毫秒，其中timer0设置范围
//        0~65535ms，timer1与
//                timer2定时时长范围为0~65535/3ms
//功能概要：时钟模块初始化，其中timer0为低功耗时钟 timer1与timer2为非低功耗时钟
//============================================================================
void timer_init(uint8_t timer_No, uint32_t time_ms) {
    8d20:	b510      	push	{r4, lr}
    8d22:	b082      	sub	sp, #8
    8d24:	0002      	movs	r2, r0
    8d26:	9100      	str	r1, [sp, #0]
    8d28:	466b      	mov	r3, sp
    8d2a:	3307      	adds	r3, #7
    8d2c:	701a      	strb	r2, [r3, #0]
F:\WorkSpace\AHL-GEC-EXP\Temp\PWM_Music\Debug/srcc/timer.c:38
  if (timer_No == 0) {
    8d2e:	466b      	mov	r3, sp
    8d30:	3307      	adds	r3, #7
    8d32:	781b      	ldrb	r3, [r3, #0]
    8d34:	2b00      	cmp	r3, #0
    8d36:	d104      	bne.n	8d42 <timer_init+0x22>
F:\WorkSpace\AHL-GEC-EXP\Temp\PWM_Music\Debug/srcc/timer.c:39
    lptmr_init(time_ms);
    8d38:	9b00      	ldr	r3, [sp, #0]
    8d3a:	0018      	movs	r0, r3
    8d3c:	f000 f868 	bl	8e10 <lptmr_init>
    8d40:	e018      	b.n	8d74 <timer_init+0x54>
F:\WorkSpace\AHL-GEC-EXP\Temp\PWM_Music\Debug/srcc/timer.c:40
  } else if (timer_No == 1 || timer_No == 2) {
    8d42:	466b      	mov	r3, sp
    8d44:	3307      	adds	r3, #7
    8d46:	781b      	ldrb	r3, [r3, #0]
    8d48:	2b01      	cmp	r3, #1
    8d4a:	d004      	beq.n	8d56 <timer_init+0x36>
F:\WorkSpace\AHL-GEC-EXP\Temp\PWM_Music\Debug/srcc/timer.c:40 (discriminator 1)
    8d4c:	466b      	mov	r3, sp
    8d4e:	3307      	adds	r3, #7
    8d50:	781b      	ldrb	r3, [r3, #0]
    8d52:	2b02      	cmp	r3, #2
    8d54:	d10d      	bne.n	8d72 <timer_init+0x52>
F:\WorkSpace\AHL-GEC-EXP\Temp\PWM_Music\Debug/srcc/timer.c:41
    tpm_timer_init(timer_No, 3000, time_ms);
    8d56:	466b      	mov	r3, sp
    8d58:	3307      	adds	r3, #7
    8d5a:	781b      	ldrb	r3, [r3, #0]
    8d5c:	b29c      	uxth	r4, r3
    8d5e:	9800      	ldr	r0, [sp, #0]
    8d60:	f7fe ffe2 	bl	7d28 <__aeabi_ui2f>
    8d64:	1c03      	adds	r3, r0, #0
    8d66:	4904      	ldr	r1, [pc, #16]	; (8d78 <timer_init+0x58>)
    8d68:	1c1a      	adds	r2, r3, #0
    8d6a:	0020      	movs	r0, r4
    8d6c:	f000 f88e 	bl	8e8c <tpm_timer_init>
    8d70:	e000      	b.n	8d74 <timer_init+0x54>
F:\WorkSpace\AHL-GEC-EXP\Temp\PWM_Music\Debug/srcc/timer.c:43
  } else
    return;
    8d72:	46c0      	nop			; (mov r8, r8)
F:\WorkSpace\AHL-GEC-EXP\Temp\PWM_Music\Debug/srcc/timer.c:44
}
    8d74:	b002      	add	sp, #8
    8d76:	bd10      	pop	{r4, pc}
    8d78:	00000bb8 	.word	0x00000bb8

00008d7c <timer_enable_int>:
timer_enable_int():
F:\WorkSpace\AHL-GEC-EXP\Temp\PWM_Music\Debug/srcc/timer.c:52
//函数名称：timer_enable_int
//函数返回：无
//参数说明： timer_No:时钟模块号  具体时钟模块号见gec.h文件定义
//功能概要：时钟模块使能，开启时钟模块中断及定时器中断
//============================================================================
void timer_enable_int(uint8_t timer_No) {
    8d7c:	b500      	push	{lr}
    8d7e:	b083      	sub	sp, #12
    8d80:	0002      	movs	r2, r0
    8d82:	466b      	mov	r3, sp
    8d84:	3307      	adds	r3, #7
    8d86:	701a      	strb	r2, [r3, #0]
F:\WorkSpace\AHL-GEC-EXP\Temp\PWM_Music\Debug/srcc/timer.c:53
  if (timer_No == 0) {
    8d88:	466b      	mov	r3, sp
    8d8a:	3307      	adds	r3, #7
    8d8c:	781b      	ldrb	r3, [r3, #0]
    8d8e:	2b00      	cmp	r3, #0
    8d90:	d102      	bne.n	8d98 <timer_enable_int+0x1c>
F:\WorkSpace\AHL-GEC-EXP\Temp\PWM_Music\Debug/srcc/timer.c:54
    lptmr_enable_int();
    8d92:	f000 f86d 	bl	8e70 <lptmr_enable_int>
    8d96:	e011      	b.n	8dbc <timer_enable_int+0x40>
F:\WorkSpace\AHL-GEC-EXP\Temp\PWM_Music\Debug/srcc/timer.c:55
  } else if (timer_No == 1 || timer_No == 2) {
    8d98:	466b      	mov	r3, sp
    8d9a:	3307      	adds	r3, #7
    8d9c:	781b      	ldrb	r3, [r3, #0]
    8d9e:	2b01      	cmp	r3, #1
    8da0:	d004      	beq.n	8dac <timer_enable_int+0x30>
F:\WorkSpace\AHL-GEC-EXP\Temp\PWM_Music\Debug/srcc/timer.c:55 (discriminator 1)
    8da2:	466b      	mov	r3, sp
    8da4:	3307      	adds	r3, #7
    8da6:	781b      	ldrb	r3, [r3, #0]
    8da8:	2b02      	cmp	r3, #2
    8daa:	d106      	bne.n	8dba <timer_enable_int+0x3e>
F:\WorkSpace\AHL-GEC-EXP\Temp\PWM_Music\Debug/srcc/timer.c:56
    tpm_enable_int(timer_No);
    8dac:	466b      	mov	r3, sp
    8dae:	3307      	adds	r3, #7
    8db0:	781b      	ldrb	r3, [r3, #0]
    8db2:	0018      	movs	r0, r3
    8db4:	f000 f922 	bl	8ffc <tpm_enable_int>
    8db8:	e000      	b.n	8dbc <timer_enable_int+0x40>
F:\WorkSpace\AHL-GEC-EXP\Temp\PWM_Music\Debug/srcc/timer.c:58
  } else
    return;
    8dba:	46c0      	nop			; (mov r8, r8)
F:\WorkSpace\AHL-GEC-EXP\Temp\PWM_Music\Debug/srcc/timer.c:59
}
    8dbc:	b003      	add	sp, #12
    8dbe:	bd00      	pop	{pc}

00008dc0 <timer_clear_int>:
timer_clear_int():
F:\WorkSpace\AHL-GEC-EXP\Temp\PWM_Music\Debug/srcc/timer.c:101
//函数名称：timer_clear_int
//函数返回：无
//参数说明： timer_No:时钟模块号  具体时钟模块号见gec.h文件定义
//功能概要：定时器清除中断标志
//============================================================================
void timer_clear_int(uint8_t timer_No) {
    8dc0:	b500      	push	{lr}
    8dc2:	b083      	sub	sp, #12
    8dc4:	0002      	movs	r2, r0
    8dc6:	466b      	mov	r3, sp
    8dc8:	3307      	adds	r3, #7
    8dca:	701a      	strb	r2, [r3, #0]
F:\WorkSpace\AHL-GEC-EXP\Temp\PWM_Music\Debug/srcc/timer.c:102
  if (timer_No == 0) {
    8dcc:	466b      	mov	r3, sp
    8dce:	3307      	adds	r3, #7
    8dd0:	781b      	ldrb	r3, [r3, #0]
    8dd2:	2b00      	cmp	r3, #0
    8dd4:	d106      	bne.n	8de4 <timer_clear_int+0x24>
F:\WorkSpace\AHL-GEC-EXP\Temp\PWM_Music\Debug/srcc/timer.c:103
    CLEAR_LPTMR_FLAG;
    8dd6:	4b0d      	ldr	r3, [pc, #52]	; (8e0c <timer_clear_int+0x4c>)
    8dd8:	681a      	ldr	r2, [r3, #0]
    8dda:	4b0c      	ldr	r3, [pc, #48]	; (8e0c <timer_clear_int+0x4c>)
    8ddc:	2180      	movs	r1, #128	; 0x80
    8dde:	430a      	orrs	r2, r1
    8de0:	601a      	str	r2, [r3, #0]
    8de2:	e011      	b.n	8e08 <timer_clear_int+0x48>
F:\WorkSpace\AHL-GEC-EXP\Temp\PWM_Music\Debug/srcc/timer.c:104
  } else if (timer_No == 1 || timer_No == 2) {
    8de4:	466b      	mov	r3, sp
    8de6:	3307      	adds	r3, #7
    8de8:	781b      	ldrb	r3, [r3, #0]
    8dea:	2b01      	cmp	r3, #1
    8dec:	d004      	beq.n	8df8 <timer_clear_int+0x38>
F:\WorkSpace\AHL-GEC-EXP\Temp\PWM_Music\Debug/srcc/timer.c:104 (discriminator 1)
    8dee:	466b      	mov	r3, sp
    8df0:	3307      	adds	r3, #7
    8df2:	781b      	ldrb	r3, [r3, #0]
    8df4:	2b02      	cmp	r3, #2
    8df6:	d106      	bne.n	8e06 <timer_clear_int+0x46>
F:\WorkSpace\AHL-GEC-EXP\Temp\PWM_Music\Debug/srcc/timer.c:105
    tpm_clear_int(timer_No);
    8df8:	466b      	mov	r3, sp
    8dfa:	3307      	adds	r3, #7
    8dfc:	781b      	ldrb	r3, [r3, #0]
    8dfe:	0018      	movs	r0, r3
    8e00:	f000 f918 	bl	9034 <tpm_clear_int>
    8e04:	e000      	b.n	8e08 <timer_clear_int+0x48>
F:\WorkSpace\AHL-GEC-EXP\Temp\PWM_Music\Debug/srcc/timer.c:107
  } else
    return;
    8e06:	46c0      	nop			; (mov r8, r8)
F:\WorkSpace\AHL-GEC-EXP\Temp\PWM_Music\Debug/srcc/timer.c:108
}
    8e08:	b003      	add	sp, #12
    8e0a:	bd00      	pop	{pc}
    8e0c:	40040000 	.word	0x40040000

00008e10 <lptmr_init>:
lptmr_init():
F:\WorkSpace\AHL-GEC-EXP\Temp\PWM_Music\Debug/srcc/timer.c:118
//函数返回：无
//参数说明：time_ms 定时器中断的时间间隔，单位为毫秒，时间设置范围 0~65535ms
//功能概要：LPTMR模块初始化，时钟源已配置为1KHz的LPO时钟
//其他以此类推
//============================================================================
void lptmr_init(uint32_t time_ms) {
    8e10:	b084      	sub	sp, #16
    8e12:	9001      	str	r0, [sp, #4]
F:\WorkSpace\AHL-GEC-EXP\Temp\PWM_Music\Debug/srcc/timer.c:120
  uint16_t compare_value;
  SIM_SCGC5 |= SIM_SCGC5_LPTMR_MASK;       //使能LPTMR模块时钟
    8e14:	4a13      	ldr	r2, [pc, #76]	; (8e64 <lptmr_init+0x54>)
    8e16:	4b14      	ldr	r3, [pc, #80]	; (8e68 <lptmr_init+0x58>)
    8e18:	58d3      	ldr	r3, [r2, r3]
    8e1a:	4912      	ldr	r1, [pc, #72]	; (8e64 <lptmr_init+0x54>)
    8e1c:	2201      	movs	r2, #1
    8e1e:	4313      	orrs	r3, r2
    8e20:	4a11      	ldr	r2, [pc, #68]	; (8e68 <lptmr_init+0x58>)
    8e22:	508b      	str	r3, [r1, r2]
F:\WorkSpace\AHL-GEC-EXP\Temp\PWM_Music\Debug/srcc/timer.c:121
  SIM_SOPT1 |= SIM_SOPT1_OSC32KSEL(0x11);  //选择LPO时钟
    8e24:	4b0f      	ldr	r3, [pc, #60]	; (8e64 <lptmr_init+0x54>)
    8e26:	681a      	ldr	r2, [r3, #0]
    8e28:	4b0e      	ldr	r3, [pc, #56]	; (8e64 <lptmr_init+0x54>)
    8e2a:	2180      	movs	r1, #128	; 0x80
    8e2c:	02c9      	lsls	r1, r1, #11
    8e2e:	430a      	orrs	r2, r1
    8e30:	601a      	str	r2, [r3, #0]
F:\WorkSpace\AHL-GEC-EXP\Temp\PWM_Music\Debug/srcc/timer.c:122
  LPTMR0_PSR |= LPTMR_PSR_PCS(1) | LPTMR_PSR_PBYP_MASK;
    8e32:	4b0e      	ldr	r3, [pc, #56]	; (8e6c <lptmr_init+0x5c>)
    8e34:	685a      	ldr	r2, [r3, #4]
    8e36:	4b0d      	ldr	r3, [pc, #52]	; (8e6c <lptmr_init+0x5c>)
    8e38:	2105      	movs	r1, #5
    8e3a:	430a      	orrs	r2, r1
    8e3c:	605a      	str	r2, [r3, #4]
F:\WorkSpace\AHL-GEC-EXP\Temp\PWM_Music\Debug/srcc/timer.c:123
  compare_value = time_ms;
    8e3e:	230e      	movs	r3, #14
    8e40:	446b      	add	r3, sp
    8e42:	9a01      	ldr	r2, [sp, #4]
    8e44:	801a      	strh	r2, [r3, #0]
F:\WorkSpace\AHL-GEC-EXP\Temp\PWM_Music\Debug/srcc/timer.c:124
  LPTMR0_CMR = LPTMR_CMR_COMPARE(compare_value);  //设置比较寄存器值
    8e46:	4b09      	ldr	r3, [pc, #36]	; (8e6c <lptmr_init+0x5c>)
    8e48:	220e      	movs	r2, #14
    8e4a:	446a      	add	r2, sp
    8e4c:	8812      	ldrh	r2, [r2, #0]
    8e4e:	609a      	str	r2, [r3, #8]
F:\WorkSpace\AHL-GEC-EXP\Temp\PWM_Music\Debug/srcc/timer.c:125
  LPTMR0_CSR |= LPTMR_CSR_TEN_MASK;               //开启LPTMR模块设置
    8e50:	4b06      	ldr	r3, [pc, #24]	; (8e6c <lptmr_init+0x5c>)
    8e52:	681a      	ldr	r2, [r3, #0]
    8e54:	4b05      	ldr	r3, [pc, #20]	; (8e6c <lptmr_init+0x5c>)
    8e56:	2101      	movs	r1, #1
    8e58:	430a      	orrs	r2, r1
    8e5a:	601a      	str	r2, [r3, #0]
F:\WorkSpace\AHL-GEC-EXP\Temp\PWM_Music\Debug/srcc/timer.c:126
}
    8e5c:	46c0      	nop			; (mov r8, r8)
    8e5e:	b004      	add	sp, #16
    8e60:	4770      	bx	lr
    8e62:	46c0      	nop			; (mov r8, r8)
    8e64:	40047000 	.word	0x40047000
    8e68:	00001038 	.word	0x00001038
    8e6c:	40040000 	.word	0x40040000

00008e70 <lptmr_enable_int>:
lptmr_enable_int():
F:\WorkSpace\AHL-GEC-EXP\Temp\PWM_Music\Debug/srcc/timer.c:143
//函数名称：lptmr_enable_int
//函数返回：无
//参数说明：无
//功能概要：LPTMR模块使能，开启LPTMR模块中断及定时器中断
//============================================================================
void lptmr_enable_int(void) {
    8e70:	b510      	push	{r4, lr}
F:\WorkSpace\AHL-GEC-EXP\Temp\PWM_Music\Debug/srcc/timer.c:144
  LPTMR0_CSR |= LPTMR_CSR_TIE_MASK;  //开启LPTMR定时器中断
    8e72:	4b05      	ldr	r3, [pc, #20]	; (8e88 <lptmr_enable_int+0x18>)
    8e74:	681a      	ldr	r2, [r3, #0]
    8e76:	4b04      	ldr	r3, [pc, #16]	; (8e88 <lptmr_enable_int+0x18>)
    8e78:	2140      	movs	r1, #64	; 0x40
    8e7a:	430a      	orrs	r2, r1
    8e7c:	601a      	str	r2, [r3, #0]
F:\WorkSpace\AHL-GEC-EXP\Temp\PWM_Music\Debug/srcc/timer.c:145
  NVIC_EnableIRQ(LPTMR0_IRQn);       //开引脚的IRQ中断
    8e7e:	201c      	movs	r0, #28
    8e80:	f7ff ff38 	bl	8cf4 <NVIC_EnableIRQ>
F:\WorkSpace\AHL-GEC-EXP\Temp\PWM_Music\Debug/srcc/timer.c:146
}
    8e84:	46c0      	nop			; (mov r8, r8)
    8e86:	bd10      	pop	{r4, pc}
    8e88:	40040000 	.word	0x40040000

00008e8c <tpm_timer_init>:
tpm_timer_init():
F:\WorkSpace\AHL-GEC-EXP\Temp\PWM_Music\Debug/srcc/timer.c:167
//参数说明： TPM_i：模块号，可用参数可参见gec.h文件
//        f：计数器频率，单位：Khz，取值：375、750、1500、3000、6000、12000、24000、48000
//        MOD_Value：计数器计数间隔时间，单位：ms，(f*MOD_Value-1)的范围为0~65535
//函数返回： 无
//===================================================================
void tpm_timer_init(uint16_t TPM_i, uint32_t f, float MOD_Value) {
    8e8c:	b510      	push	{r4, lr}
    8e8e:	b088      	sub	sp, #32
    8e90:	9102      	str	r1, [sp, #8]
    8e92:	9201      	str	r2, [sp, #4]
    8e94:	230e      	movs	r3, #14
    8e96:	446b      	add	r3, sp
    8e98:	1c02      	adds	r2, r0, #0
    8e9a:	801a      	strh	r2, [r3, #0]
F:\WorkSpace\AHL-GEC-EXP\Temp\PWM_Music\Debug/srcc/timer.c:172
  //局部变量声明
  uint32_t clk_f, clk_div;
  uint16_t mod;
  // 1. 开启SIM时钟门
  BSET(SIM_SCGC6_TPM0_SHIFT + TPM_i, SIM_SCGC6);
    8e9c:	4a50      	ldr	r2, [pc, #320]	; (8fe0 <tpm_timer_init+0x154>)
    8e9e:	4b51      	ldr	r3, [pc, #324]	; (8fe4 <tpm_timer_init+0x158>)
    8ea0:	58d3      	ldr	r3, [r2, r3]
    8ea2:	220e      	movs	r2, #14
    8ea4:	446a      	add	r2, sp
    8ea6:	8812      	ldrh	r2, [r2, #0]
    8ea8:	3218      	adds	r2, #24
    8eaa:	2101      	movs	r1, #1
    8eac:	4091      	lsls	r1, r2
    8eae:	000a      	movs	r2, r1
    8eb0:	494b      	ldr	r1, [pc, #300]	; (8fe0 <tpm_timer_init+0x154>)
    8eb2:	4313      	orrs	r3, r2
    8eb4:	4a4b      	ldr	r2, [pc, #300]	; (8fe4 <tpm_timer_init+0x158>)
    8eb6:	508b      	str	r3, [r1, r2]
F:\WorkSpace\AHL-GEC-EXP\Temp\PWM_Music\Debug/srcc/timer.c:173
  TPM_ARR[TPM_i]->SC = 0;  //关闭该模块的计数器功能，确保未重复开启
    8eb8:	230e      	movs	r3, #14
    8eba:	446b      	add	r3, sp
    8ebc:	881a      	ldrh	r2, [r3, #0]
    8ebe:	4b4a      	ldr	r3, [pc, #296]	; (8fe8 <tpm_timer_init+0x15c>)
    8ec0:	0092      	lsls	r2, r2, #2
    8ec2:	58d3      	ldr	r3, [r2, r3]
    8ec4:	2200      	movs	r2, #0
    8ec6:	601a      	str	r2, [r3, #0]
F:\WorkSpace\AHL-GEC-EXP\Temp\PWM_Music\Debug/srcc/timer.c:175
  // 2.开启时钟，默认选择用PLL/2时钟源，即48MHz
  SIM_SOPT2 |= SIM_SOPT2_TPMSRC(1);
    8ec8:	4a45      	ldr	r2, [pc, #276]	; (8fe0 <tpm_timer_init+0x154>)
    8eca:	4b48      	ldr	r3, [pc, #288]	; (8fec <tpm_timer_init+0x160>)
    8ecc:	58d3      	ldr	r3, [r2, r3]
    8ece:	4944      	ldr	r1, [pc, #272]	; (8fe0 <tpm_timer_init+0x154>)
    8ed0:	2280      	movs	r2, #128	; 0x80
    8ed2:	0452      	lsls	r2, r2, #17
    8ed4:	4313      	orrs	r3, r2
    8ed6:	4a45      	ldr	r2, [pc, #276]	; (8fec <tpm_timer_init+0x160>)
    8ed8:	508b      	str	r3, [r1, r2]
F:\WorkSpace\AHL-GEC-EXP\Temp\PWM_Music\Debug/srcc/timer.c:176
  SIM_SOPT2 &= ~SIM_SOPT2_PLLFLLSEL_MASK;
    8eda:	4a41      	ldr	r2, [pc, #260]	; (8fe0 <tpm_timer_init+0x154>)
    8edc:	4b43      	ldr	r3, [pc, #268]	; (8fec <tpm_timer_init+0x160>)
    8ede:	58d3      	ldr	r3, [r2, r3]
    8ee0:	493f      	ldr	r1, [pc, #252]	; (8fe0 <tpm_timer_init+0x154>)
    8ee2:	4a43      	ldr	r2, [pc, #268]	; (8ff0 <tpm_timer_init+0x164>)
    8ee4:	4013      	ands	r3, r2
    8ee6:	4a41      	ldr	r2, [pc, #260]	; (8fec <tpm_timer_init+0x160>)
    8ee8:	508b      	str	r3, [r1, r2]
F:\WorkSpace\AHL-GEC-EXP\Temp\PWM_Music\Debug/srcc/timer.c:179
  // 3. 由期望的时钟频率f，计算分频因子clk_div。因分频系数clk_f=48000/f,
  //则分频因子clk_div=sqrt(clk_f)。例如：f=3000Khz,则clk_f=16，clk_div=4
  clk_f = 48000 / f;
    8eea:	9902      	ldr	r1, [sp, #8]
    8eec:	4841      	ldr	r0, [pc, #260]	; (8ff4 <tpm_timer_init+0x168>)
    8eee:	f7fd fedb 	bl	6ca8 <__udivsi3>
    8ef2:	0003      	movs	r3, r0
    8ef4:	9307      	str	r3, [sp, #28]
F:\WorkSpace\AHL-GEC-EXP\Temp\PWM_Music\Debug/srcc/timer.c:180
  clk_div = 0;
    8ef6:	2300      	movs	r3, #0
    8ef8:	9306      	str	r3, [sp, #24]
F:\WorkSpace\AHL-GEC-EXP\Temp\PWM_Music\Debug/srcc/timer.c:181
  while (clk_f > 1) {
    8efa:	e005      	b.n	8f08 <tpm_timer_init+0x7c>
F:\WorkSpace\AHL-GEC-EXP\Temp\PWM_Music\Debug/srcc/timer.c:182
    clk_div++;
    8efc:	9b06      	ldr	r3, [sp, #24]
    8efe:	3301      	adds	r3, #1
    8f00:	9306      	str	r3, [sp, #24]
F:\WorkSpace\AHL-GEC-EXP\Temp\PWM_Music\Debug/srcc/timer.c:183
    clk_f = clk_f / 2;
    8f02:	9b07      	ldr	r3, [sp, #28]
    8f04:	085b      	lsrs	r3, r3, #1
    8f06:	9307      	str	r3, [sp, #28]
F:\WorkSpace\AHL-GEC-EXP\Temp\PWM_Music\Debug/srcc/timer.c:181
  while (clk_f > 1) {
    8f08:	9b07      	ldr	r3, [sp, #28]
    8f0a:	2b01      	cmp	r3, #1
    8f0c:	d8f6      	bhi.n	8efc <tpm_timer_init+0x70>
F:\WorkSpace\AHL-GEC-EXP\Temp\PWM_Music\Debug/srcc/timer.c:186
  }
  // 4. 计数器清零
  TPM_ARR[TPM_i]->CNT = 0;
    8f0e:	230e      	movs	r3, #14
    8f10:	446b      	add	r3, sp
    8f12:	881a      	ldrh	r2, [r3, #0]
    8f14:	4b34      	ldr	r3, [pc, #208]	; (8fe8 <tpm_timer_init+0x15c>)
    8f16:	0092      	lsls	r2, r2, #2
    8f18:	58d3      	ldr	r3, [r2, r3]
    8f1a:	2200      	movs	r2, #0
    8f1c:	605a      	str	r2, [r3, #4]
F:\WorkSpace\AHL-GEC-EXP\Temp\PWM_Music\Debug/srcc/timer.c:188
  // 5. 设置模数寄存器
  if (f * MOD_Value > 65535) {
    8f1e:	9802      	ldr	r0, [sp, #8]
    8f20:	f7fe ff02 	bl	7d28 <__aeabi_ui2f>
    8f24:	1c03      	adds	r3, r0, #0
    8f26:	9901      	ldr	r1, [sp, #4]
    8f28:	1c18      	adds	r0, r3, #0
    8f2a:	f7fe fbb5 	bl	7698 <__aeabi_fmul>
    8f2e:	1c03      	adds	r3, r0, #0
    8f30:	4931      	ldr	r1, [pc, #196]	; (8ff8 <tpm_timer_init+0x16c>)
    8f32:	1c18      	adds	r0, r3, #0
    8f34:	f7fe f892 	bl	705c <__aeabi_fcmpgt>
    8f38:	1e03      	subs	r3, r0, #0
    8f3a:	d005      	beq.n	8f48 <tpm_timer_init+0xbc>
F:\WorkSpace\AHL-GEC-EXP\Temp\PWM_Music\Debug/srcc/timer.c:189
    mod = 65535;
    8f3c:	2316      	movs	r3, #22
    8f3e:	446b      	add	r3, sp
    8f40:	2201      	movs	r2, #1
    8f42:	4252      	negs	r2, r2
    8f44:	801a      	strh	r2, [r3, #0]
    8f46:	e029      	b.n	8f9c <tpm_timer_init+0x110>
F:\WorkSpace\AHL-GEC-EXP\Temp\PWM_Music\Debug/srcc/timer.c:190
  } else if (f * MOD_Value <= 0) {
    8f48:	9802      	ldr	r0, [sp, #8]
    8f4a:	f7fe feed 	bl	7d28 <__aeabi_ui2f>
    8f4e:	1c03      	adds	r3, r0, #0
    8f50:	9901      	ldr	r1, [sp, #4]
    8f52:	1c18      	adds	r0, r3, #0
    8f54:	f7fe fba0 	bl	7698 <__aeabi_fmul>
    8f58:	1c03      	adds	r3, r0, #0
    8f5a:	2100      	movs	r1, #0
    8f5c:	1c18      	adds	r0, r3, #0
    8f5e:	f7fe f873 	bl	7048 <__aeabi_fcmple>
    8f62:	1e03      	subs	r3, r0, #0
    8f64:	d004      	beq.n	8f70 <tpm_timer_init+0xe4>
F:\WorkSpace\AHL-GEC-EXP\Temp\PWM_Music\Debug/srcc/timer.c:191
    mod = 0;
    8f66:	2316      	movs	r3, #22
    8f68:	446b      	add	r3, sp
    8f6a:	2200      	movs	r2, #0
    8f6c:	801a      	strh	r2, [r3, #0]
    8f6e:	e015      	b.n	8f9c <tpm_timer_init+0x110>
F:\WorkSpace\AHL-GEC-EXP\Temp\PWM_Music\Debug/srcc/timer.c:193
  } else {
    mod = f * MOD_Value - 1;
    8f70:	9802      	ldr	r0, [sp, #8]
    8f72:	f7fe fed9 	bl	7d28 <__aeabi_ui2f>
    8f76:	1c03      	adds	r3, r0, #0
    8f78:	9901      	ldr	r1, [sp, #4]
    8f7a:	1c18      	adds	r0, r3, #0
    8f7c:	f7fe fb8c 	bl	7698 <__aeabi_fmul>
    8f80:	1c03      	adds	r3, r0, #0
    8f82:	21fe      	movs	r1, #254	; 0xfe
    8f84:	0589      	lsls	r1, r1, #22
    8f86:	1c18      	adds	r0, r3, #0
    8f88:	f7fe fca0 	bl	78cc <__aeabi_fsub>
    8f8c:	1c03      	adds	r3, r0, #0
    8f8e:	2416      	movs	r4, #22
    8f90:	446c      	add	r4, sp
    8f92:	1c18      	adds	r0, r3, #0
    8f94:	f7fe f896 	bl	70c4 <__aeabi_f2uiz>
    8f98:	0003      	movs	r3, r0
    8f9a:	8023      	strh	r3, [r4, #0]
F:\WorkSpace\AHL-GEC-EXP\Temp\PWM_Music\Debug/srcc/timer.c:195
  }
  TPM_ARR[TPM_i]->MOD = mod;  //给模数寄存器赋值
    8f9c:	230e      	movs	r3, #14
    8f9e:	446b      	add	r3, sp
    8fa0:	881a      	ldrh	r2, [r3, #0]
    8fa2:	4b11      	ldr	r3, [pc, #68]	; (8fe8 <tpm_timer_init+0x15c>)
    8fa4:	0092      	lsls	r2, r2, #2
    8fa6:	58d3      	ldr	r3, [r2, r3]
    8fa8:	2216      	movs	r2, #22
    8faa:	446a      	add	r2, sp
    8fac:	8812      	ldrh	r2, [r2, #0]
    8fae:	609a      	str	r2, [r3, #8]
F:\WorkSpace\AHL-GEC-EXP\Temp\PWM_Music\Debug/srcc/timer.c:197
  // 6. 写TPM_i的状态和控制寄存器
  TPM_ARR[TPM_i]->SC |= TPM_SC_CMOD(1) | TPM_SC_PS(clk_div) | TPM_SC_TOIE_MASK;
    8fb0:	230e      	movs	r3, #14
    8fb2:	446b      	add	r3, sp
    8fb4:	881a      	ldrh	r2, [r3, #0]
    8fb6:	4b0c      	ldr	r3, [pc, #48]	; (8fe8 <tpm_timer_init+0x15c>)
    8fb8:	0092      	lsls	r2, r2, #2
    8fba:	58d3      	ldr	r3, [r2, r3]
    8fbc:	681a      	ldr	r2, [r3, #0]
    8fbe:	9b06      	ldr	r3, [sp, #24]
    8fc0:	2107      	movs	r1, #7
    8fc2:	400b      	ands	r3, r1
    8fc4:	431a      	orrs	r2, r3
    8fc6:	230e      	movs	r3, #14
    8fc8:	446b      	add	r3, sp
    8fca:	8819      	ldrh	r1, [r3, #0]
    8fcc:	4b06      	ldr	r3, [pc, #24]	; (8fe8 <tpm_timer_init+0x15c>)
    8fce:	0089      	lsls	r1, r1, #2
    8fd0:	58cb      	ldr	r3, [r1, r3]
    8fd2:	2148      	movs	r1, #72	; 0x48
    8fd4:	430a      	orrs	r2, r1
    8fd6:	601a      	str	r2, [r3, #0]
F:\WorkSpace\AHL-GEC-EXP\Temp\PWM_Music\Debug/srcc/timer.c:198
}
    8fd8:	46c0      	nop			; (mov r8, r8)
    8fda:	b008      	add	sp, #32
    8fdc:	bd10      	pop	{r4, pc}
    8fde:	46c0      	nop			; (mov r8, r8)
    8fe0:	40047000 	.word	0x40047000
    8fe4:	0000103c 	.word	0x0000103c
    8fe8:	20000400 	.word	0x20000400
    8fec:	00001004 	.word	0x00001004
    8ff0:	fffeffff 	.word	0xfffeffff
    8ff4:	0000bb80 	.word	0x0000bb80
    8ff8:	477fff00 	.word	0x477fff00

00008ffc <tpm_enable_int>:
tpm_enable_int():
F:\WorkSpace\AHL-GEC-EXP\Temp\PWM_Music\Debug/srcc/timer.c:206
//函数名称：tpm_enable_int
//功能概要：使能tpm模块中断。
//参数说明：TPM_i：模块号，可用参数可参见gec.h文件
//函数返回：无
//===================================================================
void tpm_enable_int(uint8_t TPM_i) {
    8ffc:	b500      	push	{lr}
    8ffe:	b083      	sub	sp, #12
    9000:	0002      	movs	r2, r0
    9002:	466b      	mov	r3, sp
    9004:	3307      	adds	r3, #7
    9006:	701a      	strb	r2, [r3, #0]
F:\WorkSpace\AHL-GEC-EXP\Temp\PWM_Music\Debug/srcc/timer.c:207
  if (TPM_i > 2) TPM_i = 2;
    9008:	466b      	mov	r3, sp
    900a:	3307      	adds	r3, #7
    900c:	781b      	ldrb	r3, [r3, #0]
    900e:	2b02      	cmp	r3, #2
    9010:	d903      	bls.n	901a <tpm_enable_int+0x1e>
F:\WorkSpace\AHL-GEC-EXP\Temp\PWM_Music\Debug/srcc/timer.c:207 (discriminator 1)
    9012:	466b      	mov	r3, sp
    9014:	3307      	adds	r3, #7
    9016:	2202      	movs	r2, #2
    9018:	701a      	strb	r2, [r3, #0]
F:\WorkSpace\AHL-GEC-EXP\Temp\PWM_Music\Debug/srcc/timer.c:209
  //开TPM中断
  NVIC_EnableIRQ(TPM_IRQ[TPM_i]);
    901a:	466b      	mov	r3, sp
    901c:	3307      	adds	r3, #7
    901e:	781b      	ldrb	r3, [r3, #0]
    9020:	4a03      	ldr	r2, [pc, #12]	; (9030 <tpm_enable_int+0x34>)
    9022:	56d3      	ldrsb	r3, [r2, r3]
    9024:	0018      	movs	r0, r3
    9026:	f7ff fe65 	bl	8cf4 <NVIC_EnableIRQ>
F:\WorkSpace\AHL-GEC-EXP\Temp\PWM_Music\Debug/srcc/timer.c:210
}
    902a:	46c0      	nop			; (mov r8, r8)
    902c:	b003      	add	sp, #12
    902e:	bd00      	pop	{pc}
    9030:	2000040c 	.word	0x2000040c

00009034 <tpm_clear_int>:
tpm_clear_int():
F:\WorkSpace\AHL-GEC-EXP\Temp\PWM_Music\Debug/srcc/timer.c:244
//函数名称：tpm_clear_int
//功能概要：清除TPM中断标志
//参数说明：TPM_i：模块号，可用参数可参见gec.h文件
//函数返回：清除TPM模块中断标志位
//===================================================================
void tpm_clear_int(uint8_t TPM_i) {
    9034:	b082      	sub	sp, #8
    9036:	0002      	movs	r2, r0
    9038:	466b      	mov	r3, sp
    903a:	3307      	adds	r3, #7
    903c:	701a      	strb	r2, [r3, #0]
F:\WorkSpace\AHL-GEC-EXP\Temp\PWM_Music\Debug/srcc/timer.c:246
  //清除TPM_i模块中断标志位
  BSET(TPM_SC_TOF_SHIFT, TPM_SC_REG(TPM_ARR[TPM_i]));
    903e:	466b      	mov	r3, sp
    9040:	3307      	adds	r3, #7
    9042:	781a      	ldrb	r2, [r3, #0]
    9044:	4b07      	ldr	r3, [pc, #28]	; (9064 <tpm_clear_int+0x30>)
    9046:	0092      	lsls	r2, r2, #2
    9048:	58d3      	ldr	r3, [r2, r3]
    904a:	681a      	ldr	r2, [r3, #0]
    904c:	466b      	mov	r3, sp
    904e:	3307      	adds	r3, #7
    9050:	7819      	ldrb	r1, [r3, #0]
    9052:	4b04      	ldr	r3, [pc, #16]	; (9064 <tpm_clear_int+0x30>)
    9054:	0089      	lsls	r1, r1, #2
    9056:	58cb      	ldr	r3, [r1, r3]
    9058:	2180      	movs	r1, #128	; 0x80
    905a:	430a      	orrs	r2, r1
    905c:	601a      	str	r2, [r3, #0]
F:\WorkSpace\AHL-GEC-EXP\Temp\PWM_Music\Debug/srcc/timer.c:247
}
    905e:	46c0      	nop			; (mov r8, r8)
    9060:	b002      	add	sp, #8
    9062:	4770      	bx	lr
    9064:	20000400 	.word	0x20000400

00009068 <SystemInit>:
SystemInit():
F:\WorkSpace\AHL-GEC-EXP\Temp\PWM_Music\Debug/srcc/system_MKL36Z4.c:112
    //看门狗默认为开启，而且复位之后只能开启或关闭看门狗一次
    //SIM_COPC &= ~SIM_COPC_COPT_MASK;    //DISABLE_WDOG 

    /* System clock initialization */
    /* SIM_CLKDIV1: OUTDIV1=0,??=0,??=0,??=0,??=0,??=0,??=0,??=0,??=0,??=0,OUTDIV4=3,??=0,??=0,??=0,??=0,??=0,??=0,??=0,??=0,??=0,??=0,??=0,??=0,??=0,??=0,??=0,??=0 */
    SIM_CLKDIV1 = (SIM_CLKDIV1_OUTDIV1(0x00) | SIM_CLKDIV1_OUTDIV4(0x03)); /* Set the system prescalers to safe value */
    9068:	493b      	ldr	r1, [pc, #236]	; (9158 <SystemInit+0xf0>)
    906a:	4a3c      	ldr	r2, [pc, #240]	; (915c <SystemInit+0xf4>)
    906c:	23c0      	movs	r3, #192	; 0xc0
    906e:	029b      	lsls	r3, r3, #10
    9070:	508b      	str	r3, [r1, r2]
F:\WorkSpace\AHL-GEC-EXP\Temp\PWM_Music\Debug/srcc/system_MKL36Z4.c:114
    /* SIM_SCGC5: PORTA=1 */
    SIM_SCGC5 |= SIM_SCGC5_PORTA_MASK;   /* Enable clock gate for ports to enable pin routing */
    9072:	4a39      	ldr	r2, [pc, #228]	; (9158 <SystemInit+0xf0>)
    9074:	4b3a      	ldr	r3, [pc, #232]	; (9160 <SystemInit+0xf8>)
    9076:	58d3      	ldr	r3, [r2, r3]
    9078:	4937      	ldr	r1, [pc, #220]	; (9158 <SystemInit+0xf0>)
    907a:	2280      	movs	r2, #128	; 0x80
    907c:	0092      	lsls	r2, r2, #2
    907e:	4313      	orrs	r3, r2
    9080:	4a37      	ldr	r2, [pc, #220]	; (9160 <SystemInit+0xf8>)
    9082:	508b      	str	r3, [r1, r2]
F:\WorkSpace\AHL-GEC-EXP\Temp\PWM_Music\Debug/srcc/system_MKL36Z4.c:115
    if ((PMC_REGSC & PMC_REGSC_ACKISO_MASK) != 0x0U) {
    9084:	4b37      	ldr	r3, [pc, #220]	; (9164 <SystemInit+0xfc>)
    9086:	789b      	ldrb	r3, [r3, #2]
    9088:	b2db      	uxtb	r3, r3
    908a:	001a      	movs	r2, r3
    908c:	2308      	movs	r3, #8
    908e:	4013      	ands	r3, r2
    9090:	d007      	beq.n	90a2 <SystemInit+0x3a>
F:\WorkSpace\AHL-GEC-EXP\Temp\PWM_Music\Debug/srcc/system_MKL36Z4.c:117
        /* PMC_REGSC: ACKISO=1 */
        PMC_REGSC |= PMC_REGSC_ACKISO_MASK; /* Release IO pads after wakeup from VLLS mode. */
    9092:	4b34      	ldr	r3, [pc, #208]	; (9164 <SystemInit+0xfc>)
    9094:	789b      	ldrb	r3, [r3, #2]
    9096:	b2db      	uxtb	r3, r3
    9098:	4a32      	ldr	r2, [pc, #200]	; (9164 <SystemInit+0xfc>)
    909a:	2108      	movs	r1, #8
    909c:	430b      	orrs	r3, r1
    909e:	b2db      	uxtb	r3, r3
    90a0:	7093      	strb	r3, [r2, #2]
F:\WorkSpace\AHL-GEC-EXP\Temp\PWM_Music\Debug/srcc/system_MKL36Z4.c:120
    }
    /* SIM_CLKDIV1: OUTDIV1=0,??=0,??=0,??=0,??=0,??=0,??=0,??=0,??=0,??=0,OUTDIV4=1,??=0,??=0,??=0,??=0,??=0,??=0,??=0,??=0,??=0,??=0,??=0,??=0,??=0,??=0,??=0,??=0 */
    SIM_CLKDIV1 = (SIM_CLKDIV1_OUTDIV1(0x00) | SIM_CLKDIV1_OUTDIV4(0x01)); /* Update system prescalers */
    90a2:	492d      	ldr	r1, [pc, #180]	; (9158 <SystemInit+0xf0>)
    90a4:	4a2d      	ldr	r2, [pc, #180]	; (915c <SystemInit+0xf4>)
    90a6:	2380      	movs	r3, #128	; 0x80
    90a8:	025b      	lsls	r3, r3, #9
    90aa:	508b      	str	r3, [r1, r2]
F:\WorkSpace\AHL-GEC-EXP\Temp\PWM_Music\Debug/srcc/system_MKL36Z4.c:122
    /* SIM_SOPT2: ??=0,PLLFLLSEL=0 */
    SIM_SOPT2 &= (uint32_t)~(uint32_t)((SIM_SOPT2_PLLFLLSEL_MASK | 0x00020000U)); /* Select FLL as a clock source for various peripherals */
    90ac:	4a2a      	ldr	r2, [pc, #168]	; (9158 <SystemInit+0xf0>)
    90ae:	4b2e      	ldr	r3, [pc, #184]	; (9168 <SystemInit+0x100>)
    90b0:	58d3      	ldr	r3, [r2, r3]
    90b2:	4929      	ldr	r1, [pc, #164]	; (9158 <SystemInit+0xf0>)
    90b4:	4a2d      	ldr	r2, [pc, #180]	; (916c <SystemInit+0x104>)
    90b6:	4013      	ands	r3, r2
    90b8:	4a2b      	ldr	r2, [pc, #172]	; (9168 <SystemInit+0x100>)
    90ba:	508b      	str	r3, [r1, r2]
F:\WorkSpace\AHL-GEC-EXP\Temp\PWM_Music\Debug/srcc/system_MKL36Z4.c:124
    /* SIM_SOPT1: OSC32KSEL=0 */
    SIM_SOPT1 &= (uint32_t)~(uint32_t)(SIM_SOPT1_OSC32KSEL(0x03)); /* System oscillator drives 32 kHz clock for various peripherals */
    90bc:	4b26      	ldr	r3, [pc, #152]	; (9158 <SystemInit+0xf0>)
    90be:	681a      	ldr	r2, [r3, #0]
    90c0:	4b25      	ldr	r3, [pc, #148]	; (9158 <SystemInit+0xf0>)
    90c2:	492b      	ldr	r1, [pc, #172]	; (9170 <SystemInit+0x108>)
    90c4:	400a      	ands	r2, r1
    90c6:	601a      	str	r2, [r3, #0]
F:\WorkSpace\AHL-GEC-EXP\Temp\PWM_Music\Debug/srcc/system_MKL36Z4.c:126
    /* SIM_SOPT2: TPMSRC=1 */
    SIM_SOPT2 = (uint32_t)((SIM_SOPT2 & (uint32_t)~(uint32_t)(
    90c8:	4a23      	ldr	r2, [pc, #140]	; (9158 <SystemInit+0xf0>)
    90ca:	4b27      	ldr	r3, [pc, #156]	; (9168 <SystemInit+0x100>)
    90cc:	58d3      	ldr	r3, [r2, r3]
    90ce:	4a29      	ldr	r2, [pc, #164]	; (9174 <SystemInit+0x10c>)
    90d0:	4013      	ands	r3, r2
    90d2:	4921      	ldr	r1, [pc, #132]	; (9158 <SystemInit+0xf0>)
    90d4:	2280      	movs	r2, #128	; 0x80
    90d6:	0452      	lsls	r2, r2, #17
    90d8:	4313      	orrs	r3, r2
    90da:	4a23      	ldr	r2, [pc, #140]	; (9168 <SystemInit+0x100>)
    90dc:	508b      	str	r3, [r1, r2]
F:\WorkSpace\AHL-GEC-EXP\Temp\PWM_Music\Debug/srcc/system_MKL36Z4.c:133
    )) | (uint32_t)(
            SIM_SOPT2_TPMSRC(0x01)
    ));                      /* Set the TPM clock */
    /* Switch to FEI Mode */
    /* MCG_C1: CLKS=0,FRDIV=0,IREFS=1,IRCLKEN=1,IREFSTEN=0 */
    MCG_C1 = MCG_C1_CLKS(0x00) |
    90de:	4b26      	ldr	r3, [pc, #152]	; (9178 <SystemInit+0x110>)
    90e0:	2206      	movs	r2, #6
    90e2:	701a      	strb	r2, [r3, #0]
F:\WorkSpace\AHL-GEC-EXP\Temp\PWM_Music\Debug/srcc/system_MKL36Z4.c:138
            MCG_C1_FRDIV(0x00) |
            MCG_C1_IREFS_MASK |
            MCG_C1_IRCLKEN_MASK;
    /* MCG_C2: LOCRE0=0,RANGE0=0,HGO0=0,EREFS0=0,LP=0,IRCS=0 */
    MCG_C2 &= (uint8_t)~(uint8_t)(
    90e4:	4b24      	ldr	r3, [pc, #144]	; (9178 <SystemInit+0x110>)
    90e6:	785b      	ldrb	r3, [r3, #1]
    90e8:	b2db      	uxtb	r3, r3
    90ea:	4a23      	ldr	r2, [pc, #140]	; (9178 <SystemInit+0x110>)
    90ec:	2140      	movs	r1, #64	; 0x40
    90ee:	400b      	ands	r3, r1
    90f0:	b2db      	uxtb	r3, r3
    90f2:	7053      	strb	r3, [r2, #1]
F:\WorkSpace\AHL-GEC-EXP\Temp\PWM_Music\Debug/srcc/system_MKL36Z4.c:147
            MCG_C2_EREFS0_MASK |
            MCG_C2_LP_MASK |
            MCG_C2_IRCS_MASK
    );
    /* MCG_C4: DMX32=1,DRST_DRS=1 */
    MCG_C4 = (uint8_t)((MCG_C4 & (uint8_t)~(uint8_t)(
    90f4:	4b20      	ldr	r3, [pc, #128]	; (9178 <SystemInit+0x110>)
    90f6:	78db      	ldrb	r3, [r3, #3]
    90f8:	b2db      	uxtb	r3, r3
    90fa:	b25b      	sxtb	r3, r3
F:\WorkSpace\AHL-GEC-EXP\Temp\PWM_Music\Debug/srcc/system_MKL36Z4.c:149
            MCG_C4_DRST_DRS(0x02)
    )) | (uint8_t)(
    90fc:	221f      	movs	r2, #31
    90fe:	4013      	ands	r3, r2
    9100:	b25b      	sxtb	r3, r3
    9102:	2260      	movs	r2, #96	; 0x60
    9104:	4252      	negs	r2, r2
    9106:	4313      	orrs	r3, r2
    9108:	b25a      	sxtb	r2, r3
F:\WorkSpace\AHL-GEC-EXP\Temp\PWM_Music\Debug/srcc/system_MKL36Z4.c:147
    MCG_C4 = (uint8_t)((MCG_C4 & (uint8_t)~(uint8_t)(
    910a:	4b1b      	ldr	r3, [pc, #108]	; (9178 <SystemInit+0x110>)
    910c:	b2d2      	uxtb	r2, r2
    910e:	70da      	strb	r2, [r3, #3]
F:\WorkSpace\AHL-GEC-EXP\Temp\PWM_Music\Debug/srcc/system_MKL36Z4.c:154
            MCG_C4_DMX32_MASK |
            MCG_C4_DRST_DRS(0x01)
    ));
    /* OSC0_CR: ERCLKEN=0,??=0,EREFSTEN=0,??=0,SC2P=0,SC4P=0,SC8P=0,SC16P=0 */
    OSC0_CR = 0x00U;
    9110:	4b1a      	ldr	r3, [pc, #104]	; (917c <SystemInit+0x114>)
    9112:	2200      	movs	r2, #0
    9114:	701a      	strb	r2, [r3, #0]
F:\WorkSpace\AHL-GEC-EXP\Temp\PWM_Music\Debug/srcc/system_MKL36Z4.c:156
    /* MCG_C5: ??=0,PLLCLKEN0=0,PLLSTEN0=0,PRDIV0=0 */
    MCG_C5 = MCG_C5_PRDIV0(0x00);
    9116:	4b18      	ldr	r3, [pc, #96]	; (9178 <SystemInit+0x110>)
    9118:	2200      	movs	r2, #0
    911a:	711a      	strb	r2, [r3, #4]
F:\WorkSpace\AHL-GEC-EXP\Temp\PWM_Music\Debug/srcc/system_MKL36Z4.c:158
    /* MCG_C6: LOLIE0=0,PLLS=0,CME0=0,VDIV0=0 */
    MCG_C6 = MCG_C6_VDIV0(0x00);
    911c:	4b16      	ldr	r3, [pc, #88]	; (9178 <SystemInit+0x110>)
    911e:	2200      	movs	r2, #0
    9120:	715a      	strb	r2, [r3, #5]
F:\WorkSpace\AHL-GEC-EXP\Temp\PWM_Music\Debug/srcc/system_MKL36Z4.c:159
    while((MCG_S & MCG_S_IREFST_MASK) == 0x00U) { /* Check that the source of the FLL reference clock is the internal reference clock. */
    9122:	46c0      	nop			; (mov r8, r8)
F:\WorkSpace\AHL-GEC-EXP\Temp\PWM_Music\Debug/srcc/system_MKL36Z4.c:159 (discriminator 1)
    9124:	4b14      	ldr	r3, [pc, #80]	; (9178 <SystemInit+0x110>)
    9126:	799b      	ldrb	r3, [r3, #6]
    9128:	b2db      	uxtb	r3, r3
    912a:	001a      	movs	r2, r3
    912c:	2310      	movs	r3, #16
    912e:	4013      	ands	r3, r2
    9130:	d0f8      	beq.n	9124 <SystemInit+0xbc>
F:\WorkSpace\AHL-GEC-EXP\Temp\PWM_Music\Debug/srcc/system_MKL36Z4.c:161
    }
    while((MCG_S & 0x0CU) != 0x00U) {    /* Wait until output of the FLL is selected */
    9132:	46c0      	nop			; (mov r8, r8)
F:\WorkSpace\AHL-GEC-EXP\Temp\PWM_Music\Debug/srcc/system_MKL36Z4.c:161 (discriminator 1)
    9134:	4b10      	ldr	r3, [pc, #64]	; (9178 <SystemInit+0x110>)
    9136:	799b      	ldrb	r3, [r3, #6]
    9138:	b2db      	uxtb	r3, r3
    913a:	001a      	movs	r2, r3
    913c:	230c      	movs	r3, #12
    913e:	4013      	ands	r3, r2
    9140:	d1f8      	bne.n	9134 <SystemInit+0xcc>
F:\WorkSpace\AHL-GEC-EXP\Temp\PWM_Music\Debug/srcc/system_MKL36Z4.c:234
    //        if (((MCG_S & MCG_S_CLKST_MASK) >> MCG_S_CLKST_SHIFT) == 0x3) break;
    //    }
    //    //4.现在处于PEE模式

    //开启PORT模块时钟
    SIM->SCGC5 |= SIM_SCGC5_PORTA_MASK
    9142:	4a05      	ldr	r2, [pc, #20]	; (9158 <SystemInit+0xf0>)
    9144:	4b06      	ldr	r3, [pc, #24]	; (9160 <SystemInit+0xf8>)
    9146:	58d3      	ldr	r3, [r2, r3]
    9148:	4903      	ldr	r1, [pc, #12]	; (9158 <SystemInit+0xf0>)
    914a:	22f8      	movs	r2, #248	; 0xf8
    914c:	0192      	lsls	r2, r2, #6
    914e:	4313      	orrs	r3, r2
    9150:	4a03      	ldr	r2, [pc, #12]	; (9160 <SystemInit+0xf8>)
    9152:	508b      	str	r3, [r1, r2]
F:\WorkSpace\AHL-GEC-EXP\Temp\PWM_Music\Debug/srcc/system_MKL36Z4.c:239
            | SIM_SCGC5_PORTB_MASK
            | SIM_SCGC5_PORTC_MASK
            | SIM_SCGC5_PORTD_MASK
            | SIM_SCGC5_PORTE_MASK;
}
    9154:	46c0      	nop			; (mov r8, r8)
    9156:	4770      	bx	lr
    9158:	40047000 	.word	0x40047000
    915c:	00001044 	.word	0x00001044
    9160:	00001038 	.word	0x00001038
    9164:	4007d000 	.word	0x4007d000
    9168:	00001004 	.word	0x00001004
    916c:	fffcffff 	.word	0xfffcffff
    9170:	fff3ffff 	.word	0xfff3ffff
    9174:	fcffffff 	.word	0xfcffffff
    9178:	40064000 	.word	0x40064000
    917c:	40065000 	.word	0x40065000

00009180 <main>:
main():
F:\WorkSpace\AHL-GEC-EXP\Temp\PWM_Music\Debug/srcc/main.c:17
//声明使用到的内部函数
// main.c使用的内部函数声明处
void delay_ms(uint32_t ms);
//----------------------------------------------------------------------
//主函数，一般情况下可以认为程序从此开始运行（实际上有启动过程见书稿）
int main(void) {
    9180:	b500      	push	{lr}
    9182:	b083      	sub	sp, #12
F:\WorkSpace\AHL-GEC-EXP\Temp\PWM_Music\Debug/srcc/main.c:19
  //（1.2）【不变】关总中断
  DISABLE_INTERRUPTS;
    9184:	b672      	cpsid	i
F:\WorkSpace\AHL-GEC-EXP\Temp\PWM_Music\Debug/srcc/main.c:20
  wdog_stop();
    9186:	f000 f961 	bl	944c <wdog_stop>
F:\WorkSpace\AHL-GEC-EXP\Temp\PWM_Music\Debug/srcc/main.c:22

  gSelect = 0;
    918a:	4b21      	ldr	r3, [pc, #132]	; (9210 <main+0x90>)
    918c:	2200      	movs	r2, #0
    918e:	701a      	strb	r2, [r3, #0]
F:\WorkSpace\AHL-GEC-EXP\Temp\PWM_Music\Debug/srcc/main.c:26

  // 初始化发送串口和接收串口
  //============================================================
  pwm_init(PWM_USER, 3, 5753, 0, PWM_EDGE, PWM_PLUS);
    9190:	2100      	movs	r1, #0
    9192:	4a20      	ldr	r2, [pc, #128]	; (9214 <main+0x94>)
    9194:	4820      	ldr	r0, [pc, #128]	; (9218 <main+0x98>)
    9196:	2300      	movs	r3, #0
    9198:	9301      	str	r3, [sp, #4]
    919a:	2300      	movs	r3, #0
    919c:	9300      	str	r3, [sp, #0]
    919e:	1c0b      	adds	r3, r1, #0
    91a0:	2103      	movs	r1, #3
    91a2:	f000 f963 	bl	946c <pwm_init>
F:\WorkSpace\AHL-GEC-EXP\Temp\PWM_Music\Debug/srcc/main.c:27
  timer_init(TIMER_USER, 1);
    91a6:	2101      	movs	r1, #1
    91a8:	2001      	movs	r0, #1
    91aa:	f7ff fdb9 	bl	8d20 <timer_init>
F:\WorkSpace\AHL-GEC-EXP\Temp\PWM_Music\Debug/srcc/main.c:28
  uart_init(UART_User, 115200);
    91ae:	23e1      	movs	r3, #225	; 0xe1
    91b0:	025b      	lsls	r3, r3, #9
    91b2:	0019      	movs	r1, r3
    91b4:	2000      	movs	r0, #0
    91b6:	f000 fd29 	bl	9c0c <uart_init>
F:\WorkSpace\AHL-GEC-EXP\Temp\PWM_Music\Debug/srcc/main.c:31

  // 使能串口接收中断
  timer_enable_int(TIMER_USER);
    91ba:	2001      	movs	r0, #1
    91bc:	f7ff fdde 	bl	8d7c <timer_enable_int>
F:\WorkSpace\AHL-GEC-EXP\Temp\PWM_Music\Debug/srcc/main.c:32
  uart_enable_re_int(UART_User);
    91c0:	2000      	movs	r0, #0
    91c2:	f000 ff17 	bl	9ff4 <uart_enable_re_int>
F:\WorkSpace\AHL-GEC-EXP\Temp\PWM_Music\Debug/srcc/main.c:35

  //（1.7）【不变】开总中断
  ENABLE_INTERRUPTS;
    91c6:	b662      	cpsie	i
F:\WorkSpace\AHL-GEC-EXP\Temp\PWM_Music\Debug/srcc/main.c:38
  //（2）======主循环部分（结尾）========================================
  for (;;) {
    playStart();
    91c8:	f000 ff88 	bl	a0dc <playStart>
F:\WorkSpace\AHL-GEC-EXP\Temp\PWM_Music\Debug/srcc/main.c:39
    switch (gSelect) {
    91cc:	4b10      	ldr	r3, [pc, #64]	; (9210 <main+0x90>)
    91ce:	781b      	ldrb	r3, [r3, #0]
    91d0:	2b03      	cmp	r3, #3
    91d2:	d011      	beq.n	91f8 <main+0x78>
    91d4:	dc13      	bgt.n	91fe <main+0x7e>
    91d6:	2b02      	cmp	r3, #2
    91d8:	d00b      	beq.n	91f2 <main+0x72>
    91da:	dc10      	bgt.n	91fe <main+0x7e>
    91dc:	2b00      	cmp	r3, #0
    91de:	d002      	beq.n	91e6 <main+0x66>
    91e0:	2b01      	cmp	r3, #1
    91e2:	d003      	beq.n	91ec <main+0x6c>
    91e4:	e00b      	b.n	91fe <main+0x7e>
F:\WorkSpace\AHL-GEC-EXP\Temp\PWM_Music\Debug/srcc/main.c:41
      case 0:
        playHappyBirthday();
    91e6:	f000 ffc3 	bl	a170 <playHappyBirthday>
F:\WorkSpace\AHL-GEC-EXP\Temp\PWM_Music\Debug/srcc/main.c:42
        break;
    91ea:	e00b      	b.n	9204 <main+0x84>
F:\WorkSpace\AHL-GEC-EXP\Temp\PWM_Music\Debug/srcc/main.c:44
      case 1:
        playFarewell();
    91ec:	f001 f95e 	bl	a4ac <playFarewell>
F:\WorkSpace\AHL-GEC-EXP\Temp\PWM_Music\Debug/srcc/main.c:45
        break;
    91f0:	e008      	b.n	9204 <main+0x84>
F:\WorkSpace\AHL-GEC-EXP\Temp\PWM_Music\Debug/srcc/main.c:47
      case 2:
        playMyth();
    91f2:	f001 f863 	bl	a2bc <playMyth>
F:\WorkSpace\AHL-GEC-EXP\Temp\PWM_Music\Debug/srcc/main.c:48
        break;
    91f6:	e005      	b.n	9204 <main+0x84>
F:\WorkSpace\AHL-GEC-EXP\Temp\PWM_Music\Debug/srcc/main.c:50
      case 3:
        playTenderLines();
    91f8:	f001 fb04 	bl	a804 <playTenderLines>
F:\WorkSpace\AHL-GEC-EXP\Temp\PWM_Music\Debug/srcc/main.c:51
        break;
    91fc:	e002      	b.n	9204 <main+0x84>
F:\WorkSpace\AHL-GEC-EXP\Temp\PWM_Music\Debug/srcc/main.c:53
      default:
        playStart();
    91fe:	f000 ff6d 	bl	a0dc <playStart>
F:\WorkSpace\AHL-GEC-EXP\Temp\PWM_Music\Debug/srcc/main.c:54
        break;
    9202:	46c0      	nop			; (mov r8, r8)
F:\WorkSpace\AHL-GEC-EXP\Temp\PWM_Music\Debug/srcc/main.c:58
    }

    // SPI数据发送
    printf("Hello, World!\n");
    9204:	4b05      	ldr	r3, [pc, #20]	; (921c <main+0x9c>)
    9206:	0018      	movs	r0, r3
    9208:	f002 fcae 	bl	bb68 <myprintf>
F:\WorkSpace\AHL-GEC-EXP\Temp\PWM_Music\Debug/srcc/main.c:38
    playStart();
    920c:	e7dc      	b.n	91c8 <main+0x48>
    920e:	46c0      	nop			; (mov r8, r8)
    9210:	200004a8 	.word	0x200004a8
    9214:	00001679 	.word	0x00001679
    9218:	00000203 	.word	0x00000203
    921c:	0000bbc8 	.word	0x0000bbc8

00009220 <flash_erase>:
flash_erase():
F:\WorkSpace\AHL-GEC-EXP\Temp\PWM_Music\Debug/srcc/flash.c:50
//函数返回：函数执行执行状态：0=正常；1=异常。
//参数说明：sect：目标扇区号（范围取决于实际芯片，见mcu.h）
//功能概要：擦除flash存储器的sect扇区
//======================================================================
uint8_t flash_erase(uint16_t sect)
{
    9220:	b500      	push	{lr}
    9222:	b085      	sub	sp, #20
    9224:	0002      	movs	r2, r0
    9226:	466b      	mov	r3, sp
    9228:	3306      	adds	r3, #6
    922a:	801a      	strh	r2, [r3, #0]
F:\WorkSpace\AHL-GEC-EXP\Temp\PWM_Music\Debug/srcc/flash.c:57
    {
        uint32_t  word;
        uint8_t   byte[4];
    } dest;
    
    dest.word    = (uint32_t)(sect*(1<<10));
    922c:	466b      	mov	r3, sp
    922e:	3306      	adds	r3, #6
    9230:	881b      	ldrh	r3, [r3, #0]
    9232:	029b      	lsls	r3, r3, #10
    9234:	9303      	str	r3, [sp, #12]
F:\WorkSpace\AHL-GEC-EXP\Temp\PWM_Music\Debug/srcc/flash.c:60

    // 设置擦除命令
    FTFA_FCCOB0 = ERSSCR; // 擦除扇区命令
    9236:	4b1f      	ldr	r3, [pc, #124]	; (92b4 <flash_erase+0x94>)
    9238:	2209      	movs	r2, #9
    923a:	71da      	strb	r2, [r3, #7]
F:\WorkSpace\AHL-GEC-EXP\Temp\PWM_Music\Debug/srcc/flash.c:63
    
    // 设置目标地址
    FTFA_FCCOB1 = dest.byte[2];
    923c:	4a1d      	ldr	r2, [pc, #116]	; (92b4 <flash_erase+0x94>)
    923e:	ab03      	add	r3, sp, #12
    9240:	789b      	ldrb	r3, [r3, #2]
    9242:	7193      	strb	r3, [r2, #6]
F:\WorkSpace\AHL-GEC-EXP\Temp\PWM_Music\Debug/srcc/flash.c:64
    FTFA_FCCOB2 = dest.byte[1];
    9244:	4a1b      	ldr	r2, [pc, #108]	; (92b4 <flash_erase+0x94>)
    9246:	ab03      	add	r3, sp, #12
    9248:	785b      	ldrb	r3, [r3, #1]
    924a:	7153      	strb	r3, [r2, #5]
F:\WorkSpace\AHL-GEC-EXP\Temp\PWM_Music\Debug/srcc/flash.c:65
    FTFA_FCCOB3 = dest.byte[0];
    924c:	4a19      	ldr	r2, [pc, #100]	; (92b4 <flash_erase+0x94>)
    924e:	ab03      	add	r3, sp, #12
    9250:	781b      	ldrb	r3, [r3, #0]
    9252:	7113      	strb	r3, [r2, #4]
F:\WorkSpace\AHL-GEC-EXP\Temp\PWM_Music\Debug/srcc/flash.c:68
    
    // 执行命令序列
    if(1 == flash_cmd_launch())    //若执行命令出现错误
    9254:	f000 f8c6 	bl	93e4 <flash_cmd_launch>
    9258:	0003      	movs	r3, r0
    925a:	2b01      	cmp	r3, #1
    925c:	d101      	bne.n	9262 <flash_erase+0x42>
F:\WorkSpace\AHL-GEC-EXP\Temp\PWM_Music\Debug/srcc/flash.c:69
        return 1;     //擦除命令错误
    925e:	2301      	movs	r3, #1
    9260:	e024      	b.n	92ac <flash_erase+0x8c>
F:\WorkSpace\AHL-GEC-EXP\Temp\PWM_Music\Debug/srcc/flash.c:73
   
    // 若擦除sector0时，则解锁设备
//    if(dest.word <= 0x800)
    if(dest.word < 0x400)
    9262:	9a03      	ldr	r2, [sp, #12]
    9264:	2380      	movs	r3, #128	; 0x80
    9266:	00db      	lsls	r3, r3, #3
    9268:	429a      	cmp	r2, r3
    926a:	d21e      	bcs.n	92aa <flash_erase+0x8a>
F:\WorkSpace\AHL-GEC-EXP\Temp\PWM_Music\Debug/srcc/flash.c:76
    {
        // 写入4字节
        FTFA_FCCOB0 = PGM4; 
    926c:	4b11      	ldr	r3, [pc, #68]	; (92b4 <flash_erase+0x94>)
    926e:	2206      	movs	r2, #6
    9270:	71da      	strb	r2, [r3, #7]
F:\WorkSpace\AHL-GEC-EXP\Temp\PWM_Music\Debug/srcc/flash.c:78
        // 设置目标地址
        FTFA_FCCOB1 = 0x00;
    9272:	4b10      	ldr	r3, [pc, #64]	; (92b4 <flash_erase+0x94>)
    9274:	2200      	movs	r2, #0
    9276:	719a      	strb	r2, [r3, #6]
F:\WorkSpace\AHL-GEC-EXP\Temp\PWM_Music\Debug/srcc/flash.c:79
        FTFA_FCCOB2 = 0x04;
    9278:	4b0e      	ldr	r3, [pc, #56]	; (92b4 <flash_erase+0x94>)
    927a:	2204      	movs	r2, #4
    927c:	715a      	strb	r2, [r3, #5]
F:\WorkSpace\AHL-GEC-EXP\Temp\PWM_Music\Debug/srcc/flash.c:80
        FTFA_FCCOB3 = 0x0C;
    927e:	4b0d      	ldr	r3, [pc, #52]	; (92b4 <flash_erase+0x94>)
    9280:	220c      	movs	r2, #12
    9282:	711a      	strb	r2, [r3, #4]
F:\WorkSpace\AHL-GEC-EXP\Temp\PWM_Music\Debug/srcc/flash.c:82
        // 数据
        FTFA_FCCOB4 = 0xFF;
    9284:	4b0b      	ldr	r3, [pc, #44]	; (92b4 <flash_erase+0x94>)
    9286:	22ff      	movs	r2, #255	; 0xff
    9288:	72da      	strb	r2, [r3, #11]
F:\WorkSpace\AHL-GEC-EXP\Temp\PWM_Music\Debug/srcc/flash.c:83
        FTFA_FCCOB5 = 0xFF;
    928a:	4b0a      	ldr	r3, [pc, #40]	; (92b4 <flash_erase+0x94>)
    928c:	22ff      	movs	r2, #255	; 0xff
    928e:	729a      	strb	r2, [r3, #10]
F:\WorkSpace\AHL-GEC-EXP\Temp\PWM_Music\Debug/srcc/flash.c:84
        FTFA_FCCOB6 = 0xFF;
    9290:	4b08      	ldr	r3, [pc, #32]	; (92b4 <flash_erase+0x94>)
    9292:	22ff      	movs	r2, #255	; 0xff
    9294:	725a      	strb	r2, [r3, #9]
F:\WorkSpace\AHL-GEC-EXP\Temp\PWM_Music\Debug/srcc/flash.c:85
        FTFA_FCCOB7 = 0xFE;
    9296:	4b07      	ldr	r3, [pc, #28]	; (92b4 <flash_erase+0x94>)
    9298:	22fe      	movs	r2, #254	; 0xfe
    929a:	721a      	strb	r2, [r3, #8]
F:\WorkSpace\AHL-GEC-EXP\Temp\PWM_Music\Debug/srcc/flash.c:87
        // 执行命令序列
        if(1 == flash_cmd_launch())  //若执行命令出现错误
    929c:	f000 f8a2 	bl	93e4 <flash_cmd_launch>
    92a0:	0003      	movs	r3, r0
    92a2:	2b01      	cmp	r3, #1
    92a4:	d101      	bne.n	92aa <flash_erase+0x8a>
F:\WorkSpace\AHL-GEC-EXP\Temp\PWM_Music\Debug/srcc/flash.c:88
            return 2;   //解锁命令错误
    92a6:	2302      	movs	r3, #2
    92a8:	e000      	b.n	92ac <flash_erase+0x8c>
F:\WorkSpace\AHL-GEC-EXP\Temp\PWM_Music\Debug/srcc/flash.c:91
    }  
    
    return 0;  //成功返回
    92aa:	2300      	movs	r3, #0
F:\WorkSpace\AHL-GEC-EXP\Temp\PWM_Music\Debug/srcc/flash.c:92 (discriminator 1)
}
    92ac:	0018      	movs	r0, r3
    92ae:	b005      	add	sp, #20
    92b0:	bd00      	pop	{pc}
    92b2:	46c0      	nop			; (mov r8, r8)
    92b4:	40020000 	.word	0x40020000

000092b8 <flash_write_physical>:
flash_write_physical():
F:\WorkSpace\AHL-GEC-EXP\Temp\PWM_Music\Debug/srcc/flash.c:147
//        N：写字节数目（0~1020,要求为4，8,12,......）
//        buf：写入数据存放处
//功能概要：读取flash指定地址的内容
//========================================================================
uint8_t flash_write_physical(uint32_t destaddr,uint16_t N,uint8_t *buf)
{
    92b8:	b500      	push	{lr}
    92ba:	b087      	sub	sp, #28
    92bc:	9003      	str	r0, [sp, #12]
    92be:	9201      	str	r2, [sp, #4]
    92c0:	230a      	movs	r3, #10
    92c2:	446b      	add	r3, sp
    92c4:	1c0a      	adds	r2, r1, #0
    92c6:	801a      	strh	r2, [r3, #0]
F:\WorkSpace\AHL-GEC-EXP\Temp\PWM_Music\Debug/srcc/flash.c:156
        uint32_t   word;
        uint8_t  byte[4];
    } dest;

    // 设置写入命令
    FTFA_FCCOB0 = PGM4;
    92c8:	4b1e      	ldr	r3, [pc, #120]	; (9344 <flash_write_physical+0x8c>)
    92ca:	2206      	movs	r2, #6
    92cc:	71da      	strb	r2, [r3, #7]
F:\WorkSpace\AHL-GEC-EXP\Temp\PWM_Music\Debug/srcc/flash.c:157
    dest.word = destaddr;
    92ce:	9b03      	ldr	r3, [sp, #12]
    92d0:	9304      	str	r3, [sp, #16]
F:\WorkSpace\AHL-GEC-EXP\Temp\PWM_Music\Debug/srcc/flash.c:158
    for(size=0; size<N; size+=4, dest.word+=4, buf+=4)
    92d2:	2300      	movs	r3, #0
    92d4:	9305      	str	r3, [sp, #20]
    92d6:	e02b      	b.n	9330 <flash_write_physical+0x78>
F:\WorkSpace\AHL-GEC-EXP\Temp\PWM_Music\Debug/srcc/flash.c:161
    {
        // 设置目标地址
        FTFA_FCCOB1 = dest.byte[2];
    92d8:	4a1a      	ldr	r2, [pc, #104]	; (9344 <flash_write_physical+0x8c>)
    92da:	ab04      	add	r3, sp, #16
    92dc:	789b      	ldrb	r3, [r3, #2]
    92de:	7193      	strb	r3, [r2, #6]
F:\WorkSpace\AHL-GEC-EXP\Temp\PWM_Music\Debug/srcc/flash.c:162
        FTFA_FCCOB2 = dest.byte[1];
    92e0:	4a18      	ldr	r2, [pc, #96]	; (9344 <flash_write_physical+0x8c>)
    92e2:	ab04      	add	r3, sp, #16
    92e4:	785b      	ldrb	r3, [r3, #1]
    92e6:	7153      	strb	r3, [r2, #5]
F:\WorkSpace\AHL-GEC-EXP\Temp\PWM_Music\Debug/srcc/flash.c:163
        FTFA_FCCOB3 = dest.byte[0];
    92e8:	4a16      	ldr	r2, [pc, #88]	; (9344 <flash_write_physical+0x8c>)
    92ea:	ab04      	add	r3, sp, #16
    92ec:	781b      	ldrb	r3, [r3, #0]
    92ee:	7113      	strb	r3, [r2, #4]
F:\WorkSpace\AHL-GEC-EXP\Temp\PWM_Music\Debug/srcc/flash.c:166

        // 拷贝数据
        FTFA_FCCOB4 = buf[3];//大端寻址
    92f0:	4a14      	ldr	r2, [pc, #80]	; (9344 <flash_write_physical+0x8c>)
    92f2:	9b01      	ldr	r3, [sp, #4]
    92f4:	78db      	ldrb	r3, [r3, #3]
    92f6:	72d3      	strb	r3, [r2, #11]
F:\WorkSpace\AHL-GEC-EXP\Temp\PWM_Music\Debug/srcc/flash.c:167
        FTFA_FCCOB5 = buf[2];
    92f8:	4a12      	ldr	r2, [pc, #72]	; (9344 <flash_write_physical+0x8c>)
    92fa:	9b01      	ldr	r3, [sp, #4]
    92fc:	789b      	ldrb	r3, [r3, #2]
    92fe:	7293      	strb	r3, [r2, #10]
F:\WorkSpace\AHL-GEC-EXP\Temp\PWM_Music\Debug/srcc/flash.c:168
        FTFA_FCCOB6 = buf[1];
    9300:	4a10      	ldr	r2, [pc, #64]	; (9344 <flash_write_physical+0x8c>)
    9302:	9b01      	ldr	r3, [sp, #4]
    9304:	785b      	ldrb	r3, [r3, #1]
    9306:	7253      	strb	r3, [r2, #9]
F:\WorkSpace\AHL-GEC-EXP\Temp\PWM_Music\Debug/srcc/flash.c:169
        FTFA_FCCOB7 = buf[0];
    9308:	4a0e      	ldr	r2, [pc, #56]	; (9344 <flash_write_physical+0x8c>)
    930a:	9b01      	ldr	r3, [sp, #4]
    930c:	781b      	ldrb	r3, [r3, #0]
    930e:	7213      	strb	r3, [r2, #8]
F:\WorkSpace\AHL-GEC-EXP\Temp\PWM_Music\Debug/srcc/flash.c:171

        if(1 == flash_cmd_launch())
    9310:	f000 f868 	bl	93e4 <flash_cmd_launch>
    9314:	0003      	movs	r3, r0
    9316:	2b01      	cmp	r3, #1
    9318:	d101      	bne.n	931e <flash_write_physical+0x66>
F:\WorkSpace\AHL-GEC-EXP\Temp\PWM_Music\Debug/srcc/flash.c:172
            return 2;  //写入命令错误
    931a:	2302      	movs	r3, #2
    931c:	e00f      	b.n	933e <flash_write_physical+0x86>
F:\WorkSpace\AHL-GEC-EXP\Temp\PWM_Music\Debug/srcc/flash.c:158 (discriminator 2)
    for(size=0; size<N; size+=4, dest.word+=4, buf+=4)
    931e:	9b05      	ldr	r3, [sp, #20]
    9320:	3304      	adds	r3, #4
    9322:	9305      	str	r3, [sp, #20]
    9324:	9b04      	ldr	r3, [sp, #16]
    9326:	3304      	adds	r3, #4
    9328:	9304      	str	r3, [sp, #16]
    932a:	9b01      	ldr	r3, [sp, #4]
    932c:	3304      	adds	r3, #4
    932e:	9301      	str	r3, [sp, #4]
F:\WorkSpace\AHL-GEC-EXP\Temp\PWM_Music\Debug/srcc/flash.c:158 (discriminator 1)
    9330:	230a      	movs	r3, #10
    9332:	446b      	add	r3, sp
    9334:	881b      	ldrh	r3, [r3, #0]
    9336:	9a05      	ldr	r2, [sp, #20]
    9338:	429a      	cmp	r2, r3
    933a:	d3cd      	bcc.n	92d8 <flash_write_physical+0x20>
F:\WorkSpace\AHL-GEC-EXP\Temp\PWM_Music\Debug/srcc/flash.c:175
    }

    return 0;  //成功执行
    933c:	2300      	movs	r3, #0
F:\WorkSpace\AHL-GEC-EXP\Temp\PWM_Music\Debug/srcc/flash.c:176 (discriminator 1)
}
    933e:	0018      	movs	r0, r3
    9340:	b007      	add	sp, #28
    9342:	bd00      	pop	{pc}
    9344:	40020000 	.word	0x40020000

00009348 <flash_read_physical>:
flash_read_physical():
F:\WorkSpace\AHL-GEC-EXP\Temp\PWM_Music\Debug/srcc/flash.c:203
//       addr：目标地址，要求为4的倍数（例如：0x00000004）
//       N：读字节数目（0~1020,要求为4，8,12,......）
//功能概要：读取flash指定地址的内容
//======================================================================
void flash_read_physical(uint8_t *dest,uint32_t addr,uint16_t N)
{
    9348:	b500      	push	{lr}
    934a:	b087      	sub	sp, #28
    934c:	9003      	str	r0, [sp, #12]
    934e:	9102      	str	r1, [sp, #8]
    9350:	466b      	mov	r3, sp
    9352:	3306      	adds	r3, #6
    9354:	801a      	strh	r2, [r3, #0]
F:\WorkSpace\AHL-GEC-EXP\Temp\PWM_Music\Debug/srcc/flash.c:205
	uint8_t *src;
	src=(uint8_t *)addr;
    9356:	9b02      	ldr	r3, [sp, #8]
    9358:	9305      	str	r3, [sp, #20]
F:\WorkSpace\AHL-GEC-EXP\Temp\PWM_Music\Debug/srcc/flash.c:206
	memcpy(dest,src,N);
    935a:	466b      	mov	r3, sp
    935c:	3306      	adds	r3, #6
    935e:	881a      	ldrh	r2, [r3, #0]
    9360:	9905      	ldr	r1, [sp, #20]
    9362:	9b03      	ldr	r3, [sp, #12]
    9364:	0018      	movs	r0, r3
    9366:	f002 fc1d 	bl	bba4 <memcpy>
F:\WorkSpace\AHL-GEC-EXP\Temp\PWM_Music\Debug/srcc/flash.c:207
}
    936a:	46c0      	nop			; (mov r8, r8)
    936c:	b007      	add	sp, #28
    936e:	bd00      	pop	{pc}

00009370 <flash_isempty>:
flash_isempty():
F:\WorkSpace\AHL-GEC-EXP\Temp\PWM_Music\Debug/srcc/flash.c:249
//函数返回：1=目标区域为空；0=目标区域非空。
//参数说明：所要探测的flash区域扇区号及字节数
//功能概要：flash判空操作
//========================================================================
uint8_t flash_isempty(uint16_t sect,uint16_t N)
{
    9370:	b084      	sub	sp, #16
    9372:	0002      	movs	r2, r0
    9374:	466b      	mov	r3, sp
    9376:	3306      	adds	r3, #6
    9378:	801a      	strh	r2, [r3, #0]
    937a:	ab01      	add	r3, sp, #4
    937c:	1c0a      	adds	r2, r1, #0
    937e:	801a      	strh	r2, [r3, #0]
F:\WorkSpace\AHL-GEC-EXP\Temp\PWM_Music\Debug/srcc/flash.c:252
   uint16_t i,flag;
   uint8_t* buff;
   i = 0;
    9380:	230e      	movs	r3, #14
    9382:	446b      	add	r3, sp
    9384:	2200      	movs	r2, #0
    9386:	801a      	strh	r2, [r3, #0]
F:\WorkSpace\AHL-GEC-EXP\Temp\PWM_Music\Debug/srcc/flash.c:253
   flag = 1;
    9388:	ab03      	add	r3, sp, #12
    938a:	2201      	movs	r2, #1
    938c:	801a      	strh	r2, [r3, #0]
F:\WorkSpace\AHL-GEC-EXP\Temp\PWM_Music\Debug/srcc/flash.c:254
   for(i = 0; i<N; i++)   //遍历区域内字节
    938e:	230e      	movs	r3, #14
    9390:	446b      	add	r3, sp
    9392:	2200      	movs	r2, #0
    9394:	801a      	strh	r2, [r3, #0]
    9396:	e017      	b.n	93c8 <flash_isempty+0x58>
F:\WorkSpace\AHL-GEC-EXP\Temp\PWM_Music\Debug/srcc/flash.c:256
   {
	  buff=(uint8_t*)(sect*0x400);
    9398:	466b      	mov	r3, sp
    939a:	3306      	adds	r3, #6
    939c:	881b      	ldrh	r3, [r3, #0]
    939e:	029b      	lsls	r3, r3, #10
    93a0:	9302      	str	r3, [sp, #8]
F:\WorkSpace\AHL-GEC-EXP\Temp\PWM_Music\Debug/srcc/flash.c:257
      if(buff[i]!=0xff)   //非空
    93a2:	230e      	movs	r3, #14
    93a4:	446b      	add	r3, sp
    93a6:	881b      	ldrh	r3, [r3, #0]
    93a8:	9a02      	ldr	r2, [sp, #8]
    93aa:	18d3      	adds	r3, r2, r3
    93ac:	781b      	ldrb	r3, [r3, #0]
    93ae:	2bff      	cmp	r3, #255	; 0xff
    93b0:	d003      	beq.n	93ba <flash_isempty+0x4a>
F:\WorkSpace\AHL-GEC-EXP\Temp\PWM_Music\Debug/srcc/flash.c:259
      {
      	  flag=0;
    93b2:	ab03      	add	r3, sp, #12
    93b4:	2200      	movs	r2, #0
    93b6:	801a      	strh	r2, [r3, #0]
F:\WorkSpace\AHL-GEC-EXP\Temp\PWM_Music\Debug/srcc/flash.c:260
          break;
    93b8:	e00d      	b.n	93d6 <flash_isempty+0x66>
F:\WorkSpace\AHL-GEC-EXP\Temp\PWM_Music\Debug/srcc/flash.c:254 (discriminator 2)
   for(i = 0; i<N; i++)   //遍历区域内字节
    93ba:	230e      	movs	r3, #14
    93bc:	446b      	add	r3, sp
    93be:	881a      	ldrh	r2, [r3, #0]
    93c0:	230e      	movs	r3, #14
    93c2:	446b      	add	r3, sp
    93c4:	3201      	adds	r2, #1
    93c6:	801a      	strh	r2, [r3, #0]
F:\WorkSpace\AHL-GEC-EXP\Temp\PWM_Music\Debug/srcc/flash.c:254 (discriminator 1)
    93c8:	220e      	movs	r2, #14
    93ca:	446a      	add	r2, sp
    93cc:	ab01      	add	r3, sp, #4
    93ce:	8812      	ldrh	r2, [r2, #0]
    93d0:	881b      	ldrh	r3, [r3, #0]
    93d2:	429a      	cmp	r2, r3
    93d4:	d3e0      	bcc.n	9398 <flash_isempty+0x28>
F:\WorkSpace\AHL-GEC-EXP\Temp\PWM_Music\Debug/srcc/flash.c:263
       }
   }
   return flag;
    93d6:	ab03      	add	r3, sp, #12
    93d8:	881b      	ldrh	r3, [r3, #0]
    93da:	b2db      	uxtb	r3, r3
F:\WorkSpace\AHL-GEC-EXP\Temp\PWM_Music\Debug/srcc/flash.c:264
}
    93dc:	0018      	movs	r0, r3
    93de:	b004      	add	sp, #16
    93e0:	4770      	bx	lr
	...

000093e4 <flash_cmd_launch>:
flash_cmd_launch():
F:\WorkSpace\AHL-GEC-EXP\Temp\PWM_Music\Debug/srcc/flash.c:339
//函数返回：0-成功 1-失败
//参数说明：无
//功能概要：启动Flash命令
//======================================================================
uint32_t flash_cmd_launch(void)
{
    93e4:	b082      	sub	sp, #8
F:\WorkSpace\AHL-GEC-EXP\Temp\PWM_Music\Debug/srcc/flash.c:340
	uint8_t irq_flag=0;
    93e6:	466b      	mov	r3, sp
    93e8:	3307      	adds	r3, #7
    93ea:	2200      	movs	r2, #0
    93ec:	701a      	strb	r2, [r3, #0]
F:\WorkSpace\AHL-GEC-EXP\Temp\PWM_Music\Debug/srcc/flash.c:342
    // 清除访问错误标志位和非法访问标志位
    FTFA_FSTAT = ACCERR | FPVIOL;
    93ee:	4b16      	ldr	r3, [pc, #88]	; (9448 <flash_cmd_launch+0x64>)
    93f0:	2230      	movs	r2, #48	; 0x30
    93f2:	701a      	strb	r2, [r3, #0]
__get_PRIMASK():
F:\WorkSpace\AHL-GEC-EXP\Temp\PWM_Music\02_CPU/core_cmFunc.h:484
 */
__attribute__( ( always_inline ) ) __STATIC_INLINE uint32_t __get_PRIMASK(void)
{
  uint32_t result;

  __ASM volatile ("MRS %0, primask" : "=r" (result) );
    93f4:	f3ef 8310 	mrs	r3, PRIMASK
    93f8:	9300      	str	r3, [sp, #0]
F:\WorkSpace\AHL-GEC-EXP\Temp\PWM_Music\02_CPU/core_cmFunc.h:485
  return(result);
    93fa:	9b00      	ldr	r3, [sp, #0]
flash_cmd_launch():
F:\WorkSpace\AHL-GEC-EXP\Temp\PWM_Music\Debug/srcc/flash.c:343
    if(__get_PRIMASK() == 0U)
    93fc:	2b00      	cmp	r3, #0
    93fe:	d105      	bne.n	940c <flash_cmd_launch+0x28>
__disable_irq():
F:\WorkSpace\AHL-GEC-EXP\Temp\PWM_Music\02_CPU/core_cmFunc.h:344
  __ASM volatile ("cpsid i" : : : "memory");
    9400:	b672      	cpsid	i
F:\WorkSpace\AHL-GEC-EXP\Temp\PWM_Music\02_CPU/core_cmFunc.h:345
}
    9402:	46c0      	nop			; (mov r8, r8)
flash_cmd_launch():
F:\WorkSpace\AHL-GEC-EXP\Temp\PWM_Music\Debug/srcc/flash.c:346
    {
    	__disable_irq();  //关总中断
    	irq_flag = 1;
    9404:	466b      	mov	r3, sp
    9406:	3307      	adds	r3, #7
    9408:	2201      	movs	r2, #1
    940a:	701a      	strb	r2, [r3, #0]
F:\WorkSpace\AHL-GEC-EXP\Temp\PWM_Music\Debug/srcc/flash.c:349
    }
    // 启动命令
    FTFA_FSTAT = CCIF;
    940c:	4b0e      	ldr	r3, [pc, #56]	; (9448 <flash_cmd_launch+0x64>)
    940e:	2280      	movs	r2, #128	; 0x80
    9410:	701a      	strb	r2, [r3, #0]
F:\WorkSpace\AHL-GEC-EXP\Temp\PWM_Music\Debug/srcc/flash.c:351
    // 等待命令结束
    while(!(FTFA_FSTAT & CCIF));
    9412:	46c0      	nop			; (mov r8, r8)
F:\WorkSpace\AHL-GEC-EXP\Temp\PWM_Music\Debug/srcc/flash.c:351 (discriminator 1)
    9414:	4b0c      	ldr	r3, [pc, #48]	; (9448 <flash_cmd_launch+0x64>)
    9416:	781b      	ldrb	r3, [r3, #0]
    9418:	b2db      	uxtb	r3, r3
    941a:	b25b      	sxtb	r3, r3
    941c:	2b00      	cmp	r3, #0
    941e:	daf9      	bge.n	9414 <flash_cmd_launch+0x30>
F:\WorkSpace\AHL-GEC-EXP\Temp\PWM_Music\Debug/srcc/flash.c:352
    if(irq_flag == 1)
    9420:	466b      	mov	r3, sp
    9422:	3307      	adds	r3, #7
    9424:	781b      	ldrb	r3, [r3, #0]
    9426:	2b01      	cmp	r3, #1
    9428:	d101      	bne.n	942e <flash_cmd_launch+0x4a>
__enable_irq():
F:\WorkSpace\AHL-GEC-EXP\Temp\PWM_Music\02_CPU/core_cmFunc.h:333
  __ASM volatile ("cpsie i" : : : "memory");
    942a:	b662      	cpsie	i
F:\WorkSpace\AHL-GEC-EXP\Temp\PWM_Music\02_CPU/core_cmFunc.h:334
}
    942c:	46c0      	nop			; (mov r8, r8)
flash_cmd_launch():
F:\WorkSpace\AHL-GEC-EXP\Temp\PWM_Music\Debug/srcc/flash.c:357
    {
    	__enable_irq();  //开总中断
    }
    // 检查错误标志
    if(FTFA_FSTAT & (ACCERR | FPVIOL | MGSTAT0))
    942e:	4b06      	ldr	r3, [pc, #24]	; (9448 <flash_cmd_launch+0x64>)
    9430:	781b      	ldrb	r3, [r3, #0]
    9432:	b2db      	uxtb	r3, r3
    9434:	001a      	movs	r2, r3
    9436:	2331      	movs	r3, #49	; 0x31
    9438:	4013      	ands	r3, r2
    943a:	d001      	beq.n	9440 <flash_cmd_launch+0x5c>
F:\WorkSpace\AHL-GEC-EXP\Temp\PWM_Music\Debug/srcc/flash.c:358
        return 1 ; //执行命令出错
    943c:	2301      	movs	r3, #1
    943e:	e000      	b.n	9442 <flash_cmd_launch+0x5e>
F:\WorkSpace\AHL-GEC-EXP\Temp\PWM_Music\Debug/srcc/flash.c:359
    return 0; //执行命令成功
    9440:	2300      	movs	r3, #0
F:\WorkSpace\AHL-GEC-EXP\Temp\PWM_Music\Debug/srcc/flash.c:360
}
    9442:	0018      	movs	r0, r3
    9444:	b002      	add	sp, #8
    9446:	4770      	bx	lr
    9448:	40020000 	.word	0x40020000

0000944c <wdog_stop>:
wdog_stop():
F:\WorkSpace\AHL-GEC-EXP\Temp\PWM_Music\Debug/srcc/wdog.c:40
//参数说明：无
//函数返回：无
//=========================================================================
void wdog_stop()
{
    SIM_COPC &= ~SIM_COPC_COPT_MASK;
    944c:	4a06      	ldr	r2, [pc, #24]	; (9468 <wdog_stop+0x1c>)
    944e:	2388      	movs	r3, #136	; 0x88
    9450:	015b      	lsls	r3, r3, #5
    9452:	58d3      	ldr	r3, [r2, r3]
    9454:	4904      	ldr	r1, [pc, #16]	; (9468 <wdog_stop+0x1c>)
    9456:	220c      	movs	r2, #12
    9458:	4393      	bics	r3, r2
    945a:	001a      	movs	r2, r3
    945c:	2388      	movs	r3, #136	; 0x88
    945e:	015b      	lsls	r3, r3, #5
    9460:	50ca      	str	r2, [r1, r3]
F:\WorkSpace\AHL-GEC-EXP\Temp\PWM_Music\Debug/srcc/wdog.c:41
}
    9462:	46c0      	nop			; (mov r8, r8)
    9464:	4770      	bx	lr
    9466:	46c0      	nop			; (mov r8, r8)
    9468:	40047000 	.word	0x40047000

0000946c <pwm_init>:
pwm_init():
F:\WorkSpace\AHL-GEC-EXP\Temp\PWM_Music\Debug/srcc/pwm.c:39
//因为GEC中给出的PWM和输入捕捉都是同一模块的，只是通道不同，所以为防止在使用多组
//          PWM和输入捕捉时，频率篡改，需要使得使用到的clockFre和period参数保持一致。
//     占空比：是指高电平在一个周期中所占的时间比例。
//=====================================================================
void pwm_init(uint16_t pwmNo, uint32_t clockFre, uint16_t period, float duty,
              uint8_t align, uint8_t pol) {
    946c:	b510      	push	{r4, lr}
    946e:	b08a      	sub	sp, #40	; 0x28
    9470:	9102      	str	r1, [sp, #8]
    9472:	0011      	movs	r1, r2
    9474:	9301      	str	r3, [sp, #4]
    9476:	230e      	movs	r3, #14
    9478:	446b      	add	r3, sp
    947a:	1c02      	adds	r2, r0, #0
    947c:	801a      	strh	r2, [r3, #0]
    947e:	ab03      	add	r3, sp, #12
    9480:	1c0a      	adds	r2, r1, #0
    9482:	801a      	strh	r2, [r3, #0]
F:\WorkSpace\AHL-GEC-EXP\Temp\PWM_Music\Debug/srcc/pwm.c:46
  uint8_t port, pin;        //解析出的端口、引脚号临时变量
  uint8_t mux_val;          //用于存放获取的复用制
  uint8_t TPM_i, chl;  //由tpmx_Chy解析出的tpm模块号、通道号临时变量
  uint32_t temp;
  // 防止越界
  if (duty > 100.0) duty = 100.0;
    9484:	49d2      	ldr	r1, [pc, #840]	; (97d0 <pwm_init+0x364>)
    9486:	9801      	ldr	r0, [sp, #4]
    9488:	f7fd fde8 	bl	705c <__aeabi_fcmpgt>
    948c:	1e03      	subs	r3, r0, #0
    948e:	d001      	beq.n	9494 <pwm_init+0x28>
F:\WorkSpace\AHL-GEC-EXP\Temp\PWM_Music\Debug/srcc/pwm.c:46 (discriminator 1)
    9490:	4bcf      	ldr	r3, [pc, #828]	; (97d0 <pwm_init+0x364>)
    9492:	9301      	str	r3, [sp, #4]
F:\WorkSpace\AHL-GEC-EXP\Temp\PWM_Music\Debug/srcc/pwm.c:48
  //（1）gpio引脚解析
  port = (pwmNo >> 8);        //解析出的端口
    9494:	230e      	movs	r3, #14
    9496:	446b      	add	r3, sp
    9498:	881b      	ldrh	r3, [r3, #0]
    949a:	0a1b      	lsrs	r3, r3, #8
    949c:	b29a      	uxth	r2, r3
    949e:	2327      	movs	r3, #39	; 0x27
    94a0:	446b      	add	r3, sp
    94a2:	701a      	strb	r2, [r3, #0]
F:\WorkSpace\AHL-GEC-EXP\Temp\PWM_Music\Debug/srcc/pwm.c:49
  pin = pwmNo;                //解析出的引脚号
    94a4:	2326      	movs	r3, #38	; 0x26
    94a6:	446b      	add	r3, sp
    94a8:	220e      	movs	r2, #14
    94aa:	446a      	add	r2, sp
    94ac:	8812      	ldrh	r2, [r2, #0]
    94ae:	701a      	strb	r2, [r3, #0]
F:\WorkSpace\AHL-GEC-EXP\Temp\PWM_Music\Debug/srcc/pwm.c:50
  port_ptr = PORT_ARR[port];  //获得PORT模块相应口基地址
    94b0:	2327      	movs	r3, #39	; 0x27
    94b2:	446b      	add	r3, sp
    94b4:	781a      	ldrb	r2, [r3, #0]
    94b6:	4bc7      	ldr	r3, [pc, #796]	; (97d4 <pwm_init+0x368>)
    94b8:	0092      	lsls	r2, r2, #2
    94ba:	58d3      	ldr	r3, [r2, r3]
    94bc:	9308      	str	r3, [sp, #32]
F:\WorkSpace\AHL-GEC-EXP\Temp\PWM_Music\Debug/srcc/pwm.c:52
  //（2）取得引脚复用值，并获得解析的tpm模块号和通道号
  mux_val = tpm_mux_val(pwmNo, &TPM_i, &chl);
    94be:	241f      	movs	r4, #31
    94c0:	446c      	add	r4, sp
    94c2:	2216      	movs	r2, #22
    94c4:	446a      	add	r2, sp
    94c6:	2117      	movs	r1, #23
    94c8:	4469      	add	r1, sp
    94ca:	230e      	movs	r3, #14
    94cc:	446b      	add	r3, sp
    94ce:	881b      	ldrh	r3, [r3, #0]
    94d0:	0018      	movs	r0, r3
    94d2:	f000 fa03 	bl	98dc <tpm_mux_val>
    94d6:	0003      	movs	r3, r0
    94d8:	7023      	strb	r3, [r4, #0]
F:\WorkSpace\AHL-GEC-EXP\Temp\PWM_Music\Debug/srcc/pwm.c:54
  //（3）根据pin,指定该引脚功能为TPM的通道功能（即令引脚控制寄存器的MUX=mux_val）
  PORT_PCR_REG(port_ptr, pin) &= ~PORT_PCR_MUX_MASK;
    94da:	2326      	movs	r3, #38	; 0x26
    94dc:	446b      	add	r3, sp
    94de:	781a      	ldrb	r2, [r3, #0]
    94e0:	9b08      	ldr	r3, [sp, #32]
    94e2:	0092      	lsls	r2, r2, #2
    94e4:	58d3      	ldr	r3, [r2, r3]
    94e6:	2226      	movs	r2, #38	; 0x26
    94e8:	446a      	add	r2, sp
    94ea:	7812      	ldrb	r2, [r2, #0]
    94ec:	49ba      	ldr	r1, [pc, #744]	; (97d8 <pwm_init+0x36c>)
    94ee:	4019      	ands	r1, r3
    94f0:	9b08      	ldr	r3, [sp, #32]
    94f2:	0092      	lsls	r2, r2, #2
    94f4:	50d1      	str	r1, [r2, r3]
F:\WorkSpace\AHL-GEC-EXP\Temp\PWM_Music\Debug/srcc/pwm.c:55
  PORT_PCR_REG(port_ptr, pin) |= PORT_PCR_MUX(mux_val);
    94f6:	2326      	movs	r3, #38	; 0x26
    94f8:	446b      	add	r3, sp
    94fa:	781a      	ldrb	r2, [r3, #0]
    94fc:	9b08      	ldr	r3, [sp, #32]
    94fe:	0092      	lsls	r2, r2, #2
    9500:	58d1      	ldr	r1, [r2, r3]
    9502:	231f      	movs	r3, #31
    9504:	446b      	add	r3, sp
    9506:	781b      	ldrb	r3, [r3, #0]
    9508:	021a      	lsls	r2, r3, #8
    950a:	23e0      	movs	r3, #224	; 0xe0
    950c:	00db      	lsls	r3, r3, #3
    950e:	4013      	ands	r3, r2
    9510:	2226      	movs	r2, #38	; 0x26
    9512:	446a      	add	r2, sp
    9514:	7812      	ldrb	r2, [r2, #0]
    9516:	4319      	orrs	r1, r3
    9518:	9b08      	ldr	r3, [sp, #32]
    951a:	0092      	lsls	r2, r2, #2
    951c:	50d1      	str	r1, [r2, r3]
F:\WorkSpace\AHL-GEC-EXP\Temp\PWM_Music\Debug/srcc/pwm.c:57
  // 5. PWM对齐方式的设定
  if (align == PWM_CENTER)  //中心对齐
    951e:	ab0c      	add	r3, sp, #48	; 0x30
    9520:	781b      	ldrb	r3, [r3, #0]
    9522:	2b01      	cmp	r3, #1
    9524:	d000      	beq.n	9528 <pwm_init+0xbc>
    9526:	e0ce      	b.n	96c6 <pwm_init+0x25a>
F:\WorkSpace\AHL-GEC-EXP\Temp\PWM_Music\Debug/srcc/pwm.c:59
  {
    tpm_timer_init1(TPM_i, clockFre, period / 2);
    9528:	2317      	movs	r3, #23
    952a:	446b      	add	r3, sp
    952c:	781b      	ldrb	r3, [r3, #0]
    952e:	b298      	uxth	r0, r3
    9530:	ab03      	add	r3, sp, #12
    9532:	881b      	ldrh	r3, [r3, #0]
    9534:	085b      	lsrs	r3, r3, #1
    9536:	b29a      	uxth	r2, r3
    9538:	9b02      	ldr	r3, [sp, #8]
    953a:	0019      	movs	r1, r3
    953c:	f000 fa5e 	bl	99fc <tpm_timer_init1>
F:\WorkSpace\AHL-GEC-EXP\Temp\PWM_Music\Debug/srcc/pwm.c:60
    PWM_ARR[TPM_i]->SC |= TPM_SC_CPWMS_MASK;  //设置中心对齐
    9540:	2317      	movs	r3, #23
    9542:	446b      	add	r3, sp
    9544:	781b      	ldrb	r3, [r3, #0]
    9546:	001a      	movs	r2, r3
    9548:	4ba4      	ldr	r3, [pc, #656]	; (97dc <pwm_init+0x370>)
    954a:	0092      	lsls	r2, r2, #2
    954c:	58d3      	ldr	r3, [r2, r3]
    954e:	681a      	ldr	r2, [r3, #0]
    9550:	2317      	movs	r3, #23
    9552:	446b      	add	r3, sp
    9554:	781b      	ldrb	r3, [r3, #0]
    9556:	0019      	movs	r1, r3
    9558:	4ba0      	ldr	r3, [pc, #640]	; (97dc <pwm_init+0x370>)
    955a:	0089      	lsls	r1, r1, #2
    955c:	58cb      	ldr	r3, [r1, r3]
    955e:	2120      	movs	r1, #32
    9560:	430a      	orrs	r2, r1
    9562:	601a      	str	r2, [r3, #0]
F:\WorkSpace\AHL-GEC-EXP\Temp\PWM_Music\Debug/srcc/pwm.c:61
    TPM_CnSC_REG(PWM_ARR[TPM_i], chl) = 0;
    9564:	2317      	movs	r3, #23
    9566:	446b      	add	r3, sp
    9568:	781b      	ldrb	r3, [r3, #0]
    956a:	001a      	movs	r2, r3
    956c:	4b9b      	ldr	r3, [pc, #620]	; (97dc <pwm_init+0x370>)
    956e:	0092      	lsls	r2, r2, #2
    9570:	58d2      	ldr	r2, [r2, r3]
    9572:	2316      	movs	r3, #22
    9574:	446b      	add	r3, sp
    9576:	781b      	ldrb	r3, [r3, #0]
    9578:	3301      	adds	r3, #1
    957a:	00db      	lsls	r3, r3, #3
    957c:	18d3      	adds	r3, r2, r3
    957e:	3304      	adds	r3, #4
    9580:	2200      	movs	r2, #0
    9582:	601a      	str	r2, [r3, #0]
F:\WorkSpace\AHL-GEC-EXP\Temp\PWM_Music\Debug/srcc/pwm.c:63
    // 6. PWM极性的设定和PWM占空比的设定
    if (pol == PWM_PLUS)  //正极性
    9584:	ab0d      	add	r3, sp, #52	; 0x34
    9586:	781b      	ldrb	r3, [r3, #0]
    9588:	2b00      	cmp	r3, #0
    958a:	d14b      	bne.n	9624 <pwm_init+0x1b8>
F:\WorkSpace\AHL-GEC-EXP\Temp\PWM_Music\Debug/srcc/pwm.c:65
    {
      TPM_CnSC_REG(PWM_ARR[TPM_i], chl) =
    958c:	2317      	movs	r3, #23
    958e:	446b      	add	r3, sp
    9590:	781b      	ldrb	r3, [r3, #0]
    9592:	001a      	movs	r2, r3
    9594:	4b91      	ldr	r3, [pc, #580]	; (97dc <pwm_init+0x370>)
    9596:	0092      	lsls	r2, r2, #2
    9598:	58d2      	ldr	r2, [r2, r3]
    959a:	2316      	movs	r3, #22
    959c:	446b      	add	r3, sp
    959e:	781b      	ldrb	r3, [r3, #0]
    95a0:	3301      	adds	r3, #1
    95a2:	00db      	lsls	r3, r3, #3
    95a4:	18d3      	adds	r3, r2, r3
    95a6:	3304      	adds	r3, #4
    95a8:	2228      	movs	r2, #40	; 0x28
    95aa:	601a      	str	r2, [r3, #0]
F:\WorkSpace\AHL-GEC-EXP\Temp\PWM_Music\Debug/srcc/pwm.c:67
          TPM_CnSC_MSB_MASK | TPM_CnSC_ELSB_MASK;
      temp = (uint32_t)(duty * period / 200);
    95ac:	ab03      	add	r3, sp, #12
    95ae:	881b      	ldrh	r3, [r3, #0]
    95b0:	0018      	movs	r0, r3
    95b2:	f7fe fb73 	bl	7c9c <__aeabi_i2f>
    95b6:	1c03      	adds	r3, r0, #0
    95b8:	9901      	ldr	r1, [sp, #4]
    95ba:	1c18      	adds	r0, r3, #0
    95bc:	f7fe f86c 	bl	7698 <__aeabi_fmul>
    95c0:	1c03      	adds	r3, r0, #0
    95c2:	4987      	ldr	r1, [pc, #540]	; (97e0 <pwm_init+0x374>)
    95c4:	1c18      	adds	r0, r3, #0
    95c6:	f7fd fe9d 	bl	7304 <__aeabi_fdiv>
    95ca:	1c03      	adds	r3, r0, #0
    95cc:	1c18      	adds	r0, r3, #0
    95ce:	f7fd fd79 	bl	70c4 <__aeabi_f2uiz>
    95d2:	0003      	movs	r3, r0
    95d4:	9306      	str	r3, [sp, #24]
F:\WorkSpace\AHL-GEC-EXP\Temp\PWM_Music\Debug/srcc/pwm.c:68
      if (temp >= 65536)
    95d6:	9a06      	ldr	r2, [sp, #24]
    95d8:	2380      	movs	r3, #128	; 0x80
    95da:	025b      	lsls	r3, r3, #9
    95dc:	429a      	cmp	r2, r3
    95de:	d310      	bcc.n	9602 <pwm_init+0x196>
F:\WorkSpace\AHL-GEC-EXP\Temp\PWM_Music\Debug/srcc/pwm.c:69
        TPM_CnV_REG(PWM_ARR[TPM_i], chl) = 65535;
    95e0:	2317      	movs	r3, #23
    95e2:	446b      	add	r3, sp
    95e4:	781b      	ldrb	r3, [r3, #0]
    95e6:	001a      	movs	r2, r3
    95e8:	4b7c      	ldr	r3, [pc, #496]	; (97dc <pwm_init+0x370>)
    95ea:	0092      	lsls	r2, r2, #2
    95ec:	58d2      	ldr	r2, [r2, r3]
    95ee:	2316      	movs	r3, #22
    95f0:	446b      	add	r3, sp
    95f2:	781b      	ldrb	r3, [r3, #0]
    95f4:	3301      	adds	r3, #1
    95f6:	00db      	lsls	r3, r3, #3
    95f8:	18d3      	adds	r3, r2, r3
    95fa:	3308      	adds	r3, #8
    95fc:	4a79      	ldr	r2, [pc, #484]	; (97e4 <pwm_init+0x378>)
    95fe:	601a      	str	r2, [r3, #0]
    9600:	e150      	b.n	98a4 <pwm_init+0x438>
F:\WorkSpace\AHL-GEC-EXP\Temp\PWM_Music\Debug/srcc/pwm.c:71
      else
        TPM_CnV_REG(PWM_ARR[TPM_i], chl) = temp;
    9602:	2317      	movs	r3, #23
    9604:	446b      	add	r3, sp
    9606:	781b      	ldrb	r3, [r3, #0]
    9608:	001a      	movs	r2, r3
    960a:	4b74      	ldr	r3, [pc, #464]	; (97dc <pwm_init+0x370>)
    960c:	0092      	lsls	r2, r2, #2
    960e:	58d2      	ldr	r2, [r2, r3]
    9610:	2316      	movs	r3, #22
    9612:	446b      	add	r3, sp
    9614:	781b      	ldrb	r3, [r3, #0]
    9616:	3301      	adds	r3, #1
    9618:	00db      	lsls	r3, r3, #3
    961a:	18d3      	adds	r3, r2, r3
    961c:	3308      	adds	r3, #8
    961e:	9a06      	ldr	r2, [sp, #24]
    9620:	601a      	str	r2, [r3, #0]
    9622:	e13f      	b.n	98a4 <pwm_init+0x438>
F:\WorkSpace\AHL-GEC-EXP\Temp\PWM_Music\Debug/srcc/pwm.c:74
    } else  //负极性
    {
      TPM_CnSC_REG(PWM_ARR[TPM_i], chl) =
    9624:	2317      	movs	r3, #23
    9626:	446b      	add	r3, sp
    9628:	781b      	ldrb	r3, [r3, #0]
    962a:	001a      	movs	r2, r3
    962c:	4b6b      	ldr	r3, [pc, #428]	; (97dc <pwm_init+0x370>)
    962e:	0092      	lsls	r2, r2, #2
    9630:	58d2      	ldr	r2, [r2, r3]
    9632:	2316      	movs	r3, #22
    9634:	446b      	add	r3, sp
    9636:	781b      	ldrb	r3, [r3, #0]
    9638:	3301      	adds	r3, #1
    963a:	00db      	lsls	r3, r3, #3
    963c:	18d3      	adds	r3, r2, r3
    963e:	3304      	adds	r3, #4
    9640:	2224      	movs	r2, #36	; 0x24
    9642:	601a      	str	r2, [r3, #0]
F:\WorkSpace\AHL-GEC-EXP\Temp\PWM_Music\Debug/srcc/pwm.c:76
          TPM_CnSC_MSB_MASK | TPM_CnSC_ELSA_MASK;
      temp = (uint32_t)(period * (100 - duty) / 200);
    9644:	ab03      	add	r3, sp, #12
    9646:	881b      	ldrh	r3, [r3, #0]
    9648:	0018      	movs	r0, r3
    964a:	f7fe fb27 	bl	7c9c <__aeabi_i2f>
    964e:	1c04      	adds	r4, r0, #0
    9650:	9901      	ldr	r1, [sp, #4]
    9652:	485f      	ldr	r0, [pc, #380]	; (97d0 <pwm_init+0x364>)
    9654:	f7fe f93a 	bl	78cc <__aeabi_fsub>
    9658:	1c03      	adds	r3, r0, #0
    965a:	1c19      	adds	r1, r3, #0
    965c:	1c20      	adds	r0, r4, #0
    965e:	f7fe f81b 	bl	7698 <__aeabi_fmul>
    9662:	1c03      	adds	r3, r0, #0
    9664:	495e      	ldr	r1, [pc, #376]	; (97e0 <pwm_init+0x374>)
    9666:	1c18      	adds	r0, r3, #0
    9668:	f7fd fe4c 	bl	7304 <__aeabi_fdiv>
    966c:	1c03      	adds	r3, r0, #0
    966e:	1c18      	adds	r0, r3, #0
    9670:	f7fd fd28 	bl	70c4 <__aeabi_f2uiz>
    9674:	0003      	movs	r3, r0
    9676:	9306      	str	r3, [sp, #24]
F:\WorkSpace\AHL-GEC-EXP\Temp\PWM_Music\Debug/srcc/pwm.c:77
      if (temp >= 65536)
    9678:	9a06      	ldr	r2, [sp, #24]
    967a:	2380      	movs	r3, #128	; 0x80
    967c:	025b      	lsls	r3, r3, #9
    967e:	429a      	cmp	r2, r3
    9680:	d310      	bcc.n	96a4 <pwm_init+0x238>
F:\WorkSpace\AHL-GEC-EXP\Temp\PWM_Music\Debug/srcc/pwm.c:78
        TPM_CnV_REG(PWM_ARR[TPM_i], chl) = 65535;
    9682:	2317      	movs	r3, #23
    9684:	446b      	add	r3, sp
    9686:	781b      	ldrb	r3, [r3, #0]
    9688:	001a      	movs	r2, r3
    968a:	4b54      	ldr	r3, [pc, #336]	; (97dc <pwm_init+0x370>)
    968c:	0092      	lsls	r2, r2, #2
    968e:	58d2      	ldr	r2, [r2, r3]
    9690:	2316      	movs	r3, #22
    9692:	446b      	add	r3, sp
    9694:	781b      	ldrb	r3, [r3, #0]
    9696:	3301      	adds	r3, #1
    9698:	00db      	lsls	r3, r3, #3
    969a:	18d3      	adds	r3, r2, r3
    969c:	3308      	adds	r3, #8
    969e:	4a51      	ldr	r2, [pc, #324]	; (97e4 <pwm_init+0x378>)
    96a0:	601a      	str	r2, [r3, #0]
    96a2:	e0ff      	b.n	98a4 <pwm_init+0x438>
F:\WorkSpace\AHL-GEC-EXP\Temp\PWM_Music\Debug/srcc/pwm.c:80
      else
        TPM_CnV_REG(PWM_ARR[TPM_i], chl) = temp;
    96a4:	2317      	movs	r3, #23
    96a6:	446b      	add	r3, sp
    96a8:	781b      	ldrb	r3, [r3, #0]
    96aa:	001a      	movs	r2, r3
    96ac:	4b4b      	ldr	r3, [pc, #300]	; (97dc <pwm_init+0x370>)
    96ae:	0092      	lsls	r2, r2, #2
    96b0:	58d2      	ldr	r2, [r2, r3]
    96b2:	2316      	movs	r3, #22
    96b4:	446b      	add	r3, sp
    96b6:	781b      	ldrb	r3, [r3, #0]
    96b8:	3301      	adds	r3, #1
    96ba:	00db      	lsls	r3, r3, #3
    96bc:	18d3      	adds	r3, r2, r3
    96be:	3308      	adds	r3, #8
    96c0:	9a06      	ldr	r2, [sp, #24]
    96c2:	601a      	str	r2, [r3, #0]
    96c4:	e0ee      	b.n	98a4 <pwm_init+0x438>
F:\WorkSpace\AHL-GEC-EXP\Temp\PWM_Music\Debug/srcc/pwm.c:84
    }
  } else  //边沿对齐
  {
    tpm_timer_init1(TPM_i, clockFre, period);
    96c6:	2317      	movs	r3, #23
    96c8:	446b      	add	r3, sp
    96ca:	781b      	ldrb	r3, [r3, #0]
    96cc:	b298      	uxth	r0, r3
    96ce:	ab03      	add	r3, sp, #12
    96d0:	881a      	ldrh	r2, [r3, #0]
    96d2:	9b02      	ldr	r3, [sp, #8]
    96d4:	0019      	movs	r1, r3
    96d6:	f000 f991 	bl	99fc <tpm_timer_init1>
F:\WorkSpace\AHL-GEC-EXP\Temp\PWM_Music\Debug/srcc/pwm.c:85
    PWM_ARR[TPM_i]->SC &= ~TPM_SC_CPWMS_MASK;  //设置边沿对齐
    96da:	2317      	movs	r3, #23
    96dc:	446b      	add	r3, sp
    96de:	781b      	ldrb	r3, [r3, #0]
    96e0:	001a      	movs	r2, r3
    96e2:	4b3e      	ldr	r3, [pc, #248]	; (97dc <pwm_init+0x370>)
    96e4:	0092      	lsls	r2, r2, #2
    96e6:	58d3      	ldr	r3, [r2, r3]
    96e8:	681a      	ldr	r2, [r3, #0]
    96ea:	2317      	movs	r3, #23
    96ec:	446b      	add	r3, sp
    96ee:	781b      	ldrb	r3, [r3, #0]
    96f0:	0019      	movs	r1, r3
    96f2:	4b3a      	ldr	r3, [pc, #232]	; (97dc <pwm_init+0x370>)
    96f4:	0089      	lsls	r1, r1, #2
    96f6:	58cb      	ldr	r3, [r1, r3]
    96f8:	2120      	movs	r1, #32
    96fa:	438a      	bics	r2, r1
    96fc:	601a      	str	r2, [r3, #0]
F:\WorkSpace\AHL-GEC-EXP\Temp\PWM_Music\Debug/srcc/pwm.c:86
    TPM_CnSC_REG(PWM_ARR[TPM_i], chl) = 0;     //清通道控制寄存器
    96fe:	2317      	movs	r3, #23
    9700:	446b      	add	r3, sp
    9702:	781b      	ldrb	r3, [r3, #0]
    9704:	001a      	movs	r2, r3
    9706:	4b35      	ldr	r3, [pc, #212]	; (97dc <pwm_init+0x370>)
    9708:	0092      	lsls	r2, r2, #2
    970a:	58d2      	ldr	r2, [r2, r3]
    970c:	2316      	movs	r3, #22
    970e:	446b      	add	r3, sp
    9710:	781b      	ldrb	r3, [r3, #0]
    9712:	3301      	adds	r3, #1
    9714:	00db      	lsls	r3, r3, #3
    9716:	18d3      	adds	r3, r2, r3
    9718:	3304      	adds	r3, #4
    971a:	2200      	movs	r2, #0
    971c:	601a      	str	r2, [r3, #0]
F:\WorkSpace\AHL-GEC-EXP\Temp\PWM_Music\Debug/srcc/pwm.c:88
    // 6. PWM极性的设定和PWM占空比的设定
    temp = PWM_ARR[TPM_i]->MOD + 1;  //计算周期（period）
    971e:	2317      	movs	r3, #23
    9720:	446b      	add	r3, sp
    9722:	781b      	ldrb	r3, [r3, #0]
    9724:	001a      	movs	r2, r3
    9726:	4b2d      	ldr	r3, [pc, #180]	; (97dc <pwm_init+0x370>)
    9728:	0092      	lsls	r2, r2, #2
    972a:	58d3      	ldr	r3, [r2, r3]
    972c:	689b      	ldr	r3, [r3, #8]
    972e:	3301      	adds	r3, #1
    9730:	9306      	str	r3, [sp, #24]
F:\WorkSpace\AHL-GEC-EXP\Temp\PWM_Music\Debug/srcc/pwm.c:89
    if (pol == PWM_PLUS)             //正极性
    9732:	ab0d      	add	r3, sp, #52	; 0x34
    9734:	781b      	ldrb	r3, [r3, #0]
    9736:	2b00      	cmp	r3, #0
    9738:	d156      	bne.n	97e8 <pwm_init+0x37c>
F:\WorkSpace\AHL-GEC-EXP\Temp\PWM_Music\Debug/srcc/pwm.c:91
    {
      TPM_CnSC_REG(PWM_ARR[TPM_i], chl) =
    973a:	2317      	movs	r3, #23
    973c:	446b      	add	r3, sp
    973e:	781b      	ldrb	r3, [r3, #0]
    9740:	001a      	movs	r2, r3
    9742:	4b26      	ldr	r3, [pc, #152]	; (97dc <pwm_init+0x370>)
    9744:	0092      	lsls	r2, r2, #2
    9746:	58d2      	ldr	r2, [r2, r3]
    9748:	2316      	movs	r3, #22
    974a:	446b      	add	r3, sp
    974c:	781b      	ldrb	r3, [r3, #0]
    974e:	3301      	adds	r3, #1
    9750:	00db      	lsls	r3, r3, #3
    9752:	18d3      	adds	r3, r2, r3
    9754:	3304      	adds	r3, #4
    9756:	2228      	movs	r2, #40	; 0x28
    9758:	601a      	str	r2, [r3, #0]
F:\WorkSpace\AHL-GEC-EXP\Temp\PWM_Music\Debug/srcc/pwm.c:93
          TPM_CnSC_MSB_MASK | TPM_CnSC_ELSB_MASK;
      temp = (uint32_t)(temp * duty / 100);
    975a:	9806      	ldr	r0, [sp, #24]
    975c:	f7fe fae4 	bl	7d28 <__aeabi_ui2f>
    9760:	1c03      	adds	r3, r0, #0
    9762:	9901      	ldr	r1, [sp, #4]
    9764:	1c18      	adds	r0, r3, #0
    9766:	f7fd ff97 	bl	7698 <__aeabi_fmul>
    976a:	1c03      	adds	r3, r0, #0
    976c:	4918      	ldr	r1, [pc, #96]	; (97d0 <pwm_init+0x364>)
    976e:	1c18      	adds	r0, r3, #0
    9770:	f7fd fdc8 	bl	7304 <__aeabi_fdiv>
    9774:	1c03      	adds	r3, r0, #0
    9776:	1c18      	adds	r0, r3, #0
    9778:	f7fd fca4 	bl	70c4 <__aeabi_f2uiz>
    977c:	0003      	movs	r3, r0
    977e:	9306      	str	r3, [sp, #24]
F:\WorkSpace\AHL-GEC-EXP\Temp\PWM_Music\Debug/srcc/pwm.c:94
      if (temp >= 65536)
    9780:	9a06      	ldr	r2, [sp, #24]
    9782:	2380      	movs	r3, #128	; 0x80
    9784:	025b      	lsls	r3, r3, #9
    9786:	429a      	cmp	r2, r3
    9788:	d310      	bcc.n	97ac <pwm_init+0x340>
F:\WorkSpace\AHL-GEC-EXP\Temp\PWM_Music\Debug/srcc/pwm.c:95
        TPM_CnV_REG(PWM_ARR[TPM_i], chl) = 65535;
    978a:	2317      	movs	r3, #23
    978c:	446b      	add	r3, sp
    978e:	781b      	ldrb	r3, [r3, #0]
    9790:	001a      	movs	r2, r3
    9792:	4b12      	ldr	r3, [pc, #72]	; (97dc <pwm_init+0x370>)
    9794:	0092      	lsls	r2, r2, #2
    9796:	58d2      	ldr	r2, [r2, r3]
    9798:	2316      	movs	r3, #22
    979a:	446b      	add	r3, sp
    979c:	781b      	ldrb	r3, [r3, #0]
    979e:	3301      	adds	r3, #1
    97a0:	00db      	lsls	r3, r3, #3
    97a2:	18d3      	adds	r3, r2, r3
    97a4:	3308      	adds	r3, #8
    97a6:	4a0f      	ldr	r2, [pc, #60]	; (97e4 <pwm_init+0x378>)
    97a8:	601a      	str	r2, [r3, #0]
    97aa:	e07b      	b.n	98a4 <pwm_init+0x438>
F:\WorkSpace\AHL-GEC-EXP\Temp\PWM_Music\Debug/srcc/pwm.c:97
      else
        TPM_CnV_REG(PWM_ARR[TPM_i], chl) = temp;
    97ac:	2317      	movs	r3, #23
    97ae:	446b      	add	r3, sp
    97b0:	781b      	ldrb	r3, [r3, #0]
    97b2:	001a      	movs	r2, r3
    97b4:	4b09      	ldr	r3, [pc, #36]	; (97dc <pwm_init+0x370>)
    97b6:	0092      	lsls	r2, r2, #2
    97b8:	58d2      	ldr	r2, [r2, r3]
    97ba:	2316      	movs	r3, #22
    97bc:	446b      	add	r3, sp
    97be:	781b      	ldrb	r3, [r3, #0]
    97c0:	3301      	adds	r3, #1
    97c2:	00db      	lsls	r3, r3, #3
    97c4:	18d3      	adds	r3, r2, r3
    97c6:	3308      	adds	r3, #8
    97c8:	9a06      	ldr	r2, [sp, #24]
    97ca:	601a      	str	r2, [r3, #0]
    97cc:	e06a      	b.n	98a4 <pwm_init+0x438>
    97ce:	46c0      	nop			; (mov r8, r8)
    97d0:	42c80000 	.word	0x42c80000
    97d4:	0000bd20 	.word	0x0000bd20
    97d8:	fffff8ff 	.word	0xfffff8ff
    97dc:	20000414 	.word	0x20000414
    97e0:	43480000 	.word	0x43480000
    97e4:	0000ffff 	.word	0x0000ffff
F:\WorkSpace\AHL-GEC-EXP\Temp\PWM_Music\Debug/srcc/pwm.c:100
    } else  //负极性
    {
      TPM_CnSC_REG(PWM_ARR[TPM_i], chl) = 0;  //清通道控制状态寄存器
    97e8:	2317      	movs	r3, #23
    97ea:	446b      	add	r3, sp
    97ec:	781b      	ldrb	r3, [r3, #0]
    97ee:	001a      	movs	r2, r3
    97f0:	4b37      	ldr	r3, [pc, #220]	; (98d0 <pwm_init+0x464>)
    97f2:	0092      	lsls	r2, r2, #2
    97f4:	58d2      	ldr	r2, [r2, r3]
    97f6:	2316      	movs	r3, #22
    97f8:	446b      	add	r3, sp
    97fa:	781b      	ldrb	r3, [r3, #0]
    97fc:	3301      	adds	r3, #1
    97fe:	00db      	lsls	r3, r3, #3
    9800:	18d3      	adds	r3, r2, r3
    9802:	3304      	adds	r3, #4
    9804:	2200      	movs	r2, #0
    9806:	601a      	str	r2, [r3, #0]
F:\WorkSpace\AHL-GEC-EXP\Temp\PWM_Music\Debug/srcc/pwm.c:102
                                              //设置负极性
      TPM_CnSC_REG(PWM_ARR[TPM_i], chl) =
    9808:	2317      	movs	r3, #23
    980a:	446b      	add	r3, sp
    980c:	781b      	ldrb	r3, [r3, #0]
    980e:	001a      	movs	r2, r3
    9810:	4b2f      	ldr	r3, [pc, #188]	; (98d0 <pwm_init+0x464>)
    9812:	0092      	lsls	r2, r2, #2
    9814:	58d2      	ldr	r2, [r2, r3]
    9816:	2316      	movs	r3, #22
    9818:	446b      	add	r3, sp
    981a:	781b      	ldrb	r3, [r3, #0]
    981c:	3301      	adds	r3, #1
    981e:	00db      	lsls	r3, r3, #3
    9820:	18d3      	adds	r3, r2, r3
    9822:	3304      	adds	r3, #4
    9824:	2224      	movs	r2, #36	; 0x24
    9826:	601a      	str	r2, [r3, #0]
F:\WorkSpace\AHL-GEC-EXP\Temp\PWM_Music\Debug/srcc/pwm.c:105
          TPM_CnSC_MSB_MASK | TPM_CnSC_ELSA_MASK;
      //设置占空比
      temp = (uint32_t)(temp * (100 - duty) / 100);
    9828:	9806      	ldr	r0, [sp, #24]
    982a:	f7fe fa7d 	bl	7d28 <__aeabi_ui2f>
    982e:	1c04      	adds	r4, r0, #0
    9830:	9901      	ldr	r1, [sp, #4]
    9832:	4828      	ldr	r0, [pc, #160]	; (98d4 <pwm_init+0x468>)
    9834:	f7fe f84a 	bl	78cc <__aeabi_fsub>
    9838:	1c03      	adds	r3, r0, #0
    983a:	1c19      	adds	r1, r3, #0
    983c:	1c20      	adds	r0, r4, #0
    983e:	f7fd ff2b 	bl	7698 <__aeabi_fmul>
    9842:	1c03      	adds	r3, r0, #0
    9844:	4923      	ldr	r1, [pc, #140]	; (98d4 <pwm_init+0x468>)
    9846:	1c18      	adds	r0, r3, #0
    9848:	f7fd fd5c 	bl	7304 <__aeabi_fdiv>
    984c:	1c03      	adds	r3, r0, #0
    984e:	1c18      	adds	r0, r3, #0
    9850:	f7fd fc38 	bl	70c4 <__aeabi_f2uiz>
    9854:	0003      	movs	r3, r0
    9856:	9306      	str	r3, [sp, #24]
F:\WorkSpace\AHL-GEC-EXP\Temp\PWM_Music\Debug/srcc/pwm.c:106
      if (temp >= 65536)
    9858:	9a06      	ldr	r2, [sp, #24]
    985a:	2380      	movs	r3, #128	; 0x80
    985c:	025b      	lsls	r3, r3, #9
    985e:	429a      	cmp	r2, r3
    9860:	d310      	bcc.n	9884 <pwm_init+0x418>
F:\WorkSpace\AHL-GEC-EXP\Temp\PWM_Music\Debug/srcc/pwm.c:107
        TPM_CnV_REG(PWM_ARR[TPM_i], chl) = 65535;
    9862:	2317      	movs	r3, #23
    9864:	446b      	add	r3, sp
    9866:	781b      	ldrb	r3, [r3, #0]
    9868:	001a      	movs	r2, r3
    986a:	4b19      	ldr	r3, [pc, #100]	; (98d0 <pwm_init+0x464>)
    986c:	0092      	lsls	r2, r2, #2
    986e:	58d2      	ldr	r2, [r2, r3]
    9870:	2316      	movs	r3, #22
    9872:	446b      	add	r3, sp
    9874:	781b      	ldrb	r3, [r3, #0]
    9876:	3301      	adds	r3, #1
    9878:	00db      	lsls	r3, r3, #3
    987a:	18d3      	adds	r3, r2, r3
    987c:	3308      	adds	r3, #8
    987e:	4a16      	ldr	r2, [pc, #88]	; (98d8 <pwm_init+0x46c>)
    9880:	601a      	str	r2, [r3, #0]
    9882:	e00f      	b.n	98a4 <pwm_init+0x438>
F:\WorkSpace\AHL-GEC-EXP\Temp\PWM_Music\Debug/srcc/pwm.c:109
      else
        TPM_CnV_REG(PWM_ARR[TPM_i], chl) = temp;
    9884:	2317      	movs	r3, #23
    9886:	446b      	add	r3, sp
    9888:	781b      	ldrb	r3, [r3, #0]
    988a:	001a      	movs	r2, r3
    988c:	4b10      	ldr	r3, [pc, #64]	; (98d0 <pwm_init+0x464>)
    988e:	0092      	lsls	r2, r2, #2
    9890:	58d2      	ldr	r2, [r2, r3]
    9892:	2316      	movs	r3, #22
    9894:	446b      	add	r3, sp
    9896:	781b      	ldrb	r3, [r3, #0]
    9898:	3301      	adds	r3, #1
    989a:	00db      	lsls	r3, r3, #3
    989c:	18d3      	adds	r3, r2, r3
    989e:	3308      	adds	r3, #8
    98a0:	9a06      	ldr	r2, [sp, #24]
    98a2:	601a      	str	r2, [r3, #0]
F:\WorkSpace\AHL-GEC-EXP\Temp\PWM_Music\Debug/srcc/pwm.c:112
    }
  }
  PWM_ARR[TPM_i]->SC |= TPM_SC_CMOD(1);  //使能计数器
    98a4:	2317      	movs	r3, #23
    98a6:	446b      	add	r3, sp
    98a8:	781b      	ldrb	r3, [r3, #0]
    98aa:	001a      	movs	r2, r3
    98ac:	4b08      	ldr	r3, [pc, #32]	; (98d0 <pwm_init+0x464>)
    98ae:	0092      	lsls	r2, r2, #2
    98b0:	58d3      	ldr	r3, [r2, r3]
    98b2:	681a      	ldr	r2, [r3, #0]
    98b4:	2317      	movs	r3, #23
    98b6:	446b      	add	r3, sp
    98b8:	781b      	ldrb	r3, [r3, #0]
    98ba:	0019      	movs	r1, r3
    98bc:	4b04      	ldr	r3, [pc, #16]	; (98d0 <pwm_init+0x464>)
    98be:	0089      	lsls	r1, r1, #2
    98c0:	58cb      	ldr	r3, [r1, r3]
    98c2:	2108      	movs	r1, #8
    98c4:	430a      	orrs	r2, r1
    98c6:	601a      	str	r2, [r3, #0]
F:\WorkSpace\AHL-GEC-EXP\Temp\PWM_Music\Debug/srcc/pwm.c:113
}
    98c8:	46c0      	nop			; (mov r8, r8)
    98ca:	b00a      	add	sp, #40	; 0x28
    98cc:	bd10      	pop	{r4, pc}
    98ce:	46c0      	nop			; (mov r8, r8)
    98d0:	20000414 	.word	0x20000414
    98d4:	42c80000 	.word	0x42c80000
    98d8:	0000ffff 	.word	0x0000ffff

000098dc <tpm_mux_val>:
tpm_mux_val():
F:\WorkSpace\AHL-GEC-EXP\Temp\PWM_Music\Debug/srcc/pwm.c:143
//         解析出PORT引脚，并根据引脚返回mux_val）。
//参数说明：pwmNo：pwm模块号，在头文件的宏定义给出，如PWM_PIN0表示PWM0通道
//
//函数返回：gpio复用寄存器传入值
//=====================================================================
static uint8_t tpm_mux_val(uint16_t pwmNo, uint8_t* TPM_i, uint8_t* chl) {
    98dc:	b086      	sub	sp, #24
    98de:	9102      	str	r1, [sp, #8]
    98e0:	9201      	str	r2, [sp, #4]
    98e2:	230e      	movs	r3, #14
    98e4:	446b      	add	r3, sp
    98e6:	1c02      	adds	r2, r0, #0
    98e8:	801a      	strh	r2, [r3, #0]
F:\WorkSpace\AHL-GEC-EXP\Temp\PWM_Music\Debug/srcc/pwm.c:146
  uint8_t port, pin;
  // 1.解析模块号和通道号
  switch (pwmNo) {
    98ea:	230e      	movs	r3, #14
    98ec:	446b      	add	r3, sp
    98ee:	881b      	ldrh	r3, [r3, #0]
    98f0:	4a3d      	ldr	r2, [pc, #244]	; (99e8 <tpm_mux_val+0x10c>)
    98f2:	4293      	cmp	r3, r2
    98f4:	d042      	beq.n	997c <tpm_mux_val+0xa0>
    98f6:	4a3c      	ldr	r2, [pc, #240]	; (99e8 <tpm_mux_val+0x10c>)
    98f8:	4293      	cmp	r3, r2
    98fa:	dc46      	bgt.n	998a <tpm_mux_val+0xae>
    98fc:	22c1      	movs	r2, #193	; 0xc1
    98fe:	0092      	lsls	r2, r2, #2
    9900:	4293      	cmp	r3, r2
    9902:	d034      	beq.n	996e <tpm_mux_val+0x92>
    9904:	22c1      	movs	r2, #193	; 0xc1
    9906:	0092      	lsls	r2, r2, #2
    9908:	4293      	cmp	r3, r2
    990a:	dc3e      	bgt.n	998a <tpm_mux_val+0xae>
    990c:	4a37      	ldr	r2, [pc, #220]	; (99ec <tpm_mux_val+0x110>)
    990e:	4293      	cmp	r3, r2
    9910:	d026      	beq.n	9960 <tpm_mux_val+0x84>
    9912:	22c1      	movs	r2, #193	; 0xc1
    9914:	0092      	lsls	r2, r2, #2
    9916:	4293      	cmp	r3, r2
    9918:	da37      	bge.n	998a <tpm_mux_val+0xae>
    991a:	4a35      	ldr	r2, [pc, #212]	; (99f0 <tpm_mux_val+0x114>)
    991c:	4293      	cmp	r3, r2
    991e:	d018      	beq.n	9952 <tpm_mux_val+0x76>
    9920:	2281      	movs	r2, #129	; 0x81
    9922:	0092      	lsls	r2, r2, #2
    9924:	4293      	cmp	r3, r2
    9926:	da30      	bge.n	998a <tpm_mux_val+0xae>
    9928:	4a32      	ldr	r2, [pc, #200]	; (99f4 <tpm_mux_val+0x118>)
    992a:	4293      	cmp	r3, r2
    992c:	d003      	beq.n	9936 <tpm_mux_val+0x5a>
    992e:	4a32      	ldr	r2, [pc, #200]	; (99f8 <tpm_mux_val+0x11c>)
    9930:	4293      	cmp	r3, r2
    9932:	d007      	beq.n	9944 <tpm_mux_val+0x68>
F:\WorkSpace\AHL-GEC-EXP\Temp\PWM_Music\Debug/srcc/pwm.c:172
    case ((3 << 8) | 5):
      *TPM_i = 0;
      *chl = 5;
      break;
    default:
      break;
    9934:	e029      	b.n	998a <tpm_mux_val+0xae>
F:\WorkSpace\AHL-GEC-EXP\Temp\PWM_Music\Debug/srcc/pwm.c:148
      *TPM_i = 0;
    9936:	9b02      	ldr	r3, [sp, #8]
    9938:	2200      	movs	r2, #0
    993a:	701a      	strb	r2, [r3, #0]
F:\WorkSpace\AHL-GEC-EXP\Temp\PWM_Music\Debug/srcc/pwm.c:149
      *chl = 0;
    993c:	9b01      	ldr	r3, [sp, #4]
    993e:	2200      	movs	r2, #0
    9940:	701a      	strb	r2, [r3, #0]
F:\WorkSpace\AHL-GEC-EXP\Temp\PWM_Music\Debug/srcc/pwm.c:150
      break;
    9942:	e023      	b.n	998c <tpm_mux_val+0xb0>
F:\WorkSpace\AHL-GEC-EXP\Temp\PWM_Music\Debug/srcc/pwm.c:152
      *TPM_i = 0;
    9944:	9b02      	ldr	r3, [sp, #8]
    9946:	2200      	movs	r2, #0
    9948:	701a      	strb	r2, [r3, #0]
F:\WorkSpace\AHL-GEC-EXP\Temp\PWM_Music\Debug/srcc/pwm.c:153
      *chl = 1;
    994a:	9b01      	ldr	r3, [sp, #4]
    994c:	2201      	movs	r2, #1
    994e:	701a      	strb	r2, [r3, #0]
F:\WorkSpace\AHL-GEC-EXP\Temp\PWM_Music\Debug/srcc/pwm.c:154
      break;
    9950:	e01c      	b.n	998c <tpm_mux_val+0xb0>
F:\WorkSpace\AHL-GEC-EXP\Temp\PWM_Music\Debug/srcc/pwm.c:156
      *TPM_i = 0;
    9952:	9b02      	ldr	r3, [sp, #8]
    9954:	2200      	movs	r2, #0
    9956:	701a      	strb	r2, [r3, #0]
F:\WorkSpace\AHL-GEC-EXP\Temp\PWM_Music\Debug/srcc/pwm.c:157
      *chl = 2;
    9958:	9b01      	ldr	r3, [sp, #4]
    995a:	2202      	movs	r2, #2
    995c:	701a      	strb	r2, [r3, #0]
F:\WorkSpace\AHL-GEC-EXP\Temp\PWM_Music\Debug/srcc/pwm.c:158
      break;
    995e:	e015      	b.n	998c <tpm_mux_val+0xb0>
F:\WorkSpace\AHL-GEC-EXP\Temp\PWM_Music\Debug/srcc/pwm.c:160
      *TPM_i = 0;
    9960:	9b02      	ldr	r3, [sp, #8]
    9962:	2200      	movs	r2, #0
    9964:	701a      	strb	r2, [r3, #0]
F:\WorkSpace\AHL-GEC-EXP\Temp\PWM_Music\Debug/srcc/pwm.c:161
      *chl = 3;
    9966:	9b01      	ldr	r3, [sp, #4]
    9968:	2203      	movs	r2, #3
    996a:	701a      	strb	r2, [r3, #0]
F:\WorkSpace\AHL-GEC-EXP\Temp\PWM_Music\Debug/srcc/pwm.c:162
      break;
    996c:	e00e      	b.n	998c <tpm_mux_val+0xb0>
F:\WorkSpace\AHL-GEC-EXP\Temp\PWM_Music\Debug/srcc/pwm.c:164
      *TPM_i = 0;
    996e:	9b02      	ldr	r3, [sp, #8]
    9970:	2200      	movs	r2, #0
    9972:	701a      	strb	r2, [r3, #0]
F:\WorkSpace\AHL-GEC-EXP\Temp\PWM_Music\Debug/srcc/pwm.c:165
      *chl = 4;
    9974:	9b01      	ldr	r3, [sp, #4]
    9976:	2204      	movs	r2, #4
    9978:	701a      	strb	r2, [r3, #0]
F:\WorkSpace\AHL-GEC-EXP\Temp\PWM_Music\Debug/srcc/pwm.c:166
      break;
    997a:	e007      	b.n	998c <tpm_mux_val+0xb0>
F:\WorkSpace\AHL-GEC-EXP\Temp\PWM_Music\Debug/srcc/pwm.c:168
      *TPM_i = 0;
    997c:	9b02      	ldr	r3, [sp, #8]
    997e:	2200      	movs	r2, #0
    9980:	701a      	strb	r2, [r3, #0]
F:\WorkSpace\AHL-GEC-EXP\Temp\PWM_Music\Debug/srcc/pwm.c:169
      *chl = 5;
    9982:	9b01      	ldr	r3, [sp, #4]
    9984:	2205      	movs	r2, #5
    9986:	701a      	strb	r2, [r3, #0]
F:\WorkSpace\AHL-GEC-EXP\Temp\PWM_Music\Debug/srcc/pwm.c:170
      break;
    9988:	e000      	b.n	998c <tpm_mux_val+0xb0>
F:\WorkSpace\AHL-GEC-EXP\Temp\PWM_Music\Debug/srcc/pwm.c:172
      break;
    998a:	46c0      	nop			; (mov r8, r8)
F:\WorkSpace\AHL-GEC-EXP\Temp\PWM_Music\Debug/srcc/pwm.c:175
  }
  // 2.解析引脚复用寄存器传入值
  port = (pwmNo >> 8);
    998c:	230e      	movs	r3, #14
    998e:	446b      	add	r3, sp
    9990:	881b      	ldrh	r3, [r3, #0]
    9992:	0a1b      	lsrs	r3, r3, #8
    9994:	b29a      	uxth	r2, r3
    9996:	2317      	movs	r3, #23
    9998:	446b      	add	r3, sp
    999a:	701a      	strb	r2, [r3, #0]
F:\WorkSpace\AHL-GEC-EXP\Temp\PWM_Music\Debug/srcc/pwm.c:176
  pin = pwmNo;
    999c:	2316      	movs	r3, #22
    999e:	446b      	add	r3, sp
    99a0:	220e      	movs	r2, #14
    99a2:	446a      	add	r2, sp
    99a4:	8812      	ldrh	r2, [r2, #0]
    99a6:	701a      	strb	r2, [r3, #0]
F:\WorkSpace\AHL-GEC-EXP\Temp\PWM_Music\Debug/srcc/pwm.c:177
  if (port < 2 || port == 4 || (port == 2 && (pin == 8 || pin == 9)))
    99a8:	2317      	movs	r3, #23
    99aa:	446b      	add	r3, sp
    99ac:	781b      	ldrb	r3, [r3, #0]
    99ae:	2b01      	cmp	r3, #1
    99b0:	d913      	bls.n	99da <tpm_mux_val+0xfe>
F:\WorkSpace\AHL-GEC-EXP\Temp\PWM_Music\Debug/srcc/pwm.c:177 (discriminator 1)
    99b2:	2317      	movs	r3, #23
    99b4:	446b      	add	r3, sp
    99b6:	781b      	ldrb	r3, [r3, #0]
    99b8:	2b04      	cmp	r3, #4
    99ba:	d00e      	beq.n	99da <tpm_mux_val+0xfe>
F:\WorkSpace\AHL-GEC-EXP\Temp\PWM_Music\Debug/srcc/pwm.c:177 (discriminator 2)
    99bc:	2317      	movs	r3, #23
    99be:	446b      	add	r3, sp
    99c0:	781b      	ldrb	r3, [r3, #0]
    99c2:	2b02      	cmp	r3, #2
    99c4:	d10b      	bne.n	99de <tpm_mux_val+0x102>
F:\WorkSpace\AHL-GEC-EXP\Temp\PWM_Music\Debug/srcc/pwm.c:177 (discriminator 3)
    99c6:	2316      	movs	r3, #22
    99c8:	446b      	add	r3, sp
    99ca:	781b      	ldrb	r3, [r3, #0]
    99cc:	2b08      	cmp	r3, #8
    99ce:	d004      	beq.n	99da <tpm_mux_val+0xfe>
F:\WorkSpace\AHL-GEC-EXP\Temp\PWM_Music\Debug/srcc/pwm.c:177 (discriminator 4)
    99d0:	2316      	movs	r3, #22
    99d2:	446b      	add	r3, sp
    99d4:	781b      	ldrb	r3, [r3, #0]
    99d6:	2b09      	cmp	r3, #9
    99d8:	d101      	bne.n	99de <tpm_mux_val+0x102>
F:\WorkSpace\AHL-GEC-EXP\Temp\PWM_Music\Debug/srcc/pwm.c:178
    return 3;
    99da:	2303      	movs	r3, #3
    99dc:	e000      	b.n	99e0 <tpm_mux_val+0x104>
F:\WorkSpace\AHL-GEC-EXP\Temp\PWM_Music\Debug/srcc/pwm.c:180
  else
    return 4;
    99de:	2304      	movs	r3, #4
F:\WorkSpace\AHL-GEC-EXP\Temp\PWM_Music\Debug/srcc/pwm.c:181
}
    99e0:	0018      	movs	r0, r3
    99e2:	b006      	add	sp, #24
    99e4:	4770      	bx	lr
    99e6:	46c0      	nop			; (mov r8, r8)
    99e8:	00000305 	.word	0x00000305
    99ec:	00000303 	.word	0x00000303
    99f0:	00000203 	.word	0x00000203
    99f4:	00000201 	.word	0x00000201
    99f8:	00000202 	.word	0x00000202

000099fc <tpm_timer_init1>:
tpm_timer_init1():
F:\WorkSpace\AHL-GEC-EXP\Temp\PWM_Music\Debug/srcc/pwm.c:191
//参数说明：  pwmNo：pwm模块号，在gec.h的宏定义给出，如PWM_PIN0表示PWM0通道
//          f：单位：Khz，取值：375、750、1500、3000、6000、12000、24000、48000
//          MOD_Value：单位个数：范围取决于计数器频率与计数器位数（16位）
//函数返回：  无
//===================================================================
static void tpm_timer_init1(uint16_t TPM_i, uint32_t f, uint16_t MOD_Value) {
    99fc:	b500      	push	{lr}
    99fe:	b085      	sub	sp, #20
    9a00:	9100      	str	r1, [sp, #0]
    9a02:	0011      	movs	r1, r2
    9a04:	466b      	mov	r3, sp
    9a06:	3306      	adds	r3, #6
    9a08:	1c02      	adds	r2, r0, #0
    9a0a:	801a      	strh	r2, [r3, #0]
    9a0c:	ab01      	add	r3, sp, #4
    9a0e:	1c0a      	adds	r2, r1, #0
    9a10:	801a      	strh	r2, [r3, #0]
F:\WorkSpace\AHL-GEC-EXP\Temp\PWM_Music\Debug/srcc/pwm.c:195
  //局部变量声明
  uint32_t clk_f, clk_div;
  //（1） 开启SIM时钟门
  BSET(SIM_SCGC6_TPM0_SHIFT + TPM_i, SIM_SCGC6);
    9a12:	4a38      	ldr	r2, [pc, #224]	; (9af4 <tpm_timer_init1+0xf8>)
    9a14:	4b38      	ldr	r3, [pc, #224]	; (9af8 <tpm_timer_init1+0xfc>)
    9a16:	58d3      	ldr	r3, [r2, r3]
    9a18:	466a      	mov	r2, sp
    9a1a:	3206      	adds	r2, #6
    9a1c:	8812      	ldrh	r2, [r2, #0]
    9a1e:	3218      	adds	r2, #24
    9a20:	2101      	movs	r1, #1
    9a22:	4091      	lsls	r1, r2
    9a24:	000a      	movs	r2, r1
    9a26:	4933      	ldr	r1, [pc, #204]	; (9af4 <tpm_timer_init1+0xf8>)
    9a28:	4313      	orrs	r3, r2
    9a2a:	4a33      	ldr	r2, [pc, #204]	; (9af8 <tpm_timer_init1+0xfc>)
    9a2c:	508b      	str	r3, [r1, r2]
F:\WorkSpace\AHL-GEC-EXP\Temp\PWM_Music\Debug/srcc/pwm.c:197
  //（2）开启时钟，默认选择用PLL/2时钟源，即48MHz
  SIM_SOPT2 |= SIM_SOPT2_TPMSRC(1);
    9a2e:	4a31      	ldr	r2, [pc, #196]	; (9af4 <tpm_timer_init1+0xf8>)
    9a30:	4b32      	ldr	r3, [pc, #200]	; (9afc <tpm_timer_init1+0x100>)
    9a32:	58d3      	ldr	r3, [r2, r3]
    9a34:	492f      	ldr	r1, [pc, #188]	; (9af4 <tpm_timer_init1+0xf8>)
    9a36:	2280      	movs	r2, #128	; 0x80
    9a38:	0452      	lsls	r2, r2, #17
    9a3a:	4313      	orrs	r3, r2
    9a3c:	4a2f      	ldr	r2, [pc, #188]	; (9afc <tpm_timer_init1+0x100>)
    9a3e:	508b      	str	r3, [r1, r2]
F:\WorkSpace\AHL-GEC-EXP\Temp\PWM_Music\Debug/srcc/pwm.c:198
  SIM_SOPT2 &= ~SIM_SOPT2_PLLFLLSEL_MASK;
    9a40:	4a2c      	ldr	r2, [pc, #176]	; (9af4 <tpm_timer_init1+0xf8>)
    9a42:	4b2e      	ldr	r3, [pc, #184]	; (9afc <tpm_timer_init1+0x100>)
    9a44:	58d3      	ldr	r3, [r2, r3]
    9a46:	492b      	ldr	r1, [pc, #172]	; (9af4 <tpm_timer_init1+0xf8>)
    9a48:	4a2d      	ldr	r2, [pc, #180]	; (9b00 <tpm_timer_init1+0x104>)
    9a4a:	4013      	ands	r3, r2
    9a4c:	4a2b      	ldr	r2, [pc, #172]	; (9afc <tpm_timer_init1+0x100>)
    9a4e:	508b      	str	r3, [r1, r2]
F:\WorkSpace\AHL-GEC-EXP\Temp\PWM_Music\Debug/srcc/pwm.c:199
  PWM_ARR[TPM_i]->SC = 0;
    9a50:	466b      	mov	r3, sp
    9a52:	3306      	adds	r3, #6
    9a54:	881a      	ldrh	r2, [r3, #0]
    9a56:	4b2b      	ldr	r3, [pc, #172]	; (9b04 <tpm_timer_init1+0x108>)
    9a58:	0092      	lsls	r2, r2, #2
    9a5a:	58d3      	ldr	r3, [r2, r3]
    9a5c:	2200      	movs	r2, #0
    9a5e:	601a      	str	r2, [r3, #0]
F:\WorkSpace\AHL-GEC-EXP\Temp\PWM_Music\Debug/srcc/pwm.c:202
  //（3） 由期望的时钟频率f，计算分频因子clk_div。因分频系数clk_f=48000/f,
  //则分频因子clk_div=sqrt(clk_f)。例如：f=3000Khz,则clk_f=16，clk_div=4
  clk_f = 48000 / f;
    9a60:	9900      	ldr	r1, [sp, #0]
    9a62:	4829      	ldr	r0, [pc, #164]	; (9b08 <tpm_timer_init1+0x10c>)
    9a64:	f7fd f920 	bl	6ca8 <__udivsi3>
    9a68:	0003      	movs	r3, r0
    9a6a:	9303      	str	r3, [sp, #12]
F:\WorkSpace\AHL-GEC-EXP\Temp\PWM_Music\Debug/srcc/pwm.c:203
  clk_div = 0;
    9a6c:	2300      	movs	r3, #0
    9a6e:	9302      	str	r3, [sp, #8]
F:\WorkSpace\AHL-GEC-EXP\Temp\PWM_Music\Debug/srcc/pwm.c:204
  while (clk_f > 1) {
    9a70:	e005      	b.n	9a7e <tpm_timer_init1+0x82>
F:\WorkSpace\AHL-GEC-EXP\Temp\PWM_Music\Debug/srcc/pwm.c:205
    clk_div++;
    9a72:	9b02      	ldr	r3, [sp, #8]
    9a74:	3301      	adds	r3, #1
    9a76:	9302      	str	r3, [sp, #8]
F:\WorkSpace\AHL-GEC-EXP\Temp\PWM_Music\Debug/srcc/pwm.c:206
    clk_f = clk_f / 2;
    9a78:	9b03      	ldr	r3, [sp, #12]
    9a7a:	085b      	lsrs	r3, r3, #1
    9a7c:	9303      	str	r3, [sp, #12]
F:\WorkSpace\AHL-GEC-EXP\Temp\PWM_Music\Debug/srcc/pwm.c:204
  while (clk_f > 1) {
    9a7e:	9b03      	ldr	r3, [sp, #12]
    9a80:	2b01      	cmp	r3, #1
    9a82:	d8f6      	bhi.n	9a72 <tpm_timer_init1+0x76>
F:\WorkSpace\AHL-GEC-EXP\Temp\PWM_Music\Debug/srcc/pwm.c:209
  }
  //（4）计数器清零
  PWM_ARR[TPM_i]->CNT = 0;
    9a84:	466b      	mov	r3, sp
    9a86:	3306      	adds	r3, #6
    9a88:	881a      	ldrh	r2, [r3, #0]
    9a8a:	4b1e      	ldr	r3, [pc, #120]	; (9b04 <tpm_timer_init1+0x108>)
    9a8c:	0092      	lsls	r2, r2, #2
    9a8e:	58d3      	ldr	r3, [r2, r3]
    9a90:	2200      	movs	r2, #0
    9a92:	605a      	str	r2, [r3, #4]
F:\WorkSpace\AHL-GEC-EXP\Temp\PWM_Music\Debug/srcc/pwm.c:211
  //（5）设置模数寄存器
  if (MOD_Value == 0) {
    9a94:	ab01      	add	r3, sp, #4
    9a96:	881b      	ldrh	r3, [r3, #0]
    9a98:	2b00      	cmp	r3, #0
    9a9a:	d108      	bne.n	9aae <tpm_timer_init1+0xb2>
F:\WorkSpace\AHL-GEC-EXP\Temp\PWM_Music\Debug/srcc/pwm.c:212
    PWM_ARR[TPM_i]->MOD = 0;  //给模数寄存器赋值
    9a9c:	466b      	mov	r3, sp
    9a9e:	3306      	adds	r3, #6
    9aa0:	881a      	ldrh	r2, [r3, #0]
    9aa2:	4b18      	ldr	r3, [pc, #96]	; (9b04 <tpm_timer_init1+0x108>)
    9aa4:	0092      	lsls	r2, r2, #2
    9aa6:	58d3      	ldr	r3, [r2, r3]
    9aa8:	2200      	movs	r2, #0
    9aaa:	609a      	str	r2, [r3, #8]
    9aac:	e00a      	b.n	9ac4 <tpm_timer_init1+0xc8>
F:\WorkSpace\AHL-GEC-EXP\Temp\PWM_Music\Debug/srcc/pwm.c:214
  } else {
    PWM_ARR[TPM_i]->MOD = MOD_Value - 1;  //给模数寄存器赋值
    9aae:	ab01      	add	r3, sp, #4
    9ab0:	881b      	ldrh	r3, [r3, #0]
    9ab2:	1e59      	subs	r1, r3, #1
    9ab4:	466b      	mov	r3, sp
    9ab6:	3306      	adds	r3, #6
    9ab8:	881a      	ldrh	r2, [r3, #0]
    9aba:	4b12      	ldr	r3, [pc, #72]	; (9b04 <tpm_timer_init1+0x108>)
    9abc:	0092      	lsls	r2, r2, #2
    9abe:	58d3      	ldr	r3, [r2, r3]
    9ac0:	000a      	movs	r2, r1
    9ac2:	609a      	str	r2, [r3, #8]
F:\WorkSpace\AHL-GEC-EXP\Temp\PWM_Music\Debug/srcc/pwm.c:217
  }
  //（6）写TPM_i的状态和控制寄存器
  PWM_ARR[TPM_i]->SC |= TPM_SC_PS(clk_div) | TPM_SC_TOIE_MASK;
    9ac4:	466b      	mov	r3, sp
    9ac6:	3306      	adds	r3, #6
    9ac8:	881a      	ldrh	r2, [r3, #0]
    9aca:	4b0e      	ldr	r3, [pc, #56]	; (9b04 <tpm_timer_init1+0x108>)
    9acc:	0092      	lsls	r2, r2, #2
    9ace:	58d3      	ldr	r3, [r2, r3]
    9ad0:	681a      	ldr	r2, [r3, #0]
    9ad2:	9b02      	ldr	r3, [sp, #8]
    9ad4:	2107      	movs	r1, #7
    9ad6:	400b      	ands	r3, r1
    9ad8:	431a      	orrs	r2, r3
    9ada:	466b      	mov	r3, sp
    9adc:	3306      	adds	r3, #6
    9ade:	8819      	ldrh	r1, [r3, #0]
    9ae0:	4b08      	ldr	r3, [pc, #32]	; (9b04 <tpm_timer_init1+0x108>)
    9ae2:	0089      	lsls	r1, r1, #2
    9ae4:	58cb      	ldr	r3, [r1, r3]
    9ae6:	2140      	movs	r1, #64	; 0x40
    9ae8:	430a      	orrs	r2, r1
    9aea:	601a      	str	r2, [r3, #0]
F:\WorkSpace\AHL-GEC-EXP\Temp\PWM_Music\Debug/srcc/pwm.c:218
}
    9aec:	46c0      	nop			; (mov r8, r8)
    9aee:	b005      	add	sp, #20
    9af0:	bd00      	pop	{pc}
    9af2:	46c0      	nop			; (mov r8, r8)
    9af4:	40047000 	.word	0x40047000
    9af8:	0000103c 	.word	0x0000103c
    9afc:	00001004 	.word	0x00001004
    9b00:	fffeffff 	.word	0xfffeffff
    9b04:	20000414 	.word	0x20000414
    9b08:	0000bb80 	.word	0x0000bb80

00009b0c <Vectors_Init>:
Vectors_Init():
F:\WorkSpace\AHL-GEC-EXP\Temp\PWM_Music\Debug/srcc/gec.c:15
//参数说明：无
//功能概要：User对BIOS中断向量表的部分继承,构件库函数指针初始化
//修改信息：WYH，20200805，规范
//======================================================================
void  Vectors_Init()
{
    9b0c:	b580      	push	{r7, lr}
    9b0e:	4f2e      	ldr	r7, [pc, #184]	; (9bc8 <Vectors_Init+0xbc>)
    9b10:	44bd      	add	sp, r7
F:\WorkSpace\AHL-GEC-EXP\Temp\PWM_Music\Debug/srcc/gec.c:19
    //有用户程序，编译本段代码
    #if (GEC_USER_SECTOR_START!=0)   
    //（1）若Flash倒数2扇区的前24字节为空，则写入设备序列号及软件版本号初值
    if(flash_isempty(MCU_SECTOR_NUM-1,24))
    9b12:	2118      	movs	r1, #24
    9b14:	203f      	movs	r0, #63	; 0x3f
    9b16:	f7ff fc2b 	bl	9370 <flash_isempty>
    9b1a:	1e03      	subs	r3, r0, #0
    9b1c:	d006      	beq.n	9b2c <Vectors_Init+0x20>
F:\WorkSpace\AHL-GEC-EXP\Temp\PWM_Music\Debug/srcc/gec.c:21
    {
        flash_write_physical((MCU_SECTOR_NUM-1)*MCU_SECTORSIZE+
    9b1e:	4a2b      	ldr	r2, [pc, #172]	; (9bcc <Vectors_Init+0xc0>)
    9b20:	23fc      	movs	r3, #252	; 0xfc
    9b22:	021b      	lsls	r3, r3, #8
    9b24:	2118      	movs	r1, #24
    9b26:	0018      	movs	r0, r3
    9b28:	f7ff fbc6 	bl	92b8 <flash_write_physical>
F:\WorkSpace\AHL-GEC-EXP\Temp\PWM_Music\Debug/srcc/gec.c:25
        MCU_FLASH_ADDR_START,24,(uint8_t *)"0123456789ABCDEF20200716");
    }
    //（2）继承BIOS的串口中断              
    void ** bios=MCU_FLASH_ADDR_START;   //向量表起始地址  
    9b2c:	2300      	movs	r3, #0
    9b2e:	aaff      	add	r2, sp, #1020	; 0x3fc
    9b30:	3208      	adds	r2, #8
    9b32:	6013      	str	r3, [r2, #0]
F:\WorkSpace\AHL-GEC-EXP\Temp\PWM_Music\Debug/srcc/gec.c:28
    uint32_t user[MCU_SECTORSIZE/4];     //向量表变量数组
    //读取USER中断向量表各中断处理程序地址赋给user数组
    flash_read_physical((uint8_t *)user,GEC_USER_SECTOR_START*
    9b34:	2380      	movs	r3, #128	; 0x80
    9b36:	00da      	lsls	r2, r3, #3
    9b38:	23d0      	movs	r3, #208	; 0xd0
    9b3a:	01d9      	lsls	r1, r3, #7
    9b3c:	ab01      	add	r3, sp, #4
    9b3e:	0018      	movs	r0, r3
    9b40:	f7ff fc02 	bl	9348 <flash_read_physical>
F:\WorkSpace\AHL-GEC-EXP\Temp\PWM_Music\Debug/srcc/gec.c:32
    MCU_SECTORSIZE+MCU_FLASH_ADDR_START,MCU_SECTORSIZE);
    //判断USER中串口更新中断是否为BIOS对应中断地址。若是，则不作操作；否则修改
    //为BIOS对应中断地址
    if(user[BIOS_UART_UPDATE_IRQn] != (uint32_t)bios[BIOS_UART_UPDATE_IRQn])
    9b44:	4b22      	ldr	r3, [pc, #136]	; (9bd0 <Vectors_Init+0xc4>)
    9b46:	aaff      	add	r2, sp, #1020	; 0x3fc
    9b48:	320c      	adds	r2, #12
    9b4a:	4694      	mov	ip, r2
    9b4c:	4463      	add	r3, ip
    9b4e:	6f9a      	ldr	r2, [r3, #120]	; 0x78
    9b50:	abff      	add	r3, sp, #1020	; 0x3fc
    9b52:	3308      	adds	r3, #8
    9b54:	681b      	ldr	r3, [r3, #0]
    9b56:	3378      	adds	r3, #120	; 0x78
    9b58:	681b      	ldr	r3, [r3, #0]
    9b5a:	429a      	cmp	r2, r3
    9b5c:	d022      	beq.n	9ba4 <Vectors_Init+0x98>
F:\WorkSpace\AHL-GEC-EXP\Temp\PWM_Music\Debug/srcc/gec.c:35
    {
        //改变User中断向量表中BIOS_UART中断向量
        flash_erase(GEC_USER_SECTOR_START);
    9b5e:	201a      	movs	r0, #26
    9b60:	f7ff fb5e 	bl	9220 <flash_erase>
F:\WorkSpace\AHL-GEC-EXP\Temp\PWM_Music\Debug/srcc/gec.c:37
        //改USER中断向量表的BIOS程序写入串口的中断处理程序地址
        user[2]=(uint32_t)bios[2];     //【20200903】
    9b64:	abff      	add	r3, sp, #1020	; 0x3fc
    9b66:	3308      	adds	r3, #8
    9b68:	681b      	ldr	r3, [r3, #0]
    9b6a:	3308      	adds	r3, #8
    9b6c:	681b      	ldr	r3, [r3, #0]
    9b6e:	001a      	movs	r2, r3
    9b70:	4b17      	ldr	r3, [pc, #92]	; (9bd0 <Vectors_Init+0xc4>)
    9b72:	a9ff      	add	r1, sp, #1020	; 0x3fc
    9b74:	310c      	adds	r1, #12
    9b76:	468c      	mov	ip, r1
    9b78:	4463      	add	r3, ip
    9b7a:	609a      	str	r2, [r3, #8]
F:\WorkSpace\AHL-GEC-EXP\Temp\PWM_Music\Debug/srcc/gec.c:38
        user[BIOS_UART_UPDATE_IRQn]=(uint32_t)bios[BIOS_UART_UPDATE_IRQn];
    9b7c:	abff      	add	r3, sp, #1020	; 0x3fc
    9b7e:	3308      	adds	r3, #8
    9b80:	681b      	ldr	r3, [r3, #0]
    9b82:	3378      	adds	r3, #120	; 0x78
    9b84:	681b      	ldr	r3, [r3, #0]
    9b86:	001a      	movs	r2, r3
    9b88:	4b11      	ldr	r3, [pc, #68]	; (9bd0 <Vectors_Init+0xc4>)
    9b8a:	a9ff      	add	r1, sp, #1020	; 0x3fc
    9b8c:	310c      	adds	r1, #12
    9b8e:	468c      	mov	ip, r1
    9b90:	4463      	add	r3, ip
    9b92:	679a      	str	r2, [r3, #120]	; 0x78
F:\WorkSpace\AHL-GEC-EXP\Temp\PWM_Music\Debug/srcc/gec.c:39
        flash_write_physical(GEC_USER_SECTOR_START*MCU_SECTORSIZE+
    9b94:	aa01      	add	r2, sp, #4
    9b96:	2380      	movs	r3, #128	; 0x80
    9b98:	00d9      	lsls	r1, r3, #3
    9b9a:	23d0      	movs	r3, #208	; 0xd0
    9b9c:	01db      	lsls	r3, r3, #7
    9b9e:	0018      	movs	r0, r3
    9ba0:	f7ff fb8a 	bl	92b8 <flash_write_physical>
F:\WorkSpace\AHL-GEC-EXP\Temp\PWM_Music\Debug/srcc/gec.c:44
        MCU_FLASH_ADDR_START,MCU_SECTORSIZE,(uint8_t *)user);
    }
    
    //（3）中断向量表指针重定向到USER程序的中断向量表
    SCB->VTOR = (uint32_t)(GEC_USER_SECTOR_START*MCU_SECTORSIZE+
    9ba4:	4b0b      	ldr	r3, [pc, #44]	; (9bd4 <Vectors_Init+0xc8>)
    9ba6:	22d0      	movs	r2, #208	; 0xd0
    9ba8:	01d2      	lsls	r2, r2, #7
    9baa:	609a      	str	r2, [r3, #8]
F:\WorkSpace\AHL-GEC-EXP\Temp\PWM_Music\Debug/srcc/gec.c:47
    MCU_FLASH_ADDR_START);  
    //（4）给component_fun赋值，SYSTEM_FUNCTION函数用
    component_fun=(void **)(MCU_FLASH_ADDR_START+
    9bac:	4b0a      	ldr	r3, [pc, #40]	; (9bd8 <Vectors_Init+0xcc>)
    9bae:	22e0      	movs	r2, #224	; 0xe0
    9bb0:	0192      	lsls	r2, r2, #6
    9bb2:	601a      	str	r2, [r3, #0]
F:\WorkSpace\AHL-GEC-EXP\Temp\PWM_Music\Debug/srcc/gec.c:50
    GEC_COMPONENT_LST_START*MCU_SECTORSIZE); 
    //（5）printf提示             
    printf("  【User提示】：将进入User的main()执行...\r\n");
    9bb4:	4b09      	ldr	r3, [pc, #36]	; (9bdc <Vectors_Init+0xd0>)
    9bb6:	0018      	movs	r0, r3
    9bb8:	f001 ffd6 	bl	bb68 <myprintf>
F:\WorkSpace\AHL-GEC-EXP\Temp\PWM_Music\Debug/srcc/gec.c:53
    
    #endif
}
    9bbc:	46c0      	nop			; (mov r8, r8)
    9bbe:	2381      	movs	r3, #129	; 0x81
    9bc0:	00db      	lsls	r3, r3, #3
    9bc2:	449d      	add	sp, r3
    9bc4:	bd80      	pop	{r7, pc}
    9bc6:	46c0      	nop			; (mov r8, r8)
    9bc8:	fffffbf8 	.word	0xfffffbf8
    9bcc:	0000bbd8 	.word	0x0000bbd8
    9bd0:	fffffbfc 	.word	0xfffffbfc
    9bd4:	e000ed00 	.word	0xe000ed00
    9bd8:	200004b0 	.word	0x200004b0
    9bdc:	0000bbf4 	.word	0x0000bbf4

00009be0 <NVIC_EnableIRQ>:
NVIC_EnableIRQ():
F:\WorkSpace\AHL-GEC-EXP\Temp\PWM_Music\02_CPU/core_cm0plus.h:684
{
    9be0:	b082      	sub	sp, #8
    9be2:	0002      	movs	r2, r0
    9be4:	466b      	mov	r3, sp
    9be6:	3307      	adds	r3, #7
    9be8:	701a      	strb	r2, [r3, #0]
F:\WorkSpace\AHL-GEC-EXP\Temp\PWM_Music\02_CPU/core_cm0plus.h:685
  NVIC->ISER[0] = (uint32_t)(1UL << (((uint32_t)(int32_t)IRQn) & 0x1FUL));
    9bea:	466b      	mov	r3, sp
    9bec:	3307      	adds	r3, #7
    9bee:	781b      	ldrb	r3, [r3, #0]
    9bf0:	001a      	movs	r2, r3
    9bf2:	231f      	movs	r3, #31
    9bf4:	401a      	ands	r2, r3
    9bf6:	4b04      	ldr	r3, [pc, #16]	; (9c08 <NVIC_EnableIRQ+0x28>)
    9bf8:	2101      	movs	r1, #1
    9bfa:	4091      	lsls	r1, r2
    9bfc:	000a      	movs	r2, r1
    9bfe:	601a      	str	r2, [r3, #0]
F:\WorkSpace\AHL-GEC-EXP\Temp\PWM_Music\02_CPU/core_cm0plus.h:686
}
    9c00:	46c0      	nop			; (mov r8, r8)
    9c02:	b002      	add	sp, #8
    9c04:	4770      	bx	lr
    9c06:	46c0      	nop			; (mov r8, r8)
    9c08:	e000e100 	.word	0xe000e100

00009c0c <uart_init>:
uart_init():
F:\WorkSpace\AHL-GEC-EXP\Temp\PWM_Music\Debug/srcc/uart.c:24
//参数说明：uartNo:串口号：UART_0、UART_1、UART_2 
//          baud:波特率：300、600、1200、2400、4800、9600、19200、115200...
//函数返回：无
//======================================================================
void uart_init(uint8_t uartNo, uint32_t baud_rate)
{
    9c0c:	b500      	push	{lr}
    9c0e:	b087      	sub	sp, #28
    9c10:	0002      	movs	r2, r0
    9c12:	9100      	str	r1, [sp, #0]
    9c14:	466b      	mov	r3, sp
    9c16:	3307      	adds	r3, #7
    9c18:	701a      	strb	r2, [r3, #0]
F:\WorkSpace\AHL-GEC-EXP\Temp\PWM_Music\Debug/srcc/uart.c:28
    //局部变量声明
    uint16_t sbr;
    uint8_t temp;
    UART0_MemMapPtr UART_2h_0 = UART0_BASE_PTR;//UART_2h_0为UART0_MemMapPtr类型指针
    9c1a:	4b91      	ldr	r3, [pc, #580]	; (9e60 <uart_init+0x254>)
    9c1c:	9303      	str	r3, [sp, #12]
F:\WorkSpace\AHL-GEC-EXP\Temp\PWM_Music\Debug/srcc/uart.c:32
    UART_MemMapPtr UART_2h_1_2;    //UART_2h_1_2为UART_MemMapPtr类型指针

    //判断传入串口号参数是否有误，有误直接退出
    if (!uart_is_uartNo(uartNo))
    9c1e:	466b      	mov	r3, sp
    9c20:	3307      	adds	r3, #7
    9c22:	781b      	ldrb	r3, [r3, #0]
    9c24:	0018      	movs	r0, r3
    9c26:	f000 fa25 	bl	a074 <uart_is_uartNo>
    9c2a:	1e03      	subs	r3, r0, #0
    9c2c:	d100      	bne.n	9c30 <uart_init+0x24>
    9c2e:	e114      	b.n	9e5a <uart_init+0x24e>
F:\WorkSpace\AHL-GEC-EXP\Temp\PWM_Music\Debug/srcc/uart.c:38
    {
        return;
    }

    //根据带入参数uartNo，给局部变量UART_2h_0或UART_2h_1_2赋值
    if (uartNo == 0)
    9c30:	466b      	mov	r3, sp
    9c32:	3307      	adds	r3, #7
    9c34:	781b      	ldrb	r3, [r3, #0]
    9c36:	2b00      	cmp	r3, #0
    9c38:	d000      	beq.n	9c3c <uart_init+0x30>
    9c3a:	e08b      	b.n	9d54 <uart_init+0x148>
F:\WorkSpace\AHL-GEC-EXP\Temp\PWM_Music\Debug/srcc/uart.c:41
    {
        //UART0选择MCGFLLCLK_khz=48000Khz时钟源
        SIM_SOPT2 |= SIM_SOPT2_UART0SRC(0x1);
    9c3c:	4a89      	ldr	r2, [pc, #548]	; (9e64 <uart_init+0x258>)
    9c3e:	4b8a      	ldr	r3, [pc, #552]	; (9e68 <uart_init+0x25c>)
    9c40:	58d3      	ldr	r3, [r2, r3]
    9c42:	4988      	ldr	r1, [pc, #544]	; (9e64 <uart_init+0x258>)
    9c44:	2280      	movs	r2, #128	; 0x80
    9c46:	04d2      	lsls	r2, r2, #19
    9c48:	4313      	orrs	r3, r2
    9c4a:	4a87      	ldr	r2, [pc, #540]	; (9e68 <uart_init+0x25c>)
    9c4c:	508b      	str	r3, [r1, r2]
F:\WorkSpace\AHL-GEC-EXP\Temp\PWM_Music\Debug/srcc/uart.c:42
        SIM_SOPT2 &= ~SIM_SOPT2_PLLFLLSEL_MASK;
    9c4e:	4a85      	ldr	r2, [pc, #532]	; (9e64 <uart_init+0x258>)
    9c50:	4b85      	ldr	r3, [pc, #532]	; (9e68 <uart_init+0x25c>)
    9c52:	58d3      	ldr	r3, [r2, r3]
    9c54:	4983      	ldr	r1, [pc, #524]	; (9e64 <uart_init+0x258>)
    9c56:	4a85      	ldr	r2, [pc, #532]	; (9e6c <uart_init+0x260>)
    9c58:	4013      	ands	r3, r2
    9c5a:	4a83      	ldr	r2, [pc, #524]	; (9e68 <uart_init+0x25c>)
    9c5c:	508b      	str	r3, [r1, r2]
F:\WorkSpace\AHL-GEC-EXP\Temp\PWM_Music\Debug/srcc/uart.c:48
#ifdef UART_0_GROUP
        //依据选择配置对应引脚为UART0
        switch (UART_0_GROUP)
        {
        case 0:
            PORTE_PCR20 |= PORT_PCR_MUX(0x4);    //使能UART0_TXD
    9c5e:	4b84      	ldr	r3, [pc, #528]	; (9e70 <uart_init+0x264>)
    9c60:	6d1a      	ldr	r2, [r3, #80]	; 0x50
    9c62:	4b83      	ldr	r3, [pc, #524]	; (9e70 <uart_init+0x264>)
    9c64:	2180      	movs	r1, #128	; 0x80
    9c66:	00c9      	lsls	r1, r1, #3
    9c68:	430a      	orrs	r2, r1
    9c6a:	651a      	str	r2, [r3, #80]	; 0x50
F:\WorkSpace\AHL-GEC-EXP\Temp\PWM_Music\Debug/srcc/uart.c:49
            PORTE_PCR21 |= PORT_PCR_MUX(0x4);    //使能UART0_RXD
    9c6c:	4b80      	ldr	r3, [pc, #512]	; (9e70 <uart_init+0x264>)
    9c6e:	6d5a      	ldr	r2, [r3, #84]	; 0x54
    9c70:	4b7f      	ldr	r3, [pc, #508]	; (9e70 <uart_init+0x264>)
    9c72:	2180      	movs	r1, #128	; 0x80
    9c74:	00c9      	lsls	r1, r1, #3
    9c76:	430a      	orrs	r2, r1
    9c78:	655a      	str	r2, [r3, #84]	; 0x54
F:\WorkSpace\AHL-GEC-EXP\Temp\PWM_Music\Debug/srcc/uart.c:50
            break;
    9c7a:	46c0      	nop			; (mov r8, r8)
F:\WorkSpace\AHL-GEC-EXP\Temp\PWM_Music\Debug/srcc/uart.c:66
            PORTD_PCR7 |= PORT_PCR_MUX(0x3);     //使能UART0_TXD
            PORTD_PCR6 |= PORT_PCR_MUX(0x3);     //使能UART0_RXD
            break;
        }
#endif
        SIM_SCGC4 |= SIM_SCGC4_UART0_MASK;    //启动串口0时钟
    9c7c:	4a79      	ldr	r2, [pc, #484]	; (9e64 <uart_init+0x258>)
    9c7e:	4b7d      	ldr	r3, [pc, #500]	; (9e74 <uart_init+0x268>)
    9c80:	58d3      	ldr	r3, [r2, r3]
    9c82:	4978      	ldr	r1, [pc, #480]	; (9e64 <uart_init+0x258>)
    9c84:	2280      	movs	r2, #128	; 0x80
    9c86:	00d2      	lsls	r2, r2, #3
    9c88:	4313      	orrs	r3, r2
    9c8a:	4a7a      	ldr	r2, [pc, #488]	; (9e74 <uart_init+0x268>)
    9c8c:	508b      	str	r3, [r1, r2]
F:\WorkSpace\AHL-GEC-EXP\Temp\PWM_Music\Debug/srcc/uart.c:69

        //暂时关闭串口0发送与接收功能
        UART0_C2_REG(UART_2h_0) &= ~(UART0_C2_TE_MASK | UART0_C2_RE_MASK);
    9c8e:	9b03      	ldr	r3, [sp, #12]
    9c90:	78db      	ldrb	r3, [r3, #3]
    9c92:	b2db      	uxtb	r3, r3
    9c94:	220c      	movs	r2, #12
    9c96:	4393      	bics	r3, r2
    9c98:	b2da      	uxtb	r2, r3
    9c9a:	9b03      	ldr	r3, [sp, #12]
    9c9c:	70da      	strb	r2, [r3, #3]
F:\WorkSpace\AHL-GEC-EXP\Temp\PWM_Music\Debug/srcc/uart.c:72

        //配置串口工作模式:8位无校验模式
        sbr = (uint16_t)((SystemCoreClock) / (baud_rate * 16));
    9c9e:	4b76      	ldr	r3, [pc, #472]	; (9e78 <uart_init+0x26c>)
    9ca0:	681a      	ldr	r2, [r3, #0]
    9ca2:	9b00      	ldr	r3, [sp, #0]
    9ca4:	011b      	lsls	r3, r3, #4
    9ca6:	0019      	movs	r1, r3
    9ca8:	0010      	movs	r0, r2
    9caa:	f7fc fffd 	bl	6ca8 <__udivsi3>
    9cae:	0003      	movs	r3, r0
    9cb0:	001a      	movs	r2, r3
    9cb2:	2316      	movs	r3, #22
    9cb4:	446b      	add	r3, sp
    9cb6:	801a      	strh	r2, [r3, #0]
F:\WorkSpace\AHL-GEC-EXP\Temp\PWM_Music\Debug/srcc/uart.c:73
        temp = UART0_BDH_REG(UART_2h_0) & ~(UART0_BDH_SBR(0x1F));
    9cb8:	9b03      	ldr	r3, [sp, #12]
    9cba:	781b      	ldrb	r3, [r3, #0]
    9cbc:	b2da      	uxtb	r2, r3
    9cbe:	2315      	movs	r3, #21
    9cc0:	446b      	add	r3, sp
    9cc2:	211f      	movs	r1, #31
    9cc4:	438a      	bics	r2, r1
    9cc6:	701a      	strb	r2, [r3, #0]
F:\WorkSpace\AHL-GEC-EXP\Temp\PWM_Music\Debug/srcc/uart.c:74
        UART0_BDH_REG(UART_2h_0) = temp | UART0_BDH_SBR(((sbr & 0x1F00) >> 8));
    9cc8:	2316      	movs	r3, #22
    9cca:	446b      	add	r3, sp
    9ccc:	881b      	ldrh	r3, [r3, #0]
    9cce:	121b      	asrs	r3, r3, #8
    9cd0:	b2db      	uxtb	r3, r3
    9cd2:	221f      	movs	r2, #31
    9cd4:	4013      	ands	r3, r2
    9cd6:	b2da      	uxtb	r2, r3
    9cd8:	2315      	movs	r3, #21
    9cda:	446b      	add	r3, sp
    9cdc:	781b      	ldrb	r3, [r3, #0]
    9cde:	4313      	orrs	r3, r2
    9ce0:	b2da      	uxtb	r2, r3
    9ce2:	9b03      	ldr	r3, [sp, #12]
    9ce4:	701a      	strb	r2, [r3, #0]
F:\WorkSpace\AHL-GEC-EXP\Temp\PWM_Music\Debug/srcc/uart.c:75
        UART0_BDL_REG(UART_2h_0) = (uint8_t)(sbr & UART0_BDL_SBR_MASK);
    9ce6:	2316      	movs	r3, #22
    9ce8:	446b      	add	r3, sp
    9cea:	881b      	ldrh	r3, [r3, #0]
    9cec:	b2da      	uxtb	r2, r3
    9cee:	9b03      	ldr	r3, [sp, #12]
    9cf0:	705a      	strb	r2, [r3, #1]
F:\WorkSpace\AHL-GEC-EXP\Temp\PWM_Music\Debug/srcc/uart.c:78

        //初始化控制寄存器、清标志位
        UART0_C4_REG(UART_2h_0) = 0x0F;
    9cf2:	9b03      	ldr	r3, [sp, #12]
    9cf4:	220f      	movs	r2, #15
    9cf6:	729a      	strb	r2, [r3, #10]
F:\WorkSpace\AHL-GEC-EXP\Temp\PWM_Music\Debug/srcc/uart.c:79
        UART0_C1_REG(UART_2h_0) = 0x00;
    9cf8:	9b03      	ldr	r3, [sp, #12]
    9cfa:	2200      	movs	r2, #0
    9cfc:	709a      	strb	r2, [r3, #2]
F:\WorkSpace\AHL-GEC-EXP\Temp\PWM_Music\Debug/srcc/uart.c:80
        UART0_C3_REG(UART_2h_0) = 0x00;
    9cfe:	9b03      	ldr	r3, [sp, #12]
    9d00:	2200      	movs	r2, #0
    9d02:	719a      	strb	r2, [r3, #6]
F:\WorkSpace\AHL-GEC-EXP\Temp\PWM_Music\Debug/srcc/uart.c:81
        UART0_MA1_REG(UART_2h_0) = 0x00;
    9d04:	9b03      	ldr	r3, [sp, #12]
    9d06:	2200      	movs	r2, #0
    9d08:	721a      	strb	r2, [r3, #8]
F:\WorkSpace\AHL-GEC-EXP\Temp\PWM_Music\Debug/srcc/uart.c:82
        UART0_MA2_REG(UART_2h_0) = 0x00;
    9d0a:	9b03      	ldr	r3, [sp, #12]
    9d0c:	2200      	movs	r2, #0
    9d0e:	725a      	strb	r2, [r3, #9]
F:\WorkSpace\AHL-GEC-EXP\Temp\PWM_Music\Debug/srcc/uart.c:83
        UART0_S1_REG(UART_2h_0) |= 0x1F;
    9d10:	9b03      	ldr	r3, [sp, #12]
    9d12:	791b      	ldrb	r3, [r3, #4]
    9d14:	b2db      	uxtb	r3, r3
    9d16:	221f      	movs	r2, #31
    9d18:	4313      	orrs	r3, r2
    9d1a:	b2da      	uxtb	r2, r3
    9d1c:	9b03      	ldr	r3, [sp, #12]
    9d1e:	711a      	strb	r2, [r3, #4]
F:\WorkSpace\AHL-GEC-EXP\Temp\PWM_Music\Debug/srcc/uart.c:84
        UART0_S2_REG(UART_2h_0) |= 0xC0;
    9d20:	9b03      	ldr	r3, [sp, #12]
    9d22:	795b      	ldrb	r3, [r3, #5]
    9d24:	b2db      	uxtb	r3, r3
    9d26:	2240      	movs	r2, #64	; 0x40
    9d28:	4252      	negs	r2, r2
    9d2a:	4313      	orrs	r3, r2
    9d2c:	b2da      	uxtb	r2, r3
    9d2e:	9b03      	ldr	r3, [sp, #12]
    9d30:	715a      	strb	r2, [r3, #5]
F:\WorkSpace\AHL-GEC-EXP\Temp\PWM_Music\Debug/srcc/uart.c:86
        //禁用串口发送中断
        UART0_C2_REG(UART_2h_0) &= ~UART0_C2_TIE_MASK;
    9d32:	9b03      	ldr	r3, [sp, #12]
    9d34:	78db      	ldrb	r3, [r3, #3]
    9d36:	b2db      	uxtb	r3, r3
    9d38:	227f      	movs	r2, #127	; 0x7f
    9d3a:	4013      	ands	r3, r2
    9d3c:	b2da      	uxtb	r2, r3
    9d3e:	9b03      	ldr	r3, [sp, #12]
    9d40:	70da      	strb	r2, [r3, #3]
F:\WorkSpace\AHL-GEC-EXP\Temp\PWM_Music\Debug/srcc/uart.c:88
        //启动发送接收
        UART0_C2_REG(UART_2h_0) |= (UART0_C2_TE_MASK | UART0_C2_RE_MASK);
    9d42:	9b03      	ldr	r3, [sp, #12]
    9d44:	78db      	ldrb	r3, [r3, #3]
    9d46:	b2db      	uxtb	r3, r3
    9d48:	220c      	movs	r2, #12
    9d4a:	4313      	orrs	r3, r2
    9d4c:	b2da      	uxtb	r2, r3
    9d4e:	9b03      	ldr	r3, [sp, #12]
    9d50:	70da      	strb	r2, [r3, #3]
    9d52:	e083      	b.n	9e5c <uart_init+0x250>
F:\WorkSpace\AHL-GEC-EXP\Temp\PWM_Music\Debug/srcc/uart.c:92
    }
    else
    {
        switch (uartNo)
    9d54:	466b      	mov	r3, sp
    9d56:	3307      	adds	r3, #7
    9d58:	781b      	ldrb	r3, [r3, #0]
    9d5a:	2b01      	cmp	r3, #1
    9d5c:	d002      	beq.n	9d64 <uart_init+0x158>
    9d5e:	2b02      	cmp	r3, #2
    9d60:	d013      	beq.n	9d8a <uart_init+0x17e>
F:\WorkSpace\AHL-GEC-EXP\Temp\PWM_Music\Debug/srcc/uart.c:140
            }
#endif
            SIM_SCGC4 |= SIM_SCGC4_UART2_MASK;//启动串口2时钟
            break;
        default:
            break;  //传参错误，返回
    9d62:	e025      	b.n	9db0 <uart_init+0x1a4>
F:\WorkSpace\AHL-GEC-EXP\Temp\PWM_Music\Debug/srcc/uart.c:99
                PORTE_PCR0 = PORT_PCR_MUX(0x3);    //使能UART1_TXD
    9d64:	4b42      	ldr	r3, [pc, #264]	; (9e70 <uart_init+0x264>)
    9d66:	22c0      	movs	r2, #192	; 0xc0
    9d68:	0092      	lsls	r2, r2, #2
    9d6a:	601a      	str	r2, [r3, #0]
F:\WorkSpace\AHL-GEC-EXP\Temp\PWM_Music\Debug/srcc/uart.c:100
                PORTE_PCR1 = PORT_PCR_MUX(0x3);    //使能UART1_RXD
    9d6c:	4b40      	ldr	r3, [pc, #256]	; (9e70 <uart_init+0x264>)
    9d6e:	22c0      	movs	r2, #192	; 0xc0
    9d70:	0092      	lsls	r2, r2, #2
    9d72:	605a      	str	r2, [r3, #4]
F:\WorkSpace\AHL-GEC-EXP\Temp\PWM_Music\Debug/srcc/uart.c:101
                break;
    9d74:	46c0      	nop			; (mov r8, r8)
F:\WorkSpace\AHL-GEC-EXP\Temp\PWM_Music\Debug/srcc/uart.c:113
            SIM_SCGC4 |= SIM_SCGC4_UART1_MASK; //启动串口1时钟
    9d76:	4a3b      	ldr	r2, [pc, #236]	; (9e64 <uart_init+0x258>)
    9d78:	4b3e      	ldr	r3, [pc, #248]	; (9e74 <uart_init+0x268>)
    9d7a:	58d3      	ldr	r3, [r2, r3]
    9d7c:	4939      	ldr	r1, [pc, #228]	; (9e64 <uart_init+0x258>)
    9d7e:	2280      	movs	r2, #128	; 0x80
    9d80:	0112      	lsls	r2, r2, #4
    9d82:	4313      	orrs	r3, r2
    9d84:	4a3b      	ldr	r2, [pc, #236]	; (9e74 <uart_init+0x268>)
    9d86:	508b      	str	r3, [r1, r2]
F:\WorkSpace\AHL-GEC-EXP\Temp\PWM_Music\Debug/srcc/uart.c:114
            break;
    9d88:	e012      	b.n	9db0 <uart_init+0x1a4>
F:\WorkSpace\AHL-GEC-EXP\Temp\PWM_Music\Debug/srcc/uart.c:120
                PORTE_PCR16 = PORT_PCR_MUX(0x3); //使能UART2_TXD
    9d8a:	4b39      	ldr	r3, [pc, #228]	; (9e70 <uart_init+0x264>)
    9d8c:	22c0      	movs	r2, #192	; 0xc0
    9d8e:	0092      	lsls	r2, r2, #2
    9d90:	641a      	str	r2, [r3, #64]	; 0x40
F:\WorkSpace\AHL-GEC-EXP\Temp\PWM_Music\Debug/srcc/uart.c:121
                PORTE_PCR17 = PORT_PCR_MUX(0x3); //使能UART2_RXD
    9d92:	4b37      	ldr	r3, [pc, #220]	; (9e70 <uart_init+0x264>)
    9d94:	22c0      	movs	r2, #192	; 0xc0
    9d96:	0092      	lsls	r2, r2, #2
    9d98:	645a      	str	r2, [r3, #68]	; 0x44
F:\WorkSpace\AHL-GEC-EXP\Temp\PWM_Music\Debug/srcc/uart.c:122
                break;
    9d9a:	46c0      	nop			; (mov r8, r8)
F:\WorkSpace\AHL-GEC-EXP\Temp\PWM_Music\Debug/srcc/uart.c:137
            SIM_SCGC4 |= SIM_SCGC4_UART2_MASK;//启动串口2时钟
    9d9c:	4a31      	ldr	r2, [pc, #196]	; (9e64 <uart_init+0x258>)
    9d9e:	4b35      	ldr	r3, [pc, #212]	; (9e74 <uart_init+0x268>)
    9da0:	58d3      	ldr	r3, [r2, r3]
    9da2:	4930      	ldr	r1, [pc, #192]	; (9e64 <uart_init+0x258>)
    9da4:	2280      	movs	r2, #128	; 0x80
    9da6:	0152      	lsls	r2, r2, #5
    9da8:	4313      	orrs	r3, r2
    9daa:	4a32      	ldr	r2, [pc, #200]	; (9e74 <uart_init+0x268>)
    9dac:	508b      	str	r3, [r1, r2]
F:\WorkSpace\AHL-GEC-EXP\Temp\PWM_Music\Debug/srcc/uart.c:138
            break;
    9dae:	46c0      	nop			; (mov r8, r8)
F:\WorkSpace\AHL-GEC-EXP\Temp\PWM_Music\Debug/srcc/uart.c:142
        }
        UART_2h_1_2 = UART_ARR[uartNo - 1]; //获得UART1、2模块相应口基地址
    9db0:	466b      	mov	r3, sp
    9db2:	3307      	adds	r3, #7
    9db4:	781b      	ldrb	r3, [r3, #0]
    9db6:	1e5a      	subs	r2, r3, #1
    9db8:	4b30      	ldr	r3, [pc, #192]	; (9e7c <uart_init+0x270>)
    9dba:	0092      	lsls	r2, r2, #2
    9dbc:	58d3      	ldr	r3, [r2, r3]
    9dbe:	9304      	str	r3, [sp, #16]
F:\WorkSpace\AHL-GEC-EXP\Temp\PWM_Music\Debug/srcc/uart.c:145

        //暂时关闭串口1、2发送与接收功能
        UART_C2_REG(UART_2h_1_2) &= ~(UART_C2_TE_MASK | UART_C2_RE_MASK);
    9dc0:	9b04      	ldr	r3, [sp, #16]
    9dc2:	78db      	ldrb	r3, [r3, #3]
    9dc4:	b2db      	uxtb	r3, r3
    9dc6:	220c      	movs	r2, #12
    9dc8:	4393      	bics	r3, r2
    9dca:	b2da      	uxtb	r2, r3
    9dcc:	9b04      	ldr	r3, [sp, #16]
    9dce:	70da      	strb	r2, [r3, #3]
F:\WorkSpace\AHL-GEC-EXP\Temp\PWM_Music\Debug/srcc/uart.c:150

        //配置波特率,KL25串口1、2时钟频率使用 Bus clock = 24M 总线时钟
        //配置串口工作模式,8位无校验模式
        //sbr = (uint16_t)((800*1000)/(baud_rate * 16));
        sbr = (uint16_t)((SystemCoreClock / 2) / (baud_rate * 16));
    9dd0:	4b29      	ldr	r3, [pc, #164]	; (9e78 <uart_init+0x26c>)
    9dd2:	681b      	ldr	r3, [r3, #0]
    9dd4:	085a      	lsrs	r2, r3, #1
    9dd6:	9b00      	ldr	r3, [sp, #0]
    9dd8:	011b      	lsls	r3, r3, #4
    9dda:	0019      	movs	r1, r3
    9ddc:	0010      	movs	r0, r2
    9dde:	f7fc ff63 	bl	6ca8 <__udivsi3>
    9de2:	0003      	movs	r3, r0
    9de4:	001a      	movs	r2, r3
    9de6:	2316      	movs	r3, #22
    9de8:	446b      	add	r3, sp
    9dea:	801a      	strh	r2, [r3, #0]
F:\WorkSpace\AHL-GEC-EXP\Temp\PWM_Music\Debug/srcc/uart.c:151
        temp = UART_BDH_REG(UART_2h_1_2) & ~(UART_BDH_SBR(0x1F));
    9dec:	9b04      	ldr	r3, [sp, #16]
    9dee:	781b      	ldrb	r3, [r3, #0]
    9df0:	b2da      	uxtb	r2, r3
    9df2:	2315      	movs	r3, #21
    9df4:	446b      	add	r3, sp
    9df6:	211f      	movs	r1, #31
    9df8:	438a      	bics	r2, r1
    9dfa:	701a      	strb	r2, [r3, #0]
F:\WorkSpace\AHL-GEC-EXP\Temp\PWM_Music\Debug/srcc/uart.c:152
        UART_BDH_REG(UART_2h_1_2) = temp | UART_BDH_SBR(((sbr & 0x1F00) >> 8));
    9dfc:	2316      	movs	r3, #22
    9dfe:	446b      	add	r3, sp
    9e00:	881b      	ldrh	r3, [r3, #0]
    9e02:	121b      	asrs	r3, r3, #8
    9e04:	b2db      	uxtb	r3, r3
    9e06:	221f      	movs	r2, #31
    9e08:	4013      	ands	r3, r2
    9e0a:	b2da      	uxtb	r2, r3
    9e0c:	2315      	movs	r3, #21
    9e0e:	446b      	add	r3, sp
    9e10:	781b      	ldrb	r3, [r3, #0]
    9e12:	4313      	orrs	r3, r2
    9e14:	b2da      	uxtb	r2, r3
    9e16:	9b04      	ldr	r3, [sp, #16]
    9e18:	701a      	strb	r2, [r3, #0]
F:\WorkSpace\AHL-GEC-EXP\Temp\PWM_Music\Debug/srcc/uart.c:153
        UART_BDL_REG(UART_2h_1_2) = (uint8_t)(sbr & UART_BDL_SBR_MASK);
    9e1a:	2316      	movs	r3, #22
    9e1c:	446b      	add	r3, sp
    9e1e:	881b      	ldrh	r3, [r3, #0]
    9e20:	b2da      	uxtb	r2, r3
    9e22:	9b04      	ldr	r3, [sp, #16]
    9e24:	705a      	strb	r2, [r3, #1]
F:\WorkSpace\AHL-GEC-EXP\Temp\PWM_Music\Debug/srcc/uart.c:156

        //初始化控制寄存器、清标志位
        UART_C1_REG(UART_2h_1_2) = 0x00;
    9e26:	9b04      	ldr	r3, [sp, #16]
    9e28:	2200      	movs	r2, #0
    9e2a:	709a      	strb	r2, [r3, #2]
F:\WorkSpace\AHL-GEC-EXP\Temp\PWM_Music\Debug/srcc/uart.c:157
        UART_C3_REG(UART_2h_1_2) = 0x00;
    9e2c:	9b04      	ldr	r3, [sp, #16]
    9e2e:	2200      	movs	r2, #0
    9e30:	719a      	strb	r2, [r3, #6]
F:\WorkSpace\AHL-GEC-EXP\Temp\PWM_Music\Debug/srcc/uart.c:158
        UART_S2_REG(UART_2h_1_2) = 0x00;
    9e32:	9b04      	ldr	r3, [sp, #16]
    9e34:	2200      	movs	r2, #0
    9e36:	715a      	strb	r2, [r3, #5]
F:\WorkSpace\AHL-GEC-EXP\Temp\PWM_Music\Debug/srcc/uart.c:160
        //禁用串口发送中断
        UART_C2_REG(UART_2h_1_2) &= ~UART_C2_TIE_MASK;
    9e38:	9b04      	ldr	r3, [sp, #16]
    9e3a:	78db      	ldrb	r3, [r3, #3]
    9e3c:	b2db      	uxtb	r3, r3
    9e3e:	227f      	movs	r2, #127	; 0x7f
    9e40:	4013      	ands	r3, r2
    9e42:	b2da      	uxtb	r2, r3
    9e44:	9b04      	ldr	r3, [sp, #16]
    9e46:	70da      	strb	r2, [r3, #3]
F:\WorkSpace\AHL-GEC-EXP\Temp\PWM_Music\Debug/srcc/uart.c:162
        //启动发送接收
        UART_C2_REG(UART_2h_1_2) |= (UART_C2_TE_MASK | UART_C2_RE_MASK);
    9e48:	9b04      	ldr	r3, [sp, #16]
    9e4a:	78db      	ldrb	r3, [r3, #3]
    9e4c:	b2db      	uxtb	r3, r3
    9e4e:	220c      	movs	r2, #12
    9e50:	4313      	orrs	r3, r2
    9e52:	b2da      	uxtb	r2, r3
    9e54:	9b04      	ldr	r3, [sp, #16]
    9e56:	70da      	strb	r2, [r3, #3]
    9e58:	e000      	b.n	9e5c <uart_init+0x250>
F:\WorkSpace\AHL-GEC-EXP\Temp\PWM_Music\Debug/srcc/uart.c:34
        return;
    9e5a:	46c0      	nop			; (mov r8, r8)
F:\WorkSpace\AHL-GEC-EXP\Temp\PWM_Music\Debug/srcc/uart.c:164
    }
}
    9e5c:	b007      	add	sp, #28
    9e5e:	bd00      	pop	{pc}
    9e60:	4006a000 	.word	0x4006a000
    9e64:	40047000 	.word	0x40047000
    9e68:	00001004 	.word	0x00001004
    9e6c:	fffeffff 	.word	0xfffeffff
    9e70:	4004d000 	.word	0x4004d000
    9e74:	00001034 	.word	0x00001034
    9e78:	20000410 	.word	0x20000410
    9e7c:	0000bd34 	.word	0x0000bd34

00009e80 <uart_send1>:
uart_send1():
F:\WorkSpace\AHL-GEC-EXP\Temp\PWM_Music\Debug/srcc/uart.c:173
//          ch:要发送的字节
//函数返回：函数执行状态：1=发送成功；0=发送失败。
//功能概要：串行发送1个字节
//======================================================================
uint8_t uart_send1(uint8_t uartNo, uint8_t ch)
{
    9e80:	b500      	push	{lr}
    9e82:	b087      	sub	sp, #28
    9e84:	0002      	movs	r2, r0
    9e86:	466b      	mov	r3, sp
    9e88:	3307      	adds	r3, #7
    9e8a:	701a      	strb	r2, [r3, #0]
    9e8c:	466b      	mov	r3, sp
    9e8e:	3306      	adds	r3, #6
    9e90:	1c0a      	adds	r2, r1, #0
    9e92:	701a      	strb	r2, [r3, #0]
F:\WorkSpace\AHL-GEC-EXP\Temp\PWM_Music\Debug/srcc/uart.c:176
    uint32_t t;
    uint32_t i;
    UART0_MemMapPtr UART_2h_0 = UART0_BASE_PTR; //获取UART0基地址
    9e94:	4b22      	ldr	r3, [pc, #136]	; (9f20 <uart_send1+0xa0>)
    9e96:	9304      	str	r3, [sp, #16]
F:\WorkSpace\AHL-GEC-EXP\Temp\PWM_Music\Debug/srcc/uart.c:177
    UART_MemMapPtr UART_2h_1_2 = UART_ARR[uartNo - 1]; //获取UART1或者2基地址
    9e98:	466b      	mov	r3, sp
    9e9a:	3307      	adds	r3, #7
    9e9c:	781b      	ldrb	r3, [r3, #0]
    9e9e:	1e5a      	subs	r2, r3, #1
    9ea0:	4b20      	ldr	r3, [pc, #128]	; (9f24 <uart_send1+0xa4>)
    9ea2:	0092      	lsls	r2, r2, #2
    9ea4:	58d3      	ldr	r3, [r2, r3]
    9ea6:	9303      	str	r3, [sp, #12]
F:\WorkSpace\AHL-GEC-EXP\Temp\PWM_Music\Debug/srcc/uart.c:185
    {
        __asm (" nop ");
    }
    */
    //判断传入串口号参数是否有误，有误直接退出
    if (!uart_is_uartNo(uartNo))
    9ea8:	466b      	mov	r3, sp
    9eaa:	3307      	adds	r3, #7
    9eac:	781b      	ldrb	r3, [r3, #0]
    9eae:	0018      	movs	r0, r3
    9eb0:	f000 f8e0 	bl	a074 <uart_is_uartNo>
    9eb4:	1e03      	subs	r3, r0, #0
    9eb6:	d101      	bne.n	9ebc <uart_send1+0x3c>
F:\WorkSpace\AHL-GEC-EXP\Temp\PWM_Music\Debug/srcc/uart.c:187
    {
        return 0;
    9eb8:	2300      	movs	r3, #0
    9eba:	e02d      	b.n	9f18 <uart_send1+0x98>
F:\WorkSpace\AHL-GEC-EXP\Temp\PWM_Music\Debug/srcc/uart.c:190
    }

    for (t = 0; t < 0xFBBB; t++)//查询指定次数
    9ebc:	2300      	movs	r3, #0
    9ebe:	9305      	str	r3, [sp, #20]
    9ec0:	e01f      	b.n	9f02 <uart_send1+0x82>
F:\WorkSpace\AHL-GEC-EXP\Temp\PWM_Music\Debug/srcc/uart.c:192
    {
        if (0 == uartNo)     //判断使用的哪个串口
    9ec2:	466b      	mov	r3, sp
    9ec4:	3307      	adds	r3, #7
    9ec6:	781b      	ldrb	r3, [r3, #0]
    9ec8:	2b00      	cmp	r3, #0
    9eca:	d10b      	bne.n	9ee4 <uart_send1+0x64>
F:\WorkSpace\AHL-GEC-EXP\Temp\PWM_Music\Debug/srcc/uart.c:195
        {
            //发送缓冲区为空则发送数据
            if (UART0_S1_REG(UART_2h_0) & UART0_S1_TDRE_MASK)
    9ecc:	9b04      	ldr	r3, [sp, #16]
    9ece:	791b      	ldrb	r3, [r3, #4]
    9ed0:	b2db      	uxtb	r3, r3
    9ed2:	b25b      	sxtb	r3, r3
    9ed4:	2b00      	cmp	r3, #0
    9ed6:	da11      	bge.n	9efc <uart_send1+0x7c>
F:\WorkSpace\AHL-GEC-EXP\Temp\PWM_Music\Debug/srcc/uart.c:197
            {
                UART0_D_REG(UART_2h_0) = ch;
    9ed8:	9b04      	ldr	r3, [sp, #16]
    9eda:	466a      	mov	r2, sp
    9edc:	3206      	adds	r2, #6
    9ede:	7812      	ldrb	r2, [r2, #0]
    9ee0:	71da      	strb	r2, [r3, #7]
F:\WorkSpace\AHL-GEC-EXP\Temp\PWM_Music\Debug/srcc/uart.c:198
                break;
    9ee2:	e012      	b.n	9f0a <uart_send1+0x8a>
F:\WorkSpace\AHL-GEC-EXP\Temp\PWM_Music\Debug/srcc/uart.c:204
            }
        }
        else
        {
            //发送缓冲区为空则发送数据
            if (UART_S1_REG(UART_2h_1_2) & UART_S1_TDRE_MASK)
    9ee4:	9b03      	ldr	r3, [sp, #12]
    9ee6:	791b      	ldrb	r3, [r3, #4]
    9ee8:	b2db      	uxtb	r3, r3
    9eea:	b25b      	sxtb	r3, r3
    9eec:	2b00      	cmp	r3, #0
    9eee:	da05      	bge.n	9efc <uart_send1+0x7c>
F:\WorkSpace\AHL-GEC-EXP\Temp\PWM_Music\Debug/srcc/uart.c:206
            {
                UART_D_REG(UART_2h_1_2) = ch;
    9ef0:	9b03      	ldr	r3, [sp, #12]
    9ef2:	466a      	mov	r2, sp
    9ef4:	3206      	adds	r2, #6
    9ef6:	7812      	ldrb	r2, [r2, #0]
    9ef8:	71da      	strb	r2, [r3, #7]
F:\WorkSpace\AHL-GEC-EXP\Temp\PWM_Music\Debug/srcc/uart.c:207
                break;
    9efa:	e006      	b.n	9f0a <uart_send1+0x8a>
F:\WorkSpace\AHL-GEC-EXP\Temp\PWM_Music\Debug/srcc/uart.c:190 (discriminator 2)
    for (t = 0; t < 0xFBBB; t++)//查询指定次数
    9efc:	9b05      	ldr	r3, [sp, #20]
    9efe:	3301      	adds	r3, #1
    9f00:	9305      	str	r3, [sp, #20]
F:\WorkSpace\AHL-GEC-EXP\Temp\PWM_Music\Debug/srcc/uart.c:190 (discriminator 1)
    9f02:	9b05      	ldr	r3, [sp, #20]
    9f04:	4a08      	ldr	r2, [pc, #32]	; (9f28 <uart_send1+0xa8>)
    9f06:	4293      	cmp	r3, r2
    9f08:	d9db      	bls.n	9ec2 <uart_send1+0x42>
F:\WorkSpace\AHL-GEC-EXP\Temp\PWM_Music\Debug/srcc/uart.c:217
    for(i=0;i<5000;i++)
    {
        __asm (" nop ");
    }
    */
    if (t >= 0xFBBB)
    9f0a:	9b05      	ldr	r3, [sp, #20]
    9f0c:	4a06      	ldr	r2, [pc, #24]	; (9f28 <uart_send1+0xa8>)
    9f0e:	4293      	cmp	r3, r2
    9f10:	d901      	bls.n	9f16 <uart_send1+0x96>
F:\WorkSpace\AHL-GEC-EXP\Temp\PWM_Music\Debug/srcc/uart.c:218
        return 0; //发送超时，发送失败
    9f12:	2300      	movs	r3, #0
    9f14:	e000      	b.n	9f18 <uart_send1+0x98>
F:\WorkSpace\AHL-GEC-EXP\Temp\PWM_Music\Debug/srcc/uart.c:220
    else
        return 1; //成功发送
    9f16:	2301      	movs	r3, #1
F:\WorkSpace\AHL-GEC-EXP\Temp\PWM_Music\Debug/srcc/uart.c:221
}
    9f18:	0018      	movs	r0, r3
    9f1a:	b007      	add	sp, #28
    9f1c:	bd00      	pop	{pc}
    9f1e:	46c0      	nop			; (mov r8, r8)
    9f20:	4006a000 	.word	0x4006a000
    9f24:	0000bd34 	.word	0x0000bd34
    9f28:	0000fbba 	.word	0x0000fbba

00009f2c <uart_re1>:
uart_re1():
F:\WorkSpace\AHL-GEC-EXP\Temp\PWM_Music\Debug/srcc/uart.c:285
//        *fp:接收成功标志的指针:*fp=1:接收成功；*fp=0:接收失败
//函数返回：接收返回字节
//功能概要：串行接收1个字节
//======================================================================
uint8_t uart_re1(uint8_t uartNo, uint8_t* fp)
{
    9f2c:	b500      	push	{lr}
    9f2e:	b087      	sub	sp, #28
    9f30:	0002      	movs	r2, r0
    9f32:	9100      	str	r1, [sp, #0]
    9f34:	466b      	mov	r3, sp
    9f36:	3307      	adds	r3, #7
    9f38:	701a      	strb	r2, [r3, #0]
F:\WorkSpace\AHL-GEC-EXP\Temp\PWM_Music\Debug/srcc/uart.c:288
    uint32_t t;
    uint8_t  dat;
    UART0_MemMapPtr UART_2h_0 = UART0_BASE_PTR; //获取UART0基地址
    9f3a:	4b2b      	ldr	r3, [pc, #172]	; (9fe8 <uart_re1+0xbc>)
    9f3c:	9303      	str	r3, [sp, #12]
F:\WorkSpace\AHL-GEC-EXP\Temp\PWM_Music\Debug/srcc/uart.c:289
    UART_MemMapPtr UART_2h_1_2 = UART_ARR[uartNo - 1]; //获取UART1或者2基地址
    9f3e:	466b      	mov	r3, sp
    9f40:	3307      	adds	r3, #7
    9f42:	781b      	ldrb	r3, [r3, #0]
    9f44:	1e5a      	subs	r2, r3, #1
    9f46:	4b29      	ldr	r3, [pc, #164]	; (9fec <uart_re1+0xc0>)
    9f48:	0092      	lsls	r2, r2, #2
    9f4a:	58d3      	ldr	r3, [r2, r3]
    9f4c:	9302      	str	r3, [sp, #8]
F:\WorkSpace\AHL-GEC-EXP\Temp\PWM_Music\Debug/srcc/uart.c:292

    //判断传入串口号参数是否有误，有误直接退出
    if (!uart_is_uartNo(uartNo))
    9f4e:	466b      	mov	r3, sp
    9f50:	3307      	adds	r3, #7
    9f52:	781b      	ldrb	r3, [r3, #0]
    9f54:	0018      	movs	r0, r3
    9f56:	f000 f88d 	bl	a074 <uart_is_uartNo>
    9f5a:	1e03      	subs	r3, r0, #0
    9f5c:	d104      	bne.n	9f68 <uart_re1+0x3c>
F:\WorkSpace\AHL-GEC-EXP\Temp\PWM_Music\Debug/srcc/uart.c:294
    {
        *fp = 0;
    9f5e:	9b00      	ldr	r3, [sp, #0]
    9f60:	2200      	movs	r2, #0
    9f62:	701a      	strb	r2, [r3, #0]
F:\WorkSpace\AHL-GEC-EXP\Temp\PWM_Music\Debug/srcc/uart.c:295
        return 0;
    9f64:	2300      	movs	r3, #0
    9f66:	e03c      	b.n	9fe2 <uart_re1+0xb6>
F:\WorkSpace\AHL-GEC-EXP\Temp\PWM_Music\Debug/srcc/uart.c:298
    }

    for (t = 0; t < 0xFBBB; t++)//查询指定次数
    9f68:	2300      	movs	r3, #0
    9f6a:	9305      	str	r3, [sp, #20]
    9f6c:	e027      	b.n	9fbe <uart_re1+0x92>
F:\WorkSpace\AHL-GEC-EXP\Temp\PWM_Music\Debug/srcc/uart.c:300
    {
        if (0 == uartNo)  //判断使用的哪个串口
    9f6e:	466b      	mov	r3, sp
    9f70:	3307      	adds	r3, #7
    9f72:	781b      	ldrb	r3, [r3, #0]
    9f74:	2b00      	cmp	r3, #0
    9f76:	d10f      	bne.n	9f98 <uart_re1+0x6c>
F:\WorkSpace\AHL-GEC-EXP\Temp\PWM_Music\Debug/srcc/uart.c:303
        {
            //判断接收缓冲区是否满
            if (UART0_S1_REG(UART_2h_0) & UART0_S1_RDRF_MASK)
    9f78:	9b03      	ldr	r3, [sp, #12]
    9f7a:	791b      	ldrb	r3, [r3, #4]
    9f7c:	b2db      	uxtb	r3, r3
    9f7e:	001a      	movs	r2, r3
    9f80:	2320      	movs	r3, #32
    9f82:	4013      	ands	r3, r2
    9f84:	d018      	beq.n	9fb8 <uart_re1+0x8c>
F:\WorkSpace\AHL-GEC-EXP\Temp\PWM_Music\Debug/srcc/uart.c:305
            {
                dat = UART0_D_REG(UART_2h_0);    //获取数据,清接收中断位
    9f86:	2313      	movs	r3, #19
    9f88:	446b      	add	r3, sp
    9f8a:	9a03      	ldr	r2, [sp, #12]
    9f8c:	79d2      	ldrb	r2, [r2, #7]
    9f8e:	701a      	strb	r2, [r3, #0]
F:\WorkSpace\AHL-GEC-EXP\Temp\PWM_Music\Debug/srcc/uart.c:306
                *fp = 1;  //接收成功
    9f90:	9b00      	ldr	r3, [sp, #0]
    9f92:	2201      	movs	r2, #1
    9f94:	701a      	strb	r2, [r3, #0]
F:\WorkSpace\AHL-GEC-EXP\Temp\PWM_Music\Debug/srcc/uart.c:307
                break;
    9f96:	e016      	b.n	9fc6 <uart_re1+0x9a>
F:\WorkSpace\AHL-GEC-EXP\Temp\PWM_Music\Debug/srcc/uart.c:313
            }
        }
        else
        {
            //判断接收缓冲区是否满
            if (UART_S1_REG(UART_2h_1_2) & UART_S1_RDRF_MASK)
    9f98:	9b02      	ldr	r3, [sp, #8]
    9f9a:	791b      	ldrb	r3, [r3, #4]
    9f9c:	b2db      	uxtb	r3, r3
    9f9e:	001a      	movs	r2, r3
    9fa0:	2320      	movs	r3, #32
    9fa2:	4013      	ands	r3, r2
    9fa4:	d008      	beq.n	9fb8 <uart_re1+0x8c>
F:\WorkSpace\AHL-GEC-EXP\Temp\PWM_Music\Debug/srcc/uart.c:315
            {
                dat = UART_D_REG(UART_2h_1_2);    //获取数据,清接收中断位
    9fa6:	2313      	movs	r3, #19
    9fa8:	446b      	add	r3, sp
    9faa:	9a02      	ldr	r2, [sp, #8]
    9fac:	79d2      	ldrb	r2, [r2, #7]
    9fae:	701a      	strb	r2, [r3, #0]
F:\WorkSpace\AHL-GEC-EXP\Temp\PWM_Music\Debug/srcc/uart.c:316
                *fp = 1;  //接收成功
    9fb0:	9b00      	ldr	r3, [sp, #0]
    9fb2:	2201      	movs	r2, #1
    9fb4:	701a      	strb	r2, [r3, #0]
F:\WorkSpace\AHL-GEC-EXP\Temp\PWM_Music\Debug/srcc/uart.c:317
                break;
    9fb6:	e006      	b.n	9fc6 <uart_re1+0x9a>
F:\WorkSpace\AHL-GEC-EXP\Temp\PWM_Music\Debug/srcc/uart.c:298 (discriminator 2)
    for (t = 0; t < 0xFBBB; t++)//查询指定次数
    9fb8:	9b05      	ldr	r3, [sp, #20]
    9fba:	3301      	adds	r3, #1
    9fbc:	9305      	str	r3, [sp, #20]
F:\WorkSpace\AHL-GEC-EXP\Temp\PWM_Music\Debug/srcc/uart.c:298 (discriminator 1)
    9fbe:	9b05      	ldr	r3, [sp, #20]
    9fc0:	4a0b      	ldr	r2, [pc, #44]	; (9ff0 <uart_re1+0xc4>)
    9fc2:	4293      	cmp	r3, r2
    9fc4:	d9d3      	bls.n	9f6e <uart_re1+0x42>
F:\WorkSpace\AHL-GEC-EXP\Temp\PWM_Music\Debug/srcc/uart.c:321
            }
        }
    }//end for
    if (t >= 0xFBBB)
    9fc6:	9b05      	ldr	r3, [sp, #20]
    9fc8:	4a09      	ldr	r2, [pc, #36]	; (9ff0 <uart_re1+0xc4>)
    9fca:	4293      	cmp	r3, r2
    9fcc:	d906      	bls.n	9fdc <uart_re1+0xb0>
F:\WorkSpace\AHL-GEC-EXP\Temp\PWM_Music\Debug/srcc/uart.c:323
    {
        dat = 0xFF;
    9fce:	2313      	movs	r3, #19
    9fd0:	446b      	add	r3, sp
    9fd2:	22ff      	movs	r2, #255	; 0xff
    9fd4:	701a      	strb	r2, [r3, #0]
F:\WorkSpace\AHL-GEC-EXP\Temp\PWM_Music\Debug/srcc/uart.c:324
        *fp = 0;    //未收到数据
    9fd6:	9b00      	ldr	r3, [sp, #0]
    9fd8:	2200      	movs	r2, #0
    9fda:	701a      	strb	r2, [r3, #0]
F:\WorkSpace\AHL-GEC-EXP\Temp\PWM_Music\Debug/srcc/uart.c:326
    }
    return dat;    //返回接收到的数据
    9fdc:	2313      	movs	r3, #19
    9fde:	446b      	add	r3, sp
    9fe0:	781b      	ldrb	r3, [r3, #0]
F:\WorkSpace\AHL-GEC-EXP\Temp\PWM_Music\Debug/srcc/uart.c:327
}
    9fe2:	0018      	movs	r0, r3
    9fe4:	b007      	add	sp, #28
    9fe6:	bd00      	pop	{pc}
    9fe8:	4006a000 	.word	0x4006a000
    9fec:	0000bd34 	.word	0x0000bd34
    9ff0:	0000fbba 	.word	0x0000fbba

00009ff4 <uart_enable_re_int>:
uart_enable_re_int():
F:\WorkSpace\AHL-GEC-EXP\Temp\PWM_Music\Debug/srcc/uart.c:359
//参数说明：uartNo: 串口号:UART_0、UART_1、UART_2 
//函数返回：无
//功能概要：开串口接收中断
//======================================================================
void uart_enable_re_int(uint8_t uartNo)
{
    9ff4:	b500      	push	{lr}
    9ff6:	b085      	sub	sp, #20
    9ff8:	0002      	movs	r2, r0
    9ffa:	466b      	mov	r3, sp
    9ffc:	3307      	adds	r3, #7
    9ffe:	701a      	strb	r2, [r3, #0]
F:\WorkSpace\AHL-GEC-EXP\Temp\PWM_Music\Debug/srcc/uart.c:360
    UART0_MemMapPtr UART_2h_0 = UART0_BASE_PTR; //获取UART0基地址
    a000:	4b19      	ldr	r3, [pc, #100]	; (a068 <uart_enable_re_int+0x74>)
    a002:	9303      	str	r3, [sp, #12]
F:\WorkSpace\AHL-GEC-EXP\Temp\PWM_Music\Debug/srcc/uart.c:361
    UART_MemMapPtr UART_2h_1_2 = UART_ARR[uartNo - 1]; //获取UART1或者2基地址
    a004:	466b      	mov	r3, sp
    a006:	3307      	adds	r3, #7
    a008:	781b      	ldrb	r3, [r3, #0]
    a00a:	1e5a      	subs	r2, r3, #1
    a00c:	4b17      	ldr	r3, [pc, #92]	; (a06c <uart_enable_re_int+0x78>)
    a00e:	0092      	lsls	r2, r2, #2
    a010:	58d3      	ldr	r3, [r2, r3]
    a012:	9302      	str	r3, [sp, #8]
F:\WorkSpace\AHL-GEC-EXP\Temp\PWM_Music\Debug/srcc/uart.c:364

    //判断传入串口号参数是否有误，有误直接退出
    if (!uart_is_uartNo(uartNo))
    a014:	466b      	mov	r3, sp
    a016:	3307      	adds	r3, #7
    a018:	781b      	ldrb	r3, [r3, #0]
    a01a:	0018      	movs	r0, r3
    a01c:	f000 f82a 	bl	a074 <uart_is_uartNo>
    a020:	1e03      	subs	r3, r0, #0
    a022:	d01e      	beq.n	a062 <uart_enable_re_int+0x6e>
F:\WorkSpace\AHL-GEC-EXP\Temp\PWM_Music\Debug/srcc/uart.c:369
    {
        return;
    }

    if (0 == uartNo)
    a024:	466b      	mov	r3, sp
    a026:	3307      	adds	r3, #7
    a028:	781b      	ldrb	r3, [r3, #0]
    a02a:	2b00      	cmp	r3, #0
    a02c:	d108      	bne.n	a040 <uart_enable_re_int+0x4c>
F:\WorkSpace\AHL-GEC-EXP\Temp\PWM_Music\Debug/srcc/uart.c:370
        UART0_C2_REG(UART_2h_0) |= UART0_C2_RIE_MASK;    //开放UART接收中断
    a02e:	9b03      	ldr	r3, [sp, #12]
    a030:	78db      	ldrb	r3, [r3, #3]
    a032:	b2db      	uxtb	r3, r3
    a034:	2220      	movs	r2, #32
    a036:	4313      	orrs	r3, r2
    a038:	b2da      	uxtb	r2, r3
    a03a:	9b03      	ldr	r3, [sp, #12]
    a03c:	70da      	strb	r2, [r3, #3]
    a03e:	e007      	b.n	a050 <uart_enable_re_int+0x5c>
F:\WorkSpace\AHL-GEC-EXP\Temp\PWM_Music\Debug/srcc/uart.c:372
    else
        UART_C2_REG(UART_2h_1_2) |= UART_C2_RIE_MASK;    //开放UART接收中断
    a040:	9b02      	ldr	r3, [sp, #8]
    a042:	78db      	ldrb	r3, [r3, #3]
    a044:	b2db      	uxtb	r3, r3
    a046:	2220      	movs	r2, #32
    a048:	4313      	orrs	r3, r2
    a04a:	b2da      	uxtb	r2, r3
    a04c:	9b02      	ldr	r3, [sp, #8]
    a04e:	70da      	strb	r2, [r3, #3]
F:\WorkSpace\AHL-GEC-EXP\Temp\PWM_Music\Debug/srcc/uart.c:373
    NVIC_EnableIRQ(table_irq_uart[uartNo]);    //开中断控制器IRQ中断
    a050:	466b      	mov	r3, sp
    a052:	3307      	adds	r3, #7
    a054:	781b      	ldrb	r3, [r3, #0]
    a056:	4a06      	ldr	r2, [pc, #24]	; (a070 <uart_enable_re_int+0x7c>)
    a058:	56d3      	ldrsb	r3, [r2, r3]
    a05a:	0018      	movs	r0, r3
    a05c:	f7ff fdc0 	bl	9be0 <NVIC_EnableIRQ>
    a060:	e000      	b.n	a064 <uart_enable_re_int+0x70>
F:\WorkSpace\AHL-GEC-EXP\Temp\PWM_Music\Debug/srcc/uart.c:366
        return;
    a062:	46c0      	nop			; (mov r8, r8)
F:\WorkSpace\AHL-GEC-EXP\Temp\PWM_Music\Debug/srcc/uart.c:374
}
    a064:	b005      	add	sp, #20
    a066:	bd00      	pop	{pc}
    a068:	4006a000 	.word	0x4006a000
    a06c:	0000bd34 	.word	0x0000bd34
    a070:	20000420 	.word	0x20000420

0000a074 <uart_is_uartNo>:
uart_is_uartNo():
F:\WorkSpace\AHL-GEC-EXP\Temp\PWM_Music\Debug/srcc/uart.c:533
//函数返回：1:串口号在合理范围内，0：串口号不合理
//参数说明：串口号uartNo  :UART_0、UART_1、UART_2
//功能概要：为程序健壮性而判断uartNo是否在串口数字范围内
//=====================================================================
uint8_t uart_is_uartNo(uint8_t uartNo)
{
    a074:	b082      	sub	sp, #8
    a076:	0002      	movs	r2, r0
    a078:	466b      	mov	r3, sp
    a07a:	3307      	adds	r3, #7
    a07c:	701a      	strb	r2, [r3, #0]
F:\WorkSpace\AHL-GEC-EXP\Temp\PWM_Music\Debug/srcc/uart.c:534
    if (uartNo < UART_0 || uartNo > UART_2)
    a07e:	466b      	mov	r3, sp
    a080:	3307      	adds	r3, #7
    a082:	781b      	ldrb	r3, [r3, #0]
    a084:	2b02      	cmp	r3, #2
    a086:	d901      	bls.n	a08c <uart_is_uartNo+0x18>
F:\WorkSpace\AHL-GEC-EXP\Temp\PWM_Music\Debug/srcc/uart.c:535
        return 0;
    a088:	2300      	movs	r3, #0
    a08a:	e000      	b.n	a08e <uart_is_uartNo+0x1a>
F:\WorkSpace\AHL-GEC-EXP\Temp\PWM_Music\Debug/srcc/uart.c:537
    else
        return 1;
    a08c:	2301      	movs	r3, #1
F:\WorkSpace\AHL-GEC-EXP\Temp\PWM_Music\Debug/srcc/uart.c:538
}
    a08e:	0018      	movs	r0, r3
    a090:	b002      	add	sp, #8
    a092:	4770      	bx	lr

0000a094 <play>:
play():
F:\WorkSpace\AHL-GEC-EXP\Temp\PWM_Music\Debug/srcc/music.c:19
// // 涓 medium sound
// const ms[7] = {0, Do, Re, Me, Fa, So, La, Si};
// // 楂 high sound
// const hs[7] = {0, Do1, Re1, Me1, Fa1, So1, La1, Si1};

void play(uint32_t tone, uint32_t beat) {
    a094:	b500      	push	{lr}
    a096:	b085      	sub	sp, #20
    a098:	9003      	str	r0, [sp, #12]
    a09a:	9102      	str	r1, [sp, #8]
F:\WorkSpace\AHL-GEC-EXP\Temp\PWM_Music\Debug/srcc/music.c:20
  gBeat = beat;
    a09c:	4b0c      	ldr	r3, [pc, #48]	; (a0d0 <play+0x3c>)
    a09e:	9a02      	ldr	r2, [sp, #8]
    a0a0:	601a      	str	r2, [r3, #0]
F:\WorkSpace\AHL-GEC-EXP\Temp\PWM_Music\Debug/srcc/music.c:21
  pwm_init(PWM_USER, 3, tone, 50, PWM_EDGE, PWM_PLUS);
    a0a2:	9b03      	ldr	r3, [sp, #12]
    a0a4:	b29a      	uxth	r2, r3
    a0a6:	490b      	ldr	r1, [pc, #44]	; (a0d4 <play+0x40>)
    a0a8:	480b      	ldr	r0, [pc, #44]	; (a0d8 <play+0x44>)
    a0aa:	2300      	movs	r3, #0
    a0ac:	9301      	str	r3, [sp, #4]
    a0ae:	2300      	movs	r3, #0
    a0b0:	9300      	str	r3, [sp, #0]
    a0b2:	1c0b      	adds	r3, r1, #0
    a0b4:	2103      	movs	r1, #3
    a0b6:	f7ff f9d9 	bl	946c <pwm_init>
F:\WorkSpace\AHL-GEC-EXP\Temp\PWM_Music\Debug/srcc/music.c:22
  while (gBeat > 0) {
    a0ba:	e000      	b.n	a0be <play+0x2a>
F:\WorkSpace\AHL-GEC-EXP\Temp\PWM_Music\Debug/srcc/music.c:23
    __asm("nop");
    a0bc:	46c0      	nop			; (mov r8, r8)
F:\WorkSpace\AHL-GEC-EXP\Temp\PWM_Music\Debug/srcc/music.c:22
  while (gBeat > 0) {
    a0be:	4b04      	ldr	r3, [pc, #16]	; (a0d0 <play+0x3c>)
    a0c0:	681b      	ldr	r3, [r3, #0]
    a0c2:	2b00      	cmp	r3, #0
    a0c4:	d1fa      	bne.n	a0bc <play+0x28>
F:\WorkSpace\AHL-GEC-EXP\Temp\PWM_Music\Debug/srcc/music.c:25
  }
}
    a0c6:	46c0      	nop			; (mov r8, r8)
    a0c8:	46c0      	nop			; (mov r8, r8)
    a0ca:	b005      	add	sp, #20
    a0cc:	bd00      	pop	{pc}
    a0ce:	46c0      	nop			; (mov r8, r8)
    a0d0:	20000440 	.word	0x20000440
    a0d4:	42480000 	.word	0x42480000
    a0d8:	00000203 	.word	0x00000203

0000a0dc <playStart>:
playStart():
F:\WorkSpace\AHL-GEC-EXP\Temp\PWM_Music\Debug/srcc/music.c:27

void playStart() {
    a0dc:	b510      	push	{r4, lr}
F:\WorkSpace\AHL-GEC-EXP\Temp\PWM_Music\Debug/srcc/music.c:28
  play(tones[1][1], 600);
    a0de:	4a1d      	ldr	r2, [pc, #116]	; (a154 <playStart+0x78>)
    a0e0:	2396      	movs	r3, #150	; 0x96
    a0e2:	009b      	lsls	r3, r3, #2
    a0e4:	0019      	movs	r1, r3
    a0e6:	0010      	movs	r0, r2
    a0e8:	f7ff ffd4 	bl	a094 <play>
F:\WorkSpace\AHL-GEC-EXP\Temp\PWM_Music\Debug/srcc/music.c:29
  play(tones[2][1], 600);
    a0ec:	4a1a      	ldr	r2, [pc, #104]	; (a158 <playStart+0x7c>)
    a0ee:	2396      	movs	r3, #150	; 0x96
    a0f0:	009b      	lsls	r3, r3, #2
    a0f2:	0019      	movs	r1, r3
    a0f4:	0010      	movs	r0, r2
    a0f6:	f7ff ffcd 	bl	a094 <play>
F:\WorkSpace\AHL-GEC-EXP\Temp\PWM_Music\Debug/srcc/music.c:30
  play(tones[3][1], 600);
    a0fa:	4a18      	ldr	r2, [pc, #96]	; (a15c <playStart+0x80>)
    a0fc:	2396      	movs	r3, #150	; 0x96
    a0fe:	009b      	lsls	r3, r3, #2
    a100:	0019      	movs	r1, r3
    a102:	0010      	movs	r0, r2
    a104:	f7ff ffc6 	bl	a094 <play>
F:\WorkSpace\AHL-GEC-EXP\Temp\PWM_Music\Debug/srcc/music.c:31
  play(tones[4][1], 600);
    a108:	4a15      	ldr	r2, [pc, #84]	; (a160 <playStart+0x84>)
    a10a:	2396      	movs	r3, #150	; 0x96
    a10c:	009b      	lsls	r3, r3, #2
    a10e:	0019      	movs	r1, r3
    a110:	0010      	movs	r0, r2
    a112:	f7ff ffbf 	bl	a094 <play>
F:\WorkSpace\AHL-GEC-EXP\Temp\PWM_Music\Debug/srcc/music.c:32
  play(tones[5][1], 600);
    a116:	4a13      	ldr	r2, [pc, #76]	; (a164 <playStart+0x88>)
    a118:	2396      	movs	r3, #150	; 0x96
    a11a:	009b      	lsls	r3, r3, #2
    a11c:	0019      	movs	r1, r3
    a11e:	0010      	movs	r0, r2
    a120:	f7ff ffb8 	bl	a094 <play>
F:\WorkSpace\AHL-GEC-EXP\Temp\PWM_Music\Debug/srcc/music.c:33
  play(tones[6][1], 600);
    a124:	4a10      	ldr	r2, [pc, #64]	; (a168 <playStart+0x8c>)
    a126:	2396      	movs	r3, #150	; 0x96
    a128:	009b      	lsls	r3, r3, #2
    a12a:	0019      	movs	r1, r3
    a12c:	0010      	movs	r0, r2
    a12e:	f7ff ffb1 	bl	a094 <play>
F:\WorkSpace\AHL-GEC-EXP\Temp\PWM_Music\Debug/srcc/music.c:34
  play(tones[7][1], 600);
    a132:	4a0e      	ldr	r2, [pc, #56]	; (a16c <playStart+0x90>)
    a134:	2396      	movs	r3, #150	; 0x96
    a136:	009b      	lsls	r3, r3, #2
    a138:	0019      	movs	r1, r3
    a13a:	0010      	movs	r0, r2
    a13c:	f7ff ffaa 	bl	a094 <play>
F:\WorkSpace\AHL-GEC-EXP\Temp\PWM_Music\Debug/srcc/music.c:35
  play(tones[0][0], 600);
    a140:	2200      	movs	r2, #0
    a142:	2396      	movs	r3, #150	; 0x96
    a144:	009b      	lsls	r3, r3, #2
    a146:	0019      	movs	r1, r3
    a148:	0010      	movs	r0, r2
    a14a:	f7ff ffa3 	bl	a094 <play>
F:\WorkSpace\AHL-GEC-EXP\Temp\PWM_Music\Debug/srcc/music.c:36
}
    a14e:	46c0      	nop			; (mov r8, r8)
    a150:	bd10      	pop	{r4, pc}
    a152:	46c0      	nop			; (mov r8, r8)
    a154:	00000b42 	.word	0x00000b42
    a158:	00000a07 	.word	0x00000a07
    a15c:	000008ef 	.word	0x000008ef
    a160:	0000086f 	.word	0x0000086f
    a164:	00000782 	.word	0x00000782
    a168:	000006b1 	.word	0x000006b1
    a16c:	000005f5 	.word	0x000005f5

0000a170 <playHappyBirthday>:
playHappyBirthday():
F:\WorkSpace\AHL-GEC-EXP\Temp\PWM_Music\Debug/srcc/music.c:38

void playHappyBirthday() {
    a170:	b510      	push	{r4, lr}
F:\WorkSpace\AHL-GEC-EXP\Temp\PWM_Music\Debug/srcc/music.c:40
  // 1600姣绉
  play(So0, 600);
    a172:	2396      	movs	r3, #150	; 0x96
    a174:	009b      	lsls	r3, r3, #2
    a176:	4a49      	ldr	r2, [pc, #292]	; (a29c <playHappyBirthday+0x12c>)
    a178:	0019      	movs	r1, r3
    a17a:	0010      	movs	r0, r2
    a17c:	f7ff ff8a 	bl	a094 <play>
F:\WorkSpace\AHL-GEC-EXP\Temp\PWM_Music\Debug/srcc/music.c:41
  play(La0, 600);
    a180:	2396      	movs	r3, #150	; 0x96
    a182:	009b      	lsls	r3, r3, #2
    a184:	4a46      	ldr	r2, [pc, #280]	; (a2a0 <playHappyBirthday+0x130>)
    a186:	0019      	movs	r1, r3
    a188:	0010      	movs	r0, r2
    a18a:	f7ff ff83 	bl	a094 <play>
F:\WorkSpace\AHL-GEC-EXP\Temp\PWM_Music\Debug/srcc/music.c:42
  play(So0, 600);
    a18e:	2396      	movs	r3, #150	; 0x96
    a190:	009b      	lsls	r3, r3, #2
    a192:	4a42      	ldr	r2, [pc, #264]	; (a29c <playHappyBirthday+0x12c>)
    a194:	0019      	movs	r1, r3
    a196:	0010      	movs	r0, r2
    a198:	f7ff ff7c 	bl	a094 <play>
F:\WorkSpace\AHL-GEC-EXP\Temp\PWM_Music\Debug/srcc/music.c:43
  play(Do, 600);
    a19c:	2396      	movs	r3, #150	; 0x96
    a19e:	009b      	lsls	r3, r3, #2
    a1a0:	4a40      	ldr	r2, [pc, #256]	; (a2a4 <playHappyBirthday+0x134>)
    a1a2:	0019      	movs	r1, r3
    a1a4:	0010      	movs	r0, r2
    a1a6:	f7ff ff75 	bl	a094 <play>
F:\WorkSpace\AHL-GEC-EXP\Temp\PWM_Music\Debug/srcc/music.c:44
  play(Si0, 1200);
    a1aa:	2396      	movs	r3, #150	; 0x96
    a1ac:	00db      	lsls	r3, r3, #3
    a1ae:	4a3e      	ldr	r2, [pc, #248]	; (a2a8 <playHappyBirthday+0x138>)
    a1b0:	0019      	movs	r1, r3
    a1b2:	0010      	movs	r0, r2
    a1b4:	f7ff ff6e 	bl	a094 <play>
F:\WorkSpace\AHL-GEC-EXP\Temp\PWM_Music\Debug/srcc/music.c:45
  play(So0, 600);
    a1b8:	2396      	movs	r3, #150	; 0x96
    a1ba:	009b      	lsls	r3, r3, #2
    a1bc:	4a37      	ldr	r2, [pc, #220]	; (a29c <playHappyBirthday+0x12c>)
    a1be:	0019      	movs	r1, r3
    a1c0:	0010      	movs	r0, r2
    a1c2:	f7ff ff67 	bl	a094 <play>
F:\WorkSpace\AHL-GEC-EXP\Temp\PWM_Music\Debug/srcc/music.c:47

  play(La0, 600);
    a1c6:	2396      	movs	r3, #150	; 0x96
    a1c8:	009b      	lsls	r3, r3, #2
    a1ca:	4a35      	ldr	r2, [pc, #212]	; (a2a0 <playHappyBirthday+0x130>)
    a1cc:	0019      	movs	r1, r3
    a1ce:	0010      	movs	r0, r2
    a1d0:	f7ff ff60 	bl	a094 <play>
F:\WorkSpace\AHL-GEC-EXP\Temp\PWM_Music\Debug/srcc/music.c:48
  play(So0, 600);
    a1d4:	2396      	movs	r3, #150	; 0x96
    a1d6:	009b      	lsls	r3, r3, #2
    a1d8:	4a30      	ldr	r2, [pc, #192]	; (a29c <playHappyBirthday+0x12c>)
    a1da:	0019      	movs	r1, r3
    a1dc:	0010      	movs	r0, r2
    a1de:	f7ff ff59 	bl	a094 <play>
F:\WorkSpace\AHL-GEC-EXP\Temp\PWM_Music\Debug/srcc/music.c:49
  play(Re, 600);
    a1e2:	2396      	movs	r3, #150	; 0x96
    a1e4:	009b      	lsls	r3, r3, #2
    a1e6:	4a31      	ldr	r2, [pc, #196]	; (a2ac <playHappyBirthday+0x13c>)
    a1e8:	0019      	movs	r1, r3
    a1ea:	0010      	movs	r0, r2
    a1ec:	f7ff ff52 	bl	a094 <play>
F:\WorkSpace\AHL-GEC-EXP\Temp\PWM_Music\Debug/srcc/music.c:51

  play(Do, 1200);
    a1f0:	2396      	movs	r3, #150	; 0x96
    a1f2:	00db      	lsls	r3, r3, #3
    a1f4:	4a2b      	ldr	r2, [pc, #172]	; (a2a4 <playHappyBirthday+0x134>)
    a1f6:	0019      	movs	r1, r3
    a1f8:	0010      	movs	r0, r2
    a1fa:	f7ff ff4b 	bl	a094 <play>
F:\WorkSpace\AHL-GEC-EXP\Temp\PWM_Music\Debug/srcc/music.c:52
  play(So0, 600);
    a1fe:	2396      	movs	r3, #150	; 0x96
    a200:	009b      	lsls	r3, r3, #2
    a202:	4a26      	ldr	r2, [pc, #152]	; (a29c <playHappyBirthday+0x12c>)
    a204:	0019      	movs	r1, r3
    a206:	0010      	movs	r0, r2
    a208:	f7ff ff44 	bl	a094 <play>
F:\WorkSpace\AHL-GEC-EXP\Temp\PWM_Music\Debug/srcc/music.c:54

  play(So, 600);
    a20c:	2396      	movs	r3, #150	; 0x96
    a20e:	009b      	lsls	r3, r3, #2
    a210:	4a27      	ldr	r2, [pc, #156]	; (a2b0 <playHappyBirthday+0x140>)
    a212:	0019      	movs	r1, r3
    a214:	0010      	movs	r0, r2
    a216:	f7ff ff3d 	bl	a094 <play>
F:\WorkSpace\AHL-GEC-EXP\Temp\PWM_Music\Debug/srcc/music.c:55
  play(Me, 600);
    a21a:	2396      	movs	r3, #150	; 0x96
    a21c:	009b      	lsls	r3, r3, #2
    a21e:	4a25      	ldr	r2, [pc, #148]	; (a2b4 <playHappyBirthday+0x144>)
    a220:	0019      	movs	r1, r3
    a222:	0010      	movs	r0, r2
    a224:	f7ff ff36 	bl	a094 <play>
F:\WorkSpace\AHL-GEC-EXP\Temp\PWM_Music\Debug/srcc/music.c:56
  play(Do, 600);
    a228:	2396      	movs	r3, #150	; 0x96
    a22a:	009b      	lsls	r3, r3, #2
    a22c:	4a1d      	ldr	r2, [pc, #116]	; (a2a4 <playHappyBirthday+0x134>)
    a22e:	0019      	movs	r1, r3
    a230:	0010      	movs	r0, r2
    a232:	f7ff ff2f 	bl	a094 <play>
F:\WorkSpace\AHL-GEC-EXP\Temp\PWM_Music\Debug/srcc/music.c:58

  play(Si0, 600);
    a236:	2396      	movs	r3, #150	; 0x96
    a238:	009b      	lsls	r3, r3, #2
    a23a:	4a1b      	ldr	r2, [pc, #108]	; (a2a8 <playHappyBirthday+0x138>)
    a23c:	0019      	movs	r1, r3
    a23e:	0010      	movs	r0, r2
    a240:	f7ff ff28 	bl	a094 <play>
F:\WorkSpace\AHL-GEC-EXP\Temp\PWM_Music\Debug/srcc/music.c:59
  play(La0, 600);
    a244:	2396      	movs	r3, #150	; 0x96
    a246:	009b      	lsls	r3, r3, #2
    a248:	4a15      	ldr	r2, [pc, #84]	; (a2a0 <playHappyBirthday+0x130>)
    a24a:	0019      	movs	r1, r3
    a24c:	0010      	movs	r0, r2
    a24e:	f7ff ff21 	bl	a094 <play>
F:\WorkSpace\AHL-GEC-EXP\Temp\PWM_Music\Debug/srcc/music.c:60
  play(Fa, 600);
    a252:	2396      	movs	r3, #150	; 0x96
    a254:	009b      	lsls	r3, r3, #2
    a256:	4a18      	ldr	r2, [pc, #96]	; (a2b8 <playHappyBirthday+0x148>)
    a258:	0019      	movs	r1, r3
    a25a:	0010      	movs	r0, r2
    a25c:	f7ff ff1a 	bl	a094 <play>
F:\WorkSpace\AHL-GEC-EXP\Temp\PWM_Music\Debug/srcc/music.c:62

  play(Me, 600);
    a260:	2396      	movs	r3, #150	; 0x96
    a262:	009b      	lsls	r3, r3, #2
    a264:	4a13      	ldr	r2, [pc, #76]	; (a2b4 <playHappyBirthday+0x144>)
    a266:	0019      	movs	r1, r3
    a268:	0010      	movs	r0, r2
    a26a:	f7ff ff13 	bl	a094 <play>
F:\WorkSpace\AHL-GEC-EXP\Temp\PWM_Music\Debug/srcc/music.c:63
  play(Do, 600);
    a26e:	2396      	movs	r3, #150	; 0x96
    a270:	009b      	lsls	r3, r3, #2
    a272:	4a0c      	ldr	r2, [pc, #48]	; (a2a4 <playHappyBirthday+0x134>)
    a274:	0019      	movs	r1, r3
    a276:	0010      	movs	r0, r2
    a278:	f7ff ff0c 	bl	a094 <play>
F:\WorkSpace\AHL-GEC-EXP\Temp\PWM_Music\Debug/srcc/music.c:64
  play(Re, 600);
    a27c:	2396      	movs	r3, #150	; 0x96
    a27e:	009b      	lsls	r3, r3, #2
    a280:	4a0a      	ldr	r2, [pc, #40]	; (a2ac <playHappyBirthday+0x13c>)
    a282:	0019      	movs	r1, r3
    a284:	0010      	movs	r0, r2
    a286:	f7ff ff05 	bl	a094 <play>
F:\WorkSpace\AHL-GEC-EXP\Temp\PWM_Music\Debug/srcc/music.c:66

  play(Do, 1800);
    a28a:	23e1      	movs	r3, #225	; 0xe1
    a28c:	00db      	lsls	r3, r3, #3
    a28e:	4a05      	ldr	r2, [pc, #20]	; (a2a4 <playHappyBirthday+0x134>)
    a290:	0019      	movs	r1, r3
    a292:	0010      	movs	r0, r2
    a294:	f7ff fefe 	bl	a094 <play>
F:\WorkSpace\AHL-GEC-EXP\Temp\PWM_Music\Debug/srcc/music.c:67
}
    a298:	46c0      	nop			; (mov r8, r8)
    a29a:	bd10      	pop	{r4, pc}
    a29c:	00000f04 	.word	0x00000f04
    a2a0:	00000d61 	.word	0x00000d61
    a2a4:	00000b42 	.word	0x00000b42
    a2a8:	00000bea 	.word	0x00000bea
    a2ac:	00000a07 	.word	0x00000a07
    a2b0:	00000782 	.word	0x00000782
    a2b4:	000008ef 	.word	0x000008ef
    a2b8:	0000086f 	.word	0x0000086f

0000a2bc <playMyth>:
playMyth():
F:\WorkSpace\AHL-GEC-EXP\Temp\PWM_Music\Debug/srcc/music.c:69

void playMyth() {
    a2bc:	b510      	push	{r4, lr}
F:\WorkSpace\AHL-GEC-EXP\Temp\PWM_Music\Debug/srcc/music.c:70
  play(tones[1][1], 1800);
    a2be:	4a74      	ldr	r2, [pc, #464]	; (a490 <playMyth+0x1d4>)
    a2c0:	23e1      	movs	r3, #225	; 0xe1
    a2c2:	00db      	lsls	r3, r3, #3
    a2c4:	0019      	movs	r1, r3
    a2c6:	0010      	movs	r0, r2
    a2c8:	f7ff fee4 	bl	a094 <play>
F:\WorkSpace\AHL-GEC-EXP\Temp\PWM_Music\Debug/srcc/music.c:71
  play(tones[3][1], 300);
    a2cc:	4a71      	ldr	r2, [pc, #452]	; (a494 <playMyth+0x1d8>)
    a2ce:	2396      	movs	r3, #150	; 0x96
    a2d0:	005b      	lsls	r3, r3, #1
    a2d2:	0019      	movs	r1, r3
    a2d4:	0010      	movs	r0, r2
    a2d6:	f7ff fedd 	bl	a094 <play>
F:\WorkSpace\AHL-GEC-EXP\Temp\PWM_Music\Debug/srcc/music.c:72
  play(tones[5][1], 300);
    a2da:	4a6f      	ldr	r2, [pc, #444]	; (a498 <playMyth+0x1dc>)
    a2dc:	2396      	movs	r3, #150	; 0x96
    a2de:	005b      	lsls	r3, r3, #1
    a2e0:	0019      	movs	r1, r3
    a2e2:	0010      	movs	r0, r2
    a2e4:	f7ff fed6 	bl	a094 <play>
F:\WorkSpace\AHL-GEC-EXP\Temp\PWM_Music\Debug/srcc/music.c:74

  play(tones[6][1], 1200);
    a2e8:	4a6c      	ldr	r2, [pc, #432]	; (a49c <playMyth+0x1e0>)
    a2ea:	2396      	movs	r3, #150	; 0x96
    a2ec:	00db      	lsls	r3, r3, #3
    a2ee:	0019      	movs	r1, r3
    a2f0:	0010      	movs	r0, r2
    a2f2:	f7ff fecf 	bl	a094 <play>
F:\WorkSpace\AHL-GEC-EXP\Temp\PWM_Music\Debug/srcc/music.c:76
  // play(tones[6][1], 300);
  play(tones[5][1], 600);
    a2f6:	4a68      	ldr	r2, [pc, #416]	; (a498 <playMyth+0x1dc>)
    a2f8:	2396      	movs	r3, #150	; 0x96
    a2fa:	009b      	lsls	r3, r3, #2
    a2fc:	0019      	movs	r1, r3
    a2fe:	0010      	movs	r0, r2
    a300:	f7ff fec8 	bl	a094 <play>
F:\WorkSpace\AHL-GEC-EXP\Temp\PWM_Music\Debug/srcc/music.c:77
  play(tones[2][1], 300);
    a304:	4a66      	ldr	r2, [pc, #408]	; (a4a0 <playMyth+0x1e4>)
    a306:	2396      	movs	r3, #150	; 0x96
    a308:	005b      	lsls	r3, r3, #1
    a30a:	0019      	movs	r1, r3
    a30c:	0010      	movs	r0, r2
    a30e:	f7ff fec1 	bl	a094 <play>
F:\WorkSpace\AHL-GEC-EXP\Temp\PWM_Music\Debug/srcc/music.c:78
  play(tones[5][1], 300);
    a312:	4a61      	ldr	r2, [pc, #388]	; (a498 <playMyth+0x1dc>)
    a314:	2396      	movs	r3, #150	; 0x96
    a316:	005b      	lsls	r3, r3, #1
    a318:	0019      	movs	r1, r3
    a31a:	0010      	movs	r0, r2
    a31c:	f7ff feba 	bl	a094 <play>
F:\WorkSpace\AHL-GEC-EXP\Temp\PWM_Music\Debug/srcc/music.c:80

  play(tones[3][1], 300);
    a320:	4a5c      	ldr	r2, [pc, #368]	; (a494 <playMyth+0x1d8>)
    a322:	2396      	movs	r3, #150	; 0x96
    a324:	005b      	lsls	r3, r3, #1
    a326:	0019      	movs	r1, r3
    a328:	0010      	movs	r0, r2
    a32a:	f7ff feb3 	bl	a094 <play>
F:\WorkSpace\AHL-GEC-EXP\Temp\PWM_Music\Debug/srcc/music.c:81
  play(tones[1][1], 600);
    a32e:	4a58      	ldr	r2, [pc, #352]	; (a490 <playMyth+0x1d4>)
    a330:	2396      	movs	r3, #150	; 0x96
    a332:	009b      	lsls	r3, r3, #2
    a334:	0019      	movs	r1, r3
    a336:	0010      	movs	r0, r2
    a338:	f7ff feac 	bl	a094 <play>
F:\WorkSpace\AHL-GEC-EXP\Temp\PWM_Music\Debug/srcc/music.c:83
  // play(tones[1][1], 300);
  play(tones[6][0], 1200);
    a33c:	4a59      	ldr	r2, [pc, #356]	; (a4a4 <playMyth+0x1e8>)
    a33e:	2396      	movs	r3, #150	; 0x96
    a340:	00db      	lsls	r3, r3, #3
    a342:	0019      	movs	r1, r3
    a344:	0010      	movs	r0, r2
    a346:	f7ff fea5 	bl	a094 <play>
F:\WorkSpace\AHL-GEC-EXP\Temp\PWM_Music\Debug/srcc/music.c:86
  // play(tones[6][0], 600);
  // play(tones[6][0], 300);
  play(tones[7][0], 300);
    a34a:	4a57      	ldr	r2, [pc, #348]	; (a4a8 <playMyth+0x1ec>)
    a34c:	2396      	movs	r3, #150	; 0x96
    a34e:	005b      	lsls	r3, r3, #1
    a350:	0019      	movs	r1, r3
    a352:	0010      	movs	r0, r2
    a354:	f7ff fe9e 	bl	a094 <play>
F:\WorkSpace\AHL-GEC-EXP\Temp\PWM_Music\Debug/srcc/music.c:88

  play(tones[1][1], 600);
    a358:	4a4d      	ldr	r2, [pc, #308]	; (a490 <playMyth+0x1d4>)
    a35a:	2396      	movs	r3, #150	; 0x96
    a35c:	009b      	lsls	r3, r3, #2
    a35e:	0019      	movs	r1, r3
    a360:	0010      	movs	r0, r2
    a362:	f7ff fe97 	bl	a094 <play>
F:\WorkSpace\AHL-GEC-EXP\Temp\PWM_Music\Debug/srcc/music.c:89
  play(tones[3][1], 300);
    a366:	4a4b      	ldr	r2, [pc, #300]	; (a494 <playMyth+0x1d8>)
    a368:	2396      	movs	r3, #150	; 0x96
    a36a:	005b      	lsls	r3, r3, #1
    a36c:	0019      	movs	r1, r3
    a36e:	0010      	movs	r0, r2
    a370:	f7ff fe90 	bl	a094 <play>
F:\WorkSpace\AHL-GEC-EXP\Temp\PWM_Music\Debug/srcc/music.c:90
  play(tones[2][1], 900);
    a374:	4a4a      	ldr	r2, [pc, #296]	; (a4a0 <playMyth+0x1e4>)
    a376:	23e1      	movs	r3, #225	; 0xe1
    a378:	009b      	lsls	r3, r3, #2
    a37a:	0019      	movs	r1, r3
    a37c:	0010      	movs	r0, r2
    a37e:	f7ff fe89 	bl	a094 <play>
F:\WorkSpace\AHL-GEC-EXP\Temp\PWM_Music\Debug/srcc/music.c:92
  // play(tones[2][1], 600);
  play(tones[5][1], 300);
    a382:	4a45      	ldr	r2, [pc, #276]	; (a498 <playMyth+0x1dc>)
    a384:	2396      	movs	r3, #150	; 0x96
    a386:	005b      	lsls	r3, r3, #1
    a388:	0019      	movs	r1, r3
    a38a:	0010      	movs	r0, r2
    a38c:	f7ff fe82 	bl	a094 <play>
F:\WorkSpace\AHL-GEC-EXP\Temp\PWM_Music\Debug/srcc/music.c:93
  play(tones[3][1], 2400);
    a390:	4a40      	ldr	r2, [pc, #256]	; (a494 <playMyth+0x1d8>)
    a392:	2396      	movs	r3, #150	; 0x96
    a394:	011b      	lsls	r3, r3, #4
    a396:	0019      	movs	r1, r3
    a398:	0010      	movs	r0, r2
    a39a:	f7ff fe7b 	bl	a094 <play>
F:\WorkSpace\AHL-GEC-EXP\Temp\PWM_Music\Debug/srcc/music.c:97

  // play(tones[3][1], 1800);
  // play(tones[3][1], 300);
  play(tones[5][1], 300);
    a39e:	4a3e      	ldr	r2, [pc, #248]	; (a498 <playMyth+0x1dc>)
    a3a0:	2396      	movs	r3, #150	; 0x96
    a3a2:	005b      	lsls	r3, r3, #1
    a3a4:	0019      	movs	r1, r3
    a3a6:	0010      	movs	r0, r2
    a3a8:	f7ff fe74 	bl	a094 <play>
F:\WorkSpace\AHL-GEC-EXP\Temp\PWM_Music\Debug/srcc/music.c:99

  play(tones[6][1], 1200);
    a3ac:	4a3b      	ldr	r2, [pc, #236]	; (a49c <playMyth+0x1e0>)
    a3ae:	2396      	movs	r3, #150	; 0x96
    a3b0:	00db      	lsls	r3, r3, #3
    a3b2:	0019      	movs	r1, r3
    a3b4:	0010      	movs	r0, r2
    a3b6:	f7ff fe6d 	bl	a094 <play>
F:\WorkSpace\AHL-GEC-EXP\Temp\PWM_Music\Debug/srcc/music.c:101
  // play(tones[6][1], 300);
  play(tones[5][1], 300);
    a3ba:	4a37      	ldr	r2, [pc, #220]	; (a498 <playMyth+0x1dc>)
    a3bc:	2396      	movs	r3, #150	; 0x96
    a3be:	005b      	lsls	r3, r3, #1
    a3c0:	0019      	movs	r1, r3
    a3c2:	0010      	movs	r0, r2
    a3c4:	f7ff fe66 	bl	a094 <play>
F:\WorkSpace\AHL-GEC-EXP\Temp\PWM_Music\Debug/srcc/music.c:102
  play(tones[2][1], 600);
    a3c8:	4a35      	ldr	r2, [pc, #212]	; (a4a0 <playMyth+0x1e4>)
    a3ca:	2396      	movs	r3, #150	; 0x96
    a3cc:	009b      	lsls	r3, r3, #2
    a3ce:	0019      	movs	r1, r3
    a3d0:	0010      	movs	r0, r2
    a3d2:	f7ff fe5f 	bl	a094 <play>
F:\WorkSpace\AHL-GEC-EXP\Temp\PWM_Music\Debug/srcc/music.c:104
  // play(tones[2][1], 300);
  play(tones[5][1], 300);
    a3d6:	4a30      	ldr	r2, [pc, #192]	; (a498 <playMyth+0x1dc>)
    a3d8:	2396      	movs	r3, #150	; 0x96
    a3da:	005b      	lsls	r3, r3, #1
    a3dc:	0019      	movs	r1, r3
    a3de:	0010      	movs	r0, r2
    a3e0:	f7ff fe58 	bl	a094 <play>
F:\WorkSpace\AHL-GEC-EXP\Temp\PWM_Music\Debug/srcc/music.c:106

  play(tones[3][1], 300);
    a3e4:	4a2b      	ldr	r2, [pc, #172]	; (a494 <playMyth+0x1d8>)
    a3e6:	2396      	movs	r3, #150	; 0x96
    a3e8:	005b      	lsls	r3, r3, #1
    a3ea:	0019      	movs	r1, r3
    a3ec:	0010      	movs	r0, r2
    a3ee:	f7ff fe51 	bl	a094 <play>
F:\WorkSpace\AHL-GEC-EXP\Temp\PWM_Music\Debug/srcc/music.c:107
  play(tones[1][1], 600);
    a3f2:	4a27      	ldr	r2, [pc, #156]	; (a490 <playMyth+0x1d4>)
    a3f4:	2396      	movs	r3, #150	; 0x96
    a3f6:	009b      	lsls	r3, r3, #2
    a3f8:	0019      	movs	r1, r3
    a3fa:	0010      	movs	r0, r2
    a3fc:	f7ff fe4a 	bl	a094 <play>
F:\WorkSpace\AHL-GEC-EXP\Temp\PWM_Music\Debug/srcc/music.c:109
  // play(tones[1][1], 300);
  play(tones[6][0], 900);
    a400:	4a28      	ldr	r2, [pc, #160]	; (a4a4 <playMyth+0x1e8>)
    a402:	23e1      	movs	r3, #225	; 0xe1
    a404:	009b      	lsls	r3, r3, #2
    a406:	0019      	movs	r1, r3
    a408:	0010      	movs	r0, r2
    a40a:	f7ff fe43 	bl	a094 <play>
F:\WorkSpace\AHL-GEC-EXP\Temp\PWM_Music\Debug/srcc/music.c:111
  // play(tones[6][0], 600);
  play(tones[3][1], 300);
    a40e:	4a21      	ldr	r2, [pc, #132]	; (a494 <playMyth+0x1d8>)
    a410:	2396      	movs	r3, #150	; 0x96
    a412:	005b      	lsls	r3, r3, #1
    a414:	0019      	movs	r1, r3
    a416:	0010      	movs	r0, r2
    a418:	f7ff fe3c 	bl	a094 <play>
F:\WorkSpace\AHL-GEC-EXP\Temp\PWM_Music\Debug/srcc/music.c:112
  play(tones[2][1], 300);
    a41c:	4a20      	ldr	r2, [pc, #128]	; (a4a0 <playMyth+0x1e4>)
    a41e:	2396      	movs	r3, #150	; 0x96
    a420:	005b      	lsls	r3, r3, #1
    a422:	0019      	movs	r1, r3
    a424:	0010      	movs	r0, r2
    a426:	f7ff fe35 	bl	a094 <play>
F:\WorkSpace\AHL-GEC-EXP\Temp\PWM_Music\Debug/srcc/music.c:114

  play(tones[1][1], 600);
    a42a:	4a19      	ldr	r2, [pc, #100]	; (a490 <playMyth+0x1d4>)
    a42c:	2396      	movs	r3, #150	; 0x96
    a42e:	009b      	lsls	r3, r3, #2
    a430:	0019      	movs	r1, r3
    a432:	0010      	movs	r0, r2
    a434:	f7ff fe2e 	bl	a094 <play>
F:\WorkSpace\AHL-GEC-EXP\Temp\PWM_Music\Debug/srcc/music.c:115
  play(tones[3][1], 300);
    a438:	4a16      	ldr	r2, [pc, #88]	; (a494 <playMyth+0x1d8>)
    a43a:	2396      	movs	r3, #150	; 0x96
    a43c:	005b      	lsls	r3, r3, #1
    a43e:	0019      	movs	r1, r3
    a440:	0010      	movs	r0, r2
    a442:	f7ff fe27 	bl	a094 <play>
F:\WorkSpace\AHL-GEC-EXP\Temp\PWM_Music\Debug/srcc/music.c:116
  play(tones[2][1], 900);
    a446:	4a16      	ldr	r2, [pc, #88]	; (a4a0 <playMyth+0x1e4>)
    a448:	23e1      	movs	r3, #225	; 0xe1
    a44a:	009b      	lsls	r3, r3, #2
    a44c:	0019      	movs	r1, r3
    a44e:	0010      	movs	r0, r2
    a450:	f7ff fe20 	bl	a094 <play>
F:\WorkSpace\AHL-GEC-EXP\Temp\PWM_Music\Debug/srcc/music.c:118
  // play(tones[2][1], 600);
  play(tones[3][1], 300);
    a454:	4a0f      	ldr	r2, [pc, #60]	; (a494 <playMyth+0x1d8>)
    a456:	2396      	movs	r3, #150	; 0x96
    a458:	005b      	lsls	r3, r3, #1
    a45a:	0019      	movs	r1, r3
    a45c:	0010      	movs	r0, r2
    a45e:	f7ff fe19 	bl	a094 <play>
F:\WorkSpace\AHL-GEC-EXP\Temp\PWM_Music\Debug/srcc/music.c:119
  play(tones[7][0], 300);
    a462:	4a11      	ldr	r2, [pc, #68]	; (a4a8 <playMyth+0x1ec>)
    a464:	2396      	movs	r3, #150	; 0x96
    a466:	005b      	lsls	r3, r3, #1
    a468:	0019      	movs	r1, r3
    a46a:	0010      	movs	r0, r2
    a46c:	f7ff fe12 	bl	a094 <play>
F:\WorkSpace\AHL-GEC-EXP\Temp\PWM_Music\Debug/srcc/music.c:121

  play(tones[6][0], 1800);
    a470:	4a0c      	ldr	r2, [pc, #48]	; (a4a4 <playMyth+0x1e8>)
    a472:	23e1      	movs	r3, #225	; 0xe1
    a474:	00db      	lsls	r3, r3, #3
    a476:	0019      	movs	r1, r3
    a478:	0010      	movs	r0, r2
    a47a:	f7ff fe0b 	bl	a094 <play>
F:\WorkSpace\AHL-GEC-EXP\Temp\PWM_Music\Debug/srcc/music.c:122
  play(tones[0][0], 300);
    a47e:	2200      	movs	r2, #0
    a480:	2396      	movs	r3, #150	; 0x96
    a482:	005b      	lsls	r3, r3, #1
    a484:	0019      	movs	r1, r3
    a486:	0010      	movs	r0, r2
    a488:	f7ff fe04 	bl	a094 <play>
F:\WorkSpace\AHL-GEC-EXP\Temp\PWM_Music\Debug/srcc/music.c:123
}
    a48c:	46c0      	nop			; (mov r8, r8)
    a48e:	bd10      	pop	{r4, pc}
    a490:	00000b42 	.word	0x00000b42
    a494:	000008ef 	.word	0x000008ef
    a498:	00000782 	.word	0x00000782
    a49c:	000006b1 	.word	0x000006b1
    a4a0:	00000a07 	.word	0x00000a07
    a4a4:	00000d61 	.word	0x00000d61
    a4a8:	00000bea 	.word	0x00000bea

0000a4ac <playFarewell>:
playFarewell():
F:\WorkSpace\AHL-GEC-EXP\Temp\PWM_Music\Debug/srcc/music.c:125

void playFarewell() {
    a4ac:	b510      	push	{r4, lr}
F:\WorkSpace\AHL-GEC-EXP\Temp\PWM_Music\Debug/srcc/music.c:126
  play(tones[5][1], 600);
    a4ae:	4acc      	ldr	r2, [pc, #816]	; (a7e0 <playFarewell+0x334>)
    a4b0:	2396      	movs	r3, #150	; 0x96
    a4b2:	009b      	lsls	r3, r3, #2
    a4b4:	0019      	movs	r1, r3
    a4b6:	0010      	movs	r0, r2
    a4b8:	f7ff fdec 	bl	a094 <play>
F:\WorkSpace\AHL-GEC-EXP\Temp\PWM_Music\Debug/srcc/music.c:127
  play(tones[3][1], 300);
    a4bc:	4ac9      	ldr	r2, [pc, #804]	; (a7e4 <playFarewell+0x338>)
    a4be:	2396      	movs	r3, #150	; 0x96
    a4c0:	005b      	lsls	r3, r3, #1
    a4c2:	0019      	movs	r1, r3
    a4c4:	0010      	movs	r0, r2
    a4c6:	f7ff fde5 	bl	a094 <play>
F:\WorkSpace\AHL-GEC-EXP\Temp\PWM_Music\Debug/srcc/music.c:128
  play(tones[5][1], 300);
    a4ca:	4ac5      	ldr	r2, [pc, #788]	; (a7e0 <playFarewell+0x334>)
    a4cc:	2396      	movs	r3, #150	; 0x96
    a4ce:	005b      	lsls	r3, r3, #1
    a4d0:	0019      	movs	r1, r3
    a4d2:	0010      	movs	r0, r2
    a4d4:	f7ff fdde 	bl	a094 <play>
F:\WorkSpace\AHL-GEC-EXP\Temp\PWM_Music\Debug/srcc/music.c:129
  play(tones[1][2], 1200);
    a4d8:	4ac3      	ldr	r2, [pc, #780]	; (a7e8 <playFarewell+0x33c>)
    a4da:	2396      	movs	r3, #150	; 0x96
    a4dc:	00db      	lsls	r3, r3, #3
    a4de:	0019      	movs	r1, r3
    a4e0:	0010      	movs	r0, r2
    a4e2:	f7ff fdd7 	bl	a094 <play>
F:\WorkSpace\AHL-GEC-EXP\Temp\PWM_Music\Debug/srcc/music.c:131

  play(tones[6][1], 600);
    a4e6:	4ac1      	ldr	r2, [pc, #772]	; (a7ec <playFarewell+0x340>)
    a4e8:	2396      	movs	r3, #150	; 0x96
    a4ea:	009b      	lsls	r3, r3, #2
    a4ec:	0019      	movs	r1, r3
    a4ee:	0010      	movs	r0, r2
    a4f0:	f7ff fdd0 	bl	a094 <play>
F:\WorkSpace\AHL-GEC-EXP\Temp\PWM_Music\Debug/srcc/music.c:132
  play(tones[1][2], 600);
    a4f4:	4abc      	ldr	r2, [pc, #752]	; (a7e8 <playFarewell+0x33c>)
    a4f6:	2396      	movs	r3, #150	; 0x96
    a4f8:	009b      	lsls	r3, r3, #2
    a4fa:	0019      	movs	r1, r3
    a4fc:	0010      	movs	r0, r2
    a4fe:	f7ff fdc9 	bl	a094 <play>
F:\WorkSpace\AHL-GEC-EXP\Temp\PWM_Music\Debug/srcc/music.c:133
  play(tones[5][1], 1200);
    a502:	4ab7      	ldr	r2, [pc, #732]	; (a7e0 <playFarewell+0x334>)
    a504:	2396      	movs	r3, #150	; 0x96
    a506:	00db      	lsls	r3, r3, #3
    a508:	0019      	movs	r1, r3
    a50a:	0010      	movs	r0, r2
    a50c:	f7ff fdc2 	bl	a094 <play>
F:\WorkSpace\AHL-GEC-EXP\Temp\PWM_Music\Debug/srcc/music.c:135

  play(tones[5][1], 600);
    a510:	4ab3      	ldr	r2, [pc, #716]	; (a7e0 <playFarewell+0x334>)
    a512:	2396      	movs	r3, #150	; 0x96
    a514:	009b      	lsls	r3, r3, #2
    a516:	0019      	movs	r1, r3
    a518:	0010      	movs	r0, r2
    a51a:	f7ff fdbb 	bl	a094 <play>
F:\WorkSpace\AHL-GEC-EXP\Temp\PWM_Music\Debug/srcc/music.c:136
  play(tones[1][1], 300);
    a51e:	4ab4      	ldr	r2, [pc, #720]	; (a7f0 <playFarewell+0x344>)
    a520:	2396      	movs	r3, #150	; 0x96
    a522:	005b      	lsls	r3, r3, #1
    a524:	0019      	movs	r1, r3
    a526:	0010      	movs	r0, r2
    a528:	f7ff fdb4 	bl	a094 <play>
F:\WorkSpace\AHL-GEC-EXP\Temp\PWM_Music\Debug/srcc/music.c:137
  play(tones[2][1], 300);
    a52c:	4ab1      	ldr	r2, [pc, #708]	; (a7f4 <playFarewell+0x348>)
    a52e:	2396      	movs	r3, #150	; 0x96
    a530:	005b      	lsls	r3, r3, #1
    a532:	0019      	movs	r1, r3
    a534:	0010      	movs	r0, r2
    a536:	f7ff fdad 	bl	a094 <play>
F:\WorkSpace\AHL-GEC-EXP\Temp\PWM_Music\Debug/srcc/music.c:138
  play(tones[3][1], 600);
    a53a:	4aaa      	ldr	r2, [pc, #680]	; (a7e4 <playFarewell+0x338>)
    a53c:	2396      	movs	r3, #150	; 0x96
    a53e:	009b      	lsls	r3, r3, #2
    a540:	0019      	movs	r1, r3
    a542:	0010      	movs	r0, r2
    a544:	f7ff fda6 	bl	a094 <play>
F:\WorkSpace\AHL-GEC-EXP\Temp\PWM_Music\Debug/srcc/music.c:139
  play(tones[2][1], 300);
    a548:	4aaa      	ldr	r2, [pc, #680]	; (a7f4 <playFarewell+0x348>)
    a54a:	2396      	movs	r3, #150	; 0x96
    a54c:	005b      	lsls	r3, r3, #1
    a54e:	0019      	movs	r1, r3
    a550:	0010      	movs	r0, r2
    a552:	f7ff fd9f 	bl	a094 <play>
F:\WorkSpace\AHL-GEC-EXP\Temp\PWM_Music\Debug/srcc/music.c:140
  play(tones[1][1], 300);
    a556:	4aa6      	ldr	r2, [pc, #664]	; (a7f0 <playFarewell+0x344>)
    a558:	2396      	movs	r3, #150	; 0x96
    a55a:	005b      	lsls	r3, r3, #1
    a55c:	0019      	movs	r1, r3
    a55e:	0010      	movs	r0, r2
    a560:	f7ff fd98 	bl	a094 <play>
F:\WorkSpace\AHL-GEC-EXP\Temp\PWM_Music\Debug/srcc/music.c:142

  play(tones[2][1], 1200);
    a564:	4aa3      	ldr	r2, [pc, #652]	; (a7f4 <playFarewell+0x348>)
    a566:	2396      	movs	r3, #150	; 0x96
    a568:	00db      	lsls	r3, r3, #3
    a56a:	0019      	movs	r1, r3
    a56c:	0010      	movs	r0, r2
    a56e:	f7ff fd91 	bl	a094 <play>
F:\WorkSpace\AHL-GEC-EXP\Temp\PWM_Music\Debug/srcc/music.c:145
  // play(tones[0][0], 1200);

  play(tones[5][1], 600);
    a572:	4a9b      	ldr	r2, [pc, #620]	; (a7e0 <playFarewell+0x334>)
    a574:	2396      	movs	r3, #150	; 0x96
    a576:	009b      	lsls	r3, r3, #2
    a578:	0019      	movs	r1, r3
    a57a:	0010      	movs	r0, r2
    a57c:	f7ff fd8a 	bl	a094 <play>
F:\WorkSpace\AHL-GEC-EXP\Temp\PWM_Music\Debug/srcc/music.c:146
  play(tones[3][1], 300);
    a580:	4a98      	ldr	r2, [pc, #608]	; (a7e4 <playFarewell+0x338>)
    a582:	2396      	movs	r3, #150	; 0x96
    a584:	005b      	lsls	r3, r3, #1
    a586:	0019      	movs	r1, r3
    a588:	0010      	movs	r0, r2
    a58a:	f7ff fd83 	bl	a094 <play>
F:\WorkSpace\AHL-GEC-EXP\Temp\PWM_Music\Debug/srcc/music.c:147
  play(tones[5][1], 300);
    a58e:	4a94      	ldr	r2, [pc, #592]	; (a7e0 <playFarewell+0x334>)
    a590:	2396      	movs	r3, #150	; 0x96
    a592:	005b      	lsls	r3, r3, #1
    a594:	0019      	movs	r1, r3
    a596:	0010      	movs	r0, r2
    a598:	f7ff fd7c 	bl	a094 <play>
F:\WorkSpace\AHL-GEC-EXP\Temp\PWM_Music\Debug/srcc/music.c:148
  play(tones[1][2], 900);
    a59c:	4a92      	ldr	r2, [pc, #584]	; (a7e8 <playFarewell+0x33c>)
    a59e:	23e1      	movs	r3, #225	; 0xe1
    a5a0:	009b      	lsls	r3, r3, #2
    a5a2:	0019      	movs	r1, r3
    a5a4:	0010      	movs	r0, r2
    a5a6:	f7ff fd75 	bl	a094 <play>
F:\WorkSpace\AHL-GEC-EXP\Temp\PWM_Music\Debug/srcc/music.c:149
  play(tones[7][1], 300);
    a5aa:	4a93      	ldr	r2, [pc, #588]	; (a7f8 <playFarewell+0x34c>)
    a5ac:	2396      	movs	r3, #150	; 0x96
    a5ae:	005b      	lsls	r3, r3, #1
    a5b0:	0019      	movs	r1, r3
    a5b2:	0010      	movs	r0, r2
    a5b4:	f7ff fd6e 	bl	a094 <play>
F:\WorkSpace\AHL-GEC-EXP\Temp\PWM_Music\Debug/srcc/music.c:151

  play(tones[6][1], 600);
    a5b8:	4a8c      	ldr	r2, [pc, #560]	; (a7ec <playFarewell+0x340>)
    a5ba:	2396      	movs	r3, #150	; 0x96
    a5bc:	009b      	lsls	r3, r3, #2
    a5be:	0019      	movs	r1, r3
    a5c0:	0010      	movs	r0, r2
    a5c2:	f7ff fd67 	bl	a094 <play>
F:\WorkSpace\AHL-GEC-EXP\Temp\PWM_Music\Debug/srcc/music.c:152
  play(tones[1][2], 600);
    a5c6:	4a88      	ldr	r2, [pc, #544]	; (a7e8 <playFarewell+0x33c>)
    a5c8:	2396      	movs	r3, #150	; 0x96
    a5ca:	009b      	lsls	r3, r3, #2
    a5cc:	0019      	movs	r1, r3
    a5ce:	0010      	movs	r0, r2
    a5d0:	f7ff fd60 	bl	a094 <play>
F:\WorkSpace\AHL-GEC-EXP\Temp\PWM_Music\Debug/srcc/music.c:153
  play(tones[5][1], 1200);
    a5d4:	4a82      	ldr	r2, [pc, #520]	; (a7e0 <playFarewell+0x334>)
    a5d6:	2396      	movs	r3, #150	; 0x96
    a5d8:	00db      	lsls	r3, r3, #3
    a5da:	0019      	movs	r1, r3
    a5dc:	0010      	movs	r0, r2
    a5de:	f7ff fd59 	bl	a094 <play>
F:\WorkSpace\AHL-GEC-EXP\Temp\PWM_Music\Debug/srcc/music.c:155

  play(tones[5][1], 600);
    a5e2:	4a7f      	ldr	r2, [pc, #508]	; (a7e0 <playFarewell+0x334>)
    a5e4:	2396      	movs	r3, #150	; 0x96
    a5e6:	009b      	lsls	r3, r3, #2
    a5e8:	0019      	movs	r1, r3
    a5ea:	0010      	movs	r0, r2
    a5ec:	f7ff fd52 	bl	a094 <play>
F:\WorkSpace\AHL-GEC-EXP\Temp\PWM_Music\Debug/srcc/music.c:156
  play(tones[2][1], 300);
    a5f0:	4a80      	ldr	r2, [pc, #512]	; (a7f4 <playFarewell+0x348>)
    a5f2:	2396      	movs	r3, #150	; 0x96
    a5f4:	005b      	lsls	r3, r3, #1
    a5f6:	0019      	movs	r1, r3
    a5f8:	0010      	movs	r0, r2
    a5fa:	f7ff fd4b 	bl	a094 <play>
F:\WorkSpace\AHL-GEC-EXP\Temp\PWM_Music\Debug/srcc/music.c:157
  play(tones[3][1], 300);
    a5fe:	4a79      	ldr	r2, [pc, #484]	; (a7e4 <playFarewell+0x338>)
    a600:	2396      	movs	r3, #150	; 0x96
    a602:	005b      	lsls	r3, r3, #1
    a604:	0019      	movs	r1, r3
    a606:	0010      	movs	r0, r2
    a608:	f7ff fd44 	bl	a094 <play>
F:\WorkSpace\AHL-GEC-EXP\Temp\PWM_Music\Debug/srcc/music.c:158
  play(tones[4][1], 900);
    a60c:	4a7b      	ldr	r2, [pc, #492]	; (a7fc <playFarewell+0x350>)
    a60e:	23e1      	movs	r3, #225	; 0xe1
    a610:	009b      	lsls	r3, r3, #2
    a612:	0019      	movs	r1, r3
    a614:	0010      	movs	r0, r2
    a616:	f7ff fd3d 	bl	a094 <play>
F:\WorkSpace\AHL-GEC-EXP\Temp\PWM_Music\Debug/srcc/music.c:159
  play(tones[7][0], 300);
    a61a:	4a79      	ldr	r2, [pc, #484]	; (a800 <playFarewell+0x354>)
    a61c:	2396      	movs	r3, #150	; 0x96
    a61e:	005b      	lsls	r3, r3, #1
    a620:	0019      	movs	r1, r3
    a622:	0010      	movs	r0, r2
    a624:	f7ff fd36 	bl	a094 <play>
F:\WorkSpace\AHL-GEC-EXP\Temp\PWM_Music\Debug/srcc/music.c:161

  play(tones[1][1], 1200);
    a628:	4a71      	ldr	r2, [pc, #452]	; (a7f0 <playFarewell+0x344>)
    a62a:	2396      	movs	r3, #150	; 0x96
    a62c:	00db      	lsls	r3, r3, #3
    a62e:	0019      	movs	r1, r3
    a630:	0010      	movs	r0, r2
    a632:	f7ff fd2f 	bl	a094 <play>
F:\WorkSpace\AHL-GEC-EXP\Temp\PWM_Music\Debug/srcc/music.c:164
  // play(tones[0][0], 1200);

  play(tones[6][1], 600);
    a636:	4a6d      	ldr	r2, [pc, #436]	; (a7ec <playFarewell+0x340>)
    a638:	2396      	movs	r3, #150	; 0x96
    a63a:	009b      	lsls	r3, r3, #2
    a63c:	0019      	movs	r1, r3
    a63e:	0010      	movs	r0, r2
    a640:	f7ff fd28 	bl	a094 <play>
F:\WorkSpace\AHL-GEC-EXP\Temp\PWM_Music\Debug/srcc/music.c:165
  play(tones[1][2], 600);
    a644:	4a68      	ldr	r2, [pc, #416]	; (a7e8 <playFarewell+0x33c>)
    a646:	2396      	movs	r3, #150	; 0x96
    a648:	009b      	lsls	r3, r3, #2
    a64a:	0019      	movs	r1, r3
    a64c:	0010      	movs	r0, r2
    a64e:	f7ff fd21 	bl	a094 <play>
F:\WorkSpace\AHL-GEC-EXP\Temp\PWM_Music\Debug/srcc/music.c:166
  play(tones[1][2], 1200);
    a652:	4a65      	ldr	r2, [pc, #404]	; (a7e8 <playFarewell+0x33c>)
    a654:	2396      	movs	r3, #150	; 0x96
    a656:	00db      	lsls	r3, r3, #3
    a658:	0019      	movs	r1, r3
    a65a:	0010      	movs	r0, r2
    a65c:	f7ff fd1a 	bl	a094 <play>
F:\WorkSpace\AHL-GEC-EXP\Temp\PWM_Music\Debug/srcc/music.c:168

  play(tones[7][1], 600);
    a660:	4a65      	ldr	r2, [pc, #404]	; (a7f8 <playFarewell+0x34c>)
    a662:	2396      	movs	r3, #150	; 0x96
    a664:	009b      	lsls	r3, r3, #2
    a666:	0019      	movs	r1, r3
    a668:	0010      	movs	r0, r2
    a66a:	f7ff fd13 	bl	a094 <play>
F:\WorkSpace\AHL-GEC-EXP\Temp\PWM_Music\Debug/srcc/music.c:169
  play(tones[6][1], 300);
    a66e:	4a5f      	ldr	r2, [pc, #380]	; (a7ec <playFarewell+0x340>)
    a670:	2396      	movs	r3, #150	; 0x96
    a672:	005b      	lsls	r3, r3, #1
    a674:	0019      	movs	r1, r3
    a676:	0010      	movs	r0, r2
    a678:	f7ff fd0c 	bl	a094 <play>
F:\WorkSpace\AHL-GEC-EXP\Temp\PWM_Music\Debug/srcc/music.c:170
  play(tones[7][1], 300);
    a67c:	4a5e      	ldr	r2, [pc, #376]	; (a7f8 <playFarewell+0x34c>)
    a67e:	2396      	movs	r3, #150	; 0x96
    a680:	005b      	lsls	r3, r3, #1
    a682:	0019      	movs	r1, r3
    a684:	0010      	movs	r0, r2
    a686:	f7ff fd05 	bl	a094 <play>
F:\WorkSpace\AHL-GEC-EXP\Temp\PWM_Music\Debug/srcc/music.c:171
  play(tones[1][2], 1200);
    a68a:	4a57      	ldr	r2, [pc, #348]	; (a7e8 <playFarewell+0x33c>)
    a68c:	2396      	movs	r3, #150	; 0x96
    a68e:	00db      	lsls	r3, r3, #3
    a690:	0019      	movs	r1, r3
    a692:	0010      	movs	r0, r2
    a694:	f7ff fcfe 	bl	a094 <play>
F:\WorkSpace\AHL-GEC-EXP\Temp\PWM_Music\Debug/srcc/music.c:173

  play(tones[6][1], 300);
    a698:	4a54      	ldr	r2, [pc, #336]	; (a7ec <playFarewell+0x340>)
    a69a:	2396      	movs	r3, #150	; 0x96
    a69c:	005b      	lsls	r3, r3, #1
    a69e:	0019      	movs	r1, r3
    a6a0:	0010      	movs	r0, r2
    a6a2:	f7ff fcf7 	bl	a094 <play>
F:\WorkSpace\AHL-GEC-EXP\Temp\PWM_Music\Debug/srcc/music.c:174
  play(tones[7][1], 300);
    a6a6:	4a54      	ldr	r2, [pc, #336]	; (a7f8 <playFarewell+0x34c>)
    a6a8:	2396      	movs	r3, #150	; 0x96
    a6aa:	005b      	lsls	r3, r3, #1
    a6ac:	0019      	movs	r1, r3
    a6ae:	0010      	movs	r0, r2
    a6b0:	f7ff fcf0 	bl	a094 <play>
F:\WorkSpace\AHL-GEC-EXP\Temp\PWM_Music\Debug/srcc/music.c:175
  play(tones[1][2], 300);
    a6b4:	4a4c      	ldr	r2, [pc, #304]	; (a7e8 <playFarewell+0x33c>)
    a6b6:	2396      	movs	r3, #150	; 0x96
    a6b8:	005b      	lsls	r3, r3, #1
    a6ba:	0019      	movs	r1, r3
    a6bc:	0010      	movs	r0, r2
    a6be:	f7ff fce9 	bl	a094 <play>
F:\WorkSpace\AHL-GEC-EXP\Temp\PWM_Music\Debug/srcc/music.c:176
  play(tones[6][1], 600);
    a6c2:	4a4a      	ldr	r2, [pc, #296]	; (a7ec <playFarewell+0x340>)
    a6c4:	2396      	movs	r3, #150	; 0x96
    a6c6:	009b      	lsls	r3, r3, #2
    a6c8:	0019      	movs	r1, r3
    a6ca:	0010      	movs	r0, r2
    a6cc:	f7ff fce2 	bl	a094 <play>
F:\WorkSpace\AHL-GEC-EXP\Temp\PWM_Music\Debug/srcc/music.c:177
  play(tones[5][1], 300);
    a6d0:	4a43      	ldr	r2, [pc, #268]	; (a7e0 <playFarewell+0x334>)
    a6d2:	2396      	movs	r3, #150	; 0x96
    a6d4:	005b      	lsls	r3, r3, #1
    a6d6:	0019      	movs	r1, r3
    a6d8:	0010      	movs	r0, r2
    a6da:	f7ff fcdb 	bl	a094 <play>
F:\WorkSpace\AHL-GEC-EXP\Temp\PWM_Music\Debug/srcc/music.c:178
  play(tones[3][1], 300);
    a6de:	4a41      	ldr	r2, [pc, #260]	; (a7e4 <playFarewell+0x338>)
    a6e0:	2396      	movs	r3, #150	; 0x96
    a6e2:	005b      	lsls	r3, r3, #1
    a6e4:	0019      	movs	r1, r3
    a6e6:	0010      	movs	r0, r2
    a6e8:	f7ff fcd4 	bl	a094 <play>
F:\WorkSpace\AHL-GEC-EXP\Temp\PWM_Music\Debug/srcc/music.c:179
  play(tones[1][1], 300);
    a6ec:	4a40      	ldr	r2, [pc, #256]	; (a7f0 <playFarewell+0x344>)
    a6ee:	2396      	movs	r3, #150	; 0x96
    a6f0:	005b      	lsls	r3, r3, #1
    a6f2:	0019      	movs	r1, r3
    a6f4:	0010      	movs	r0, r2
    a6f6:	f7ff fccd 	bl	a094 <play>
F:\WorkSpace\AHL-GEC-EXP\Temp\PWM_Music\Debug/srcc/music.c:181

  play(tones[2][1], 1200);
    a6fa:	4a3e      	ldr	r2, [pc, #248]	; (a7f4 <playFarewell+0x348>)
    a6fc:	2396      	movs	r3, #150	; 0x96
    a6fe:	00db      	lsls	r3, r3, #3
    a700:	0019      	movs	r1, r3
    a702:	0010      	movs	r0, r2
    a704:	f7ff fcc6 	bl	a094 <play>
F:\WorkSpace\AHL-GEC-EXP\Temp\PWM_Music\Debug/srcc/music.c:184
  // play(tones[0][0], 1200);

  play(tones[5][1], 600);
    a708:	4a35      	ldr	r2, [pc, #212]	; (a7e0 <playFarewell+0x334>)
    a70a:	2396      	movs	r3, #150	; 0x96
    a70c:	009b      	lsls	r3, r3, #2
    a70e:	0019      	movs	r1, r3
    a710:	0010      	movs	r0, r2
    a712:	f7ff fcbf 	bl	a094 <play>
F:\WorkSpace\AHL-GEC-EXP\Temp\PWM_Music\Debug/srcc/music.c:185
  play(tones[3][1], 300);
    a716:	4a33      	ldr	r2, [pc, #204]	; (a7e4 <playFarewell+0x338>)
    a718:	2396      	movs	r3, #150	; 0x96
    a71a:	005b      	lsls	r3, r3, #1
    a71c:	0019      	movs	r1, r3
    a71e:	0010      	movs	r0, r2
    a720:	f7ff fcb8 	bl	a094 <play>
F:\WorkSpace\AHL-GEC-EXP\Temp\PWM_Music\Debug/srcc/music.c:186
  play(tones[5][1], 300);
    a724:	4a2e      	ldr	r2, [pc, #184]	; (a7e0 <playFarewell+0x334>)
    a726:	2396      	movs	r3, #150	; 0x96
    a728:	005b      	lsls	r3, r3, #1
    a72a:	0019      	movs	r1, r3
    a72c:	0010      	movs	r0, r2
    a72e:	f7ff fcb1 	bl	a094 <play>
F:\WorkSpace\AHL-GEC-EXP\Temp\PWM_Music\Debug/srcc/music.c:187
  play(tones[1][2], 900);
    a732:	4a2d      	ldr	r2, [pc, #180]	; (a7e8 <playFarewell+0x33c>)
    a734:	23e1      	movs	r3, #225	; 0xe1
    a736:	009b      	lsls	r3, r3, #2
    a738:	0019      	movs	r1, r3
    a73a:	0010      	movs	r0, r2
    a73c:	f7ff fcaa 	bl	a094 <play>
F:\WorkSpace\AHL-GEC-EXP\Temp\PWM_Music\Debug/srcc/music.c:188
  play(tones[7][1], 300);
    a740:	4a2d      	ldr	r2, [pc, #180]	; (a7f8 <playFarewell+0x34c>)
    a742:	2396      	movs	r3, #150	; 0x96
    a744:	005b      	lsls	r3, r3, #1
    a746:	0019      	movs	r1, r3
    a748:	0010      	movs	r0, r2
    a74a:	f7ff fca3 	bl	a094 <play>
F:\WorkSpace\AHL-GEC-EXP\Temp\PWM_Music\Debug/srcc/music.c:190

  play(tones[6][1], 600);
    a74e:	4a27      	ldr	r2, [pc, #156]	; (a7ec <playFarewell+0x340>)
    a750:	2396      	movs	r3, #150	; 0x96
    a752:	009b      	lsls	r3, r3, #2
    a754:	0019      	movs	r1, r3
    a756:	0010      	movs	r0, r2
    a758:	f7ff fc9c 	bl	a094 <play>
F:\WorkSpace\AHL-GEC-EXP\Temp\PWM_Music\Debug/srcc/music.c:191
  play(tones[1][2], 600);
    a75c:	4a22      	ldr	r2, [pc, #136]	; (a7e8 <playFarewell+0x33c>)
    a75e:	2396      	movs	r3, #150	; 0x96
    a760:	009b      	lsls	r3, r3, #2
    a762:	0019      	movs	r1, r3
    a764:	0010      	movs	r0, r2
    a766:	f7ff fc95 	bl	a094 <play>
F:\WorkSpace\AHL-GEC-EXP\Temp\PWM_Music\Debug/srcc/music.c:192
  play(tones[5][1], 1200);
    a76a:	4a1d      	ldr	r2, [pc, #116]	; (a7e0 <playFarewell+0x334>)
    a76c:	2396      	movs	r3, #150	; 0x96
    a76e:	00db      	lsls	r3, r3, #3
    a770:	0019      	movs	r1, r3
    a772:	0010      	movs	r0, r2
    a774:	f7ff fc8e 	bl	a094 <play>
F:\WorkSpace\AHL-GEC-EXP\Temp\PWM_Music\Debug/srcc/music.c:194

  play(tones[5][1], 600);
    a778:	4a19      	ldr	r2, [pc, #100]	; (a7e0 <playFarewell+0x334>)
    a77a:	2396      	movs	r3, #150	; 0x96
    a77c:	009b      	lsls	r3, r3, #2
    a77e:	0019      	movs	r1, r3
    a780:	0010      	movs	r0, r2
    a782:	f7ff fc87 	bl	a094 <play>
F:\WorkSpace\AHL-GEC-EXP\Temp\PWM_Music\Debug/srcc/music.c:195
  play(tones[2][1], 300);
    a786:	4a1b      	ldr	r2, [pc, #108]	; (a7f4 <playFarewell+0x348>)
    a788:	2396      	movs	r3, #150	; 0x96
    a78a:	005b      	lsls	r3, r3, #1
    a78c:	0019      	movs	r1, r3
    a78e:	0010      	movs	r0, r2
    a790:	f7ff fc80 	bl	a094 <play>
F:\WorkSpace\AHL-GEC-EXP\Temp\PWM_Music\Debug/srcc/music.c:196
  play(tones[3][1], 300);
    a794:	4a13      	ldr	r2, [pc, #76]	; (a7e4 <playFarewell+0x338>)
    a796:	2396      	movs	r3, #150	; 0x96
    a798:	005b      	lsls	r3, r3, #1
    a79a:	0019      	movs	r1, r3
    a79c:	0010      	movs	r0, r2
    a79e:	f7ff fc79 	bl	a094 <play>
F:\WorkSpace\AHL-GEC-EXP\Temp\PWM_Music\Debug/srcc/music.c:197
  play(tones[4][1], 900);
    a7a2:	4a16      	ldr	r2, [pc, #88]	; (a7fc <playFarewell+0x350>)
    a7a4:	23e1      	movs	r3, #225	; 0xe1
    a7a6:	009b      	lsls	r3, r3, #2
    a7a8:	0019      	movs	r1, r3
    a7aa:	0010      	movs	r0, r2
    a7ac:	f7ff fc72 	bl	a094 <play>
F:\WorkSpace\AHL-GEC-EXP\Temp\PWM_Music\Debug/srcc/music.c:198
  play(tones[7][0], 300);
    a7b0:	4a13      	ldr	r2, [pc, #76]	; (a800 <playFarewell+0x354>)
    a7b2:	2396      	movs	r3, #150	; 0x96
    a7b4:	005b      	lsls	r3, r3, #1
    a7b6:	0019      	movs	r1, r3
    a7b8:	0010      	movs	r0, r2
    a7ba:	f7ff fc6b 	bl	a094 <play>
F:\WorkSpace\AHL-GEC-EXP\Temp\PWM_Music\Debug/srcc/music.c:200

  play(tones[1][1], 1200);
    a7be:	4a0c      	ldr	r2, [pc, #48]	; (a7f0 <playFarewell+0x344>)
    a7c0:	2396      	movs	r3, #150	; 0x96
    a7c2:	00db      	lsls	r3, r3, #3
    a7c4:	0019      	movs	r1, r3
    a7c6:	0010      	movs	r0, r2
    a7c8:	f7ff fc64 	bl	a094 <play>
F:\WorkSpace\AHL-GEC-EXP\Temp\PWM_Music\Debug/srcc/music.c:201
  play(tones[0][0], 1200);
    a7cc:	2200      	movs	r2, #0
    a7ce:	2396      	movs	r3, #150	; 0x96
    a7d0:	00db      	lsls	r3, r3, #3
    a7d2:	0019      	movs	r1, r3
    a7d4:	0010      	movs	r0, r2
    a7d6:	f7ff fc5d 	bl	a094 <play>
F:\WorkSpace\AHL-GEC-EXP\Temp\PWM_Music\Debug/srcc/music.c:202
}
    a7da:	46c0      	nop			; (mov r8, r8)
    a7dc:	bd10      	pop	{r4, pc}
    a7de:	46c0      	nop			; (mov r8, r8)
    a7e0:	00000782 	.word	0x00000782
    a7e4:	000008ef 	.word	0x000008ef
    a7e8:	000005a1 	.word	0x000005a1
    a7ec:	000006b1 	.word	0x000006b1
    a7f0:	00000b42 	.word	0x00000b42
    a7f4:	00000a07 	.word	0x00000a07
    a7f8:	000005f5 	.word	0x000005f5
    a7fc:	0000086f 	.word	0x0000086f
    a800:	00000bea 	.word	0x00000bea

0000a804 <playTenderLines>:
playTenderLines():
F:\WorkSpace\AHL-GEC-EXP\Temp\PWM_Music\Debug/srcc/music.c:204

void playTenderLines() {
    a804:	b510      	push	{r4, lr}
F:\WorkSpace\AHL-GEC-EXP\Temp\PWM_Music\Debug/srcc/music.c:205
  play(tones[5][0], 1200);
    a806:	4afe      	ldr	r2, [pc, #1016]	; (ac00 <playTenderLines+0x3fc>)
    a808:	2396      	movs	r3, #150	; 0x96
    a80a:	00db      	lsls	r3, r3, #3
    a80c:	0019      	movs	r1, r3
    a80e:	0010      	movs	r0, r2
    a810:	f7ff fc40 	bl	a094 <play>
F:\WorkSpace\AHL-GEC-EXP\Temp\PWM_Music\Debug/srcc/music.c:207

  play(tones[3][1], 900);
    a814:	4afb      	ldr	r2, [pc, #1004]	; (ac04 <playTenderLines+0x400>)
    a816:	23e1      	movs	r3, #225	; 0xe1
    a818:	009b      	lsls	r3, r3, #2
    a81a:	0019      	movs	r1, r3
    a81c:	0010      	movs	r0, r2
    a81e:	f7ff fc39 	bl	a094 <play>
F:\WorkSpace\AHL-GEC-EXP\Temp\PWM_Music\Debug/srcc/music.c:208
  play(tones[2][1], 300);
    a822:	4af9      	ldr	r2, [pc, #996]	; (ac08 <playTenderLines+0x404>)
    a824:	2396      	movs	r3, #150	; 0x96
    a826:	005b      	lsls	r3, r3, #1
    a828:	0019      	movs	r1, r3
    a82a:	0010      	movs	r0, r2
    a82c:	f7ff fc32 	bl	a094 <play>
F:\WorkSpace\AHL-GEC-EXP\Temp\PWM_Music\Debug/srcc/music.c:209
  play(tones[3][1], 300);
    a830:	4af4      	ldr	r2, [pc, #976]	; (ac04 <playTenderLines+0x400>)
    a832:	2396      	movs	r3, #150	; 0x96
    a834:	005b      	lsls	r3, r3, #1
    a836:	0019      	movs	r1, r3
    a838:	0010      	movs	r0, r2
    a83a:	f7ff fc2b 	bl	a094 <play>
F:\WorkSpace\AHL-GEC-EXP\Temp\PWM_Music\Debug/srcc/music.c:210
  play(tones[1][1], 900);
    a83e:	4af3      	ldr	r2, [pc, #972]	; (ac0c <playTenderLines+0x408>)
    a840:	23e1      	movs	r3, #225	; 0xe1
    a842:	009b      	lsls	r3, r3, #2
    a844:	0019      	movs	r1, r3
    a846:	0010      	movs	r0, r2
    a848:	f7ff fc24 	bl	a094 <play>
F:\WorkSpace\AHL-GEC-EXP\Temp\PWM_Music\Debug/srcc/music.c:212

  play(tones[2][1], 900);
    a84c:	4aee      	ldr	r2, [pc, #952]	; (ac08 <playTenderLines+0x404>)
    a84e:	23e1      	movs	r3, #225	; 0xe1
    a850:	009b      	lsls	r3, r3, #2
    a852:	0019      	movs	r1, r3
    a854:	0010      	movs	r0, r2
    a856:	f7ff fc1d 	bl	a094 <play>
F:\WorkSpace\AHL-GEC-EXP\Temp\PWM_Music\Debug/srcc/music.c:213
  play(tones[1][1], 300);
    a85a:	4aec      	ldr	r2, [pc, #944]	; (ac0c <playTenderLines+0x408>)
    a85c:	2396      	movs	r3, #150	; 0x96
    a85e:	005b      	lsls	r3, r3, #1
    a860:	0019      	movs	r1, r3
    a862:	0010      	movs	r0, r2
    a864:	f7ff fc16 	bl	a094 <play>
F:\WorkSpace\AHL-GEC-EXP\Temp\PWM_Music\Debug/srcc/music.c:214
  play(tones[2][1], 600);
    a868:	4ae7      	ldr	r2, [pc, #924]	; (ac08 <playTenderLines+0x404>)
    a86a:	2396      	movs	r3, #150	; 0x96
    a86c:	009b      	lsls	r3, r3, #2
    a86e:	0019      	movs	r1, r3
    a870:	0010      	movs	r0, r2
    a872:	f7ff fc0f 	bl	a094 <play>
F:\WorkSpace\AHL-GEC-EXP\Temp\PWM_Music\Debug/srcc/music.c:215
  play(tones[5][1], 900);
    a876:	4ae6      	ldr	r2, [pc, #920]	; (ac10 <playTenderLines+0x40c>)
    a878:	23e1      	movs	r3, #225	; 0xe1
    a87a:	009b      	lsls	r3, r3, #2
    a87c:	0019      	movs	r1, r3
    a87e:	0010      	movs	r0, r2
    a880:	f7ff fc08 	bl	a094 <play>
F:\WorkSpace\AHL-GEC-EXP\Temp\PWM_Music\Debug/srcc/music.c:217

  play(tones[1][1], 900);
    a884:	4ae1      	ldr	r2, [pc, #900]	; (ac0c <playTenderLines+0x408>)
    a886:	23e1      	movs	r3, #225	; 0xe1
    a888:	009b      	lsls	r3, r3, #2
    a88a:	0019      	movs	r1, r3
    a88c:	0010      	movs	r0, r2
    a88e:	f7ff fc01 	bl	a094 <play>
F:\WorkSpace\AHL-GEC-EXP\Temp\PWM_Music\Debug/srcc/music.c:218
  play(tones[6][0], 300);
    a892:	4ae0      	ldr	r2, [pc, #896]	; (ac14 <playTenderLines+0x410>)
    a894:	2396      	movs	r3, #150	; 0x96
    a896:	005b      	lsls	r3, r3, #1
    a898:	0019      	movs	r1, r3
    a89a:	0010      	movs	r0, r2
    a89c:	f7ff fbfa 	bl	a094 <play>
F:\WorkSpace\AHL-GEC-EXP\Temp\PWM_Music\Debug/srcc/music.c:219
  play(tones[1][1], 300);
    a8a0:	4ada      	ldr	r2, [pc, #872]	; (ac0c <playTenderLines+0x408>)
    a8a2:	2396      	movs	r3, #150	; 0x96
    a8a4:	005b      	lsls	r3, r3, #1
    a8a6:	0019      	movs	r1, r3
    a8a8:	0010      	movs	r0, r2
    a8aa:	f7ff fbf3 	bl	a094 <play>
F:\WorkSpace\AHL-GEC-EXP\Temp\PWM_Music\Debug/srcc/music.c:220
  play(tones[6][0], 300);
    a8ae:	4ad9      	ldr	r2, [pc, #868]	; (ac14 <playTenderLines+0x410>)
    a8b0:	2396      	movs	r3, #150	; 0x96
    a8b2:	005b      	lsls	r3, r3, #1
    a8b4:	0019      	movs	r1, r3
    a8b6:	0010      	movs	r0, r2
    a8b8:	f7ff fbec 	bl	a094 <play>
F:\WorkSpace\AHL-GEC-EXP\Temp\PWM_Music\Debug/srcc/music.c:221
  play(tones[5][0], 300);
    a8bc:	4ad0      	ldr	r2, [pc, #832]	; (ac00 <playTenderLines+0x3fc>)
    a8be:	2396      	movs	r3, #150	; 0x96
    a8c0:	005b      	lsls	r3, r3, #1
    a8c2:	0019      	movs	r1, r3
    a8c4:	0010      	movs	r0, r2
    a8c6:	f7ff fbe5 	bl	a094 <play>
F:\WorkSpace\AHL-GEC-EXP\Temp\PWM_Music\Debug/srcc/music.c:223

  play(tones[2][1], 900);
    a8ca:	4acf      	ldr	r2, [pc, #828]	; (ac08 <playTenderLines+0x404>)
    a8cc:	23e1      	movs	r3, #225	; 0xe1
    a8ce:	009b      	lsls	r3, r3, #2
    a8d0:	0019      	movs	r1, r3
    a8d2:	0010      	movs	r0, r2
    a8d4:	f7ff fbde 	bl	a094 <play>
F:\WorkSpace\AHL-GEC-EXP\Temp\PWM_Music\Debug/srcc/music.c:224
  play(tones[3][1], 300);
    a8d8:	4aca      	ldr	r2, [pc, #808]	; (ac04 <playTenderLines+0x400>)
    a8da:	2396      	movs	r3, #150	; 0x96
    a8dc:	005b      	lsls	r3, r3, #1
    a8de:	0019      	movs	r1, r3
    a8e0:	0010      	movs	r0, r2
    a8e2:	f7ff fbd7 	bl	a094 <play>
F:\WorkSpace\AHL-GEC-EXP\Temp\PWM_Music\Debug/srcc/music.c:225
  play(tones[6][0], 300);
    a8e6:	4acb      	ldr	r2, [pc, #812]	; (ac14 <playTenderLines+0x410>)
    a8e8:	2396      	movs	r3, #150	; 0x96
    a8ea:	005b      	lsls	r3, r3, #1
    a8ec:	0019      	movs	r1, r3
    a8ee:	0010      	movs	r0, r2
    a8f0:	f7ff fbd0 	bl	a094 <play>
F:\WorkSpace\AHL-GEC-EXP\Temp\PWM_Music\Debug/srcc/music.c:226
  play(tones[5][0], 900);
    a8f4:	4ac2      	ldr	r2, [pc, #776]	; (ac00 <playTenderLines+0x3fc>)
    a8f6:	23e1      	movs	r3, #225	; 0xe1
    a8f8:	009b      	lsls	r3, r3, #2
    a8fa:	0019      	movs	r1, r3
    a8fc:	0010      	movs	r0, r2
    a8fe:	f7ff fbc9 	bl	a094 <play>
F:\WorkSpace\AHL-GEC-EXP\Temp\PWM_Music\Debug/srcc/music.c:228

  play(tones[4][1], 900);
    a902:	4ac5      	ldr	r2, [pc, #788]	; (ac18 <playTenderLines+0x414>)
    a904:	23e1      	movs	r3, #225	; 0xe1
    a906:	009b      	lsls	r3, r3, #2
    a908:	0019      	movs	r1, r3
    a90a:	0010      	movs	r0, r2
    a90c:	f7ff fbc2 	bl	a094 <play>
F:\WorkSpace\AHL-GEC-EXP\Temp\PWM_Music\Debug/srcc/music.c:229
  play(tones[3][1], 300);
    a910:	4abc      	ldr	r2, [pc, #752]	; (ac04 <playTenderLines+0x400>)
    a912:	2396      	movs	r3, #150	; 0x96
    a914:	005b      	lsls	r3, r3, #1
    a916:	0019      	movs	r1, r3
    a918:	0010      	movs	r0, r2
    a91a:	f7ff fbbb 	bl	a094 <play>
F:\WorkSpace\AHL-GEC-EXP\Temp\PWM_Music\Debug/srcc/music.c:230
  play(tones[4][1], 300);
    a91e:	4abe      	ldr	r2, [pc, #760]	; (ac18 <playTenderLines+0x414>)
    a920:	2396      	movs	r3, #150	; 0x96
    a922:	005b      	lsls	r3, r3, #1
    a924:	0019      	movs	r1, r3
    a926:	0010      	movs	r0, r2
    a928:	f7ff fbb4 	bl	a094 <play>
F:\WorkSpace\AHL-GEC-EXP\Temp\PWM_Music\Debug/srcc/music.c:231
  play(tones[1][1], 900);
    a92c:	4ab7      	ldr	r2, [pc, #732]	; (ac0c <playTenderLines+0x408>)
    a92e:	23e1      	movs	r3, #225	; 0xe1
    a930:	009b      	lsls	r3, r3, #2
    a932:	0019      	movs	r1, r3
    a934:	0010      	movs	r0, r2
    a936:	f7ff fbad 	bl	a094 <play>
F:\WorkSpace\AHL-GEC-EXP\Temp\PWM_Music\Debug/srcc/music.c:233

  play(tones[2][1], 900);
    a93a:	4ab3      	ldr	r2, [pc, #716]	; (ac08 <playTenderLines+0x404>)
    a93c:	23e1      	movs	r3, #225	; 0xe1
    a93e:	009b      	lsls	r3, r3, #2
    a940:	0019      	movs	r1, r3
    a942:	0010      	movs	r0, r2
    a944:	f7ff fba6 	bl	a094 <play>
F:\WorkSpace\AHL-GEC-EXP\Temp\PWM_Music\Debug/srcc/music.c:234
  play(tones[1][1], 300);
    a948:	4ab0      	ldr	r2, [pc, #704]	; (ac0c <playTenderLines+0x408>)
    a94a:	2396      	movs	r3, #150	; 0x96
    a94c:	005b      	lsls	r3, r3, #1
    a94e:	0019      	movs	r1, r3
    a950:	0010      	movs	r0, r2
    a952:	f7ff fb9f 	bl	a094 <play>
F:\WorkSpace\AHL-GEC-EXP\Temp\PWM_Music\Debug/srcc/music.c:235
  play(tones[2][1], 300);
    a956:	4aac      	ldr	r2, [pc, #688]	; (ac08 <playTenderLines+0x404>)
    a958:	2396      	movs	r3, #150	; 0x96
    a95a:	005b      	lsls	r3, r3, #1
    a95c:	0019      	movs	r1, r3
    a95e:	0010      	movs	r0, r2
    a960:	f7ff fb98 	bl	a094 <play>
F:\WorkSpace\AHL-GEC-EXP\Temp\PWM_Music\Debug/srcc/music.c:236
  play(tones[5][1], 900);
    a964:	4aaa      	ldr	r2, [pc, #680]	; (ac10 <playTenderLines+0x40c>)
    a966:	23e1      	movs	r3, #225	; 0xe1
    a968:	009b      	lsls	r3, r3, #2
    a96a:	0019      	movs	r1, r3
    a96c:	0010      	movs	r0, r2
    a96e:	f7ff fb91 	bl	a094 <play>
F:\WorkSpace\AHL-GEC-EXP\Temp\PWM_Music\Debug/srcc/music.c:238

  play(tones[1][1], 900);
    a972:	4aa6      	ldr	r2, [pc, #664]	; (ac0c <playTenderLines+0x408>)
    a974:	23e1      	movs	r3, #225	; 0xe1
    a976:	009b      	lsls	r3, r3, #2
    a978:	0019      	movs	r1, r3
    a97a:	0010      	movs	r0, r2
    a97c:	f7ff fb8a 	bl	a094 <play>
F:\WorkSpace\AHL-GEC-EXP\Temp\PWM_Music\Debug/srcc/music.c:239
  play(tones[6][0], 300);
    a980:	4aa4      	ldr	r2, [pc, #656]	; (ac14 <playTenderLines+0x410>)
    a982:	2396      	movs	r3, #150	; 0x96
    a984:	005b      	lsls	r3, r3, #1
    a986:	0019      	movs	r1, r3
    a988:	0010      	movs	r0, r2
    a98a:	f7ff fb83 	bl	a094 <play>
F:\WorkSpace\AHL-GEC-EXP\Temp\PWM_Music\Debug/srcc/music.c:240
  play(tones[1][1], 300);
    a98e:	4a9f      	ldr	r2, [pc, #636]	; (ac0c <playTenderLines+0x408>)
    a990:	2396      	movs	r3, #150	; 0x96
    a992:	005b      	lsls	r3, r3, #1
    a994:	0019      	movs	r1, r3
    a996:	0010      	movs	r0, r2
    a998:	f7ff fb7c 	bl	a094 <play>
F:\WorkSpace\AHL-GEC-EXP\Temp\PWM_Music\Debug/srcc/music.c:241
  play(tones[6][0], 900);
    a99c:	4a9d      	ldr	r2, [pc, #628]	; (ac14 <playTenderLines+0x410>)
    a99e:	23e1      	movs	r3, #225	; 0xe1
    a9a0:	009b      	lsls	r3, r3, #2
    a9a2:	0019      	movs	r1, r3
    a9a4:	0010      	movs	r0, r2
    a9a6:	f7ff fb75 	bl	a094 <play>
F:\WorkSpace\AHL-GEC-EXP\Temp\PWM_Music\Debug/srcc/music.c:243

  play(tones[3][1], 300);
    a9aa:	4a96      	ldr	r2, [pc, #600]	; (ac04 <playTenderLines+0x400>)
    a9ac:	2396      	movs	r3, #150	; 0x96
    a9ae:	005b      	lsls	r3, r3, #1
    a9b0:	0019      	movs	r1, r3
    a9b2:	0010      	movs	r0, r2
    a9b4:	f7ff fb6e 	bl	a094 <play>
F:\WorkSpace\AHL-GEC-EXP\Temp\PWM_Music\Debug/srcc/music.c:244
  play(tones[2][1], 600);
    a9b8:	4a93      	ldr	r2, [pc, #588]	; (ac08 <playTenderLines+0x404>)
    a9ba:	2396      	movs	r3, #150	; 0x96
    a9bc:	009b      	lsls	r3, r3, #2
    a9be:	0019      	movs	r1, r3
    a9c0:	0010      	movs	r0, r2
    a9c2:	f7ff fb67 	bl	a094 <play>
F:\WorkSpace\AHL-GEC-EXP\Temp\PWM_Music\Debug/srcc/music.c:245
  play(tones[1][1], 1500);
    a9c6:	4b91      	ldr	r3, [pc, #580]	; (ac0c <playTenderLines+0x408>)
    a9c8:	4a94      	ldr	r2, [pc, #592]	; (ac1c <playTenderLines+0x418>)
    a9ca:	0011      	movs	r1, r2
    a9cc:	0018      	movs	r0, r3
    a9ce:	f7ff fb61 	bl	a094 <play>
F:\WorkSpace\AHL-GEC-EXP\Temp\PWM_Music\Debug/srcc/music.c:247

  play(tones[0][0], 300);
    a9d2:	2200      	movs	r2, #0
    a9d4:	2396      	movs	r3, #150	; 0x96
    a9d6:	005b      	lsls	r3, r3, #1
    a9d8:	0019      	movs	r1, r3
    a9da:	0010      	movs	r0, r2
    a9dc:	f7ff fb5a 	bl	a094 <play>
F:\WorkSpace\AHL-GEC-EXP\Temp\PWM_Music\Debug/srcc/music.c:248
  play(tones[1][1], 600);
    a9e0:	4a8a      	ldr	r2, [pc, #552]	; (ac0c <playTenderLines+0x408>)
    a9e2:	2396      	movs	r3, #150	; 0x96
    a9e4:	009b      	lsls	r3, r3, #2
    a9e6:	0019      	movs	r1, r3
    a9e8:	0010      	movs	r0, r2
    a9ea:	f7ff fb53 	bl	a094 <play>
F:\WorkSpace\AHL-GEC-EXP\Temp\PWM_Music\Debug/srcc/music.c:249
  play(tones[2][1], 300);
    a9ee:	4a86      	ldr	r2, [pc, #536]	; (ac08 <playTenderLines+0x404>)
    a9f0:	2396      	movs	r3, #150	; 0x96
    a9f2:	005b      	lsls	r3, r3, #1
    a9f4:	0019      	movs	r1, r3
    a9f6:	0010      	movs	r0, r2
    a9f8:	f7ff fb4c 	bl	a094 <play>
F:\WorkSpace\AHL-GEC-EXP\Temp\PWM_Music\Debug/srcc/music.c:251

  play(tones[3][1], 1200);
    a9fc:	4a81      	ldr	r2, [pc, #516]	; (ac04 <playTenderLines+0x400>)
    a9fe:	2396      	movs	r3, #150	; 0x96
    aa00:	00db      	lsls	r3, r3, #3
    aa02:	0019      	movs	r1, r3
    aa04:	0010      	movs	r0, r2
    aa06:	f7ff fb45 	bl	a094 <play>
F:\WorkSpace\AHL-GEC-EXP\Temp\PWM_Music\Debug/srcc/music.c:252
  play(tones[0][0], 300);
    aa0a:	2200      	movs	r2, #0
    aa0c:	2396      	movs	r3, #150	; 0x96
    aa0e:	005b      	lsls	r3, r3, #1
    aa10:	0019      	movs	r1, r3
    aa12:	0010      	movs	r0, r2
    aa14:	f7ff fb3e 	bl	a094 <play>
F:\WorkSpace\AHL-GEC-EXP\Temp\PWM_Music\Debug/srcc/music.c:253
  play(tones[3][1], 300);
    aa18:	4a7a      	ldr	r2, [pc, #488]	; (ac04 <playTenderLines+0x400>)
    aa1a:	2396      	movs	r3, #150	; 0x96
    aa1c:	005b      	lsls	r3, r3, #1
    aa1e:	0019      	movs	r1, r3
    aa20:	0010      	movs	r0, r2
    aa22:	f7ff fb37 	bl	a094 <play>
F:\WorkSpace\AHL-GEC-EXP\Temp\PWM_Music\Debug/srcc/music.c:254
  play(tones[2][1], 300);
    aa26:	4a78      	ldr	r2, [pc, #480]	; (ac08 <playTenderLines+0x404>)
    aa28:	2396      	movs	r3, #150	; 0x96
    aa2a:	005b      	lsls	r3, r3, #1
    aa2c:	0019      	movs	r1, r3
    aa2e:	0010      	movs	r0, r2
    aa30:	f7ff fb30 	bl	a094 <play>
F:\WorkSpace\AHL-GEC-EXP\Temp\PWM_Music\Debug/srcc/music.c:255
  play(tones[1][1], 300);
    aa34:	4a75      	ldr	r2, [pc, #468]	; (ac0c <playTenderLines+0x408>)
    aa36:	2396      	movs	r3, #150	; 0x96
    aa38:	005b      	lsls	r3, r3, #1
    aa3a:	0019      	movs	r1, r3
    aa3c:	0010      	movs	r0, r2
    aa3e:	f7ff fb29 	bl	a094 <play>
F:\WorkSpace\AHL-GEC-EXP\Temp\PWM_Music\Debug/srcc/music.c:257

  play(tones[7][0], 600);
    aa42:	4a77      	ldr	r2, [pc, #476]	; (ac20 <playTenderLines+0x41c>)
    aa44:	2396      	movs	r3, #150	; 0x96
    aa46:	009b      	lsls	r3, r3, #2
    aa48:	0019      	movs	r1, r3
    aa4a:	0010      	movs	r0, r2
    aa4c:	f7ff fb22 	bl	a094 <play>
F:\WorkSpace\AHL-GEC-EXP\Temp\PWM_Music\Debug/srcc/music.c:258
  play(tones[6][1], 300);
    aa50:	4a74      	ldr	r2, [pc, #464]	; (ac24 <playTenderLines+0x420>)
    aa52:	2396      	movs	r3, #150	; 0x96
    aa54:	005b      	lsls	r3, r3, #1
    aa56:	0019      	movs	r1, r3
    aa58:	0010      	movs	r0, r2
    aa5a:	f7ff fb1b 	bl	a094 <play>
F:\WorkSpace\AHL-GEC-EXP\Temp\PWM_Music\Debug/srcc/music.c:259
  play(tones[5][1], 300);
    aa5e:	4a6c      	ldr	r2, [pc, #432]	; (ac10 <playTenderLines+0x40c>)
    aa60:	2396      	movs	r3, #150	; 0x96
    aa62:	005b      	lsls	r3, r3, #1
    aa64:	0019      	movs	r1, r3
    aa66:	0010      	movs	r0, r2
    aa68:	f7ff fb14 	bl	a094 <play>
F:\WorkSpace\AHL-GEC-EXP\Temp\PWM_Music\Debug/srcc/music.c:260
  play(tones[0][0], 300);
    aa6c:	2200      	movs	r2, #0
    aa6e:	2396      	movs	r3, #150	; 0x96
    aa70:	005b      	lsls	r3, r3, #1
    aa72:	0019      	movs	r1, r3
    aa74:	0010      	movs	r0, r2
    aa76:	f7ff fb0d 	bl	a094 <play>
F:\WorkSpace\AHL-GEC-EXP\Temp\PWM_Music\Debug/srcc/music.c:261
  play(tones[5][1], 300);
    aa7a:	4a65      	ldr	r2, [pc, #404]	; (ac10 <playTenderLines+0x40c>)
    aa7c:	2396      	movs	r3, #150	; 0x96
    aa7e:	005b      	lsls	r3, r3, #1
    aa80:	0019      	movs	r1, r3
    aa82:	0010      	movs	r0, r2
    aa84:	f7ff fb06 	bl	a094 <play>
F:\WorkSpace\AHL-GEC-EXP\Temp\PWM_Music\Debug/srcc/music.c:262
  play(tones[6][1], 300);
    aa88:	4a66      	ldr	r2, [pc, #408]	; (ac24 <playTenderLines+0x420>)
    aa8a:	2396      	movs	r3, #150	; 0x96
    aa8c:	005b      	lsls	r3, r3, #1
    aa8e:	0019      	movs	r1, r3
    aa90:	0010      	movs	r0, r2
    aa92:	f7ff faff 	bl	a094 <play>
F:\WorkSpace\AHL-GEC-EXP\Temp\PWM_Music\Debug/srcc/music.c:263
  play(tones[7][1], 300);
    aa96:	4a64      	ldr	r2, [pc, #400]	; (ac28 <playTenderLines+0x424>)
    aa98:	2396      	movs	r3, #150	; 0x96
    aa9a:	005b      	lsls	r3, r3, #1
    aa9c:	0019      	movs	r1, r3
    aa9e:	0010      	movs	r0, r2
    aaa0:	f7ff faf8 	bl	a094 <play>
F:\WorkSpace\AHL-GEC-EXP\Temp\PWM_Music\Debug/srcc/music.c:265

  play(tones[1][2], 600);
    aaa4:	4a61      	ldr	r2, [pc, #388]	; (ac2c <playTenderLines+0x428>)
    aaa6:	2396      	movs	r3, #150	; 0x96
    aaa8:	009b      	lsls	r3, r3, #2
    aaaa:	0019      	movs	r1, r3
    aaac:	0010      	movs	r0, r2
    aaae:	f7ff faf1 	bl	a094 <play>
F:\WorkSpace\AHL-GEC-EXP\Temp\PWM_Music\Debug/srcc/music.c:266
  play(tones[3][1], 600);
    aab2:	4a54      	ldr	r2, [pc, #336]	; (ac04 <playTenderLines+0x400>)
    aab4:	2396      	movs	r3, #150	; 0x96
    aab6:	009b      	lsls	r3, r3, #2
    aab8:	0019      	movs	r1, r3
    aaba:	0010      	movs	r0, r2
    aabc:	f7ff faea 	bl	a094 <play>
F:\WorkSpace\AHL-GEC-EXP\Temp\PWM_Music\Debug/srcc/music.c:267
  play(tones[0][0], 300);
    aac0:	2200      	movs	r2, #0
    aac2:	2396      	movs	r3, #150	; 0x96
    aac4:	005b      	lsls	r3, r3, #1
    aac6:	0019      	movs	r1, r3
    aac8:	0010      	movs	r0, r2
    aaca:	f7ff fae3 	bl	a094 <play>
F:\WorkSpace\AHL-GEC-EXP\Temp\PWM_Music\Debug/srcc/music.c:268
  play(tones[1][2], 300);
    aace:	4a57      	ldr	r2, [pc, #348]	; (ac2c <playTenderLines+0x428>)
    aad0:	2396      	movs	r3, #150	; 0x96
    aad2:	005b      	lsls	r3, r3, #1
    aad4:	0019      	movs	r1, r3
    aad6:	0010      	movs	r0, r2
    aad8:	f7ff fadc 	bl	a094 <play>
F:\WorkSpace\AHL-GEC-EXP\Temp\PWM_Music\Debug/srcc/music.c:269
  play(tones[7][1], 300);
    aadc:	4a52      	ldr	r2, [pc, #328]	; (ac28 <playTenderLines+0x424>)
    aade:	2396      	movs	r3, #150	; 0x96
    aae0:	005b      	lsls	r3, r3, #1
    aae2:	0019      	movs	r1, r3
    aae4:	0010      	movs	r0, r2
    aae6:	f7ff fad5 	bl	a094 <play>
F:\WorkSpace\AHL-GEC-EXP\Temp\PWM_Music\Debug/srcc/music.c:270
  play(tones[1][2], 300);
    aaea:	4a50      	ldr	r2, [pc, #320]	; (ac2c <playTenderLines+0x428>)
    aaec:	2396      	movs	r3, #150	; 0x96
    aaee:	005b      	lsls	r3, r3, #1
    aaf0:	0019      	movs	r1, r3
    aaf2:	0010      	movs	r0, r2
    aaf4:	f7ff face 	bl	a094 <play>
F:\WorkSpace\AHL-GEC-EXP\Temp\PWM_Music\Debug/srcc/music.c:272

  play(tones[7][1], 600);
    aaf8:	4a4b      	ldr	r2, [pc, #300]	; (ac28 <playTenderLines+0x424>)
    aafa:	2396      	movs	r3, #150	; 0x96
    aafc:	009b      	lsls	r3, r3, #2
    aafe:	0019      	movs	r1, r3
    ab00:	0010      	movs	r0, r2
    ab02:	f7ff fac7 	bl	a094 <play>
F:\WorkSpace\AHL-GEC-EXP\Temp\PWM_Music\Debug/srcc/music.c:273
  play(tones[3][1], 300);
    ab06:	4a3f      	ldr	r2, [pc, #252]	; (ac04 <playTenderLines+0x400>)
    ab08:	2396      	movs	r3, #150	; 0x96
    ab0a:	005b      	lsls	r3, r3, #1
    ab0c:	0019      	movs	r1, r3
    ab0e:	0010      	movs	r0, r2
    ab10:	f7ff fac0 	bl	a094 <play>
F:\WorkSpace\AHL-GEC-EXP\Temp\PWM_Music\Debug/srcc/music.c:274
  play(tones[5][1], 1500);
    ab14:	4b3e      	ldr	r3, [pc, #248]	; (ac10 <playTenderLines+0x40c>)
    ab16:	4a41      	ldr	r2, [pc, #260]	; (ac1c <playTenderLines+0x418>)
    ab18:	0011      	movs	r1, r2
    ab1a:	0018      	movs	r0, r3
    ab1c:	f7ff faba 	bl	a094 <play>
F:\WorkSpace\AHL-GEC-EXP\Temp\PWM_Music\Debug/srcc/music.c:275
  play(tones[6][1], 300);
    ab20:	4a40      	ldr	r2, [pc, #256]	; (ac24 <playTenderLines+0x420>)
    ab22:	2396      	movs	r3, #150	; 0x96
    ab24:	005b      	lsls	r3, r3, #1
    ab26:	0019      	movs	r1, r3
    ab28:	0010      	movs	r0, r2
    ab2a:	f7ff fab3 	bl	a094 <play>
F:\WorkSpace\AHL-GEC-EXP\Temp\PWM_Music\Debug/srcc/music.c:277

  play(tones[1][2], 300);
    ab2e:	4a3f      	ldr	r2, [pc, #252]	; (ac2c <playTenderLines+0x428>)
    ab30:	2396      	movs	r3, #150	; 0x96
    ab32:	005b      	lsls	r3, r3, #1
    ab34:	0019      	movs	r1, r3
    ab36:	0010      	movs	r0, r2
    ab38:	f7ff faac 	bl	a094 <play>
F:\WorkSpace\AHL-GEC-EXP\Temp\PWM_Music\Debug/srcc/music.c:278
  play(tones[5][1], 600);
    ab3c:	4a34      	ldr	r2, [pc, #208]	; (ac10 <playTenderLines+0x40c>)
    ab3e:	2396      	movs	r3, #150	; 0x96
    ab40:	009b      	lsls	r3, r3, #2
    ab42:	0019      	movs	r1, r3
    ab44:	0010      	movs	r0, r2
    ab46:	f7ff faa5 	bl	a094 <play>
F:\WorkSpace\AHL-GEC-EXP\Temp\PWM_Music\Debug/srcc/music.c:279
  play(tones[6][1], 300);
    ab4a:	4a36      	ldr	r2, [pc, #216]	; (ac24 <playTenderLines+0x420>)
    ab4c:	2396      	movs	r3, #150	; 0x96
    ab4e:	005b      	lsls	r3, r3, #1
    ab50:	0019      	movs	r1, r3
    ab52:	0010      	movs	r0, r2
    ab54:	f7ff fa9e 	bl	a094 <play>
F:\WorkSpace\AHL-GEC-EXP\Temp\PWM_Music\Debug/srcc/music.c:280
  play(tones[0][0], 300);
    ab58:	2200      	movs	r2, #0
    ab5a:	2396      	movs	r3, #150	; 0x96
    ab5c:	005b      	lsls	r3, r3, #1
    ab5e:	0019      	movs	r1, r3
    ab60:	0010      	movs	r0, r2
    ab62:	f7ff fa97 	bl	a094 <play>
F:\WorkSpace\AHL-GEC-EXP\Temp\PWM_Music\Debug/srcc/music.c:281
  play(tones[6][1], 300);
    ab66:	4a2f      	ldr	r2, [pc, #188]	; (ac24 <playTenderLines+0x420>)
    ab68:	2396      	movs	r3, #150	; 0x96
    ab6a:	005b      	lsls	r3, r3, #1
    ab6c:	0019      	movs	r1, r3
    ab6e:	0010      	movs	r0, r2
    ab70:	f7ff fa90 	bl	a094 <play>
F:\WorkSpace\AHL-GEC-EXP\Temp\PWM_Music\Debug/srcc/music.c:282
  play(tones[5][1], 300);
    ab74:	4a26      	ldr	r2, [pc, #152]	; (ac10 <playTenderLines+0x40c>)
    ab76:	2396      	movs	r3, #150	; 0x96
    ab78:	005b      	lsls	r3, r3, #1
    ab7a:	0019      	movs	r1, r3
    ab7c:	0010      	movs	r0, r2
    ab7e:	f7ff fa89 	bl	a094 <play>
F:\WorkSpace\AHL-GEC-EXP\Temp\PWM_Music\Debug/srcc/music.c:283
  play(tones[4][1], 300);
    ab82:	4a25      	ldr	r2, [pc, #148]	; (ac18 <playTenderLines+0x414>)
    ab84:	2396      	movs	r3, #150	; 0x96
    ab86:	005b      	lsls	r3, r3, #1
    ab88:	0019      	movs	r1, r3
    ab8a:	0010      	movs	r0, r2
    ab8c:	f7ff fa82 	bl	a094 <play>
F:\WorkSpace\AHL-GEC-EXP\Temp\PWM_Music\Debug/srcc/music.c:285

  play(tones[5][1], 300);
    ab90:	4a1f      	ldr	r2, [pc, #124]	; (ac10 <playTenderLines+0x40c>)
    ab92:	2396      	movs	r3, #150	; 0x96
    ab94:	005b      	lsls	r3, r3, #1
    ab96:	0019      	movs	r1, r3
    ab98:	0010      	movs	r0, r2
    ab9a:	f7ff fa7b 	bl	a094 <play>
F:\WorkSpace\AHL-GEC-EXP\Temp\PWM_Music\Debug/srcc/music.c:286
  play(tones[3][1], 600);
    ab9e:	4a19      	ldr	r2, [pc, #100]	; (ac04 <playTenderLines+0x400>)
    aba0:	2396      	movs	r3, #150	; 0x96
    aba2:	009b      	lsls	r3, r3, #2
    aba4:	0019      	movs	r1, r3
    aba6:	0010      	movs	r0, r2
    aba8:	f7ff fa74 	bl	a094 <play>
F:\WorkSpace\AHL-GEC-EXP\Temp\PWM_Music\Debug/srcc/music.c:287
  play(tones[2][1], 300);
    abac:	4a16      	ldr	r2, [pc, #88]	; (ac08 <playTenderLines+0x404>)
    abae:	2396      	movs	r3, #150	; 0x96
    abb0:	005b      	lsls	r3, r3, #1
    abb2:	0019      	movs	r1, r3
    abb4:	0010      	movs	r0, r2
    abb6:	f7ff fa6d 	bl	a094 <play>
F:\WorkSpace\AHL-GEC-EXP\Temp\PWM_Music\Debug/srcc/music.c:288
  play(tones[1][1], 900);
    abba:	4a14      	ldr	r2, [pc, #80]	; (ac0c <playTenderLines+0x408>)
    abbc:	23e1      	movs	r3, #225	; 0xe1
    abbe:	009b      	lsls	r3, r3, #2
    abc0:	0019      	movs	r1, r3
    abc2:	0010      	movs	r0, r2
    abc4:	f7ff fa66 	bl	a094 <play>
F:\WorkSpace\AHL-GEC-EXP\Temp\PWM_Music\Debug/srcc/music.c:289
  play(tones[6][0], 150);
    abc8:	4b12      	ldr	r3, [pc, #72]	; (ac14 <playTenderLines+0x410>)
    abca:	2196      	movs	r1, #150	; 0x96
    abcc:	0018      	movs	r0, r3
    abce:	f7ff fa61 	bl	a094 <play>
F:\WorkSpace\AHL-GEC-EXP\Temp\PWM_Music\Debug/srcc/music.c:290
  play(tones[1][1], 150);
    abd2:	4b0e      	ldr	r3, [pc, #56]	; (ac0c <playTenderLines+0x408>)
    abd4:	2196      	movs	r1, #150	; 0x96
    abd6:	0018      	movs	r0, r3
    abd8:	f7ff fa5c 	bl	a094 <play>
F:\WorkSpace\AHL-GEC-EXP\Temp\PWM_Music\Debug/srcc/music.c:292

  play(tones[3][1], 300);
    abdc:	4a09      	ldr	r2, [pc, #36]	; (ac04 <playTenderLines+0x400>)
    abde:	2396      	movs	r3, #150	; 0x96
    abe0:	005b      	lsls	r3, r3, #1
    abe2:	0019      	movs	r1, r3
    abe4:	0010      	movs	r0, r2
    abe6:	f7ff fa55 	bl	a094 <play>
F:\WorkSpace\AHL-GEC-EXP\Temp\PWM_Music\Debug/srcc/music.c:293
  play(tones[2][1], 600);
    abea:	4a07      	ldr	r2, [pc, #28]	; (ac08 <playTenderLines+0x404>)
    abec:	2396      	movs	r3, #150	; 0x96
    abee:	009b      	lsls	r3, r3, #2
    abf0:	0019      	movs	r1, r3
    abf2:	0010      	movs	r0, r2
    abf4:	f7ff fa4e 	bl	a094 <play>
F:\WorkSpace\AHL-GEC-EXP\Temp\PWM_Music\Debug/srcc/music.c:294
  play(tones[1][1], 300);
    abf8:	4a04      	ldr	r2, [pc, #16]	; (ac0c <playTenderLines+0x408>)
    abfa:	2396      	movs	r3, #150	; 0x96
    abfc:	005b      	lsls	r3, r3, #1
    abfe:	e017      	b.n	ac30 <playTenderLines+0x42c>
    ac00:	00000f04 	.word	0x00000f04
    ac04:	000008ef 	.word	0x000008ef
    ac08:	00000a07 	.word	0x00000a07
    ac0c:	00000b42 	.word	0x00000b42
    ac10:	00000782 	.word	0x00000782
    ac14:	00000d61 	.word	0x00000d61
    ac18:	0000086f 	.word	0x0000086f
    ac1c:	000005dc 	.word	0x000005dc
    ac20:	00000bea 	.word	0x00000bea
    ac24:	000006b1 	.word	0x000006b1
    ac28:	000005f5 	.word	0x000005f5
    ac2c:	000005a1 	.word	0x000005a1
    ac30:	0019      	movs	r1, r3
    ac32:	0010      	movs	r0, r2
    ac34:	f7ff fa2e 	bl	a094 <play>
F:\WorkSpace\AHL-GEC-EXP\Temp\PWM_Music\Debug/srcc/music.c:295
  play(tones[2][1], 300);
    ac38:	4ad9      	ldr	r2, [pc, #868]	; (afa0 <playTenderLines+0x79c>)
    ac3a:	2396      	movs	r3, #150	; 0x96
    ac3c:	005b      	lsls	r3, r3, #1
    ac3e:	0019      	movs	r1, r3
    ac40:	0010      	movs	r0, r2
    ac42:	f7ff fa27 	bl	a094 <play>
F:\WorkSpace\AHL-GEC-EXP\Temp\PWM_Music\Debug/srcc/music.c:296
  play(tones[5][1], 600);
    ac46:	4ad7      	ldr	r2, [pc, #860]	; (afa4 <playTenderLines+0x7a0>)
    ac48:	2396      	movs	r3, #150	; 0x96
    ac4a:	009b      	lsls	r3, r3, #2
    ac4c:	0019      	movs	r1, r3
    ac4e:	0010      	movs	r0, r2
    ac50:	f7ff fa20 	bl	a094 <play>
F:\WorkSpace\AHL-GEC-EXP\Temp\PWM_Music\Debug/srcc/music.c:297
  play(tones[1][1], 300);
    ac54:	4ad4      	ldr	r2, [pc, #848]	; (afa8 <playTenderLines+0x7a4>)
    ac56:	2396      	movs	r3, #150	; 0x96
    ac58:	005b      	lsls	r3, r3, #1
    ac5a:	0019      	movs	r1, r3
    ac5c:	0010      	movs	r0, r2
    ac5e:	f7ff fa19 	bl	a094 <play>
F:\WorkSpace\AHL-GEC-EXP\Temp\PWM_Music\Debug/srcc/music.c:299

  play(tones[2][1], 2400);
    ac62:	4acf      	ldr	r2, [pc, #828]	; (afa0 <playTenderLines+0x79c>)
    ac64:	2396      	movs	r3, #150	; 0x96
    ac66:	011b      	lsls	r3, r3, #4
    ac68:	0019      	movs	r1, r3
    ac6a:	0010      	movs	r0, r2
    ac6c:	f7ff fa12 	bl	a094 <play>
F:\WorkSpace\AHL-GEC-EXP\Temp\PWM_Music\Debug/srcc/music.c:301

  play(tones[5][1], 2400);
    ac70:	4acc      	ldr	r2, [pc, #816]	; (afa4 <playTenderLines+0x7a0>)
    ac72:	2396      	movs	r3, #150	; 0x96
    ac74:	011b      	lsls	r3, r3, #4
    ac76:	0019      	movs	r1, r3
    ac78:	0010      	movs	r0, r2
    ac7a:	f7ff fa0b 	bl	a094 <play>
F:\WorkSpace\AHL-GEC-EXP\Temp\PWM_Music\Debug/srcc/music.c:303

  play(tones[0][0], 300);
    ac7e:	2200      	movs	r2, #0
    ac80:	2396      	movs	r3, #150	; 0x96
    ac82:	005b      	lsls	r3, r3, #1
    ac84:	0019      	movs	r1, r3
    ac86:	0010      	movs	r0, r2
    ac88:	f7ff fa04 	bl	a094 <play>
F:\WorkSpace\AHL-GEC-EXP\Temp\PWM_Music\Debug/srcc/music.c:304
  play(tones[1][1], 600);
    ac8c:	4ac6      	ldr	r2, [pc, #792]	; (afa8 <playTenderLines+0x7a4>)
    ac8e:	2396      	movs	r3, #150	; 0x96
    ac90:	009b      	lsls	r3, r3, #2
    ac92:	0019      	movs	r1, r3
    ac94:	0010      	movs	r0, r2
    ac96:	f7ff f9fd 	bl	a094 <play>
F:\WorkSpace\AHL-GEC-EXP\Temp\PWM_Music\Debug/srcc/music.c:305
  play(tones[2][1], 300);
    ac9a:	4ac1      	ldr	r2, [pc, #772]	; (afa0 <playTenderLines+0x79c>)
    ac9c:	2396      	movs	r3, #150	; 0x96
    ac9e:	005b      	lsls	r3, r3, #1
    aca0:	0019      	movs	r1, r3
    aca2:	0010      	movs	r0, r2
    aca4:	f7ff f9f6 	bl	a094 <play>
F:\WorkSpace\AHL-GEC-EXP\Temp\PWM_Music\Debug/srcc/music.c:307

  play(tones[3][1], 600);
    aca8:	4ac0      	ldr	r2, [pc, #768]	; (afac <playTenderLines+0x7a8>)
    acaa:	2396      	movs	r3, #150	; 0x96
    acac:	009b      	lsls	r3, r3, #2
    acae:	0019      	movs	r1, r3
    acb0:	0010      	movs	r0, r2
    acb2:	f7ff f9ef 	bl	a094 <play>
F:\WorkSpace\AHL-GEC-EXP\Temp\PWM_Music\Debug/srcc/music.c:308
  play(tones[2][1], 300);
    acb6:	4aba      	ldr	r2, [pc, #744]	; (afa0 <playTenderLines+0x79c>)
    acb8:	2396      	movs	r3, #150	; 0x96
    acba:	005b      	lsls	r3, r3, #1
    acbc:	0019      	movs	r1, r3
    acbe:	0010      	movs	r0, r2
    acc0:	f7ff f9e8 	bl	a094 <play>
F:\WorkSpace\AHL-GEC-EXP\Temp\PWM_Music\Debug/srcc/music.c:309
  play(tones[3][1], 300);
    acc4:	4ab9      	ldr	r2, [pc, #740]	; (afac <playTenderLines+0x7a8>)
    acc6:	2396      	movs	r3, #150	; 0x96
    acc8:	005b      	lsls	r3, r3, #1
    acca:	0019      	movs	r1, r3
    accc:	0010      	movs	r0, r2
    acce:	f7ff f9e1 	bl	a094 <play>
F:\WorkSpace\AHL-GEC-EXP\Temp\PWM_Music\Debug/srcc/music.c:310
  play(tones[0][0], 300);
    acd2:	2200      	movs	r2, #0
    acd4:	2396      	movs	r3, #150	; 0x96
    acd6:	005b      	lsls	r3, r3, #1
    acd8:	0019      	movs	r1, r3
    acda:	0010      	movs	r0, r2
    acdc:	f7ff f9da 	bl	a094 <play>
F:\WorkSpace\AHL-GEC-EXP\Temp\PWM_Music\Debug/srcc/music.c:311
  play(tones[3][1], 300);
    ace0:	4ab2      	ldr	r2, [pc, #712]	; (afac <playTenderLines+0x7a8>)
    ace2:	2396      	movs	r3, #150	; 0x96
    ace4:	005b      	lsls	r3, r3, #1
    ace6:	0019      	movs	r1, r3
    ace8:	0010      	movs	r0, r2
    acea:	f7ff f9d3 	bl	a094 <play>
F:\WorkSpace\AHL-GEC-EXP\Temp\PWM_Music\Debug/srcc/music.c:312
  play(tones[2][1], 300);
    acee:	4aac      	ldr	r2, [pc, #688]	; (afa0 <playTenderLines+0x79c>)
    acf0:	2396      	movs	r3, #150	; 0x96
    acf2:	005b      	lsls	r3, r3, #1
    acf4:	0019      	movs	r1, r3
    acf6:	0010      	movs	r0, r2
    acf8:	f7ff f9cc 	bl	a094 <play>
F:\WorkSpace\AHL-GEC-EXP\Temp\PWM_Music\Debug/srcc/music.c:313
  play(tones[1][1], 300);
    acfc:	4aaa      	ldr	r2, [pc, #680]	; (afa8 <playTenderLines+0x7a4>)
    acfe:	2396      	movs	r3, #150	; 0x96
    ad00:	005b      	lsls	r3, r3, #1
    ad02:	0019      	movs	r1, r3
    ad04:	0010      	movs	r0, r2
    ad06:	f7ff f9c5 	bl	a094 <play>
F:\WorkSpace\AHL-GEC-EXP\Temp\PWM_Music\Debug/srcc/music.c:315

  play(tones[5][1], 600);
    ad0a:	4aa6      	ldr	r2, [pc, #664]	; (afa4 <playTenderLines+0x7a0>)
    ad0c:	2396      	movs	r3, #150	; 0x96
    ad0e:	009b      	lsls	r3, r3, #2
    ad10:	0019      	movs	r1, r3
    ad12:	0010      	movs	r0, r2
    ad14:	f7ff f9be 	bl	a094 <play>
F:\WorkSpace\AHL-GEC-EXP\Temp\PWM_Music\Debug/srcc/music.c:316
  play(tones[3][1], 300);
    ad18:	4aa4      	ldr	r2, [pc, #656]	; (afac <playTenderLines+0x7a8>)
    ad1a:	2396      	movs	r3, #150	; 0x96
    ad1c:	005b      	lsls	r3, r3, #1
    ad1e:	0019      	movs	r1, r3
    ad20:	0010      	movs	r0, r2
    ad22:	f7ff f9b7 	bl	a094 <play>
F:\WorkSpace\AHL-GEC-EXP\Temp\PWM_Music\Debug/srcc/music.c:317
  play(tones[5][1], 300);
    ad26:	4a9f      	ldr	r2, [pc, #636]	; (afa4 <playTenderLines+0x7a0>)
    ad28:	2396      	movs	r3, #150	; 0x96
    ad2a:	005b      	lsls	r3, r3, #1
    ad2c:	0019      	movs	r1, r3
    ad2e:	0010      	movs	r0, r2
    ad30:	f7ff f9b0 	bl	a094 <play>
F:\WorkSpace\AHL-GEC-EXP\Temp\PWM_Music\Debug/srcc/music.c:318
  play(tones[0][0], 300);
    ad34:	2200      	movs	r2, #0
    ad36:	2396      	movs	r3, #150	; 0x96
    ad38:	005b      	lsls	r3, r3, #1
    ad3a:	0019      	movs	r1, r3
    ad3c:	0010      	movs	r0, r2
    ad3e:	f7ff f9a9 	bl	a094 <play>
F:\WorkSpace\AHL-GEC-EXP\Temp\PWM_Music\Debug/srcc/music.c:319
  play(tones[5][1], 300);
    ad42:	4a98      	ldr	r2, [pc, #608]	; (afa4 <playTenderLines+0x7a0>)
    ad44:	2396      	movs	r3, #150	; 0x96
    ad46:	005b      	lsls	r3, r3, #1
    ad48:	0019      	movs	r1, r3
    ad4a:	0010      	movs	r0, r2
    ad4c:	f7ff f9a2 	bl	a094 <play>
F:\WorkSpace\AHL-GEC-EXP\Temp\PWM_Music\Debug/srcc/music.c:320
  play(tones[6][1], 300);
    ad50:	4a97      	ldr	r2, [pc, #604]	; (afb0 <playTenderLines+0x7ac>)
    ad52:	2396      	movs	r3, #150	; 0x96
    ad54:	005b      	lsls	r3, r3, #1
    ad56:	0019      	movs	r1, r3
    ad58:	0010      	movs	r0, r2
    ad5a:	f7ff f99b 	bl	a094 <play>
F:\WorkSpace\AHL-GEC-EXP\Temp\PWM_Music\Debug/srcc/music.c:321
  play(tones[7][1], 300);
    ad5e:	4a95      	ldr	r2, [pc, #596]	; (afb4 <playTenderLines+0x7b0>)
    ad60:	2396      	movs	r3, #150	; 0x96
    ad62:	005b      	lsls	r3, r3, #1
    ad64:	0019      	movs	r1, r3
    ad66:	0010      	movs	r0, r2
    ad68:	f7ff f994 	bl	a094 <play>
F:\WorkSpace\AHL-GEC-EXP\Temp\PWM_Music\Debug/srcc/music.c:323

  play(tones[1][2], 1500);
    ad6c:	4b92      	ldr	r3, [pc, #584]	; (afb8 <playTenderLines+0x7b4>)
    ad6e:	4a93      	ldr	r2, [pc, #588]	; (afbc <playTenderLines+0x7b8>)
    ad70:	0011      	movs	r1, r2
    ad72:	0018      	movs	r0, r3
    ad74:	f7ff f98e 	bl	a094 <play>
F:\WorkSpace\AHL-GEC-EXP\Temp\PWM_Music\Debug/srcc/music.c:324
  play(tones[7][1], 300);
    ad78:	4a8e      	ldr	r2, [pc, #568]	; (afb4 <playTenderLines+0x7b0>)
    ad7a:	2396      	movs	r3, #150	; 0x96
    ad7c:	005b      	lsls	r3, r3, #1
    ad7e:	0019      	movs	r1, r3
    ad80:	0010      	movs	r0, r2
    ad82:	f7ff f987 	bl	a094 <play>
F:\WorkSpace\AHL-GEC-EXP\Temp\PWM_Music\Debug/srcc/music.c:325
  play(tones[6][1], 300);
    ad86:	4a8a      	ldr	r2, [pc, #552]	; (afb0 <playTenderLines+0x7ac>)
    ad88:	2396      	movs	r3, #150	; 0x96
    ad8a:	005b      	lsls	r3, r3, #1
    ad8c:	0019      	movs	r1, r3
    ad8e:	0010      	movs	r0, r2
    ad90:	f7ff f980 	bl	a094 <play>
F:\WorkSpace\AHL-GEC-EXP\Temp\PWM_Music\Debug/srcc/music.c:326
  play(tones[7][1], 300);
    ad94:	4a87      	ldr	r2, [pc, #540]	; (afb4 <playTenderLines+0x7b0>)
    ad96:	2396      	movs	r3, #150	; 0x96
    ad98:	005b      	lsls	r3, r3, #1
    ad9a:	0019      	movs	r1, r3
    ad9c:	0010      	movs	r0, r2
    ad9e:	f7ff f979 	bl	a094 <play>
F:\WorkSpace\AHL-GEC-EXP\Temp\PWM_Music\Debug/srcc/music.c:328

  play(tones[6][1], 300);
    ada2:	4a83      	ldr	r2, [pc, #524]	; (afb0 <playTenderLines+0x7ac>)
    ada4:	2396      	movs	r3, #150	; 0x96
    ada6:	005b      	lsls	r3, r3, #1
    ada8:	0019      	movs	r1, r3
    adaa:	0010      	movs	r0, r2
    adac:	f7ff f972 	bl	a094 <play>
F:\WorkSpace\AHL-GEC-EXP\Temp\PWM_Music\Debug/srcc/music.c:329
  play(tones[3][1], 600);
    adb0:	4a7e      	ldr	r2, [pc, #504]	; (afac <playTenderLines+0x7a8>)
    adb2:	2396      	movs	r3, #150	; 0x96
    adb4:	009b      	lsls	r3, r3, #2
    adb6:	0019      	movs	r1, r3
    adb8:	0010      	movs	r0, r2
    adba:	f7ff f96b 	bl	a094 <play>
F:\WorkSpace\AHL-GEC-EXP\Temp\PWM_Music\Debug/srcc/music.c:330
  play(tones[5][1], 1200);
    adbe:	4a79      	ldr	r2, [pc, #484]	; (afa4 <playTenderLines+0x7a0>)
    adc0:	2396      	movs	r3, #150	; 0x96
    adc2:	00db      	lsls	r3, r3, #3
    adc4:	0019      	movs	r1, r3
    adc6:	0010      	movs	r0, r2
    adc8:	f7ff f964 	bl	a094 <play>
F:\WorkSpace\AHL-GEC-EXP\Temp\PWM_Music\Debug/srcc/music.c:331
  play(tones[6][1], 300);
    adcc:	4a78      	ldr	r2, [pc, #480]	; (afb0 <playTenderLines+0x7ac>)
    adce:	2396      	movs	r3, #150	; 0x96
    add0:	005b      	lsls	r3, r3, #1
    add2:	0019      	movs	r1, r3
    add4:	0010      	movs	r0, r2
    add6:	f7ff f95d 	bl	a094 <play>
F:\WorkSpace\AHL-GEC-EXP\Temp\PWM_Music\Debug/srcc/music.c:333

  play(tones[1][2], 300);
    adda:	4a77      	ldr	r2, [pc, #476]	; (afb8 <playTenderLines+0x7b4>)
    addc:	2396      	movs	r3, #150	; 0x96
    adde:	005b      	lsls	r3, r3, #1
    ade0:	0019      	movs	r1, r3
    ade2:	0010      	movs	r0, r2
    ade4:	f7ff f956 	bl	a094 <play>
F:\WorkSpace\AHL-GEC-EXP\Temp\PWM_Music\Debug/srcc/music.c:334
  play(tones[5][1], 600);
    ade8:	4a6e      	ldr	r2, [pc, #440]	; (afa4 <playTenderLines+0x7a0>)
    adea:	2396      	movs	r3, #150	; 0x96
    adec:	009b      	lsls	r3, r3, #2
    adee:	0019      	movs	r1, r3
    adf0:	0010      	movs	r0, r2
    adf2:	f7ff f94f 	bl	a094 <play>
F:\WorkSpace\AHL-GEC-EXP\Temp\PWM_Music\Debug/srcc/music.c:335
  play(tones[6][1], 300);
    adf6:	4a6e      	ldr	r2, [pc, #440]	; (afb0 <playTenderLines+0x7ac>)
    adf8:	2396      	movs	r3, #150	; 0x96
    adfa:	005b      	lsls	r3, r3, #1
    adfc:	0019      	movs	r1, r3
    adfe:	0010      	movs	r0, r2
    ae00:	f7ff f948 	bl	a094 <play>
F:\WorkSpace\AHL-GEC-EXP\Temp\PWM_Music\Debug/srcc/music.c:336
  play(tones[0][0], 300);
    ae04:	2200      	movs	r2, #0
    ae06:	2396      	movs	r3, #150	; 0x96
    ae08:	005b      	lsls	r3, r3, #1
    ae0a:	0019      	movs	r1, r3
    ae0c:	0010      	movs	r0, r2
    ae0e:	f7ff f941 	bl	a094 <play>
F:\WorkSpace\AHL-GEC-EXP\Temp\PWM_Music\Debug/srcc/music.c:337
  play(tones[6][1], 300);
    ae12:	4a67      	ldr	r2, [pc, #412]	; (afb0 <playTenderLines+0x7ac>)
    ae14:	2396      	movs	r3, #150	; 0x96
    ae16:	005b      	lsls	r3, r3, #1
    ae18:	0019      	movs	r1, r3
    ae1a:	0010      	movs	r0, r2
    ae1c:	f7ff f93a 	bl	a094 <play>
F:\WorkSpace\AHL-GEC-EXP\Temp\PWM_Music\Debug/srcc/music.c:338
  play(tones[5][1], 300);
    ae20:	4a60      	ldr	r2, [pc, #384]	; (afa4 <playTenderLines+0x7a0>)
    ae22:	2396      	movs	r3, #150	; 0x96
    ae24:	005b      	lsls	r3, r3, #1
    ae26:	0019      	movs	r1, r3
    ae28:	0010      	movs	r0, r2
    ae2a:	f7ff f933 	bl	a094 <play>
F:\WorkSpace\AHL-GEC-EXP\Temp\PWM_Music\Debug/srcc/music.c:339
  play(tones[4][1], 300);
    ae2e:	4a64      	ldr	r2, [pc, #400]	; (afc0 <playTenderLines+0x7bc>)
    ae30:	2396      	movs	r3, #150	; 0x96
    ae32:	005b      	lsls	r3, r3, #1
    ae34:	0019      	movs	r1, r3
    ae36:	0010      	movs	r0, r2
    ae38:	f7ff f92c 	bl	a094 <play>
F:\WorkSpace\AHL-GEC-EXP\Temp\PWM_Music\Debug/srcc/music.c:341

  play(tones[5][1], 300);
    ae3c:	4a59      	ldr	r2, [pc, #356]	; (afa4 <playTenderLines+0x7a0>)
    ae3e:	2396      	movs	r3, #150	; 0x96
    ae40:	005b      	lsls	r3, r3, #1
    ae42:	0019      	movs	r1, r3
    ae44:	0010      	movs	r0, r2
    ae46:	f7ff f925 	bl	a094 <play>
F:\WorkSpace\AHL-GEC-EXP\Temp\PWM_Music\Debug/srcc/music.c:342
  play(tones[3][1], 600);
    ae4a:	4a58      	ldr	r2, [pc, #352]	; (afac <playTenderLines+0x7a8>)
    ae4c:	2396      	movs	r3, #150	; 0x96
    ae4e:	009b      	lsls	r3, r3, #2
    ae50:	0019      	movs	r1, r3
    ae52:	0010      	movs	r0, r2
    ae54:	f7ff f91e 	bl	a094 <play>
F:\WorkSpace\AHL-GEC-EXP\Temp\PWM_Music\Debug/srcc/music.c:343
  play(tones[2][1], 300);
    ae58:	4a51      	ldr	r2, [pc, #324]	; (afa0 <playTenderLines+0x79c>)
    ae5a:	2396      	movs	r3, #150	; 0x96
    ae5c:	005b      	lsls	r3, r3, #1
    ae5e:	0019      	movs	r1, r3
    ae60:	0010      	movs	r0, r2
    ae62:	f7ff f917 	bl	a094 <play>
F:\WorkSpace\AHL-GEC-EXP\Temp\PWM_Music\Debug/srcc/music.c:344
  play(tones[1][1], 900);
    ae66:	4a50      	ldr	r2, [pc, #320]	; (afa8 <playTenderLines+0x7a4>)
    ae68:	23e1      	movs	r3, #225	; 0xe1
    ae6a:	009b      	lsls	r3, r3, #2
    ae6c:	0019      	movs	r1, r3
    ae6e:	0010      	movs	r0, r2
    ae70:	f7ff f910 	bl	a094 <play>
F:\WorkSpace\AHL-GEC-EXP\Temp\PWM_Music\Debug/srcc/music.c:345
  play(tones[6][0], 150);
    ae74:	4b53      	ldr	r3, [pc, #332]	; (afc4 <playTenderLines+0x7c0>)
    ae76:	2196      	movs	r1, #150	; 0x96
    ae78:	0018      	movs	r0, r3
    ae7a:	f7ff f90b 	bl	a094 <play>
F:\WorkSpace\AHL-GEC-EXP\Temp\PWM_Music\Debug/srcc/music.c:346
  play(tones[1][1], 150);
    ae7e:	4b4a      	ldr	r3, [pc, #296]	; (afa8 <playTenderLines+0x7a4>)
    ae80:	2196      	movs	r1, #150	; 0x96
    ae82:	0018      	movs	r0, r3
    ae84:	f7ff f906 	bl	a094 <play>
F:\WorkSpace\AHL-GEC-EXP\Temp\PWM_Music\Debug/srcc/music.c:348

  play(tones[3][1], 300);
    ae88:	4a48      	ldr	r2, [pc, #288]	; (afac <playTenderLines+0x7a8>)
    ae8a:	2396      	movs	r3, #150	; 0x96
    ae8c:	005b      	lsls	r3, r3, #1
    ae8e:	0019      	movs	r1, r3
    ae90:	0010      	movs	r0, r2
    ae92:	f7ff f8ff 	bl	a094 <play>
F:\WorkSpace\AHL-GEC-EXP\Temp\PWM_Music\Debug/srcc/music.c:349
  play(tones[2][1], 600);
    ae96:	4a42      	ldr	r2, [pc, #264]	; (afa0 <playTenderLines+0x79c>)
    ae98:	2396      	movs	r3, #150	; 0x96
    ae9a:	009b      	lsls	r3, r3, #2
    ae9c:	0019      	movs	r1, r3
    ae9e:	0010      	movs	r0, r2
    aea0:	f7ff f8f8 	bl	a094 <play>
F:\WorkSpace\AHL-GEC-EXP\Temp\PWM_Music\Debug/srcc/music.c:350
  play(tones[1][1], 300);
    aea4:	4a40      	ldr	r2, [pc, #256]	; (afa8 <playTenderLines+0x7a4>)
    aea6:	2396      	movs	r3, #150	; 0x96
    aea8:	005b      	lsls	r3, r3, #1
    aeaa:	0019      	movs	r1, r3
    aeac:	0010      	movs	r0, r2
    aeae:	f7ff f8f1 	bl	a094 <play>
F:\WorkSpace\AHL-GEC-EXP\Temp\PWM_Music\Debug/srcc/music.c:351
  play(tones[2][1], 300);
    aeb2:	4a3b      	ldr	r2, [pc, #236]	; (afa0 <playTenderLines+0x79c>)
    aeb4:	2396      	movs	r3, #150	; 0x96
    aeb6:	005b      	lsls	r3, r3, #1
    aeb8:	0019      	movs	r1, r3
    aeba:	0010      	movs	r0, r2
    aebc:	f7ff f8ea 	bl	a094 <play>
F:\WorkSpace\AHL-GEC-EXP\Temp\PWM_Music\Debug/srcc/music.c:352
  play(tones[1][1], 600);
    aec0:	4a39      	ldr	r2, [pc, #228]	; (afa8 <playTenderLines+0x7a4>)
    aec2:	2396      	movs	r3, #150	; 0x96
    aec4:	009b      	lsls	r3, r3, #2
    aec6:	0019      	movs	r1, r3
    aec8:	0010      	movs	r0, r2
    aeca:	f7ff f8e3 	bl	a094 <play>
F:\WorkSpace\AHL-GEC-EXP\Temp\PWM_Music\Debug/srcc/music.c:353
  play(tones[6][0], 300);
    aece:	4a3d      	ldr	r2, [pc, #244]	; (afc4 <playTenderLines+0x7c0>)
    aed0:	2396      	movs	r3, #150	; 0x96
    aed2:	005b      	lsls	r3, r3, #1
    aed4:	0019      	movs	r1, r3
    aed6:	0010      	movs	r0, r2
    aed8:	f7ff f8dc 	bl	a094 <play>
F:\WorkSpace\AHL-GEC-EXP\Temp\PWM_Music\Debug/srcc/music.c:355

  play(tones[1][1], 1800);
    aedc:	4a32      	ldr	r2, [pc, #200]	; (afa8 <playTenderLines+0x7a4>)
    aede:	23e1      	movs	r3, #225	; 0xe1
    aee0:	00db      	lsls	r3, r3, #3
    aee2:	0019      	movs	r1, r3
    aee4:	0010      	movs	r0, r2
    aee6:	f7ff f8d5 	bl	a094 <play>
F:\WorkSpace\AHL-GEC-EXP\Temp\PWM_Music\Debug/srcc/music.c:356
  play(tones[0][0], 300);
    aeea:	2200      	movs	r2, #0
    aeec:	2396      	movs	r3, #150	; 0x96
    aeee:	005b      	lsls	r3, r3, #1
    aef0:	0019      	movs	r1, r3
    aef2:	0010      	movs	r0, r2
    aef4:	f7ff f8ce 	bl	a094 <play>
F:\WorkSpace\AHL-GEC-EXP\Temp\PWM_Music\Debug/srcc/music.c:357
  play(tones[6][0], 150);
    aef8:	4b32      	ldr	r3, [pc, #200]	; (afc4 <playTenderLines+0x7c0>)
    aefa:	2196      	movs	r1, #150	; 0x96
    aefc:	0018      	movs	r0, r3
    aefe:	f7ff f8c9 	bl	a094 <play>
F:\WorkSpace\AHL-GEC-EXP\Temp\PWM_Music\Debug/srcc/music.c:358
  play(tones[1][1], 150);
    af02:	4b29      	ldr	r3, [pc, #164]	; (afa8 <playTenderLines+0x7a4>)
    af04:	2196      	movs	r1, #150	; 0x96
    af06:	0018      	movs	r0, r3
    af08:	f7ff f8c4 	bl	a094 <play>
F:\WorkSpace\AHL-GEC-EXP\Temp\PWM_Music\Debug/srcc/music.c:360

  play(tones[3][1], 300);
    af0c:	4a27      	ldr	r2, [pc, #156]	; (afac <playTenderLines+0x7a8>)
    af0e:	2396      	movs	r3, #150	; 0x96
    af10:	005b      	lsls	r3, r3, #1
    af12:	0019      	movs	r1, r3
    af14:	0010      	movs	r0, r2
    af16:	f7ff f8bd 	bl	a094 <play>
F:\WorkSpace\AHL-GEC-EXP\Temp\PWM_Music\Debug/srcc/music.c:361
  play(tones[2][1], 1500);
    af1a:	4b21      	ldr	r3, [pc, #132]	; (afa0 <playTenderLines+0x79c>)
    af1c:	4a27      	ldr	r2, [pc, #156]	; (afbc <playTenderLines+0x7b8>)
    af1e:	0011      	movs	r1, r2
    af20:	0018      	movs	r0, r3
    af22:	f7ff f8b7 	bl	a094 <play>
F:\WorkSpace\AHL-GEC-EXP\Temp\PWM_Music\Debug/srcc/music.c:362
  play(tones[0][0], 300);
    af26:	2200      	movs	r2, #0
    af28:	2396      	movs	r3, #150	; 0x96
    af2a:	005b      	lsls	r3, r3, #1
    af2c:	0019      	movs	r1, r3
    af2e:	0010      	movs	r0, r2
    af30:	f7ff f8b0 	bl	a094 <play>
F:\WorkSpace\AHL-GEC-EXP\Temp\PWM_Music\Debug/srcc/music.c:363
  play(tones[2][1], 150);
    af34:	4b1a      	ldr	r3, [pc, #104]	; (afa0 <playTenderLines+0x79c>)
    af36:	2196      	movs	r1, #150	; 0x96
    af38:	0018      	movs	r0, r3
    af3a:	f7ff f8ab 	bl	a094 <play>
F:\WorkSpace\AHL-GEC-EXP\Temp\PWM_Music\Debug/srcc/music.c:364
  play(tones[1][1], 150);
    af3e:	4b1a      	ldr	r3, [pc, #104]	; (afa8 <playTenderLines+0x7a4>)
    af40:	2196      	movs	r1, #150	; 0x96
    af42:	0018      	movs	r0, r3
    af44:	f7ff f8a6 	bl	a094 <play>
F:\WorkSpace\AHL-GEC-EXP\Temp\PWM_Music\Debug/srcc/music.c:365
  play(tones[2][1], 300);
    af48:	4a15      	ldr	r2, [pc, #84]	; (afa0 <playTenderLines+0x79c>)
    af4a:	2396      	movs	r3, #150	; 0x96
    af4c:	005b      	lsls	r3, r3, #1
    af4e:	0019      	movs	r1, r3
    af50:	0010      	movs	r0, r2
    af52:	f7ff f89f 	bl	a094 <play>
F:\WorkSpace\AHL-GEC-EXP\Temp\PWM_Music\Debug/srcc/music.c:366
  play(tones[1][1], 1500);
    af56:	4b14      	ldr	r3, [pc, #80]	; (afa8 <playTenderLines+0x7a4>)
    af58:	4a18      	ldr	r2, [pc, #96]	; (afbc <playTenderLines+0x7b8>)
    af5a:	0011      	movs	r1, r2
    af5c:	0018      	movs	r0, r3
    af5e:	f7ff f899 	bl	a094 <play>
F:\WorkSpace\AHL-GEC-EXP\Temp\PWM_Music\Debug/srcc/music.c:367
  play(tones[0][0], 300);
    af62:	2200      	movs	r2, #0
    af64:	2396      	movs	r3, #150	; 0x96
    af66:	005b      	lsls	r3, r3, #1
    af68:	0019      	movs	r1, r3
    af6a:	0010      	movs	r0, r2
    af6c:	f7ff f892 	bl	a094 <play>
F:\WorkSpace\AHL-GEC-EXP\Temp\PWM_Music\Debug/srcc/music.c:368
  play(tones[6][0], 300);
    af70:	4a14      	ldr	r2, [pc, #80]	; (afc4 <playTenderLines+0x7c0>)
    af72:	2396      	movs	r3, #150	; 0x96
    af74:	005b      	lsls	r3, r3, #1
    af76:	0019      	movs	r1, r3
    af78:	0010      	movs	r0, r2
    af7a:	f7ff f88b 	bl	a094 <play>
F:\WorkSpace\AHL-GEC-EXP\Temp\PWM_Music\Debug/srcc/music.c:370

  play(tones[1][1], 1800);
    af7e:	4a0a      	ldr	r2, [pc, #40]	; (afa8 <playTenderLines+0x7a4>)
    af80:	23e1      	movs	r3, #225	; 0xe1
    af82:	00db      	lsls	r3, r3, #3
    af84:	0019      	movs	r1, r3
    af86:	0010      	movs	r0, r2
    af88:	f7ff f884 	bl	a094 <play>
F:\WorkSpace\AHL-GEC-EXP\Temp\PWM_Music\Debug/srcc/music.c:371
  play(tones[1][1], 1200);
    af8c:	4a06      	ldr	r2, [pc, #24]	; (afa8 <playTenderLines+0x7a4>)
    af8e:	2396      	movs	r3, #150	; 0x96
    af90:	00db      	lsls	r3, r3, #3
    af92:	0019      	movs	r1, r3
    af94:	0010      	movs	r0, r2
    af96:	f7ff f87d 	bl	a094 <play>
F:\WorkSpace\AHL-GEC-EXP\Temp\PWM_Music\Debug/srcc/music.c:372
}
    af9a:	46c0      	nop			; (mov r8, r8)
    af9c:	bd10      	pop	{r4, pc}
    af9e:	46c0      	nop			; (mov r8, r8)
    afa0:	00000a07 	.word	0x00000a07
    afa4:	00000782 	.word	0x00000782
    afa8:	00000b42 	.word	0x00000b42
    afac:	000008ef 	.word	0x000008ef
    afb0:	000006b1 	.word	0x000006b1
    afb4:	000005f5 	.word	0x000005f5
    afb8:	000005a1 	.word	0x000005a1
    afbc:	000005dc 	.word	0x000005dc
    afc0:	0000086f 	.word	0x0000086f
    afc4:	00000d61 	.word	0x00000d61

0000afc8 <UART0_IRQHandler>:
UART0_IRQHandler():
F:\WorkSpace\AHL-GEC-EXP\Temp\PWM_Music\Debug/srcc/isr.c:9
//版本更新：20170801-20191020
//功能描述：提供中断处理程序编程框架
//=====================================================================
#include "includes.h"

void UART_User_Handler(void) {
    afc8:	b500      	push	{lr}
    afca:	b083      	sub	sp, #12
F:\WorkSpace\AHL-GEC-EXP\Temp\PWM_Music\Debug/srcc/isr.c:10
  DISABLE_INTERRUPTS;  //关总中断
    afcc:	b672      	cpsid	i
F:\WorkSpace\AHL-GEC-EXP\Temp\PWM_Music\Debug/srcc/isr.c:15
  //------------------------------------------------------------------
  uint8_t flag;
  // 要接收的数据最后两个字符一定要以'\', '0'结尾
  //	uart_reN()在接收完毕后会自动去掉这两个字符
  gSelect = uart_re1(UART_User, &flag) - '0';
    afce:	466b      	mov	r3, sp
    afd0:	3307      	adds	r3, #7
    afd2:	0019      	movs	r1, r3
    afd4:	2000      	movs	r0, #0
    afd6:	f7fe ffa9 	bl	9f2c <uart_re1>
    afda:	0003      	movs	r3, r0
    afdc:	3b30      	subs	r3, #48	; 0x30
    afde:	b2da      	uxtb	r2, r3
    afe0:	4b02      	ldr	r3, [pc, #8]	; (afec <UART0_IRQHandler+0x24>)
    afe2:	701a      	strb	r2, [r3, #0]
F:\WorkSpace\AHL-GEC-EXP\Temp\PWM_Music\Debug/srcc/isr.c:18

  //------------------------------------------------------------------
  ENABLE_INTERRUPTS;  //开总中断
    afe4:	b662      	cpsie	i
F:\WorkSpace\AHL-GEC-EXP\Temp\PWM_Music\Debug/srcc/isr.c:19
}
    afe6:	46c0      	nop			; (mov r8, r8)
    afe8:	b003      	add	sp, #12
    afea:	bd00      	pop	{pc}
    afec:	200004a8 	.word	0x200004a8

0000aff0 <TPM1_IRQHandler>:
TPM1_IRQHandler():
F:\WorkSpace\AHL-GEC-EXP\Temp\PWM_Music\Debug/srcc/isr.c:30
//功能概要：（1）每20ms中断触发本程序一次；（2）达到一秒时，调用秒+1
//           程序，计算“时、分、秒”
//特别提示：（1）使用全局变量字节型数组gTime[3]，分别存储“时、分、秒”
//        （2）注意其中静态变量的使用
//=====================================================================
void TIMER_User_Handler(void) {
    aff0:	b510      	push	{r4, lr}
F:\WorkSpace\AHL-GEC-EXP\Temp\PWM_Music\Debug/srcc/isr.c:31
  DISABLE_INTERRUPTS;  //关总中断
    aff2:	b672      	cpsid	i
F:\WorkSpace\AHL-GEC-EXP\Temp\PWM_Music\Debug/srcc/isr.c:33
  //------------------------------------------------------------------
  gBeat--;
    aff4:	4b05      	ldr	r3, [pc, #20]	; (b00c <TPM1_IRQHandler+0x1c>)
    aff6:	681b      	ldr	r3, [r3, #0]
    aff8:	1e5a      	subs	r2, r3, #1
    affa:	4b04      	ldr	r3, [pc, #16]	; (b00c <TPM1_IRQHandler+0x1c>)
    affc:	601a      	str	r2, [r3, #0]
F:\WorkSpace\AHL-GEC-EXP\Temp\PWM_Music\Debug/srcc/isr.c:35

  timer_clear_int(TIMER_USER);  //清时钟溢出标志位
    affe:	2001      	movs	r0, #1
    b000:	f7fd fede 	bl	8dc0 <timer_clear_int>
F:\WorkSpace\AHL-GEC-EXP\Temp\PWM_Music\Debug/srcc/isr.c:37
  //------------------------------------------------------------------
  ENABLE_INTERRUPTS;  //开总中断
    b004:	b662      	cpsie	i
F:\WorkSpace\AHL-GEC-EXP\Temp\PWM_Music\Debug/srcc/isr.c:38
    b006:	46c0      	nop			; (mov r8, r8)
    b008:	bd10      	pop	{r4, pc}
    b00a:	46c0      	nop			; (mov r8, r8)
    b00c:	20000440 	.word	0x20000440

0000b010 <out_char>:
out_char():
F:\WorkSpace\AHL-GEC-EXP\Temp\PWM_Music\Debug/srcc/printf.c:17
//参数说明：uartNo:串口号：UARTA、UARTB、UARTC、UART_DEBUG
//       data:数据：通过串口发送的一字节数据
//函数返回：无
//======================================================================

void out_char(char data) {
    b010:	b500      	push	{lr}
    b012:	b083      	sub	sp, #12
    b014:	0002      	movs	r2, r0
    b016:	466b      	mov	r3, sp
    b018:	3307      	adds	r3, #7
    b01a:	701a      	strb	r2, [r3, #0]
F:\WorkSpace\AHL-GEC-EXP\Temp\PWM_Music\Debug/srcc/printf.c:19
	// suart_send_char(SUART_TX_PORT, SUART_TX_PIN, data);
	uart_send1(UART_printf, data);
    b01c:	466b      	mov	r3, sp
    b01e:	3307      	adds	r3, #7
    b020:	781b      	ldrb	r3, [r3, #0]
    b022:	0019      	movs	r1, r3
    b024:	2002      	movs	r0, #2
    b026:	f7fe ff2b 	bl	9e80 <uart_send1>
F:\WorkSpace\AHL-GEC-EXP\Temp\PWM_Music\Debug/srcc/printf.c:20
}
    b02a:	46c0      	nop			; (mov r8, r8)
    b02c:	b003      	add	sp, #12
    b02e:	bd00      	pop	{pc}

0000b030 <printk_putc>:
printk_putc():
F:\WorkSpace\AHL-GEC-EXP\Temp\PWM_Music\Debug/srcc/printf.c:27
//功能概要：通过串口打出一个字符
//参数说明：data:数据：通过串口发送的一字节数据
//函数返回：无
//======================================================================
static void printk_putc(int c, int* count, PRINTK_INFO* info)
{
    b030:	b500      	push	{lr}
    b032:	b085      	sub	sp, #20
    b034:	9003      	str	r0, [sp, #12]
    b036:	9102      	str	r1, [sp, #8]
    b038:	9201      	str	r2, [sp, #4]
F:\WorkSpace\AHL-GEC-EXP\Temp\PWM_Music\Debug/srcc/printf.c:28
	switch (info->dest) {
    b03a:	9b01      	ldr	r3, [sp, #4]
    b03c:	681b      	ldr	r3, [r3, #0]
    b03e:	2b01      	cmp	r3, #1
    b040:	d002      	beq.n	b048 <printk_putc+0x18>
    b042:	2b02      	cmp	r3, #2
    b044:	d007      	beq.n	b056 <printk_putc+0x26>
F:\WorkSpace\AHL-GEC-EXP\Temp\PWM_Music\Debug/srcc/printf.c:37
	case DEST_STRING:
		*(info->loc) = (unsigned char)c;
		++(info->loc);
		break;
	default:
		break;
    b046:	e011      	b.n	b06c <printk_putc+0x3c>
F:\WorkSpace\AHL-GEC-EXP\Temp\PWM_Music\Debug/srcc/printf.c:30
		info->func((char)c);
    b048:	9b01      	ldr	r3, [sp, #4]
    b04a:	685b      	ldr	r3, [r3, #4]
    b04c:	9a03      	ldr	r2, [sp, #12]
    b04e:	b252      	sxtb	r2, r2
    b050:	0010      	movs	r0, r2
    b052:	4798      	blx	r3
F:\WorkSpace\AHL-GEC-EXP\Temp\PWM_Music\Debug/srcc/printf.c:31
		break;
    b054:	e00a      	b.n	b06c <printk_putc+0x3c>
F:\WorkSpace\AHL-GEC-EXP\Temp\PWM_Music\Debug/srcc/printf.c:33
		*(info->loc) = (unsigned char)c;
    b056:	9b01      	ldr	r3, [sp, #4]
    b058:	689b      	ldr	r3, [r3, #8]
    b05a:	9a03      	ldr	r2, [sp, #12]
    b05c:	b252      	sxtb	r2, r2
    b05e:	701a      	strb	r2, [r3, #0]
F:\WorkSpace\AHL-GEC-EXP\Temp\PWM_Music\Debug/srcc/printf.c:34
		++(info->loc);
    b060:	9b01      	ldr	r3, [sp, #4]
    b062:	689b      	ldr	r3, [r3, #8]
    b064:	1c5a      	adds	r2, r3, #1
    b066:	9b01      	ldr	r3, [sp, #4]
    b068:	609a      	str	r2, [r3, #8]
F:\WorkSpace\AHL-GEC-EXP\Temp\PWM_Music\Debug/srcc/printf.c:35
		break;
    b06a:	46c0      	nop			; (mov r8, r8)
F:\WorkSpace\AHL-GEC-EXP\Temp\PWM_Music\Debug/srcc/printf.c:39
	}
	*count += 1;
    b06c:	9b02      	ldr	r3, [sp, #8]
    b06e:	681b      	ldr	r3, [r3, #0]
    b070:	1c5a      	adds	r2, r3, #1
    b072:	9b02      	ldr	r3, [sp, #8]
    b074:	601a      	str	r2, [r3, #0]
F:\WorkSpace\AHL-GEC-EXP\Temp\PWM_Music\Debug/srcc/printf.c:40
}
    b076:	46c0      	nop			; (mov r8, r8)
    b078:	b005      	add	sp, #20
    b07a:	bd00      	pop	{pc}

0000b07c <printk_mkfloatstr>:
printk_mkfloatstr():
F:\WorkSpace\AHL-GEC-EXP\Temp\PWM_Music\Debug/srcc/printf.c:48
//参数说明： *f:浮点型数据：float型数据
//       c[]:字符串数组：转化后的到的字符串数组
//函数返回：无
//======================================================================
int printk_mkfloatstr(double* f, char c[], int precision_width)
{
    b07c:	b530      	push	{r4, r5, lr}
    b07e:	b0a7      	sub	sp, #156	; 0x9c
    b080:	9003      	str	r0, [sp, #12]
    b082:	9102      	str	r1, [sp, #8]
    b084:	9201      	str	r2, [sp, #4]
F:\WorkSpace\AHL-GEC-EXP\Temp\PWM_Music\Debug/srcc/printf.c:49
	uint32_t p, i, j, k, a[5] = { 0 }, b[19] = { 0 };
    b086:	ab17      	add	r3, sp, #92	; 0x5c
    b088:	0018      	movs	r0, r3
    b08a:	2314      	movs	r3, #20
    b08c:	001a      	movs	r2, r3
    b08e:	2100      	movs	r1, #0
    b090:	f000 fd91 	bl	bbb6 <memset>
    b094:	ab04      	add	r3, sp, #16
    b096:	0018      	movs	r0, r3
    b098:	234c      	movs	r3, #76	; 0x4c
    b09a:	001a      	movs	r2, r3
    b09c:	2100      	movs	r1, #0
    b09e:	f000 fd8a 	bl	bbb6 <memset>
F:\WorkSpace\AHL-GEC-EXP\Temp\PWM_Music\Debug/srcc/printf.c:52
	uint64_t q;
	double tempf;
	p = 0;
    b0a2:	2300      	movs	r3, #0
    b0a4:	9325      	str	r3, [sp, #148]	; 0x94
F:\WorkSpace\AHL-GEC-EXP\Temp\PWM_Music\Debug/srcc/printf.c:53
	q = 0;
    b0a6:	2200      	movs	r2, #0
    b0a8:	2300      	movs	r3, #0
    b0aa:	9220      	str	r2, [sp, #128]	; 0x80
    b0ac:	9321      	str	r3, [sp, #132]	; 0x84
F:\WorkSpace\AHL-GEC-EXP\Temp\PWM_Music\Debug/srcc/printf.c:56
	//float m;
	double m;
	p = (uint32_t)*f;//整数部分
    b0ae:	9b03      	ldr	r3, [sp, #12]
    b0b0:	681a      	ldr	r2, [r3, #0]
    b0b2:	685b      	ldr	r3, [r3, #4]
    b0b4:	0010      	movs	r0, r2
    b0b6:	0019      	movs	r1, r3
    b0b8:	f7fc f81c 	bl	70f4 <__aeabi_d2uiz>
    b0bc:	0003      	movs	r3, r0
    b0be:	9325      	str	r3, [sp, #148]	; 0x94
F:\WorkSpace\AHL-GEC-EXP\Temp\PWM_Music\Debug/srcc/printf.c:57
	tempf = (*f - p);
    b0c0:	9b03      	ldr	r3, [sp, #12]
    b0c2:	681c      	ldr	r4, [r3, #0]
    b0c4:	685d      	ldr	r5, [r3, #4]
    b0c6:	9825      	ldr	r0, [sp, #148]	; 0x94
    b0c8:	f7fd fdbc 	bl	8c44 <__aeabi_ui2d>
    b0cc:	0002      	movs	r2, r0
    b0ce:	000b      	movs	r3, r1
    b0d0:	0020      	movs	r0, r4
    b0d2:	0029      	movs	r1, r5
    b0d4:	f7fd f9ee 	bl	84b4 <__aeabi_dsub>
    b0d8:	0002      	movs	r2, r0
    b0da:	000b      	movs	r3, r1
    b0dc:	921e      	str	r2, [sp, #120]	; 0x78
    b0de:	931f      	str	r3, [sp, #124]	; 0x7c
F:\WorkSpace\AHL-GEC-EXP\Temp\PWM_Music\Debug/srcc/printf.c:58
	if (precision_width == 0)
    b0e0:	9b01      	ldr	r3, [sp, #4]
    b0e2:	2b00      	cmp	r3, #0
    b0e4:	d128      	bne.n	b138 <printk_mkfloatstr+0xbc>
F:\WorkSpace\AHL-GEC-EXP\Temp\PWM_Music\Debug/srcc/printf.c:59
		q = (*f - p) * 100000000000000000;//小数部分
    b0e6:	9b03      	ldr	r3, [sp, #12]
    b0e8:	681c      	ldr	r4, [r3, #0]
    b0ea:	685d      	ldr	r5, [r3, #4]
    b0ec:	9825      	ldr	r0, [sp, #148]	; 0x94
    b0ee:	f7fd fda9 	bl	8c44 <__aeabi_ui2d>
    b0f2:	0002      	movs	r2, r0
    b0f4:	000b      	movs	r3, r1
    b0f6:	0020      	movs	r0, r4
    b0f8:	0029      	movs	r1, r5
    b0fa:	f7fd f9db 	bl	84b4 <__aeabi_dsub>
    b0fe:	0002      	movs	r2, r0
    b100:	000b      	movs	r3, r1
    b102:	0010      	movs	r0, r2
    b104:	0019      	movs	r1, r3
    b106:	4a77      	ldr	r2, [pc, #476]	; (b2e4 <printk_mkfloatstr+0x268>)
    b108:	4b77      	ldr	r3, [pc, #476]	; (b2e8 <printk_mkfloatstr+0x26c>)
    b10a:	f7fc ff67 	bl	7fdc <__aeabi_dmul>
    b10e:	0002      	movs	r2, r0
    b110:	000b      	movs	r3, r1
    b112:	0010      	movs	r0, r2
    b114:	0019      	movs	r1, r3
    b116:	f7fc f80b 	bl	7130 <__aeabi_d2ulz>
    b11a:	0002      	movs	r2, r0
    b11c:	000b      	movs	r3, r1
    b11e:	9220      	str	r2, [sp, #128]	; 0x80
    b120:	9321      	str	r3, [sp, #132]	; 0x84
    b122:	e016      	b.n	b152 <printk_mkfloatstr+0xd6>
F:\WorkSpace\AHL-GEC-EXP\Temp\PWM_Music\Debug/srcc/printf.c:63
	else
	{
		while (precision_width--)
			tempf *= 10;
    b124:	2200      	movs	r2, #0
    b126:	4b71      	ldr	r3, [pc, #452]	; (b2ec <printk_mkfloatstr+0x270>)
    b128:	981e      	ldr	r0, [sp, #120]	; 0x78
    b12a:	991f      	ldr	r1, [sp, #124]	; 0x7c
    b12c:	f7fc ff56 	bl	7fdc <__aeabi_dmul>
    b130:	0002      	movs	r2, r0
    b132:	000b      	movs	r3, r1
    b134:	921e      	str	r2, [sp, #120]	; 0x78
    b136:	931f      	str	r3, [sp, #124]	; 0x7c
F:\WorkSpace\AHL-GEC-EXP\Temp\PWM_Music\Debug/srcc/printf.c:62
		while (precision_width--)
    b138:	9b01      	ldr	r3, [sp, #4]
    b13a:	1e5a      	subs	r2, r3, #1
    b13c:	9201      	str	r2, [sp, #4]
    b13e:	2b00      	cmp	r3, #0
    b140:	d1f0      	bne.n	b124 <printk_mkfloatstr+0xa8>
F:\WorkSpace\AHL-GEC-EXP\Temp\PWM_Music\Debug/srcc/printf.c:64
		q = tempf;
    b142:	981e      	ldr	r0, [sp, #120]	; 0x78
    b144:	991f      	ldr	r1, [sp, #124]	; 0x7c
    b146:	f7fb fff3 	bl	7130 <__aeabi_d2ulz>
    b14a:	0002      	movs	r2, r0
    b14c:	000b      	movs	r3, r1
    b14e:	9220      	str	r2, [sp, #128]	; 0x80
    b150:	9321      	str	r3, [sp, #132]	; 0x84
F:\WorkSpace\AHL-GEC-EXP\Temp\PWM_Music\Debug/srcc/printf.c:66
	}
	m = *f - p;
    b152:	9b03      	ldr	r3, [sp, #12]
    b154:	681c      	ldr	r4, [r3, #0]
    b156:	685d      	ldr	r5, [r3, #4]
    b158:	9825      	ldr	r0, [sp, #148]	; 0x94
    b15a:	f7fd fd73 	bl	8c44 <__aeabi_ui2d>
    b15e:	0002      	movs	r2, r0
    b160:	000b      	movs	r3, r1
    b162:	0020      	movs	r0, r4
    b164:	0029      	movs	r1, r5
    b166:	f7fd f9a5 	bl	84b4 <__aeabi_dsub>
    b16a:	0002      	movs	r2, r0
    b16c:	000b      	movs	r3, r1
    b16e:	921c      	str	r2, [sp, #112]	; 0x70
    b170:	931d      	str	r3, [sp, #116]	; 0x74
F:\WorkSpace\AHL-GEC-EXP\Temp\PWM_Music\Debug/srcc/printf.c:67
	k = 0;
    b172:	2300      	movs	r3, #0
    b174:	9322      	str	r3, [sp, #136]	; 0x88
F:\WorkSpace\AHL-GEC-EXP\Temp\PWM_Music\Debug/srcc/printf.c:68
	while (m < 1)
    b176:	e00c      	b.n	b192 <printk_mkfloatstr+0x116>
F:\WorkSpace\AHL-GEC-EXP\Temp\PWM_Music\Debug/srcc/printf.c:70
	{
		m = m * 10;
    b178:	2200      	movs	r2, #0
    b17a:	4b5c      	ldr	r3, [pc, #368]	; (b2ec <printk_mkfloatstr+0x270>)
    b17c:	981c      	ldr	r0, [sp, #112]	; 0x70
    b17e:	991d      	ldr	r1, [sp, #116]	; 0x74
    b180:	f7fc ff2c 	bl	7fdc <__aeabi_dmul>
    b184:	0002      	movs	r2, r0
    b186:	000b      	movs	r3, r1
    b188:	921c      	str	r2, [sp, #112]	; 0x70
    b18a:	931d      	str	r3, [sp, #116]	; 0x74
F:\WorkSpace\AHL-GEC-EXP\Temp\PWM_Music\Debug/srcc/printf.c:71
		k++;
    b18c:	9b22      	ldr	r3, [sp, #136]	; 0x88
    b18e:	3301      	adds	r3, #1
    b190:	9322      	str	r3, [sp, #136]	; 0x88
F:\WorkSpace\AHL-GEC-EXP\Temp\PWM_Music\Debug/srcc/printf.c:68
	while (m < 1)
    b192:	2200      	movs	r2, #0
    b194:	4b56      	ldr	r3, [pc, #344]	; (b2f0 <printk_mkfloatstr+0x274>)
    b196:	981c      	ldr	r0, [sp, #112]	; 0x70
    b198:	991d      	ldr	r1, [sp, #116]	; 0x74
    b19a:	f7fb ff11 	bl	6fc0 <__aeabi_dcmplt>
    b19e:	1e03      	subs	r3, r0, #0
    b1a0:	d1ea      	bne.n	b178 <printk_mkfloatstr+0xfc>
F:\WorkSpace\AHL-GEC-EXP\Temp\PWM_Music\Debug/srcc/printf.c:73
	};
	k--;          //记录小数点后到第一位不为零的小数之前 有多少个0.
    b1a2:	9b22      	ldr	r3, [sp, #136]	; 0x88
    b1a4:	3b01      	subs	r3, #1
    b1a6:	9322      	str	r3, [sp, #136]	; 0x88
F:\WorkSpace\AHL-GEC-EXP\Temp\PWM_Music\Debug/srcc/printf.c:75

	i = 0;
    b1a8:	2300      	movs	r3, #0
    b1aa:	9324      	str	r3, [sp, #144]	; 0x90
F:\WorkSpace\AHL-GEC-EXP\Temp\PWM_Music\Debug/srcc/printf.c:76
	if (0 == p)     //整数部分为0
    b1ac:	9b25      	ldr	r3, [sp, #148]	; 0x94
    b1ae:	2b00      	cmp	r3, #0
    b1b0:	d107      	bne.n	b1c2 <printk_mkfloatstr+0x146>
F:\WorkSpace\AHL-GEC-EXP\Temp\PWM_Music\Debug/srcc/printf.c:77
		c[i++] = '0';
    b1b2:	9b24      	ldr	r3, [sp, #144]	; 0x90
    b1b4:	1c5a      	adds	r2, r3, #1
    b1b6:	9224      	str	r2, [sp, #144]	; 0x90
    b1b8:	9a02      	ldr	r2, [sp, #8]
    b1ba:	18d3      	adds	r3, r2, r3
    b1bc:	2230      	movs	r2, #48	; 0x30
    b1be:	701a      	strb	r2, [r3, #0]
    b1c0:	e02f      	b.n	b222 <printk_mkfloatstr+0x1a6>
F:\WorkSpace\AHL-GEC-EXP\Temp\PWM_Music\Debug/srcc/printf.c:80
	else        //整数部分不为0
	{
		j = 0;
    b1c2:	2300      	movs	r3, #0
    b1c4:	9323      	str	r3, [sp, #140]	; 0x8c
F:\WorkSpace\AHL-GEC-EXP\Temp\PWM_Music\Debug/srcc/printf.c:81
		while (p != 0)//倒序的数字
    b1c6:	e013      	b.n	b1f0 <printk_mkfloatstr+0x174>
F:\WorkSpace\AHL-GEC-EXP\Temp\PWM_Music\Debug/srcc/printf.c:83
		{
			a[j++] = p % 10;
    b1c8:	9c23      	ldr	r4, [sp, #140]	; 0x8c
    b1ca:	1c63      	adds	r3, r4, #1
    b1cc:	9323      	str	r3, [sp, #140]	; 0x8c
    b1ce:	9b25      	ldr	r3, [sp, #148]	; 0x94
    b1d0:	210a      	movs	r1, #10
    b1d2:	0018      	movs	r0, r3
    b1d4:	f7fb fdee 	bl	6db4 <__aeabi_uidivmod>
    b1d8:	000b      	movs	r3, r1
    b1da:	0019      	movs	r1, r3
    b1dc:	ab17      	add	r3, sp, #92	; 0x5c
    b1de:	00a2      	lsls	r2, r4, #2
    b1e0:	50d1      	str	r1, [r2, r3]
F:\WorkSpace\AHL-GEC-EXP\Temp\PWM_Music\Debug/srcc/printf.c:84
			p /= 10;
    b1e2:	9b25      	ldr	r3, [sp, #148]	; 0x94
    b1e4:	210a      	movs	r1, #10
    b1e6:	0018      	movs	r0, r3
    b1e8:	f7fb fd5e 	bl	6ca8 <__udivsi3>
    b1ec:	0003      	movs	r3, r0
    b1ee:	9325      	str	r3, [sp, #148]	; 0x94
F:\WorkSpace\AHL-GEC-EXP\Temp\PWM_Music\Debug/srcc/printf.c:81
		while (p != 0)//倒序的数字
    b1f0:	9b25      	ldr	r3, [sp, #148]	; 0x94
    b1f2:	2b00      	cmp	r3, #0
    b1f4:	d1e8      	bne.n	b1c8 <printk_mkfloatstr+0x14c>
F:\WorkSpace\AHL-GEC-EXP\Temp\PWM_Music\Debug/srcc/printf.c:86
		}
		while (j > 0)//将倒序数字转为正序，并转换为对应的字符形式
    b1f6:	e011      	b.n	b21c <printk_mkfloatstr+0x1a0>
F:\WorkSpace\AHL-GEC-EXP\Temp\PWM_Music\Debug/srcc/printf.c:88
		{
			c[i++] = a[j - 1] + '0';
    b1f8:	9b23      	ldr	r3, [sp, #140]	; 0x8c
    b1fa:	1e5a      	subs	r2, r3, #1
    b1fc:	ab17      	add	r3, sp, #92	; 0x5c
    b1fe:	0092      	lsls	r2, r2, #2
    b200:	58d3      	ldr	r3, [r2, r3]
    b202:	b2db      	uxtb	r3, r3
    b204:	3330      	adds	r3, #48	; 0x30
    b206:	b2d9      	uxtb	r1, r3
    b208:	9b24      	ldr	r3, [sp, #144]	; 0x90
    b20a:	1c5a      	adds	r2, r3, #1
    b20c:	9224      	str	r2, [sp, #144]	; 0x90
    b20e:	9a02      	ldr	r2, [sp, #8]
    b210:	18d3      	adds	r3, r2, r3
    b212:	b24a      	sxtb	r2, r1
    b214:	701a      	strb	r2, [r3, #0]
F:\WorkSpace\AHL-GEC-EXP\Temp\PWM_Music\Debug/srcc/printf.c:89
			--j;
    b216:	9b23      	ldr	r3, [sp, #140]	; 0x8c
    b218:	3b01      	subs	r3, #1
    b21a:	9323      	str	r3, [sp, #140]	; 0x8c
F:\WorkSpace\AHL-GEC-EXP\Temp\PWM_Music\Debug/srcc/printf.c:86
		while (j > 0)//将倒序数字转为正序，并转换为对应的字符形式
    b21c:	9b23      	ldr	r3, [sp, #140]	; 0x8c
    b21e:	2b00      	cmp	r3, #0
    b220:	d1ea      	bne.n	b1f8 <printk_mkfloatstr+0x17c>
F:\WorkSpace\AHL-GEC-EXP\Temp\PWM_Music\Debug/srcc/printf.c:92
		}
	}
	c[i++] = '.';     //小数点
    b222:	9b24      	ldr	r3, [sp, #144]	; 0x90
    b224:	1c5a      	adds	r2, r3, #1
    b226:	9224      	str	r2, [sp, #144]	; 0x90
    b228:	9a02      	ldr	r2, [sp, #8]
    b22a:	18d3      	adds	r3, r2, r3
    b22c:	222e      	movs	r2, #46	; 0x2e
    b22e:	701a      	strb	r2, [r3, #0]
F:\WorkSpace\AHL-GEC-EXP\Temp\PWM_Music\Debug/srcc/printf.c:93
	if (0 == q)        //小数部分为0
    b230:	9b20      	ldr	r3, [sp, #128]	; 0x80
    b232:	9a21      	ldr	r2, [sp, #132]	; 0x84
    b234:	4313      	orrs	r3, r2
    b236:	d107      	bne.n	b248 <printk_mkfloatstr+0x1cc>
F:\WorkSpace\AHL-GEC-EXP\Temp\PWM_Music\Debug/srcc/printf.c:94
		c[i++] = '0';
    b238:	9b24      	ldr	r3, [sp, #144]	; 0x90
    b23a:	1c5a      	adds	r2, r3, #1
    b23c:	9224      	str	r2, [sp, #144]	; 0x90
    b23e:	9a02      	ldr	r2, [sp, #8]
    b240:	18d3      	adds	r3, r2, r3
    b242:	2230      	movs	r2, #48	; 0x30
    b244:	701a      	strb	r2, [r3, #0]
    b246:	e043      	b.n	b2d0 <printk_mkfloatstr+0x254>
F:\WorkSpace\AHL-GEC-EXP\Temp\PWM_Music\Debug/srcc/printf.c:97
	else           //小数部分不为0
	{
		j = 0;
    b248:	2300      	movs	r3, #0
    b24a:	9323      	str	r3, [sp, #140]	; 0x8c
F:\WorkSpace\AHL-GEC-EXP\Temp\PWM_Music\Debug/srcc/printf.c:99

		while (q != 0)//倒序的数字
    b24c:	e018      	b.n	b280 <printk_mkfloatstr+0x204>
F:\WorkSpace\AHL-GEC-EXP\Temp\PWM_Music\Debug/srcc/printf.c:101
		{
			b[j++] = q % 10;
    b24e:	9820      	ldr	r0, [sp, #128]	; 0x80
    b250:	9921      	ldr	r1, [sp, #132]	; 0x84
    b252:	220a      	movs	r2, #10
    b254:	2300      	movs	r3, #0
    b256:	f7fb ff15 	bl	7084 <__aeabi_uldivmod>
    b25a:	0010      	movs	r0, r2
    b25c:	0019      	movs	r1, r3
    b25e:	9b23      	ldr	r3, [sp, #140]	; 0x8c
    b260:	1c5a      	adds	r2, r3, #1
    b262:	9223      	str	r2, [sp, #140]	; 0x8c
    b264:	0001      	movs	r1, r0
    b266:	aa04      	add	r2, sp, #16
    b268:	009b      	lsls	r3, r3, #2
    b26a:	5099      	str	r1, [r3, r2]
F:\WorkSpace\AHL-GEC-EXP\Temp\PWM_Music\Debug/srcc/printf.c:102
			q /= 10;
    b26c:	9820      	ldr	r0, [sp, #128]	; 0x80
    b26e:	9921      	ldr	r1, [sp, #132]	; 0x84
    b270:	220a      	movs	r2, #10
    b272:	2300      	movs	r3, #0
    b274:	f7fb ff06 	bl	7084 <__aeabi_uldivmod>
    b278:	0002      	movs	r2, r0
    b27a:	000b      	movs	r3, r1
    b27c:	9220      	str	r2, [sp, #128]	; 0x80
    b27e:	9321      	str	r3, [sp, #132]	; 0x84
F:\WorkSpace\AHL-GEC-EXP\Temp\PWM_Music\Debug/srcc/printf.c:99
		while (q != 0)//倒序的数字
    b280:	9b20      	ldr	r3, [sp, #128]	; 0x80
    b282:	9a21      	ldr	r2, [sp, #132]	; 0x84
    b284:	4313      	orrs	r3, r2
    b286:	d1e2      	bne.n	b24e <printk_mkfloatstr+0x1d2>
F:\WorkSpace\AHL-GEC-EXP\Temp\PWM_Music\Debug/srcc/printf.c:104
		}
		while (k != 0)
    b288:	e009      	b.n	b29e <printk_mkfloatstr+0x222>
F:\WorkSpace\AHL-GEC-EXP\Temp\PWM_Music\Debug/srcc/printf.c:106
		{
			b[j++] = 0;
    b28a:	9b23      	ldr	r3, [sp, #140]	; 0x8c
    b28c:	1c5a      	adds	r2, r3, #1
    b28e:	9223      	str	r2, [sp, #140]	; 0x8c
    b290:	aa04      	add	r2, sp, #16
    b292:	009b      	lsls	r3, r3, #2
    b294:	2100      	movs	r1, #0
    b296:	5099      	str	r1, [r3, r2]
F:\WorkSpace\AHL-GEC-EXP\Temp\PWM_Music\Debug/srcc/printf.c:107
			k--;
    b298:	9b22      	ldr	r3, [sp, #136]	; 0x88
    b29a:	3b01      	subs	r3, #1
    b29c:	9322      	str	r3, [sp, #136]	; 0x88
F:\WorkSpace\AHL-GEC-EXP\Temp\PWM_Music\Debug/srcc/printf.c:104
		while (k != 0)
    b29e:	9b22      	ldr	r3, [sp, #136]	; 0x88
    b2a0:	2b00      	cmp	r3, #0
    b2a2:	d1f2      	bne.n	b28a <printk_mkfloatstr+0x20e>
F:\WorkSpace\AHL-GEC-EXP\Temp\PWM_Music\Debug/srcc/printf.c:109
		}
		while (j > 0)//将倒序数字转为正序，并转换为对应的字符形式
    b2a4:	e011      	b.n	b2ca <printk_mkfloatstr+0x24e>
F:\WorkSpace\AHL-GEC-EXP\Temp\PWM_Music\Debug/srcc/printf.c:111
		{
			c[i++] = b[j - 1] + '0';
    b2a6:	9b23      	ldr	r3, [sp, #140]	; 0x8c
    b2a8:	1e5a      	subs	r2, r3, #1
    b2aa:	ab04      	add	r3, sp, #16
    b2ac:	0092      	lsls	r2, r2, #2
    b2ae:	58d3      	ldr	r3, [r2, r3]
    b2b0:	b2db      	uxtb	r3, r3
    b2b2:	3330      	adds	r3, #48	; 0x30
    b2b4:	b2d9      	uxtb	r1, r3
    b2b6:	9b24      	ldr	r3, [sp, #144]	; 0x90
    b2b8:	1c5a      	adds	r2, r3, #1
    b2ba:	9224      	str	r2, [sp, #144]	; 0x90
    b2bc:	9a02      	ldr	r2, [sp, #8]
    b2be:	18d3      	adds	r3, r2, r3
    b2c0:	b24a      	sxtb	r2, r1
    b2c2:	701a      	strb	r2, [r3, #0]
F:\WorkSpace\AHL-GEC-EXP\Temp\PWM_Music\Debug/srcc/printf.c:112
			--j;
    b2c4:	9b23      	ldr	r3, [sp, #140]	; 0x8c
    b2c6:	3b01      	subs	r3, #1
    b2c8:	9323      	str	r3, [sp, #140]	; 0x8c
F:\WorkSpace\AHL-GEC-EXP\Temp\PWM_Music\Debug/srcc/printf.c:109
		while (j > 0)//将倒序数字转为正序，并转换为对应的字符形式
    b2ca:	9b23      	ldr	r3, [sp, #140]	; 0x8c
    b2cc:	2b00      	cmp	r3, #0
    b2ce:	d1ea      	bne.n	b2a6 <printk_mkfloatstr+0x22a>
F:\WorkSpace\AHL-GEC-EXP\Temp\PWM_Music\Debug/srcc/printf.c:115
		}
	}
	c[i] = '\0';
    b2d0:	9a02      	ldr	r2, [sp, #8]
    b2d2:	9b24      	ldr	r3, [sp, #144]	; 0x90
    b2d4:	18d3      	adds	r3, r2, r3
    b2d6:	2200      	movs	r2, #0
    b2d8:	701a      	strb	r2, [r3, #0]
F:\WorkSpace\AHL-GEC-EXP\Temp\PWM_Music\Debug/srcc/printf.c:116
	return i;
    b2da:	9b24      	ldr	r3, [sp, #144]	; 0x90
F:\WorkSpace\AHL-GEC-EXP\Temp\PWM_Music\Debug/srcc/printf.c:117
}
    b2dc:	0018      	movs	r0, r3
    b2de:	b027      	add	sp, #156	; 0x9c
    b2e0:	bd30      	pop	{r4, r5, pc}
    b2e2:	46c0      	nop			; (mov r8, r8)
    b2e4:	85d8a000 	.word	0x85d8a000
    b2e8:	43763457 	.word	0x43763457
    b2ec:	40240000 	.word	0x40240000
    b2f0:	3ff00000 	.word	0x3ff00000

0000b2f4 <printk_mknumstr>:
printk_mknumstr():
F:\WorkSpace\AHL-GEC-EXP\Temp\PWM_Music\Debug/srcc/printf.c:127
//       neg:有无符号:判断数据时有符号还是无符号整形
//       radix:格式选择:确定输出格式例如：十进制或十六进制...
//函数返回：无
//======================================================================
static int printk_mknumstr(char* numstr, void* nump, int neg, int radix)
{
    b2f4:	b500      	push	{lr}
    b2f6:	b08d      	sub	sp, #52	; 0x34
    b2f8:	9003      	str	r0, [sp, #12]
    b2fa:	9102      	str	r1, [sp, #8]
    b2fc:	9201      	str	r2, [sp, #4]
    b2fe:	9300      	str	r3, [sp, #0]
F:\WorkSpace\AHL-GEC-EXP\Temp\PWM_Music\Debug/srcc/printf.c:133
	int a, b, c;
	unsigned int ua, ub, uc;
	int nlen;
	char* nstrp;

	nlen = 0;
    b300:	2300      	movs	r3, #0
    b302:	9307      	str	r3, [sp, #28]
F:\WorkSpace\AHL-GEC-EXP\Temp\PWM_Music\Debug/srcc/printf.c:134
	nstrp = numstr;
    b304:	9b03      	ldr	r3, [sp, #12]
    b306:	9306      	str	r3, [sp, #24]
F:\WorkSpace\AHL-GEC-EXP\Temp\PWM_Music\Debug/srcc/printf.c:135
	*nstrp++ = '\0';
    b308:	9b06      	ldr	r3, [sp, #24]
    b30a:	1c5a      	adds	r2, r3, #1
    b30c:	9206      	str	r2, [sp, #24]
    b30e:	2200      	movs	r2, #0
    b310:	701a      	strb	r2, [r3, #0]
F:\WorkSpace\AHL-GEC-EXP\Temp\PWM_Music\Debug/srcc/printf.c:137

	if (neg) {
    b312:	9b01      	ldr	r3, [sp, #4]
    b314:	2b00      	cmp	r3, #0
    b316:	d032      	beq.n	b37e <printk_mknumstr+0x8a>
F:\WorkSpace\AHL-GEC-EXP\Temp\PWM_Music\Debug/srcc/printf.c:138
		a = *(int*)nump;
    b318:	9b02      	ldr	r3, [sp, #8]
    b31a:	681b      	ldr	r3, [r3, #0]
    b31c:	930b      	str	r3, [sp, #44]	; 0x2c
F:\WorkSpace\AHL-GEC-EXP\Temp\PWM_Music\Debug/srcc/printf.c:139
		if (a == 0) {
    b31e:	9b0b      	ldr	r3, [sp, #44]	; 0x2c
    b320:	2b00      	cmp	r3, #0
    b322:	d128      	bne.n	b376 <printk_mknumstr+0x82>
F:\WorkSpace\AHL-GEC-EXP\Temp\PWM_Music\Debug/srcc/printf.c:140
			*nstrp = '0';
    b324:	9b06      	ldr	r3, [sp, #24]
    b326:	2230      	movs	r2, #48	; 0x30
    b328:	701a      	strb	r2, [r3, #0]
F:\WorkSpace\AHL-GEC-EXP\Temp\PWM_Music\Debug/srcc/printf.c:141
			++nlen;
    b32a:	9b07      	ldr	r3, [sp, #28]
    b32c:	3301      	adds	r3, #1
    b32e:	9307      	str	r3, [sp, #28]
F:\WorkSpace\AHL-GEC-EXP\Temp\PWM_Music\Debug/srcc/printf.c:142
			goto done;
    b330:	e058      	b.n	b3e4 <printk_mknumstr+0xf0>
F:\WorkSpace\AHL-GEC-EXP\Temp\PWM_Music\Debug/srcc/printf.c:145
		}
		while (a != 0) {
			b = (int)a / (int)radix;
    b332:	9900      	ldr	r1, [sp, #0]
    b334:	980b      	ldr	r0, [sp, #44]	; 0x2c
    b336:	f7fb fd41 	bl	6dbc <__divsi3>
    b33a:	0003      	movs	r3, r0
    b33c:	9304      	str	r3, [sp, #16]
F:\WorkSpace\AHL-GEC-EXP\Temp\PWM_Music\Debug/srcc/printf.c:146
			c = (int)a - ((int)b * (int)radix);
    b33e:	9b04      	ldr	r3, [sp, #16]
    b340:	9a00      	ldr	r2, [sp, #0]
    b342:	4353      	muls	r3, r2
    b344:	9a0b      	ldr	r2, [sp, #44]	; 0x2c
    b346:	1ad3      	subs	r3, r2, r3
    b348:	930a      	str	r3, [sp, #40]	; 0x28
F:\WorkSpace\AHL-GEC-EXP\Temp\PWM_Music\Debug/srcc/printf.c:147
			if (c < 0) {
    b34a:	9b0a      	ldr	r3, [sp, #40]	; 0x28
    b34c:	2b00      	cmp	r3, #0
    b34e:	da04      	bge.n	b35a <printk_mknumstr+0x66>
F:\WorkSpace\AHL-GEC-EXP\Temp\PWM_Music\Debug/srcc/printf.c:148
				c = ~c + 1 + '0';
    b350:	9b0a      	ldr	r3, [sp, #40]	; 0x28
    b352:	2230      	movs	r2, #48	; 0x30
    b354:	1ad3      	subs	r3, r2, r3
    b356:	930a      	str	r3, [sp, #40]	; 0x28
    b358:	e002      	b.n	b360 <printk_mknumstr+0x6c>
F:\WorkSpace\AHL-GEC-EXP\Temp\PWM_Music\Debug/srcc/printf.c:151
			}
			else {
				c = c + '0';
    b35a:	9b0a      	ldr	r3, [sp, #40]	; 0x28
    b35c:	3330      	adds	r3, #48	; 0x30
    b35e:	930a      	str	r3, [sp, #40]	; 0x28
F:\WorkSpace\AHL-GEC-EXP\Temp\PWM_Music\Debug/srcc/printf.c:153
			}
			a = b;
    b360:	9b04      	ldr	r3, [sp, #16]
    b362:	930b      	str	r3, [sp, #44]	; 0x2c
F:\WorkSpace\AHL-GEC-EXP\Temp\PWM_Music\Debug/srcc/printf.c:154
			*nstrp++ = (char)c;
    b364:	9b06      	ldr	r3, [sp, #24]
    b366:	1c5a      	adds	r2, r3, #1
    b368:	9206      	str	r2, [sp, #24]
    b36a:	9a0a      	ldr	r2, [sp, #40]	; 0x28
    b36c:	b252      	sxtb	r2, r2
    b36e:	701a      	strb	r2, [r3, #0]
F:\WorkSpace\AHL-GEC-EXP\Temp\PWM_Music\Debug/srcc/printf.c:155
			++nlen;
    b370:	9b07      	ldr	r3, [sp, #28]
    b372:	3301      	adds	r3, #1
    b374:	9307      	str	r3, [sp, #28]
F:\WorkSpace\AHL-GEC-EXP\Temp\PWM_Music\Debug/srcc/printf.c:144
		while (a != 0) {
    b376:	9b0b      	ldr	r3, [sp, #44]	; 0x2c
    b378:	2b00      	cmp	r3, #0
    b37a:	d1da      	bne.n	b332 <printk_mknumstr+0x3e>
    b37c:	e032      	b.n	b3e4 <printk_mknumstr+0xf0>
F:\WorkSpace\AHL-GEC-EXP\Temp\PWM_Music\Debug/srcc/printf.c:159
		}
	}
	else {
		ua = *(unsigned int*)nump;
    b37e:	9b02      	ldr	r3, [sp, #8]
    b380:	681b      	ldr	r3, [r3, #0]
    b382:	9309      	str	r3, [sp, #36]	; 0x24
F:\WorkSpace\AHL-GEC-EXP\Temp\PWM_Music\Debug/srcc/printf.c:160
		if (ua == 0) {
    b384:	9b09      	ldr	r3, [sp, #36]	; 0x24
    b386:	2b00      	cmp	r3, #0
    b388:	d128      	bne.n	b3dc <printk_mknumstr+0xe8>
F:\WorkSpace\AHL-GEC-EXP\Temp\PWM_Music\Debug/srcc/printf.c:161
			*nstrp = '0';
    b38a:	9b06      	ldr	r3, [sp, #24]
    b38c:	2230      	movs	r2, #48	; 0x30
    b38e:	701a      	strb	r2, [r3, #0]
F:\WorkSpace\AHL-GEC-EXP\Temp\PWM_Music\Debug/srcc/printf.c:162
			++nlen;
    b390:	9b07      	ldr	r3, [sp, #28]
    b392:	3301      	adds	r3, #1
    b394:	9307      	str	r3, [sp, #28]
F:\WorkSpace\AHL-GEC-EXP\Temp\PWM_Music\Debug/srcc/printf.c:163
			goto done;
    b396:	e025      	b.n	b3e4 <printk_mknumstr+0xf0>
F:\WorkSpace\AHL-GEC-EXP\Temp\PWM_Music\Debug/srcc/printf.c:166
		}
		while (ua != 0) {
			ub = (unsigned int)ua / (unsigned int)radix;
    b398:	9b00      	ldr	r3, [sp, #0]
    b39a:	0019      	movs	r1, r3
    b39c:	9809      	ldr	r0, [sp, #36]	; 0x24
    b39e:	f7fb fc83 	bl	6ca8 <__udivsi3>
    b3a2:	0003      	movs	r3, r0
    b3a4:	9305      	str	r3, [sp, #20]
F:\WorkSpace\AHL-GEC-EXP\Temp\PWM_Music\Debug/srcc/printf.c:167
			uc = (unsigned int)ua - ((unsigned int)ub * (unsigned int)radix);
    b3a6:	9b00      	ldr	r3, [sp, #0]
    b3a8:	9a05      	ldr	r2, [sp, #20]
    b3aa:	4353      	muls	r3, r2
    b3ac:	9a09      	ldr	r2, [sp, #36]	; 0x24
    b3ae:	1ad3      	subs	r3, r2, r3
    b3b0:	9308      	str	r3, [sp, #32]
F:\WorkSpace\AHL-GEC-EXP\Temp\PWM_Music\Debug/srcc/printf.c:168
			if (uc < 10) {
    b3b2:	9b08      	ldr	r3, [sp, #32]
    b3b4:	2b09      	cmp	r3, #9
    b3b6:	d803      	bhi.n	b3c0 <printk_mknumstr+0xcc>
F:\WorkSpace\AHL-GEC-EXP\Temp\PWM_Music\Debug/srcc/printf.c:169
				uc = uc + '0';
    b3b8:	9b08      	ldr	r3, [sp, #32]
    b3ba:	3330      	adds	r3, #48	; 0x30
    b3bc:	9308      	str	r3, [sp, #32]
    b3be:	e002      	b.n	b3c6 <printk_mknumstr+0xd2>
F:\WorkSpace\AHL-GEC-EXP\Temp\PWM_Music\Debug/srcc/printf.c:172
			}
			else {
				uc = uc - 10 + 'A';
    b3c0:	9b08      	ldr	r3, [sp, #32]
    b3c2:	3337      	adds	r3, #55	; 0x37
    b3c4:	9308      	str	r3, [sp, #32]
F:\WorkSpace\AHL-GEC-EXP\Temp\PWM_Music\Debug/srcc/printf.c:174
			}
			ua = ub;
    b3c6:	9b05      	ldr	r3, [sp, #20]
    b3c8:	9309      	str	r3, [sp, #36]	; 0x24
F:\WorkSpace\AHL-GEC-EXP\Temp\PWM_Music\Debug/srcc/printf.c:175
			*nstrp++ = (char)uc;
    b3ca:	9b06      	ldr	r3, [sp, #24]
    b3cc:	1c5a      	adds	r2, r3, #1
    b3ce:	9206      	str	r2, [sp, #24]
    b3d0:	9a08      	ldr	r2, [sp, #32]
    b3d2:	b252      	sxtb	r2, r2
    b3d4:	701a      	strb	r2, [r3, #0]
F:\WorkSpace\AHL-GEC-EXP\Temp\PWM_Music\Debug/srcc/printf.c:176
			++nlen;
    b3d6:	9b07      	ldr	r3, [sp, #28]
    b3d8:	3301      	adds	r3, #1
    b3da:	9307      	str	r3, [sp, #28]
F:\WorkSpace\AHL-GEC-EXP\Temp\PWM_Music\Debug/srcc/printf.c:165
		while (ua != 0) {
    b3dc:	9b09      	ldr	r3, [sp, #36]	; 0x24
    b3de:	2b00      	cmp	r3, #0
    b3e0:	d1da      	bne.n	b398 <printk_mknumstr+0xa4>
F:\WorkSpace\AHL-GEC-EXP\Temp\PWM_Music\Debug/srcc/printf.c:179
		}
	}
	done: return nlen;
    b3e2:	46c0      	nop			; (mov r8, r8)
    b3e4:	9b07      	ldr	r3, [sp, #28]
F:\WorkSpace\AHL-GEC-EXP\Temp\PWM_Music\Debug/srcc/printf.c:180
}
    b3e6:	0018      	movs	r0, r3
    b3e8:	b00d      	add	sp, #52	; 0x34
    b3ea:	bd00      	pop	{pc}

0000b3ec <printk_pad_zero>:
printk_pad_zero():
F:\WorkSpace\AHL-GEC-EXP\Temp\PWM_Music\Debug/srcc/printf.c:183
/********************************************************************/
static void printk_pad_zero(int curlen, int field_width, int* count,
	PRINTK_INFO* info) {
    b3ec:	b500      	push	{lr}
    b3ee:	b087      	sub	sp, #28
    b3f0:	9003      	str	r0, [sp, #12]
    b3f2:	9102      	str	r1, [sp, #8]
    b3f4:	9201      	str	r2, [sp, #4]
    b3f6:	9300      	str	r3, [sp, #0]
F:\WorkSpace\AHL-GEC-EXP\Temp\PWM_Music\Debug/srcc/printf.c:186
	int i;

	for (i = curlen; i < field_width; i++) {
    b3f8:	9b03      	ldr	r3, [sp, #12]
    b3fa:	9305      	str	r3, [sp, #20]
    b3fc:	e008      	b.n	b410 <printk_pad_zero+0x24>
F:\WorkSpace\AHL-GEC-EXP\Temp\PWM_Music\Debug/srcc/printf.c:187 (discriminator 3)
		printk_putc('0', count, info);
    b3fe:	9a00      	ldr	r2, [sp, #0]
    b400:	9b01      	ldr	r3, [sp, #4]
    b402:	0019      	movs	r1, r3
    b404:	2030      	movs	r0, #48	; 0x30
    b406:	f7ff fe13 	bl	b030 <printk_putc>
F:\WorkSpace\AHL-GEC-EXP\Temp\PWM_Music\Debug/srcc/printf.c:186 (discriminator 3)
	for (i = curlen; i < field_width; i++) {
    b40a:	9b05      	ldr	r3, [sp, #20]
    b40c:	3301      	adds	r3, #1
    b40e:	9305      	str	r3, [sp, #20]
F:\WorkSpace\AHL-GEC-EXP\Temp\PWM_Music\Debug/srcc/printf.c:186 (discriminator 1)
    b410:	9a05      	ldr	r2, [sp, #20]
    b412:	9b02      	ldr	r3, [sp, #8]
    b414:	429a      	cmp	r2, r3
    b416:	dbf2      	blt.n	b3fe <printk_pad_zero+0x12>
F:\WorkSpace\AHL-GEC-EXP\Temp\PWM_Music\Debug/srcc/printf.c:189
	}
}
    b418:	46c0      	nop			; (mov r8, r8)
    b41a:	46c0      	nop			; (mov r8, r8)
    b41c:	b007      	add	sp, #28
    b41e:	bd00      	pop	{pc}

0000b420 <printk_pad_space>:
printk_pad_space():
F:\WorkSpace\AHL-GEC-EXP\Temp\PWM_Music\Debug/srcc/printf.c:193

/********************************************************************/
static void printk_pad_space(int curlen, int field_width, int* count,
	PRINTK_INFO* info) {
    b420:	b500      	push	{lr}
    b422:	b087      	sub	sp, #28
    b424:	9003      	str	r0, [sp, #12]
    b426:	9102      	str	r1, [sp, #8]
    b428:	9201      	str	r2, [sp, #4]
    b42a:	9300      	str	r3, [sp, #0]
F:\WorkSpace\AHL-GEC-EXP\Temp\PWM_Music\Debug/srcc/printf.c:196
	int i;

	for (i = curlen; i < field_width; i++) {
    b42c:	9b03      	ldr	r3, [sp, #12]
    b42e:	9305      	str	r3, [sp, #20]
    b430:	e008      	b.n	b444 <printk_pad_space+0x24>
F:\WorkSpace\AHL-GEC-EXP\Temp\PWM_Music\Debug/srcc/printf.c:197 (discriminator 3)
		printk_putc(' ', count, info);
    b432:	9a00      	ldr	r2, [sp, #0]
    b434:	9b01      	ldr	r3, [sp, #4]
    b436:	0019      	movs	r1, r3
    b438:	2020      	movs	r0, #32
    b43a:	f7ff fdf9 	bl	b030 <printk_putc>
F:\WorkSpace\AHL-GEC-EXP\Temp\PWM_Music\Debug/srcc/printf.c:196 (discriminator 3)
	for (i = curlen; i < field_width; i++) {
    b43e:	9b05      	ldr	r3, [sp, #20]
    b440:	3301      	adds	r3, #1
    b442:	9305      	str	r3, [sp, #20]
F:\WorkSpace\AHL-GEC-EXP\Temp\PWM_Music\Debug/srcc/printf.c:196 (discriminator 1)
    b444:	9a05      	ldr	r2, [sp, #20]
    b446:	9b02      	ldr	r3, [sp, #8]
    b448:	429a      	cmp	r2, r3
    b44a:	dbf2      	blt.n	b432 <printk_pad_space+0x12>
F:\WorkSpace\AHL-GEC-EXP\Temp\PWM_Music\Debug/srcc/printf.c:199
	}
}
    b44c:	46c0      	nop			; (mov r8, r8)
    b44e:	46c0      	nop			; (mov r8, r8)
    b450:	b007      	add	sp, #28
    b452:	bd00      	pop	{pc}

0000b454 <printk>:
printk():
F:\WorkSpace\AHL-GEC-EXP\Temp\PWM_Music\Debug/srcc/printf.c:208
//       fmt:输出格式信息
//       ap:va_list指针指向格式信息输出
//函数返回：无
//======================================================================
int printk(PRINTK_INFO* info, const char* fmt, char* ap)
{
    b454:	b530      	push	{r4, r5, lr}
    b456:	b0a3      	sub	sp, #140	; 0x8c
    b458:	9003      	str	r0, [sp, #12]
    b45a:	9102      	str	r1, [sp, #8]
    b45c:	9201      	str	r2, [sp, #4]
F:\WorkSpace\AHL-GEC-EXP\Temp\PWM_Music\Debug/srcc/printf.c:232

		}un1;*/
	char* p;
	int c;
	//char temp1;
	char vstr[33] = { '0' };
    b45e:	ab0a      	add	r3, sp, #40	; 0x28
    b460:	2230      	movs	r2, #48	; 0x30
    b462:	601a      	str	r2, [r3, #0]
    b464:	3304      	adds	r3, #4
    b466:	221d      	movs	r2, #29
    b468:	2100      	movs	r1, #0
    b46a:	0018      	movs	r0, r3
    b46c:	f000 fba3 	bl	bbb6 <memset>
F:\WorkSpace\AHL-GEC-EXP\Temp\PWM_Music\Debug/srcc/printf.c:253
	int* ivalp;
	char* sval;
	int cval;
	unsigned int uval;

	count = 0;
    b470:	2300      	movs	r3, #0
    b472:	9309      	str	r3, [sp, #36]	; 0x24
F:\WorkSpace\AHL-GEC-EXP\Temp\PWM_Music\Debug/srcc/printf.c:254
	length_modifier = 0;
    b474:	2300      	movs	r3, #0
    b476:	931b      	str	r3, [sp, #108]	; 0x6c
F:\WorkSpace\AHL-GEC-EXP\Temp\PWM_Music\Debug/srcc/printf.c:255
	precision_used = TRUE;
    b478:	2301      	movs	r3, #1
    b47a:	931a      	str	r3, [sp, #104]	; 0x68
F:\WorkSpace\AHL-GEC-EXP\Temp\PWM_Music\Debug/srcc/printf.c:257
	//从格式字符串第一个字符开始格式化输出数据
	for (p = (char*)fmt; (c = *p) != 0; p++)
    b47c:	9b02      	ldr	r3, [sp, #8]
    b47e:	9321      	str	r3, [sp, #132]	; 0x84
    b480:	f000 fb66 	bl	bb50 <printk+0x6fc>
F:\WorkSpace\AHL-GEC-EXP\Temp\PWM_Music\Debug/srcc/printf.c:260
	{
		//读取%前面的字符，直接输出的字符和最后的\n类的转义字符
		if (c != '%')
    b484:	9b15      	ldr	r3, [sp, #84]	; 0x54
    b486:	2b25      	cmp	r3, #37	; 0x25
    b488:	d017      	beq.n	b4ba <printk+0x66>
F:\WorkSpace\AHL-GEC-EXP\Temp\PWM_Music\Debug/srcc/printf.c:264
		{
#ifndef UNIX_DEBUG
			//%之前的字符
			if (c != '\n') {
    b48a:	9b15      	ldr	r3, [sp, #84]	; 0x54
    b48c:	2b0a      	cmp	r3, #10
    b48e:	d007      	beq.n	b4a0 <printk+0x4c>
F:\WorkSpace\AHL-GEC-EXP\Temp\PWM_Music\Debug/srcc/printf.c:265
				printk_putc(c, &count, info);
    b490:	9a03      	ldr	r2, [sp, #12]
    b492:	a909      	add	r1, sp, #36	; 0x24
    b494:	9b15      	ldr	r3, [sp, #84]	; 0x54
    b496:	0018      	movs	r0, r3
    b498:	f7ff fdca 	bl	b030 <printk_putc>
F:\WorkSpace\AHL-GEC-EXP\Temp\PWM_Music\Debug/srcc/printf.c:276
			}
#else
			printk_putc(c, &count, info);
#endif

			continue;
    b49c:	f000 fb55 	bl	bb4a <printk+0x6f6>
F:\WorkSpace\AHL-GEC-EXP\Temp\PWM_Music\Debug/srcc/printf.c:269
				printk_putc(0x0D /* CR */, &count, info);
    b4a0:	9a03      	ldr	r2, [sp, #12]
    b4a2:	ab09      	add	r3, sp, #36	; 0x24
    b4a4:	0019      	movs	r1, r3
    b4a6:	200d      	movs	r0, #13
    b4a8:	f7ff fdc2 	bl	b030 <printk_putc>
F:\WorkSpace\AHL-GEC-EXP\Temp\PWM_Music\Debug/srcc/printf.c:270
				printk_putc(0x0A /* LF */, &count, info);
    b4ac:	9a03      	ldr	r2, [sp, #12]
    b4ae:	ab09      	add	r3, sp, #36	; 0x24
    b4b0:	0019      	movs	r1, r3
    b4b2:	200a      	movs	r0, #10
    b4b4:	f7ff fdbc 	bl	b030 <printk_putc>
F:\WorkSpace\AHL-GEC-EXP\Temp\PWM_Music\Debug/srcc/printf.c:276
			continue;
    b4b8:	e347      	b.n	bb4a <printk+0x6f6>
F:\WorkSpace\AHL-GEC-EXP\Temp\PWM_Music\Debug/srcc/printf.c:282
		}


		//此时字符为%  查看百分号后的第一个格式字符，对输出格式字符并做出相应输出判断
		//检查相应的修改标志
		flags_used = 0;
    b4ba:	2300      	movs	r3, #0
    b4bc:	931d      	str	r3, [sp, #116]	; 0x74
F:\WorkSpace\AHL-GEC-EXP\Temp\PWM_Music\Debug/srcc/printf.c:283
		done = FALSE;
    b4be:	2300      	movs	r3, #0
    b4c0:	931e      	str	r3, [sp, #120]	; 0x78
F:\WorkSpace\AHL-GEC-EXP\Temp\PWM_Music\Debug/srcc/printf.c:284
		while (!done) {
    b4c2:	e02c      	b.n	b51e <printk+0xca>
F:\WorkSpace\AHL-GEC-EXP\Temp\PWM_Music\Debug/srcc/printf.c:285
			switch (/* c = */*++p) {
    b4c4:	9b21      	ldr	r3, [sp, #132]	; 0x84
    b4c6:	3301      	adds	r3, #1
    b4c8:	9321      	str	r3, [sp, #132]	; 0x84
    b4ca:	9b21      	ldr	r3, [sp, #132]	; 0x84
    b4cc:	781b      	ldrb	r3, [r3, #0]
    b4ce:	b25b      	sxtb	r3, r3
    b4d0:	3b20      	subs	r3, #32
    b4d2:	2b10      	cmp	r3, #16
    b4d4:	d81d      	bhi.n	b512 <printk+0xbe>
    b4d6:	009a      	lsls	r2, r3, #2
    b4d8:	4bca      	ldr	r3, [pc, #808]	; (b804 <printk+0x3b0>)
    b4da:	18d3      	adds	r3, r2, r3
    b4dc:	681b      	ldr	r3, [r3, #0]
    b4de:	469f      	mov	pc, r3
F:\WorkSpace\AHL-GEC-EXP\Temp\PWM_Music\Debug/srcc/printf.c:287
			case '-':
				flags_used |= FLAGS_MINUS;
    b4e0:	9b1d      	ldr	r3, [sp, #116]	; 0x74
    b4e2:	2201      	movs	r2, #1
    b4e4:	4313      	orrs	r3, r2
    b4e6:	931d      	str	r3, [sp, #116]	; 0x74
F:\WorkSpace\AHL-GEC-EXP\Temp\PWM_Music\Debug/srcc/printf.c:288
				break;
    b4e8:	e019      	b.n	b51e <printk+0xca>
F:\WorkSpace\AHL-GEC-EXP\Temp\PWM_Music\Debug/srcc/printf.c:290
			case '+':
				flags_used |= FLAGS_PLUS;
    b4ea:	9b1d      	ldr	r3, [sp, #116]	; 0x74
    b4ec:	2202      	movs	r2, #2
    b4ee:	4313      	orrs	r3, r2
    b4f0:	931d      	str	r3, [sp, #116]	; 0x74
F:\WorkSpace\AHL-GEC-EXP\Temp\PWM_Music\Debug/srcc/printf.c:291
				break;
    b4f2:	e014      	b.n	b51e <printk+0xca>
F:\WorkSpace\AHL-GEC-EXP\Temp\PWM_Music\Debug/srcc/printf.c:293
			case ' ':
				flags_used |= FLAGS_SPACE;
    b4f4:	9b1d      	ldr	r3, [sp, #116]	; 0x74
    b4f6:	2204      	movs	r2, #4
    b4f8:	4313      	orrs	r3, r2
    b4fa:	931d      	str	r3, [sp, #116]	; 0x74
F:\WorkSpace\AHL-GEC-EXP\Temp\PWM_Music\Debug/srcc/printf.c:294
				break;
    b4fc:	e00f      	b.n	b51e <printk+0xca>
F:\WorkSpace\AHL-GEC-EXP\Temp\PWM_Music\Debug/srcc/printf.c:296
			case '0':
				flags_used |= FLAGS_ZERO;
    b4fe:	9b1d      	ldr	r3, [sp, #116]	; 0x74
    b500:	2208      	movs	r2, #8
    b502:	4313      	orrs	r3, r2
    b504:	931d      	str	r3, [sp, #116]	; 0x74
F:\WorkSpace\AHL-GEC-EXP\Temp\PWM_Music\Debug/srcc/printf.c:297
				break;
    b506:	e00a      	b.n	b51e <printk+0xca>
F:\WorkSpace\AHL-GEC-EXP\Temp\PWM_Music\Debug/srcc/printf.c:299
			case '#':
				flags_used |= FLAGS_POUND;
    b508:	9b1d      	ldr	r3, [sp, #116]	; 0x74
    b50a:	2210      	movs	r2, #16
    b50c:	4313      	orrs	r3, r2
    b50e:	931d      	str	r3, [sp, #116]	; 0x74
F:\WorkSpace\AHL-GEC-EXP\Temp\PWM_Music\Debug/srcc/printf.c:300
				break;
    b510:	e005      	b.n	b51e <printk+0xca>
F:\WorkSpace\AHL-GEC-EXP\Temp\PWM_Music\Debug/srcc/printf.c:303
			default:
				/* we've gone one char too far */
				--p;
    b512:	9b21      	ldr	r3, [sp, #132]	; 0x84
    b514:	3b01      	subs	r3, #1
    b516:	9321      	str	r3, [sp, #132]	; 0x84
F:\WorkSpace\AHL-GEC-EXP\Temp\PWM_Music\Debug/srcc/printf.c:304
				done = TRUE;
    b518:	2301      	movs	r3, #1
    b51a:	931e      	str	r3, [sp, #120]	; 0x78
F:\WorkSpace\AHL-GEC-EXP\Temp\PWM_Music\Debug/srcc/printf.c:305
				break;
    b51c:	46c0      	nop			; (mov r8, r8)
F:\WorkSpace\AHL-GEC-EXP\Temp\PWM_Music\Debug/srcc/printf.c:284
		while (!done) {
    b51e:	9b1e      	ldr	r3, [sp, #120]	; 0x78
    b520:	2b00      	cmp	r3, #0
    b522:	d0cf      	beq.n	b4c4 <printk+0x70>
F:\WorkSpace\AHL-GEC-EXP\Temp\PWM_Music\Debug/srcc/printf.c:311
			}
		}


		//检查%后再下一个字符 确定输出长度
		field_width = 0;
    b524:	2300      	movs	r3, #0
    b526:	931c      	str	r3, [sp, #112]	; 0x70
F:\WorkSpace\AHL-GEC-EXP\Temp\PWM_Music\Debug/srcc/printf.c:312
		done = FALSE;
    b528:	2300      	movs	r3, #0
    b52a:	931e      	str	r3, [sp, #120]	; 0x78
F:\WorkSpace\AHL-GEC-EXP\Temp\PWM_Music\Debug/srcc/printf.c:313
		while (!done) {
    b52c:	e01b      	b.n	b566 <printk+0x112>
F:\WorkSpace\AHL-GEC-EXP\Temp\PWM_Music\Debug/srcc/printf.c:314
			switch (c = *++p) {
    b52e:	9b21      	ldr	r3, [sp, #132]	; 0x84
    b530:	3301      	adds	r3, #1
    b532:	9321      	str	r3, [sp, #132]	; 0x84
    b534:	9b21      	ldr	r3, [sp, #132]	; 0x84
    b536:	781b      	ldrb	r3, [r3, #0]
    b538:	b25b      	sxtb	r3, r3
    b53a:	9315      	str	r3, [sp, #84]	; 0x54
    b53c:	9b15      	ldr	r3, [sp, #84]	; 0x54
    b53e:	3b30      	subs	r3, #48	; 0x30
    b540:	2b09      	cmp	r3, #9
    b542:	d80a      	bhi.n	b55a <printk+0x106>
F:\WorkSpace\AHL-GEC-EXP\Temp\PWM_Music\Debug/srcc/printf.c:325
			case '5':
			case '6':
			case '7':
			case '8':
			case '9':
				field_width = (field_width * 10) + (c - '0');
    b544:	9a1c      	ldr	r2, [sp, #112]	; 0x70
    b546:	0013      	movs	r3, r2
    b548:	009b      	lsls	r3, r3, #2
    b54a:	189b      	adds	r3, r3, r2
    b54c:	005b      	lsls	r3, r3, #1
    b54e:	001a      	movs	r2, r3
    b550:	9b15      	ldr	r3, [sp, #84]	; 0x54
    b552:	3b30      	subs	r3, #48	; 0x30
    b554:	18d3      	adds	r3, r2, r3
    b556:	931c      	str	r3, [sp, #112]	; 0x70
F:\WorkSpace\AHL-GEC-EXP\Temp\PWM_Music\Debug/srcc/printf.c:326
				break;
    b558:	e005      	b.n	b566 <printk+0x112>
F:\WorkSpace\AHL-GEC-EXP\Temp\PWM_Music\Debug/srcc/printf.c:329
			default:
				/* we've gone one char too far */
				--p;
    b55a:	9b21      	ldr	r3, [sp, #132]	; 0x84
    b55c:	3b01      	subs	r3, #1
    b55e:	9321      	str	r3, [sp, #132]	; 0x84
F:\WorkSpace\AHL-GEC-EXP\Temp\PWM_Music\Debug/srcc/printf.c:330
				done = TRUE;
    b560:	2301      	movs	r3, #1
    b562:	931e      	str	r3, [sp, #120]	; 0x78
F:\WorkSpace\AHL-GEC-EXP\Temp\PWM_Music\Debug/srcc/printf.c:331
				break;
    b564:	46c0      	nop			; (mov r8, r8)
F:\WorkSpace\AHL-GEC-EXP\Temp\PWM_Music\Debug/srcc/printf.c:313
		while (!done) {
    b566:	9b1e      	ldr	r3, [sp, #120]	; 0x78
    b568:	2b00      	cmp	r3, #0
    b56a:	d0e0      	beq.n	b52e <printk+0xda>
F:\WorkSpace\AHL-GEC-EXP\Temp\PWM_Music\Debug/srcc/printf.c:335
			}
		}
		//此时字符为%看是否有.输入
		if (/* (c = *++p) */*++p == '.') {
    b56c:	9b21      	ldr	r3, [sp, #132]	; 0x84
    b56e:	3301      	adds	r3, #1
    b570:	9321      	str	r3, [sp, #132]	; 0x84
    b572:	9b21      	ldr	r3, [sp, #132]	; 0x84
    b574:	781b      	ldrb	r3, [r3, #0]
    b576:	b25b      	sxtb	r3, r3
    b578:	2b2e      	cmp	r3, #46	; 0x2e
    b57a:	d124      	bne.n	b5c6 <printk+0x172>
F:\WorkSpace\AHL-GEC-EXP\Temp\PWM_Music\Debug/srcc/printf.c:341
			/* precision_used = TRUE; */

			/*
			 * Must get precision field width, if present.
			 */
			precision_width = 0;
    b57c:	2300      	movs	r3, #0
    b57e:	9319      	str	r3, [sp, #100]	; 0x64
F:\WorkSpace\AHL-GEC-EXP\Temp\PWM_Music\Debug/srcc/printf.c:342
			done = FALSE;
    b580:	2300      	movs	r3, #0
    b582:	931e      	str	r3, [sp, #120]	; 0x78
F:\WorkSpace\AHL-GEC-EXP\Temp\PWM_Music\Debug/srcc/printf.c:343
			while (!done) {
    b584:	e01b      	b.n	b5be <printk+0x16a>
F:\WorkSpace\AHL-GEC-EXP\Temp\PWM_Music\Debug/srcc/printf.c:344
				switch (c = *++p) {
    b586:	9b21      	ldr	r3, [sp, #132]	; 0x84
    b588:	3301      	adds	r3, #1
    b58a:	9321      	str	r3, [sp, #132]	; 0x84
    b58c:	9b21      	ldr	r3, [sp, #132]	; 0x84
    b58e:	781b      	ldrb	r3, [r3, #0]
    b590:	b25b      	sxtb	r3, r3
    b592:	9315      	str	r3, [sp, #84]	; 0x54
    b594:	9b15      	ldr	r3, [sp, #84]	; 0x54
    b596:	3b30      	subs	r3, #48	; 0x30
    b598:	2b09      	cmp	r3, #9
    b59a:	d80a      	bhi.n	b5b2 <printk+0x15e>
F:\WorkSpace\AHL-GEC-EXP\Temp\PWM_Music\Debug/srcc/printf.c:356
				case '6':
				case '7':
				case '8':
				case '9':
#if 1
					precision_width = (precision_width * 10) + (c - '0');
    b59c:	9a19      	ldr	r2, [sp, #100]	; 0x64
    b59e:	0013      	movs	r3, r2
    b5a0:	009b      	lsls	r3, r3, #2
    b5a2:	189b      	adds	r3, r3, r2
    b5a4:	005b      	lsls	r3, r3, #1
    b5a6:	001a      	movs	r2, r3
    b5a8:	9b15      	ldr	r3, [sp, #84]	; 0x54
    b5aa:	3b30      	subs	r3, #48	; 0x30
    b5ac:	18d3      	adds	r3, r2, r3
    b5ae:	9319      	str	r3, [sp, #100]	; 0x64
F:\WorkSpace\AHL-GEC-EXP\Temp\PWM_Music\Debug/srcc/printf.c:359

#endif
					break;
    b5b0:	e005      	b.n	b5be <printk+0x16a>
F:\WorkSpace\AHL-GEC-EXP\Temp\PWM_Music\Debug/srcc/printf.c:362
				default:
					/* we've gone one char too far */
					--p;
    b5b2:	9b21      	ldr	r3, [sp, #132]	; 0x84
    b5b4:	3b01      	subs	r3, #1
    b5b6:	9321      	str	r3, [sp, #132]	; 0x84
F:\WorkSpace\AHL-GEC-EXP\Temp\PWM_Music\Debug/srcc/printf.c:363
					done = TRUE;
    b5b8:	2301      	movs	r3, #1
    b5ba:	931e      	str	r3, [sp, #120]	; 0x78
F:\WorkSpace\AHL-GEC-EXP\Temp\PWM_Music\Debug/srcc/printf.c:364
					break;
    b5bc:	46c0      	nop			; (mov r8, r8)
F:\WorkSpace\AHL-GEC-EXP\Temp\PWM_Music\Debug/srcc/printf.c:343
			while (!done) {
    b5be:	9b1e      	ldr	r3, [sp, #120]	; 0x78
    b5c0:	2b00      	cmp	r3, #0
    b5c2:	d0e0      	beq.n	b586 <printk+0x132>
    b5c4:	e006      	b.n	b5d4 <printk+0x180>
F:\WorkSpace\AHL-GEC-EXP\Temp\PWM_Music\Debug/srcc/printf.c:370
				}
			}
		}
		else {
			/* we've gone one char too far */
			--p;
    b5c6:	9b21      	ldr	r3, [sp, #132]	; 0x84
    b5c8:	3b01      	subs	r3, #1
    b5ca:	9321      	str	r3, [sp, #132]	; 0x84
F:\WorkSpace\AHL-GEC-EXP\Temp\PWM_Music\Debug/srcc/printf.c:372
#if 1
			precision_used = FALSE;
    b5cc:	2300      	movs	r3, #0
    b5ce:	931a      	str	r3, [sp, #104]	; 0x68
F:\WorkSpace\AHL-GEC-EXP\Temp\PWM_Music\Debug/srcc/printf.c:373
			precision_width = 0;
    b5d0:	2300      	movs	r3, #0
    b5d2:	9319      	str	r3, [sp, #100]	; 0x64
F:\WorkSpace\AHL-GEC-EXP\Temp\PWM_Music\Debug/srcc/printf.c:377
#endif
		}
		//判断 输出的是否有lf、LF等
		switch (/* c = */*++p) {
    b5d4:	9b21      	ldr	r3, [sp, #132]	; 0x84
    b5d6:	3301      	adds	r3, #1
    b5d8:	9321      	str	r3, [sp, #132]	; 0x84
    b5da:	9b21      	ldr	r3, [sp, #132]	; 0x84
    b5dc:	781b      	ldrb	r3, [r3, #0]
    b5de:	b25b      	sxtb	r3, r3
    b5e0:	2b6c      	cmp	r3, #108	; 0x6c
    b5e2:	d005      	beq.n	b5f0 <printk+0x19c>
    b5e4:	dc0e      	bgt.n	b604 <printk+0x1b0>
    b5e6:	2b4c      	cmp	r3, #76	; 0x4c
    b5e8:	d007      	beq.n	b5fa <printk+0x1a6>
    b5ea:	2b68      	cmp	r3, #104	; 0x68
    b5ec:	d10a      	bne.n	b604 <printk+0x1b0>
F:\WorkSpace\AHL-GEC-EXP\Temp\PWM_Music\Debug/srcc/printf.c:380
		case 'h':
			// length_modifier |= LENMOD_h;
			break;
    b5ee:	e00d      	b.n	b60c <printk+0x1b8>
F:\WorkSpace\AHL-GEC-EXP\Temp\PWM_Music\Debug/srcc/printf.c:382
		case 'l':
			length_modifier |= LENMOD_l;
    b5f0:	9b1b      	ldr	r3, [sp, #108]	; 0x6c
    b5f2:	2201      	movs	r2, #1
    b5f4:	4313      	orrs	r3, r2
    b5f6:	931b      	str	r3, [sp, #108]	; 0x6c
F:\WorkSpace\AHL-GEC-EXP\Temp\PWM_Music\Debug/srcc/printf.c:383
			break;
    b5f8:	e008      	b.n	b60c <printk+0x1b8>
F:\WorkSpace\AHL-GEC-EXP\Temp\PWM_Music\Debug/srcc/printf.c:385
		case 'L':
			length_modifier |= LENMOD_L;
    b5fa:	9b1b      	ldr	r3, [sp, #108]	; 0x6c
    b5fc:	2202      	movs	r2, #2
    b5fe:	4313      	orrs	r3, r2
    b600:	931b      	str	r3, [sp, #108]	; 0x6c
F:\WorkSpace\AHL-GEC-EXP\Temp\PWM_Music\Debug/srcc/printf.c:386
			break;
    b602:	e003      	b.n	b60c <printk+0x1b8>
F:\WorkSpace\AHL-GEC-EXP\Temp\PWM_Music\Debug/srcc/printf.c:389
		default:
			/* we've gone one char too far */
			--p;
    b604:	9b21      	ldr	r3, [sp, #132]	; 0x84
    b606:	3b01      	subs	r3, #1
    b608:	9321      	str	r3, [sp, #132]	; 0x84
F:\WorkSpace\AHL-GEC-EXP\Temp\PWM_Music\Debug/srcc/printf.c:390
			break;
    b60a:	46c0      	nop			; (mov r8, r8)
F:\WorkSpace\AHL-GEC-EXP\Temp\PWM_Music\Debug/srcc/printf.c:394
		}

		//p为格式字符串的首地址
		switch (c = *++p) {
    b60c:	9b21      	ldr	r3, [sp, #132]	; 0x84
    b60e:	3301      	adds	r3, #1
    b610:	9321      	str	r3, [sp, #132]	; 0x84
    b612:	9b21      	ldr	r3, [sp, #132]	; 0x84
    b614:	781b      	ldrb	r3, [r3, #0]
    b616:	b25b      	sxtb	r3, r3
    b618:	9315      	str	r3, [sp, #84]	; 0x54
    b61a:	9b15      	ldr	r3, [sp, #84]	; 0x54
    b61c:	3b58      	subs	r3, #88	; 0x58
    b61e:	2b20      	cmp	r3, #32
    b620:	d900      	bls.n	b624 <printk+0x1d0>
    b622:	e286      	b.n	bb32 <printk+0x6de>
    b624:	009a      	lsls	r2, r3, #2
    b626:	4b78      	ldr	r3, [pc, #480]	; (b808 <printk+0x3b4>)
    b628:	18d3      	adds	r3, r2, r3
    b62a:	681b      	ldr	r3, [r3, #0]
    b62c:	469f      	mov	pc, r3
F:\WorkSpace\AHL-GEC-EXP\Temp\PWM_Music\Debug/srcc/printf.c:399
		case 'd':
		case 'i':
			//此时ap为指向可变参数列表的第一个参数
			//返回当前参数，并将ap指向下一个参数
			ival = (int)va_arg(ap, int);
    b62e:	9b01      	ldr	r3, [sp, #4]
    b630:	3304      	adds	r3, #4
    b632:	9301      	str	r3, [sp, #4]
    b634:	9b01      	ldr	r3, [sp, #4]
    b636:	3b04      	subs	r3, #4
    b638:	681b      	ldr	r3, [r3, #0]
    b63a:	9308      	str	r3, [sp, #32]
F:\WorkSpace\AHL-GEC-EXP\Temp\PWM_Music\Debug/srcc/printf.c:401
			//将整型转换成字符型保存在vstr中，返回字符数vlen
			vlen = printk_mknumstr(vstr, &ival, TRUE, 10);
    b63c:	a908      	add	r1, sp, #32
    b63e:	a80a      	add	r0, sp, #40	; 0x28
    b640:	230a      	movs	r3, #10
    b642:	2201      	movs	r2, #1
    b644:	f7ff fe56 	bl	b2f4 <printk_mknumstr>
    b648:	0003      	movs	r3, r0
    b64a:	931f      	str	r3, [sp, #124]	; 0x7c
F:\WorkSpace\AHL-GEC-EXP\Temp\PWM_Music\Debug/srcc/printf.c:403
			//指向转换后的最后一个字符
			vstrp = &vstr[vlen];
    b64c:	aa0a      	add	r2, sp, #40	; 0x28
    b64e:	9b1f      	ldr	r3, [sp, #124]	; 0x7c
    b650:	18d3      	adds	r3, r2, r3
    b652:	9320      	str	r3, [sp, #128]	; 0x80
F:\WorkSpace\AHL-GEC-EXP\Temp\PWM_Music\Debug/srcc/printf.c:406

			//若参数小于0，添加'-'号，并将字符长度加1
			if (ival < 0) {
    b654:	9b08      	ldr	r3, [sp, #32]
    b656:	2b00      	cmp	r3, #0
    b658:	da05      	bge.n	b666 <printk+0x212>
F:\WorkSpace\AHL-GEC-EXP\Temp\PWM_Music\Debug/srcc/printf.c:407
				schar = '-';
    b65a:	232d      	movs	r3, #45	; 0x2d
    b65c:	9318      	str	r3, [sp, #96]	; 0x60
F:\WorkSpace\AHL-GEC-EXP\Temp\PWM_Music\Debug/srcc/printf.c:408
				++vlen;
    b65e:	9b1f      	ldr	r3, [sp, #124]	; 0x7c
    b660:	3301      	adds	r3, #1
    b662:	931f      	str	r3, [sp, #124]	; 0x7c
    b664:	e015      	b.n	b692 <printk+0x23e>
F:\WorkSpace\AHL-GEC-EXP\Temp\PWM_Music\Debug/srcc/printf.c:412
			}
			//若参数不小于0，添加‘+’号或者‘ ’或者为0，并将字符长度加1
			else {
				if (IS_FLAG_PLUS(flags_used)) {
    b666:	9b1d      	ldr	r3, [sp, #116]	; 0x74
    b668:	2202      	movs	r2, #2
    b66a:	4013      	ands	r3, r2
    b66c:	d005      	beq.n	b67a <printk+0x226>
F:\WorkSpace\AHL-GEC-EXP\Temp\PWM_Music\Debug/srcc/printf.c:413
					schar = '+';
    b66e:	232b      	movs	r3, #43	; 0x2b
    b670:	9318      	str	r3, [sp, #96]	; 0x60
F:\WorkSpace\AHL-GEC-EXP\Temp\PWM_Music\Debug/srcc/printf.c:414
					++vlen;
    b672:	9b1f      	ldr	r3, [sp, #124]	; 0x7c
    b674:	3301      	adds	r3, #1
    b676:	931f      	str	r3, [sp, #124]	; 0x7c
    b678:	e00b      	b.n	b692 <printk+0x23e>
F:\WorkSpace\AHL-GEC-EXP\Temp\PWM_Music\Debug/srcc/printf.c:417
				}
				else {
					if (IS_FLAG_SPACE(flags_used)) {
    b67a:	9b1d      	ldr	r3, [sp, #116]	; 0x74
    b67c:	2204      	movs	r2, #4
    b67e:	4013      	ands	r3, r2
    b680:	d005      	beq.n	b68e <printk+0x23a>
F:\WorkSpace\AHL-GEC-EXP\Temp\PWM_Music\Debug/srcc/printf.c:418
						schar = ' ';
    b682:	2320      	movs	r3, #32
    b684:	9318      	str	r3, [sp, #96]	; 0x60
F:\WorkSpace\AHL-GEC-EXP\Temp\PWM_Music\Debug/srcc/printf.c:419
						++vlen;
    b686:	9b1f      	ldr	r3, [sp, #124]	; 0x7c
    b688:	3301      	adds	r3, #1
    b68a:	931f      	str	r3, [sp, #124]	; 0x7c
    b68c:	e001      	b.n	b692 <printk+0x23e>
F:\WorkSpace\AHL-GEC-EXP\Temp\PWM_Music\Debug/srcc/printf.c:422
					}
					else {
						schar = 0;
    b68e:	2300      	movs	r3, #0
    b690:	9318      	str	r3, [sp, #96]	; 0x60
F:\WorkSpace\AHL-GEC-EXP\Temp\PWM_Music\Debug/srcc/printf.c:426
					}
				}
			}
			dschar = FALSE;
    b692:	2300      	movs	r3, #0
    b694:	9317      	str	r3, [sp, #92]	; 0x5c
F:\WorkSpace\AHL-GEC-EXP\Temp\PWM_Music\Debug/srcc/printf.c:431

			/*
			 * do the ZERO pad.
			 */
			if (IS_FLAG_ZERO(flags_used)) {
    b696:	9b1d      	ldr	r3, [sp, #116]	; 0x74
    b698:	2208      	movs	r2, #8
    b69a:	4013      	ands	r3, r2
    b69c:	d013      	beq.n	b6c6 <printk+0x272>
F:\WorkSpace\AHL-GEC-EXP\Temp\PWM_Music\Debug/srcc/printf.c:432
				if (schar)
    b69e:	9b18      	ldr	r3, [sp, #96]	; 0x60
    b6a0:	2b00      	cmp	r3, #0
    b6a2:	d005      	beq.n	b6b0 <printk+0x25c>
F:\WorkSpace\AHL-GEC-EXP\Temp\PWM_Music\Debug/srcc/printf.c:433
					printk_putc(schar, &count, info);  //输出符号
    b6a4:	9a03      	ldr	r2, [sp, #12]
    b6a6:	a909      	add	r1, sp, #36	; 0x24
    b6a8:	9b18      	ldr	r3, [sp, #96]	; 0x60
    b6aa:	0018      	movs	r0, r3
    b6ac:	f7ff fcc0 	bl	b030 <printk_putc>
F:\WorkSpace\AHL-GEC-EXP\Temp\PWM_Music\Debug/srcc/printf.c:434
				dschar = TRUE;
    b6b0:	2301      	movs	r3, #1
    b6b2:	9317      	str	r3, [sp, #92]	; 0x5c
F:\WorkSpace\AHL-GEC-EXP\Temp\PWM_Music\Debug/srcc/printf.c:435
				printk_pad_zero(vlen, field_width, &count, info);
    b6b4:	9b03      	ldr	r3, [sp, #12]
    b6b6:	aa09      	add	r2, sp, #36	; 0x24
    b6b8:	991c      	ldr	r1, [sp, #112]	; 0x70
    b6ba:	981f      	ldr	r0, [sp, #124]	; 0x7c
    b6bc:	f7ff fe96 	bl	b3ec <printk_pad_zero>
F:\WorkSpace\AHL-GEC-EXP\Temp\PWM_Music\Debug/srcc/printf.c:436
				vlen = field_width;
    b6c0:	9b1c      	ldr	r3, [sp, #112]	; 0x70
    b6c2:	931f      	str	r3, [sp, #124]	; 0x7c
    b6c4:	e014      	b.n	b6f0 <printk+0x29c>
F:\WorkSpace\AHL-GEC-EXP\Temp\PWM_Music\Debug/srcc/printf.c:439
			}
			else {
				if (!IS_FLAG_MINUS(flags_used)) {
    b6c6:	9b1d      	ldr	r3, [sp, #116]	; 0x74
    b6c8:	2201      	movs	r2, #1
    b6ca:	4013      	ands	r3, r2
    b6cc:	d110      	bne.n	b6f0 <printk+0x29c>
F:\WorkSpace\AHL-GEC-EXP\Temp\PWM_Music\Debug/srcc/printf.c:440
					printk_pad_space(vlen, field_width, &count, info);  //输出空格
    b6ce:	9b03      	ldr	r3, [sp, #12]
    b6d0:	aa09      	add	r2, sp, #36	; 0x24
    b6d2:	991c      	ldr	r1, [sp, #112]	; 0x70
    b6d4:	981f      	ldr	r0, [sp, #124]	; 0x7c
    b6d6:	f7ff fea3 	bl	b420 <printk_pad_space>
F:\WorkSpace\AHL-GEC-EXP\Temp\PWM_Music\Debug/srcc/printf.c:442

					if (schar)
    b6da:	9b18      	ldr	r3, [sp, #96]	; 0x60
    b6dc:	2b00      	cmp	r3, #0
    b6de:	d005      	beq.n	b6ec <printk+0x298>
F:\WorkSpace\AHL-GEC-EXP\Temp\PWM_Music\Debug/srcc/printf.c:443
						printk_putc(schar, &count, info);
    b6e0:	9a03      	ldr	r2, [sp, #12]
    b6e2:	a909      	add	r1, sp, #36	; 0x24
    b6e4:	9b18      	ldr	r3, [sp, #96]	; 0x60
    b6e6:	0018      	movs	r0, r3
    b6e8:	f7ff fca2 	bl	b030 <printk_putc>
F:\WorkSpace\AHL-GEC-EXP\Temp\PWM_Music\Debug/srcc/printf.c:444
					dschar = TRUE;
    b6ec:	2301      	movs	r3, #1
    b6ee:	9317      	str	r3, [sp, #92]	; 0x5c
F:\WorkSpace\AHL-GEC-EXP\Temp\PWM_Music\Debug/srcc/printf.c:450
				}
			}

			/* the string was built in reverse order, now display in */
			/* correct order */
			if (!dschar && schar) {
    b6f0:	9b17      	ldr	r3, [sp, #92]	; 0x5c
    b6f2:	2b00      	cmp	r3, #0
    b6f4:	d000      	beq.n	b6f8 <printk+0x2a4>
    b6f6:	e190      	b.n	ba1a <printk+0x5c6>
F:\WorkSpace\AHL-GEC-EXP\Temp\PWM_Music\Debug/srcc/printf.c:450 (discriminator 1)
    b6f8:	9b18      	ldr	r3, [sp, #96]	; 0x60
    b6fa:	2b00      	cmp	r3, #0
    b6fc:	d100      	bne.n	b700 <printk+0x2ac>
    b6fe:	e18c      	b.n	ba1a <printk+0x5c6>
F:\WorkSpace\AHL-GEC-EXP\Temp\PWM_Music\Debug/srcc/printf.c:451
				printk_putc(schar, &count, info);
    b700:	9a03      	ldr	r2, [sp, #12]
    b702:	a909      	add	r1, sp, #36	; 0x24
    b704:	9b18      	ldr	r3, [sp, #96]	; 0x60
    b706:	0018      	movs	r0, r3
    b708:	f7ff fc92 	bl	b030 <printk_putc>
F:\WorkSpace\AHL-GEC-EXP\Temp\PWM_Music\Debug/srcc/printf.c:453
			}
			goto cont_xd;  //开始跳转
    b70c:	e185      	b.n	ba1a <printk+0x5c6>
F:\WorkSpace\AHL-GEC-EXP\Temp\PWM_Music\Debug/srcc/printf.c:464
			//3.140001 对double数:0x40091EB85F577E6C
			//实际传入变参数 函数后 浮点数变为:0x6000000040091EB8 实际是将其转化为double型数据
			//但是顺序反了，我们要做的是将后四字节提前，然后把0x60移到紧接着前四个字节后的位置。

			//【20200816】  XSX，解决浮点数不优化问题
			ap = ap + 4;
    b70e:	9b01      	ldr	r3, [sp, #4]
    b710:	3304      	adds	r3, #4
    b712:	9301      	str	r3, [sp, #4]
F:\WorkSpace\AHL-GEC-EXP\Temp\PWM_Music\Debug/srcc/printf.c:465
			fval = (double)va_arg(ap, double);
    b714:	9b01      	ldr	r3, [sp, #4]
    b716:	3308      	adds	r3, #8
    b718:	9301      	str	r3, [sp, #4]
    b71a:	9b01      	ldr	r3, [sp, #4]
    b71c:	3b08      	subs	r3, #8
    b71e:	681a      	ldr	r2, [r3, #0]
    b720:	685b      	ldr	r3, [r3, #4]
    b722:	9206      	str	r2, [sp, #24]
    b724:	9307      	str	r3, [sp, #28]
F:\WorkSpace\AHL-GEC-EXP\Temp\PWM_Music\Debug/srcc/printf.c:469

			//【20200816】  XSX，解决负数的浮点数输出问题
			//若参数小于0，添加'-'号，并将字符长度加1
			if (fval < 0) {
    b726:	9806      	ldr	r0, [sp, #24]
    b728:	9907      	ldr	r1, [sp, #28]
    b72a:	2200      	movs	r2, #0
    b72c:	2300      	movs	r3, #0
    b72e:	f7fb fc47 	bl	6fc0 <__aeabi_dcmplt>
    b732:	1e03      	subs	r3, r0, #0
    b734:	d00f      	beq.n	b756 <printk+0x302>
F:\WorkSpace\AHL-GEC-EXP\Temp\PWM_Music\Debug/srcc/printf.c:470
				schar = '-';
    b736:	232d      	movs	r3, #45	; 0x2d
    b738:	9318      	str	r3, [sp, #96]	; 0x60
F:\WorkSpace\AHL-GEC-EXP\Temp\PWM_Music\Debug/srcc/printf.c:471
				fval = -fval;				//负数取它的正数
    b73a:	9a06      	ldr	r2, [sp, #24]
    b73c:	9b07      	ldr	r3, [sp, #28]
    b73e:	0011      	movs	r1, r2
    b740:	000c      	movs	r4, r1
    b742:	2180      	movs	r1, #128	; 0x80
    b744:	0609      	lsls	r1, r1, #24
    b746:	4059      	eors	r1, r3
    b748:	000d      	movs	r5, r1
    b74a:	9406      	str	r4, [sp, #24]
    b74c:	9507      	str	r5, [sp, #28]
F:\WorkSpace\AHL-GEC-EXP\Temp\PWM_Music\Debug/srcc/printf.c:472
				++vlen;
    b74e:	9b1f      	ldr	r3, [sp, #124]	; 0x7c
    b750:	3301      	adds	r3, #1
    b752:	931f      	str	r3, [sp, #124]	; 0x7c
    b754:	e015      	b.n	b782 <printk+0x32e>
F:\WorkSpace\AHL-GEC-EXP\Temp\PWM_Music\Debug/srcc/printf.c:476
			}
			//若参数不小于0，添加‘+’号或者‘ ’或者为0，并将字符长度加1
			else {
				if (IS_FLAG_PLUS(flags_used)) {
    b756:	9b1d      	ldr	r3, [sp, #116]	; 0x74
    b758:	2202      	movs	r2, #2
    b75a:	4013      	ands	r3, r2
    b75c:	d005      	beq.n	b76a <printk+0x316>
F:\WorkSpace\AHL-GEC-EXP\Temp\PWM_Music\Debug/srcc/printf.c:477
					schar = '+';
    b75e:	232b      	movs	r3, #43	; 0x2b
    b760:	9318      	str	r3, [sp, #96]	; 0x60
F:\WorkSpace\AHL-GEC-EXP\Temp\PWM_Music\Debug/srcc/printf.c:478
					++vlen;
    b762:	9b1f      	ldr	r3, [sp, #124]	; 0x7c
    b764:	3301      	adds	r3, #1
    b766:	931f      	str	r3, [sp, #124]	; 0x7c
    b768:	e00b      	b.n	b782 <printk+0x32e>
F:\WorkSpace\AHL-GEC-EXP\Temp\PWM_Music\Debug/srcc/printf.c:481
				}
				else {
					if (IS_FLAG_SPACE(flags_used)) {
    b76a:	9b1d      	ldr	r3, [sp, #116]	; 0x74
    b76c:	2204      	movs	r2, #4
    b76e:	4013      	ands	r3, r2
    b770:	d005      	beq.n	b77e <printk+0x32a>
F:\WorkSpace\AHL-GEC-EXP\Temp\PWM_Music\Debug/srcc/printf.c:482
						schar = ' ';
    b772:	2320      	movs	r3, #32
    b774:	9318      	str	r3, [sp, #96]	; 0x60
F:\WorkSpace\AHL-GEC-EXP\Temp\PWM_Music\Debug/srcc/printf.c:483
						++vlen;
    b776:	9b1f      	ldr	r3, [sp, #124]	; 0x7c
    b778:	3301      	adds	r3, #1
    b77a:	931f      	str	r3, [sp, #124]	; 0x7c
    b77c:	e001      	b.n	b782 <printk+0x32e>
F:\WorkSpace\AHL-GEC-EXP\Temp\PWM_Music\Debug/srcc/printf.c:486
					}
					else {
						schar = 0;
    b77e:	2300      	movs	r3, #0
    b780:	9318      	str	r3, [sp, #96]	; 0x60
F:\WorkSpace\AHL-GEC-EXP\Temp\PWM_Music\Debug/srcc/printf.c:490
					}
				}
			}
			dschar = FALSE;
    b782:	2300      	movs	r3, #0
    b784:	9317      	str	r3, [sp, #92]	; 0x5c
F:\WorkSpace\AHL-GEC-EXP\Temp\PWM_Music\Debug/srcc/printf.c:493

			//确定是否使用小数点精度数值
			if (precision_used)
    b786:	9b1a      	ldr	r3, [sp, #104]	; 0x68
    b788:	2b00      	cmp	r3, #0
    b78a:	d00a      	beq.n	b7a2 <printk+0x34e>
F:\WorkSpace\AHL-GEC-EXP\Temp\PWM_Music\Debug/srcc/printf.c:496
			{
				//将整型转换成字符型保存在vstr中，返回字符数vlen
				vlen = printk_mkfloatstr(&fval, vstr, precision_width);
    b78c:	9a19      	ldr	r2, [sp, #100]	; 0x64
    b78e:	a90a      	add	r1, sp, #40	; 0x28
    b790:	ab06      	add	r3, sp, #24
    b792:	0018      	movs	r0, r3
    b794:	f7ff fc72 	bl	b07c <printk_mkfloatstr>
    b798:	0003      	movs	r3, r0
    b79a:	931f      	str	r3, [sp, #124]	; 0x7c
F:\WorkSpace\AHL-GEC-EXP\Temp\PWM_Music\Debug/srcc/printf.c:497
				vstrp = &vstr[0];  //指向转换后的第一个字符
    b79c:	ab0a      	add	r3, sp, #40	; 0x28
    b79e:	9320      	str	r3, [sp, #128]	; 0x80
    b7a0:	e017      	b.n	b7d2 <printk+0x37e>
F:\WorkSpace\AHL-GEC-EXP\Temp\PWM_Music\Debug/srcc/printf.c:501
			}
			else
			{	//浮点型精度到小数点后8位
				if (length_modifier == 0)
    b7a2:	9b1b      	ldr	r3, [sp, #108]	; 0x6c
    b7a4:	2b00      	cmp	r3, #0
    b7a6:	d10a      	bne.n	b7be <printk+0x36a>
F:\WorkSpace\AHL-GEC-EXP\Temp\PWM_Music\Debug/srcc/printf.c:503
				{	//将整型转换成字符型保存在vstr中，返回字符数vlen
					vlen = printk_mkfloatstr(&fval, vstr, 8);
    b7a8:	a90a      	add	r1, sp, #40	; 0x28
    b7aa:	ab06      	add	r3, sp, #24
    b7ac:	2208      	movs	r2, #8
    b7ae:	0018      	movs	r0, r3
    b7b0:	f7ff fc64 	bl	b07c <printk_mkfloatstr>
    b7b4:	0003      	movs	r3, r0
    b7b6:	931f      	str	r3, [sp, #124]	; 0x7c
F:\WorkSpace\AHL-GEC-EXP\Temp\PWM_Music\Debug/srcc/printf.c:505
					//指向转换后的第一个字符
					vstrp = &vstr[0];
    b7b8:	ab0a      	add	r3, sp, #40	; 0x28
    b7ba:	9320      	str	r3, [sp, #128]	; 0x80
    b7bc:	e009      	b.n	b7d2 <printk+0x37e>
F:\WorkSpace\AHL-GEC-EXP\Temp\PWM_Music\Debug/srcc/printf.c:509
				}
				else
				{	//将整型转换成字符型保存在vstr中，返回字符数vlen
					vlen = printk_mkfloatstr(&fval, vstr, precision_width);
    b7be:	9a19      	ldr	r2, [sp, #100]	; 0x64
    b7c0:	a90a      	add	r1, sp, #40	; 0x28
    b7c2:	ab06      	add	r3, sp, #24
    b7c4:	0018      	movs	r0, r3
    b7c6:	f7ff fc59 	bl	b07c <printk_mkfloatstr>
    b7ca:	0003      	movs	r3, r0
    b7cc:	931f      	str	r3, [sp, #124]	; 0x7c
F:\WorkSpace\AHL-GEC-EXP\Temp\PWM_Music\Debug/srcc/printf.c:511
					//指向转换后的第一个字符
					vstrp = &vstr[0];
    b7ce:	ab0a      	add	r3, sp, #40	; 0x28
    b7d0:	9320      	str	r3, [sp, #128]	; 0x80
F:\WorkSpace\AHL-GEC-EXP\Temp\PWM_Music\Debug/srcc/printf.c:521


			/*
			 * do the ZERO pad.
			 */
			if (IS_FLAG_ZERO(flags_used)) {
    b7d2:	9b1d      	ldr	r3, [sp, #116]	; 0x74
    b7d4:	2208      	movs	r2, #8
    b7d6:	4013      	ands	r3, r2
    b7d8:	d018      	beq.n	b80c <printk+0x3b8>
F:\WorkSpace\AHL-GEC-EXP\Temp\PWM_Music\Debug/srcc/printf.c:522
				if (schar)
    b7da:	9b18      	ldr	r3, [sp, #96]	; 0x60
    b7dc:	2b00      	cmp	r3, #0
    b7de:	d005      	beq.n	b7ec <printk+0x398>
F:\WorkSpace\AHL-GEC-EXP\Temp\PWM_Music\Debug/srcc/printf.c:523
					printk_putc(schar, &count, info);  //输出符号
    b7e0:	9a03      	ldr	r2, [sp, #12]
    b7e2:	a909      	add	r1, sp, #36	; 0x24
    b7e4:	9b18      	ldr	r3, [sp, #96]	; 0x60
    b7e6:	0018      	movs	r0, r3
    b7e8:	f7ff fc22 	bl	b030 <printk_putc>
F:\WorkSpace\AHL-GEC-EXP\Temp\PWM_Music\Debug/srcc/printf.c:524
				dschar = TRUE;
    b7ec:	2301      	movs	r3, #1
    b7ee:	9317      	str	r3, [sp, #92]	; 0x5c
F:\WorkSpace\AHL-GEC-EXP\Temp\PWM_Music\Debug/srcc/printf.c:525
				printk_pad_zero(vlen, field_width, &count, info);
    b7f0:	9b03      	ldr	r3, [sp, #12]
    b7f2:	aa09      	add	r2, sp, #36	; 0x24
    b7f4:	991c      	ldr	r1, [sp, #112]	; 0x70
    b7f6:	981f      	ldr	r0, [sp, #124]	; 0x7c
    b7f8:	f7ff fdf8 	bl	b3ec <printk_pad_zero>
F:\WorkSpace\AHL-GEC-EXP\Temp\PWM_Music\Debug/srcc/printf.c:526
				vlen = field_width;
    b7fc:	9b1c      	ldr	r3, [sp, #112]	; 0x70
    b7fe:	931f      	str	r3, [sp, #124]	; 0x7c
    b800:	e019      	b.n	b836 <printk+0x3e2>
    b802:	46c0      	nop			; (mov r8, r8)
    b804:	0000bd3c 	.word	0x0000bd3c
    b808:	0000bd80 	.word	0x0000bd80
F:\WorkSpace\AHL-GEC-EXP\Temp\PWM_Music\Debug/srcc/printf.c:529
			}
			else {
				if (!IS_FLAG_MINUS(flags_used)) {
    b80c:	9b1d      	ldr	r3, [sp, #116]	; 0x74
    b80e:	2201      	movs	r2, #1
    b810:	4013      	ands	r3, r2
    b812:	d110      	bne.n	b836 <printk+0x3e2>
F:\WorkSpace\AHL-GEC-EXP\Temp\PWM_Music\Debug/srcc/printf.c:530
					printk_pad_space(vlen, field_width, &count, info);  //输出空格
    b814:	9b03      	ldr	r3, [sp, #12]
    b816:	aa09      	add	r2, sp, #36	; 0x24
    b818:	991c      	ldr	r1, [sp, #112]	; 0x70
    b81a:	981f      	ldr	r0, [sp, #124]	; 0x7c
    b81c:	f7ff fe00 	bl	b420 <printk_pad_space>
F:\WorkSpace\AHL-GEC-EXP\Temp\PWM_Music\Debug/srcc/printf.c:532

					if (schar)
    b820:	9b18      	ldr	r3, [sp, #96]	; 0x60
    b822:	2b00      	cmp	r3, #0
    b824:	d005      	beq.n	b832 <printk+0x3de>
F:\WorkSpace\AHL-GEC-EXP\Temp\PWM_Music\Debug/srcc/printf.c:533
						printk_putc(schar, &count, info);
    b826:	9a03      	ldr	r2, [sp, #12]
    b828:	a909      	add	r1, sp, #36	; 0x24
    b82a:	9b18      	ldr	r3, [sp, #96]	; 0x60
    b82c:	0018      	movs	r0, r3
    b82e:	f7ff fbff 	bl	b030 <printk_putc>
F:\WorkSpace\AHL-GEC-EXP\Temp\PWM_Music\Debug/srcc/printf.c:534
					dschar = TRUE;
    b832:	2301      	movs	r3, #1
    b834:	9317      	str	r3, [sp, #92]	; 0x5c
F:\WorkSpace\AHL-GEC-EXP\Temp\PWM_Music\Debug/srcc/printf.c:540
				}
			}

			/* the string was built in reverse order, now display in */
			/* correct order */
			if (!dschar && schar) {
    b836:	9b17      	ldr	r3, [sp, #92]	; 0x5c
    b838:	2b00      	cmp	r3, #0
    b83a:	d114      	bne.n	b866 <printk+0x412>
F:\WorkSpace\AHL-GEC-EXP\Temp\PWM_Music\Debug/srcc/printf.c:540 (discriminator 1)
    b83c:	9b18      	ldr	r3, [sp, #96]	; 0x60
    b83e:	2b00      	cmp	r3, #0
    b840:	d011      	beq.n	b866 <printk+0x412>
F:\WorkSpace\AHL-GEC-EXP\Temp\PWM_Music\Debug/srcc/printf.c:541
				printk_putc(schar, &count, info);
    b842:	9a03      	ldr	r2, [sp, #12]
    b844:	a909      	add	r1, sp, #36	; 0x24
    b846:	9b18      	ldr	r3, [sp, #96]	; 0x60
    b848:	0018      	movs	r0, r3
    b84a:	f7ff fbf1 	bl	b030 <printk_putc>
F:\WorkSpace\AHL-GEC-EXP\Temp\PWM_Music\Debug/srcc/printf.c:543
			}
			while (*vstrp)
    b84e:	e00a      	b.n	b866 <printk+0x412>
F:\WorkSpace\AHL-GEC-EXP\Temp\PWM_Music\Debug/srcc/printf.c:544
				printk_putc(*vstrp++, &count, info);
    b850:	9b20      	ldr	r3, [sp, #128]	; 0x80
    b852:	1c5a      	adds	r2, r3, #1
    b854:	9220      	str	r2, [sp, #128]	; 0x80
    b856:	781b      	ldrb	r3, [r3, #0]
    b858:	b25b      	sxtb	r3, r3
    b85a:	0018      	movs	r0, r3
    b85c:	9a03      	ldr	r2, [sp, #12]
    b85e:	ab09      	add	r3, sp, #36	; 0x24
    b860:	0019      	movs	r1, r3
    b862:	f7ff fbe5 	bl	b030 <printk_putc>
F:\WorkSpace\AHL-GEC-EXP\Temp\PWM_Music\Debug/srcc/printf.c:543
			while (*vstrp)
    b866:	9b20      	ldr	r3, [sp, #128]	; 0x80
    b868:	781b      	ldrb	r3, [r3, #0]
    b86a:	b25b      	sxtb	r3, r3
    b86c:	2b00      	cmp	r3, #0
    b86e:	d1ef      	bne.n	b850 <printk+0x3fc>
F:\WorkSpace\AHL-GEC-EXP\Temp\PWM_Music\Debug/srcc/printf.c:545
			if (IS_FLAG_MINUS(flags_used)) {
    b870:	9b1d      	ldr	r3, [sp, #116]	; 0x74
    b872:	2201      	movs	r2, #1
    b874:	4013      	ands	r3, r2
    b876:	d100      	bne.n	b87a <printk+0x426>
    b878:	e162      	b.n	bb40 <printk+0x6ec>
F:\WorkSpace\AHL-GEC-EXP\Temp\PWM_Music\Debug/srcc/printf.c:546
				printk_pad_space(vlen, field_width, &count, info);
    b87a:	9b03      	ldr	r3, [sp, #12]
    b87c:	aa09      	add	r2, sp, #36	; 0x24
    b87e:	991c      	ldr	r1, [sp, #112]	; 0x70
    b880:	981f      	ldr	r0, [sp, #124]	; 0x7c
    b882:	f7ff fdcd 	bl	b420 <printk_pad_space>
F:\WorkSpace\AHL-GEC-EXP\Temp\PWM_Music\Debug/srcc/printf.c:548
			}
			break;
    b886:	e15b      	b.n	bb40 <printk+0x6ec>
F:\WorkSpace\AHL-GEC-EXP\Temp\PWM_Music\Debug/srcc/printf.c:552
			//以下是16进制整形输出
		case 'x':
		case 'X':
			uval = (unsigned int)va_arg(ap, unsigned int);
    b888:	9b01      	ldr	r3, [sp, #4]
    b88a:	3304      	adds	r3, #4
    b88c:	9301      	str	r3, [sp, #4]
    b88e:	9b01      	ldr	r3, [sp, #4]
    b890:	3b04      	subs	r3, #4
    b892:	681b      	ldr	r3, [r3, #0]
    b894:	9305      	str	r3, [sp, #20]
F:\WorkSpace\AHL-GEC-EXP\Temp\PWM_Music\Debug/srcc/printf.c:553
			vlen = printk_mknumstr(vstr, &uval, FALSE, 16);
    b896:	a905      	add	r1, sp, #20
    b898:	a80a      	add	r0, sp, #40	; 0x28
    b89a:	2310      	movs	r3, #16
    b89c:	2200      	movs	r2, #0
    b89e:	f7ff fd29 	bl	b2f4 <printk_mknumstr>
    b8a2:	0003      	movs	r3, r0
    b8a4:	931f      	str	r3, [sp, #124]	; 0x7c
F:\WorkSpace\AHL-GEC-EXP\Temp\PWM_Music\Debug/srcc/printf.c:554
			vstrp = &vstr[vlen];
    b8a6:	aa0a      	add	r2, sp, #40	; 0x28
    b8a8:	9b1f      	ldr	r3, [sp, #124]	; 0x7c
    b8aa:	18d3      	adds	r3, r2, r3
    b8ac:	9320      	str	r3, [sp, #128]	; 0x80
F:\WorkSpace\AHL-GEC-EXP\Temp\PWM_Music\Debug/srcc/printf.c:556

			dschar = FALSE;
    b8ae:	2300      	movs	r3, #0
    b8b0:	9317      	str	r3, [sp, #92]	; 0x5c
F:\WorkSpace\AHL-GEC-EXP\Temp\PWM_Music\Debug/srcc/printf.c:557
			if (IS_FLAG_ZERO(flags_used)) {
    b8b2:	9b1d      	ldr	r3, [sp, #116]	; 0x74
    b8b4:	2208      	movs	r2, #8
    b8b6:	4013      	ands	r3, r2
    b8b8:	d01a      	beq.n	b8f0 <printk+0x49c>
F:\WorkSpace\AHL-GEC-EXP\Temp\PWM_Music\Debug/srcc/printf.c:558
				if (IS_FLAG_POUND(flags_used)) {
    b8ba:	9b1d      	ldr	r3, [sp, #116]	; 0x74
    b8bc:	2210      	movs	r2, #16
    b8be:	4013      	ands	r3, r2
    b8c0:	d00d      	beq.n	b8de <printk+0x48a>
F:\WorkSpace\AHL-GEC-EXP\Temp\PWM_Music\Debug/srcc/printf.c:559
					printk_putc('0', &count, info);
    b8c2:	9a03      	ldr	r2, [sp, #12]
    b8c4:	ab09      	add	r3, sp, #36	; 0x24
    b8c6:	0019      	movs	r1, r3
    b8c8:	2030      	movs	r0, #48	; 0x30
    b8ca:	f7ff fbb1 	bl	b030 <printk_putc>
F:\WorkSpace\AHL-GEC-EXP\Temp\PWM_Music\Debug/srcc/printf.c:560
					printk_putc('x', &count, info);
    b8ce:	9a03      	ldr	r2, [sp, #12]
    b8d0:	ab09      	add	r3, sp, #36	; 0x24
    b8d2:	0019      	movs	r1, r3
    b8d4:	2078      	movs	r0, #120	; 0x78
    b8d6:	f7ff fbab 	bl	b030 <printk_putc>
F:\WorkSpace\AHL-GEC-EXP\Temp\PWM_Music\Debug/srcc/printf.c:562
					/*vlen += 2;*/
					dschar = TRUE;
    b8da:	2301      	movs	r3, #1
    b8dc:	9317      	str	r3, [sp, #92]	; 0x5c
F:\WorkSpace\AHL-GEC-EXP\Temp\PWM_Music\Debug/srcc/printf.c:564
				}
				printk_pad_zero(vlen, field_width, &count, info);
    b8de:	9b03      	ldr	r3, [sp, #12]
    b8e0:	aa09      	add	r2, sp, #36	; 0x24
    b8e2:	991c      	ldr	r1, [sp, #112]	; 0x70
    b8e4:	981f      	ldr	r0, [sp, #124]	; 0x7c
    b8e6:	f7ff fd81 	bl	b3ec <printk_pad_zero>
F:\WorkSpace\AHL-GEC-EXP\Temp\PWM_Music\Debug/srcc/printf.c:565
				vlen = field_width;
    b8ea:	9b1c      	ldr	r3, [sp, #112]	; 0x70
    b8ec:	931f      	str	r3, [sp, #124]	; 0x7c
    b8ee:	e022      	b.n	b936 <printk+0x4e2>
F:\WorkSpace\AHL-GEC-EXP\Temp\PWM_Music\Debug/srcc/printf.c:568
			}
			else {
				if (!IS_FLAG_MINUS(flags_used)) {
    b8f0:	9b1d      	ldr	r3, [sp, #116]	; 0x74
    b8f2:	2201      	movs	r2, #1
    b8f4:	4013      	ands	r3, r2
    b8f6:	d11e      	bne.n	b936 <printk+0x4e2>
F:\WorkSpace\AHL-GEC-EXP\Temp\PWM_Music\Debug/srcc/printf.c:569
					if (IS_FLAG_POUND(flags_used)) {
    b8f8:	9b1d      	ldr	r3, [sp, #116]	; 0x74
    b8fa:	2210      	movs	r2, #16
    b8fc:	4013      	ands	r3, r2
    b8fe:	d002      	beq.n	b906 <printk+0x4b2>
F:\WorkSpace\AHL-GEC-EXP\Temp\PWM_Music\Debug/srcc/printf.c:570
						vlen += 2;
    b900:	9b1f      	ldr	r3, [sp, #124]	; 0x7c
    b902:	3302      	adds	r3, #2
    b904:	931f      	str	r3, [sp, #124]	; 0x7c
F:\WorkSpace\AHL-GEC-EXP\Temp\PWM_Music\Debug/srcc/printf.c:572
					}
					printk_pad_space(vlen, field_width, &count, info);
    b906:	9b03      	ldr	r3, [sp, #12]
    b908:	aa09      	add	r2, sp, #36	; 0x24
    b90a:	991c      	ldr	r1, [sp, #112]	; 0x70
    b90c:	981f      	ldr	r0, [sp, #124]	; 0x7c
    b90e:	f7ff fd87 	bl	b420 <printk_pad_space>
F:\WorkSpace\AHL-GEC-EXP\Temp\PWM_Music\Debug/srcc/printf.c:573
					if (IS_FLAG_POUND(flags_used)) {
    b912:	9b1d      	ldr	r3, [sp, #116]	; 0x74
    b914:	2210      	movs	r2, #16
    b916:	4013      	ands	r3, r2
    b918:	d00d      	beq.n	b936 <printk+0x4e2>
F:\WorkSpace\AHL-GEC-EXP\Temp\PWM_Music\Debug/srcc/printf.c:574
						printk_putc('0', &count, info);
    b91a:	9a03      	ldr	r2, [sp, #12]
    b91c:	ab09      	add	r3, sp, #36	; 0x24
    b91e:	0019      	movs	r1, r3
    b920:	2030      	movs	r0, #48	; 0x30
    b922:	f7ff fb85 	bl	b030 <printk_putc>
F:\WorkSpace\AHL-GEC-EXP\Temp\PWM_Music\Debug/srcc/printf.c:575
						printk_putc('x', &count, info);
    b926:	9a03      	ldr	r2, [sp, #12]
    b928:	ab09      	add	r3, sp, #36	; 0x24
    b92a:	0019      	movs	r1, r3
    b92c:	2078      	movs	r0, #120	; 0x78
    b92e:	f7ff fb7f 	bl	b030 <printk_putc>
F:\WorkSpace\AHL-GEC-EXP\Temp\PWM_Music\Debug/srcc/printf.c:576
						dschar = TRUE;
    b932:	2301      	movs	r3, #1
    b934:	9317      	str	r3, [sp, #92]	; 0x5c
F:\WorkSpace\AHL-GEC-EXP\Temp\PWM_Music\Debug/srcc/printf.c:581
					}
				}
			}

			if ((IS_FLAG_POUND(flags_used)) && !dschar) {
    b936:	9b1d      	ldr	r3, [sp, #116]	; 0x74
    b938:	2210      	movs	r2, #16
    b93a:	4013      	ands	r3, r2
    b93c:	d06f      	beq.n	ba1e <printk+0x5ca>
F:\WorkSpace\AHL-GEC-EXP\Temp\PWM_Music\Debug/srcc/printf.c:581 (discriminator 1)
    b93e:	9b17      	ldr	r3, [sp, #92]	; 0x5c
    b940:	2b00      	cmp	r3, #0
    b942:	d16c      	bne.n	ba1e <printk+0x5ca>
F:\WorkSpace\AHL-GEC-EXP\Temp\PWM_Music\Debug/srcc/printf.c:582
				printk_putc('0', &count, info);
    b944:	9a03      	ldr	r2, [sp, #12]
    b946:	ab09      	add	r3, sp, #36	; 0x24
    b948:	0019      	movs	r1, r3
    b94a:	2030      	movs	r0, #48	; 0x30
    b94c:	f7ff fb70 	bl	b030 <printk_putc>
F:\WorkSpace\AHL-GEC-EXP\Temp\PWM_Music\Debug/srcc/printf.c:583
				printk_putc('x', &count, info);
    b950:	9a03      	ldr	r2, [sp, #12]
    b952:	ab09      	add	r3, sp, #36	; 0x24
    b954:	0019      	movs	r1, r3
    b956:	2078      	movs	r0, #120	; 0x78
    b958:	f7ff fb6a 	bl	b030 <printk_putc>
F:\WorkSpace\AHL-GEC-EXP\Temp\PWM_Music\Debug/srcc/printf.c:584
				vlen += 2;
    b95c:	9b1f      	ldr	r3, [sp, #124]	; 0x7c
    b95e:	3302      	adds	r3, #2
    b960:	931f      	str	r3, [sp, #124]	; 0x7c
F:\WorkSpace\AHL-GEC-EXP\Temp\PWM_Music\Debug/srcc/printf.c:586
			}
			goto cont_xd;
    b962:	e05c      	b.n	ba1e <printk+0x5ca>
F:\WorkSpace\AHL-GEC-EXP\Temp\PWM_Music\Debug/srcc/printf.c:589
			//无符号以八进制表示的整数输出
		case 'o':
			uval = (unsigned int)va_arg(ap, unsigned int);
    b964:	9b01      	ldr	r3, [sp, #4]
    b966:	3304      	adds	r3, #4
    b968:	9301      	str	r3, [sp, #4]
    b96a:	9b01      	ldr	r3, [sp, #4]
    b96c:	3b04      	subs	r3, #4
    b96e:	681b      	ldr	r3, [r3, #0]
    b970:	9305      	str	r3, [sp, #20]
F:\WorkSpace\AHL-GEC-EXP\Temp\PWM_Music\Debug/srcc/printf.c:590
			vlen = printk_mknumstr(vstr, &uval, FALSE, 8);
    b972:	a905      	add	r1, sp, #20
    b974:	a80a      	add	r0, sp, #40	; 0x28
    b976:	2308      	movs	r3, #8
    b978:	2200      	movs	r2, #0
    b97a:	f7ff fcbb 	bl	b2f4 <printk_mknumstr>
    b97e:	0003      	movs	r3, r0
    b980:	931f      	str	r3, [sp, #124]	; 0x7c
F:\WorkSpace\AHL-GEC-EXP\Temp\PWM_Music\Debug/srcc/printf.c:591
			goto cont_u;
    b982:	e02e      	b.n	b9e2 <printk+0x58e>
F:\WorkSpace\AHL-GEC-EXP\Temp\PWM_Music\Debug/srcc/printf.c:594
			//二进制输出
		case 'b':
			uval = (unsigned int)va_arg(ap, unsigned int);
    b984:	9b01      	ldr	r3, [sp, #4]
    b986:	3304      	adds	r3, #4
    b988:	9301      	str	r3, [sp, #4]
    b98a:	9b01      	ldr	r3, [sp, #4]
    b98c:	3b04      	subs	r3, #4
    b98e:	681b      	ldr	r3, [r3, #0]
    b990:	9305      	str	r3, [sp, #20]
F:\WorkSpace\AHL-GEC-EXP\Temp\PWM_Music\Debug/srcc/printf.c:595
			vlen = printk_mknumstr(vstr, &uval, FALSE, 2);
    b992:	a905      	add	r1, sp, #20
    b994:	a80a      	add	r0, sp, #40	; 0x28
    b996:	2302      	movs	r3, #2
    b998:	2200      	movs	r2, #0
    b99a:	f7ff fcab 	bl	b2f4 <printk_mknumstr>
    b99e:	0003      	movs	r3, r0
    b9a0:	931f      	str	r3, [sp, #124]	; 0x7c
F:\WorkSpace\AHL-GEC-EXP\Temp\PWM_Music\Debug/srcc/printf.c:596
			goto cont_u;
    b9a2:	e01e      	b.n	b9e2 <printk+0x58e>
F:\WorkSpace\AHL-GEC-EXP\Temp\PWM_Music\Debug/srcc/printf.c:599
			//输出指针的值
		case 'p':
			uval = (unsigned int)va_arg(ap, void*);
    b9a4:	9b01      	ldr	r3, [sp, #4]
    b9a6:	3304      	adds	r3, #4
    b9a8:	9301      	str	r3, [sp, #4]
    b9aa:	9b01      	ldr	r3, [sp, #4]
    b9ac:	3b04      	subs	r3, #4
    b9ae:	681b      	ldr	r3, [r3, #0]
    b9b0:	9305      	str	r3, [sp, #20]
F:\WorkSpace\AHL-GEC-EXP\Temp\PWM_Music\Debug/srcc/printf.c:600
			vlen = printk_mknumstr(vstr, &uval, FALSE, 16);
    b9b2:	a905      	add	r1, sp, #20
    b9b4:	a80a      	add	r0, sp, #40	; 0x28
    b9b6:	2310      	movs	r3, #16
    b9b8:	2200      	movs	r2, #0
    b9ba:	f7ff fc9b 	bl	b2f4 <printk_mknumstr>
    b9be:	0003      	movs	r3, r0
    b9c0:	931f      	str	r3, [sp, #124]	; 0x7c
F:\WorkSpace\AHL-GEC-EXP\Temp\PWM_Music\Debug/srcc/printf.c:601
			goto cont_u;
    b9c2:	e00e      	b.n	b9e2 <printk+0x58e>
F:\WorkSpace\AHL-GEC-EXP\Temp\PWM_Music\Debug/srcc/printf.c:603
		case 'u':
			uval = (unsigned int)va_arg(ap, unsigned int);
    b9c4:	9b01      	ldr	r3, [sp, #4]
    b9c6:	3304      	adds	r3, #4
    b9c8:	9301      	str	r3, [sp, #4]
    b9ca:	9b01      	ldr	r3, [sp, #4]
    b9cc:	3b04      	subs	r3, #4
    b9ce:	681b      	ldr	r3, [r3, #0]
    b9d0:	9305      	str	r3, [sp, #20]
F:\WorkSpace\AHL-GEC-EXP\Temp\PWM_Music\Debug/srcc/printf.c:604
			vlen = printk_mknumstr(vstr, &uval, FALSE, 10);
    b9d2:	a905      	add	r1, sp, #20
    b9d4:	a80a      	add	r0, sp, #40	; 0x28
    b9d6:	230a      	movs	r3, #10
    b9d8:	2200      	movs	r2, #0
    b9da:	f7ff fc8b 	bl	b2f4 <printk_mknumstr>
    b9de:	0003      	movs	r3, r0
    b9e0:	931f      	str	r3, [sp, #124]	; 0x7c
F:\WorkSpace\AHL-GEC-EXP\Temp\PWM_Music\Debug/srcc/printf.c:606

			cont_u: vstrp = &vstr[vlen];
    b9e2:	aa0a      	add	r2, sp, #40	; 0x28
    b9e4:	9b1f      	ldr	r3, [sp, #124]	; 0x7c
    b9e6:	18d3      	adds	r3, r2, r3
    b9e8:	9320      	str	r3, [sp, #128]	; 0x80
F:\WorkSpace\AHL-GEC-EXP\Temp\PWM_Music\Debug/srcc/printf.c:608

			if (IS_FLAG_ZERO(flags_used)) {
    b9ea:	9b1d      	ldr	r3, [sp, #116]	; 0x74
    b9ec:	2208      	movs	r2, #8
    b9ee:	4013      	ands	r3, r2
    b9f0:	d008      	beq.n	ba04 <printk+0x5b0>
F:\WorkSpace\AHL-GEC-EXP\Temp\PWM_Music\Debug/srcc/printf.c:609
				printk_pad_zero(vlen, field_width, &count, info);
    b9f2:	9b03      	ldr	r3, [sp, #12]
    b9f4:	aa09      	add	r2, sp, #36	; 0x24
    b9f6:	991c      	ldr	r1, [sp, #112]	; 0x70
    b9f8:	981f      	ldr	r0, [sp, #124]	; 0x7c
    b9fa:	f7ff fcf7 	bl	b3ec <printk_pad_zero>
F:\WorkSpace\AHL-GEC-EXP\Temp\PWM_Music\Debug/srcc/printf.c:610
				vlen = field_width;
    b9fe:	9b1c      	ldr	r3, [sp, #112]	; 0x70
    ba00:	931f      	str	r3, [sp, #124]	; 0x7c
    ba02:	e01b      	b.n	ba3c <printk+0x5e8>
F:\WorkSpace\AHL-GEC-EXP\Temp\PWM_Music\Debug/srcc/printf.c:613
			}
			else {
				if (!IS_FLAG_MINUS(flags_used)) {
    ba04:	9b1d      	ldr	r3, [sp, #116]	; 0x74
    ba06:	2201      	movs	r2, #1
    ba08:	4013      	ands	r3, r2
    ba0a:	d10a      	bne.n	ba22 <printk+0x5ce>
F:\WorkSpace\AHL-GEC-EXP\Temp\PWM_Music\Debug/srcc/printf.c:614
					printk_pad_space(vlen, field_width, &count, info);
    ba0c:	9b03      	ldr	r3, [sp, #12]
    ba0e:	aa09      	add	r2, sp, #36	; 0x24
    ba10:	991c      	ldr	r1, [sp, #112]	; 0x70
    ba12:	981f      	ldr	r0, [sp, #124]	; 0x7c
    ba14:	f7ff fd04 	bl	b420 <printk_pad_space>
    ba18:	e010      	b.n	ba3c <printk+0x5e8>
F:\WorkSpace\AHL-GEC-EXP\Temp\PWM_Music\Debug/srcc/printf.c:453
			goto cont_xd;  //开始跳转
    ba1a:	46c0      	nop			; (mov r8, r8)
    ba1c:	e00e      	b.n	ba3c <printk+0x5e8>
F:\WorkSpace\AHL-GEC-EXP\Temp\PWM_Music\Debug/srcc/printf.c:586
			goto cont_xd;
    ba1e:	46c0      	nop			; (mov r8, r8)
    ba20:	e00c      	b.n	ba3c <printk+0x5e8>
F:\WorkSpace\AHL-GEC-EXP\Temp\PWM_Music\Debug/srcc/printf.c:618
				}
			}

			cont_xd: while (*vstrp)
    ba22:	46c0      	nop			; (mov r8, r8)
    ba24:	e00a      	b.n	ba3c <printk+0x5e8>
F:\WorkSpace\AHL-GEC-EXP\Temp\PWM_Music\Debug/srcc/printf.c:619
				printk_putc(*vstrp--, &count, info);
    ba26:	9b20      	ldr	r3, [sp, #128]	; 0x80
    ba28:	1e5a      	subs	r2, r3, #1
    ba2a:	9220      	str	r2, [sp, #128]	; 0x80
    ba2c:	781b      	ldrb	r3, [r3, #0]
    ba2e:	b25b      	sxtb	r3, r3
    ba30:	0018      	movs	r0, r3
    ba32:	9a03      	ldr	r2, [sp, #12]
    ba34:	ab09      	add	r3, sp, #36	; 0x24
    ba36:	0019      	movs	r1, r3
    ba38:	f7ff fafa 	bl	b030 <printk_putc>
F:\WorkSpace\AHL-GEC-EXP\Temp\PWM_Music\Debug/srcc/printf.c:618 (discriminator 1)
			cont_xd: while (*vstrp)
    ba3c:	9b20      	ldr	r3, [sp, #128]	; 0x80
    ba3e:	781b      	ldrb	r3, [r3, #0]
    ba40:	b25b      	sxtb	r3, r3
    ba42:	2b00      	cmp	r3, #0
    ba44:	d1ef      	bne.n	ba26 <printk+0x5d2>
F:\WorkSpace\AHL-GEC-EXP\Temp\PWM_Music\Debug/srcc/printf.c:621

			if (IS_FLAG_MINUS(flags_used)) {
    ba46:	9b1d      	ldr	r3, [sp, #116]	; 0x74
    ba48:	2201      	movs	r2, #1
    ba4a:	4013      	ands	r3, r2
    ba4c:	d100      	bne.n	ba50 <printk+0x5fc>
    ba4e:	e079      	b.n	bb44 <printk+0x6f0>
F:\WorkSpace\AHL-GEC-EXP\Temp\PWM_Music\Debug/srcc/printf.c:622
				printk_pad_space(vlen, field_width, &count, info);
    ba50:	9b03      	ldr	r3, [sp, #12]
    ba52:	aa09      	add	r2, sp, #36	; 0x24
    ba54:	991c      	ldr	r1, [sp, #112]	; 0x70
    ba56:	981f      	ldr	r0, [sp, #124]	; 0x7c
    ba58:	f7ff fce2 	bl	b420 <printk_pad_space>
F:\WorkSpace\AHL-GEC-EXP\Temp\PWM_Music\Debug/srcc/printf.c:625
			}

			break;
    ba5c:	e072      	b.n	bb44 <printk+0x6f0>
F:\WorkSpace\AHL-GEC-EXP\Temp\PWM_Music\Debug/srcc/printf.c:628
			//字符型输出
		case 'c':
			cval = (char)va_arg(ap, unsigned int);
    ba5e:	9b01      	ldr	r3, [sp, #4]
    ba60:	3304      	adds	r3, #4
    ba62:	9301      	str	r3, [sp, #4]
    ba64:	9b01      	ldr	r3, [sp, #4]
    ba66:	3b04      	subs	r3, #4
    ba68:	681b      	ldr	r3, [r3, #0]
    ba6a:	b25b      	sxtb	r3, r3
    ba6c:	9313      	str	r3, [sp, #76]	; 0x4c
F:\WorkSpace\AHL-GEC-EXP\Temp\PWM_Music\Debug/srcc/printf.c:629
			printk_putc(cval, &count, info);
    ba6e:	9a03      	ldr	r2, [sp, #12]
    ba70:	a909      	add	r1, sp, #36	; 0x24
    ba72:	9b13      	ldr	r3, [sp, #76]	; 0x4c
    ba74:	0018      	movs	r0, r3
    ba76:	f7ff fadb 	bl	b030 <printk_putc>
F:\WorkSpace\AHL-GEC-EXP\Temp\PWM_Music\Debug/srcc/printf.c:630
			break;
    ba7a:	e066      	b.n	bb4a <printk+0x6f6>
F:\WorkSpace\AHL-GEC-EXP\Temp\PWM_Music\Debug/srcc/printf.c:632
		case 's':
			sval = (char*)va_arg(ap, char*);
    ba7c:	9b01      	ldr	r3, [sp, #4]
    ba7e:	3304      	adds	r3, #4
    ba80:	9301      	str	r3, [sp, #4]
    ba82:	9b01      	ldr	r3, [sp, #4]
    ba84:	3b04      	subs	r3, #4
    ba86:	681b      	ldr	r3, [r3, #0]
    ba88:	9316      	str	r3, [sp, #88]	; 0x58
F:\WorkSpace\AHL-GEC-EXP\Temp\PWM_Music\Debug/srcc/printf.c:633
			if (sval) {
    ba8a:	9b16      	ldr	r3, [sp, #88]	; 0x58
    ba8c:	2b00      	cmp	r3, #0
    ba8e:	d05b      	beq.n	bb48 <printk+0x6f4>
F:\WorkSpace\AHL-GEC-EXP\Temp\PWM_Music\Debug/srcc/printf.c:634
				vlen = strlen(sval);
    ba90:	9b16      	ldr	r3, [sp, #88]	; 0x58
    ba92:	0018      	movs	r0, r3
    ba94:	f7fd f926 	bl	8ce4 <strlen>
    ba98:	0003      	movs	r3, r0
    ba9a:	931f      	str	r3, [sp, #124]	; 0x7c
F:\WorkSpace\AHL-GEC-EXP\Temp\PWM_Music\Debug/srcc/printf.c:635
				if (!IS_FLAG_MINUS(flags_used)) {
    ba9c:	9b1d      	ldr	r3, [sp, #116]	; 0x74
    ba9e:	2201      	movs	r2, #1
    baa0:	4013      	ands	r3, r2
    baa2:	d105      	bne.n	bab0 <printk+0x65c>
F:\WorkSpace\AHL-GEC-EXP\Temp\PWM_Music\Debug/srcc/printf.c:636
					printk_pad_space(vlen, field_width, &count, info);
    baa4:	9b03      	ldr	r3, [sp, #12]
    baa6:	aa09      	add	r2, sp, #36	; 0x24
    baa8:	991c      	ldr	r1, [sp, #112]	; 0x70
    baaa:	981f      	ldr	r0, [sp, #124]	; 0x7c
    baac:	f7ff fcb8 	bl	b420 <printk_pad_space>
F:\WorkSpace\AHL-GEC-EXP\Temp\PWM_Music\Debug/srcc/printf.c:638
				}
				if (precision_width != 0)
    bab0:	9b19      	ldr	r3, [sp, #100]	; 0x64
    bab2:	2b00      	cmp	r3, #0
    bab4:	d022      	beq.n	bafc <printk+0x6a8>
F:\WorkSpace\AHL-GEC-EXP\Temp\PWM_Music\Debug/srcc/printf.c:640
				{
					while (*sval)
    bab6:	e010      	b.n	bada <printk+0x686>
F:\WorkSpace\AHL-GEC-EXP\Temp\PWM_Music\Debug/srcc/printf.c:642
					{
						if (precision_width >= 1)
    bab8:	9b19      	ldr	r3, [sp, #100]	; 0x64
    baba:	2b00      	cmp	r3, #0
    babc:	dd0d      	ble.n	bada <printk+0x686>
F:\WorkSpace\AHL-GEC-EXP\Temp\PWM_Music\Debug/srcc/printf.c:644
						{
							precision_width--;
    babe:	9b19      	ldr	r3, [sp, #100]	; 0x64
    bac0:	3b01      	subs	r3, #1
    bac2:	9319      	str	r3, [sp, #100]	; 0x64
F:\WorkSpace\AHL-GEC-EXP\Temp\PWM_Music\Debug/srcc/printf.c:645
							printk_putc(*sval++, &count, info);
    bac4:	9b16      	ldr	r3, [sp, #88]	; 0x58
    bac6:	1c5a      	adds	r2, r3, #1
    bac8:	9216      	str	r2, [sp, #88]	; 0x58
    baca:	781b      	ldrb	r3, [r3, #0]
    bacc:	b25b      	sxtb	r3, r3
    bace:	0018      	movs	r0, r3
    bad0:	9a03      	ldr	r2, [sp, #12]
    bad2:	ab09      	add	r3, sp, #36	; 0x24
    bad4:	0019      	movs	r1, r3
    bad6:	f7ff faab 	bl	b030 <printk_putc>
F:\WorkSpace\AHL-GEC-EXP\Temp\PWM_Music\Debug/srcc/printf.c:640
					while (*sval)
    bada:	9b16      	ldr	r3, [sp, #88]	; 0x58
    badc:	781b      	ldrb	r3, [r3, #0]
    bade:	b25b      	sxtb	r3, r3
    bae0:	2b00      	cmp	r3, #0
    bae2:	d1e9      	bne.n	bab8 <printk+0x664>
    bae4:	e00f      	b.n	bb06 <printk+0x6b2>
F:\WorkSpace\AHL-GEC-EXP\Temp\PWM_Music\Debug/srcc/printf.c:652
					}
				}
				else    //precision_width=0情况
				{
					while (*sval)
						printk_putc(*sval++, &count, info);
    bae6:	9b16      	ldr	r3, [sp, #88]	; 0x58
    bae8:	1c5a      	adds	r2, r3, #1
    baea:	9216      	str	r2, [sp, #88]	; 0x58
    baec:	781b      	ldrb	r3, [r3, #0]
    baee:	b25b      	sxtb	r3, r3
    baf0:	0018      	movs	r0, r3
    baf2:	9a03      	ldr	r2, [sp, #12]
    baf4:	ab09      	add	r3, sp, #36	; 0x24
    baf6:	0019      	movs	r1, r3
    baf8:	f7ff fa9a 	bl	b030 <printk_putc>
F:\WorkSpace\AHL-GEC-EXP\Temp\PWM_Music\Debug/srcc/printf.c:651
					while (*sval)
    bafc:	9b16      	ldr	r3, [sp, #88]	; 0x58
    bafe:	781b      	ldrb	r3, [r3, #0]
    bb00:	b25b      	sxtb	r3, r3
    bb02:	2b00      	cmp	r3, #0
    bb04:	d1ef      	bne.n	bae6 <printk+0x692>
F:\WorkSpace\AHL-GEC-EXP\Temp\PWM_Music\Debug/srcc/printf.c:654
				}
				if (IS_FLAG_MINUS(flags_used)) {
    bb06:	9b1d      	ldr	r3, [sp, #116]	; 0x74
    bb08:	2201      	movs	r2, #1
    bb0a:	4013      	ands	r3, r2
    bb0c:	d01c      	beq.n	bb48 <printk+0x6f4>
F:\WorkSpace\AHL-GEC-EXP\Temp\PWM_Music\Debug/srcc/printf.c:655
					printk_pad_space(vlen, field_width, &count, info);
    bb0e:	9b03      	ldr	r3, [sp, #12]
    bb10:	aa09      	add	r2, sp, #36	; 0x24
    bb12:	991c      	ldr	r1, [sp, #112]	; 0x70
    bb14:	981f      	ldr	r0, [sp, #124]	; 0x7c
    bb16:	f7ff fc83 	bl	b420 <printk_pad_space>
F:\WorkSpace\AHL-GEC-EXP\Temp\PWM_Music\Debug/srcc/printf.c:658
				}
			}
			break;
    bb1a:	e015      	b.n	bb48 <printk+0x6f4>
F:\WorkSpace\AHL-GEC-EXP\Temp\PWM_Music\Debug/srcc/printf.c:660
		case 'n':
			ivalp = (int*)va_arg(ap, int*);
    bb1c:	9b01      	ldr	r3, [sp, #4]
    bb1e:	3304      	adds	r3, #4
    bb20:	9301      	str	r3, [sp, #4]
    bb22:	9b01      	ldr	r3, [sp, #4]
    bb24:	3b04      	subs	r3, #4
    bb26:	681b      	ldr	r3, [r3, #0]
    bb28:	9314      	str	r3, [sp, #80]	; 0x50
F:\WorkSpace\AHL-GEC-EXP\Temp\PWM_Music\Debug/srcc/printf.c:661
			*ivalp = count;
    bb2a:	9a09      	ldr	r2, [sp, #36]	; 0x24
    bb2c:	9b14      	ldr	r3, [sp, #80]	; 0x50
    bb2e:	601a      	str	r2, [r3, #0]
F:\WorkSpace\AHL-GEC-EXP\Temp\PWM_Music\Debug/srcc/printf.c:662
			break;
    bb30:	e00b      	b.n	bb4a <printk+0x6f6>
F:\WorkSpace\AHL-GEC-EXP\Temp\PWM_Music\Debug/srcc/printf.c:665

		default:
			printk_putc(c, &count, info);
    bb32:	9a03      	ldr	r2, [sp, #12]
    bb34:	a909      	add	r1, sp, #36	; 0x24
    bb36:	9b15      	ldr	r3, [sp, #84]	; 0x54
    bb38:	0018      	movs	r0, r3
    bb3a:	f7ff fa79 	bl	b030 <printk_putc>
F:\WorkSpace\AHL-GEC-EXP\Temp\PWM_Music\Debug/srcc/printf.c:666
			break;
    bb3e:	e004      	b.n	bb4a <printk+0x6f6>
F:\WorkSpace\AHL-GEC-EXP\Temp\PWM_Music\Debug/srcc/printf.c:548
			break;
    bb40:	46c0      	nop			; (mov r8, r8)
    bb42:	e002      	b.n	bb4a <printk+0x6f6>
F:\WorkSpace\AHL-GEC-EXP\Temp\PWM_Music\Debug/srcc/printf.c:625
			break;
    bb44:	46c0      	nop			; (mov r8, r8)
    bb46:	e000      	b.n	bb4a <printk+0x6f6>
F:\WorkSpace\AHL-GEC-EXP\Temp\PWM_Music\Debug/srcc/printf.c:658
			break;
    bb48:	46c0      	nop			; (mov r8, r8)
F:\WorkSpace\AHL-GEC-EXP\Temp\PWM_Music\Debug/srcc/printf.c:257 (discriminator 2)
	for (p = (char*)fmt; (c = *p) != 0; p++)
    bb4a:	9b21      	ldr	r3, [sp, #132]	; 0x84
    bb4c:	3301      	adds	r3, #1
    bb4e:	9321      	str	r3, [sp, #132]	; 0x84
F:\WorkSpace\AHL-GEC-EXP\Temp\PWM_Music\Debug/srcc/printf.c:257 (discriminator 1)
    bb50:	9b21      	ldr	r3, [sp, #132]	; 0x84
    bb52:	781b      	ldrb	r3, [r3, #0]
    bb54:	b25b      	sxtb	r3, r3
    bb56:	9315      	str	r3, [sp, #84]	; 0x54
    bb58:	9b15      	ldr	r3, [sp, #84]	; 0x54
    bb5a:	2b00      	cmp	r3, #0
    bb5c:	d000      	beq.n	bb60 <printk+0x70c>
    bb5e:	e491      	b.n	b484 <printk+0x30>
F:\WorkSpace\AHL-GEC-EXP\Temp\PWM_Music\Debug/srcc/printf.c:669
		}
	}
	return count;
    bb60:	9b09      	ldr	r3, [sp, #36]	; 0x24
F:\WorkSpace\AHL-GEC-EXP\Temp\PWM_Music\Debug/srcc/printf.c:670
}
    bb62:	0018      	movs	r0, r3
    bb64:	b023      	add	sp, #140	; 0x8c
    bb66:	bd30      	pop	{r4, r5, pc}

0000bb68 <myprintf>:
myprintf():
F:\WorkSpace\AHL-GEC-EXP\Temp\PWM_Music\Debug/srcc/printf.c:678
//参数说明：const char *:打印参数字符串：对输入的字符串进行解析并按格式输出
//       例如： printf("c=%c\n",c); 将c按char型进行输出
//函数返回：字符串长度
//======================================================================
int myprintf(const char* fmt, ...)
{
    bb68:	b40f      	push	{r0, r1, r2, r3}
    bb6a:	b500      	push	{lr}
    bb6c:	b087      	sub	sp, #28
F:\WorkSpace\AHL-GEC-EXP\Temp\PWM_Music\Debug/srcc/printf.c:682
	char* ap;
	int rvalue;
	PRINTK_INFO info;
	info.dest = DEST_CONSOLE;  //宏定义为1
    bb6e:	ab01      	add	r3, sp, #4
    bb70:	2201      	movs	r2, #1
    bb72:	601a      	str	r2, [r3, #0]
F:\WorkSpace\AHL-GEC-EXP\Temp\PWM_Music\Debug/srcc/printf.c:683
	info.func = &out_char;     //调用的串口输出函数
    bb74:	ab01      	add	r3, sp, #4
    bb76:	4a0a      	ldr	r2, [pc, #40]	; (bba0 <myprintf+0x38>)
    bb78:	605a      	str	r2, [r3, #4]
F:\WorkSpace\AHL-GEC-EXP\Temp\PWM_Music\Debug/srcc/printf.c:685
	//对ap 进行初始化，让它指向可变参数表里面的第一个参数
	va_start(ap, fmt);
    bb7a:	ab09      	add	r3, sp, #36	; 0x24
    bb7c:	9305      	str	r3, [sp, #20]
F:\WorkSpace\AHL-GEC-EXP\Temp\PWM_Music\Debug/srcc/printf.c:686
	rvalue = printk(&info, fmt, ap);
    bb7e:	9908      	ldr	r1, [sp, #32]
    bb80:	9a05      	ldr	r2, [sp, #20]
    bb82:	ab01      	add	r3, sp, #4
    bb84:	0018      	movs	r0, r3
    bb86:	f7ff fc65 	bl	b454 <printk>
    bb8a:	0003      	movs	r3, r0
    bb8c:	9304      	str	r3, [sp, #16]
F:\WorkSpace\AHL-GEC-EXP\Temp\PWM_Music\Debug/srcc/printf.c:688

	va_end(ap);
    bb8e:	2300      	movs	r3, #0
    bb90:	9305      	str	r3, [sp, #20]
F:\WorkSpace\AHL-GEC-EXP\Temp\PWM_Music\Debug/srcc/printf.c:690

	return rvalue;
    bb92:	9b04      	ldr	r3, [sp, #16]
F:\WorkSpace\AHL-GEC-EXP\Temp\PWM_Music\Debug/srcc/printf.c:691
}
    bb94:	0018      	movs	r0, r3
    bb96:	b007      	add	sp, #28
    bb98:	bc08      	pop	{r3}
    bb9a:	b004      	add	sp, #16
    bb9c:	4718      	bx	r3
    bb9e:	46c0      	nop			; (mov r8, r8)
    bba0:	0000b011 	.word	0x0000b011

0000bba4 <memcpy>:
memcpy():
    bba4:	2300      	movs	r3, #0
    bba6:	b510      	push	{r4, lr}
    bba8:	429a      	cmp	r2, r3
    bbaa:	d100      	bne.n	bbae <memcpy+0xa>
    bbac:	bd10      	pop	{r4, pc}
    bbae:	5ccc      	ldrb	r4, [r1, r3]
    bbb0:	54c4      	strb	r4, [r0, r3]
    bbb2:	3301      	adds	r3, #1
    bbb4:	e7f8      	b.n	bba8 <memcpy+0x4>

0000bbb6 <memset>:
memset():
    bbb6:	0003      	movs	r3, r0
    bbb8:	1882      	adds	r2, r0, r2
    bbba:	4293      	cmp	r3, r2
    bbbc:	d100      	bne.n	bbc0 <memset+0xa>
    bbbe:	4770      	bx	lr
    bbc0:	7019      	strb	r1, [r3, #0]
    bbc2:	3301      	adds	r3, #1
    bbc4:	e7f9      	b.n	bbba <memset+0x4>
    bbc6:	0000      	movs	r0, r0
    bbc8:	6c6c6548 	.word	0x6c6c6548
    bbcc:	57202c6f 	.word	0x57202c6f
    bbd0:	646c726f 	.word	0x646c726f
    bbd4:	00000a21 	.word	0x00000a21
    bbd8:	33323130 	.word	0x33323130
    bbdc:	37363534 	.word	0x37363534
    bbe0:	42413938 	.word	0x42413938
    bbe4:	46454443 	.word	0x46454443
    bbe8:	30323032 	.word	0x30323032
    bbec:	36313730 	.word	0x36313730
    bbf0:	00000000 	.word	0x00000000
    bbf4:	bea12020 	.word	0xbea12020
    bbf8:	72657355 	.word	0x72657355
    bbfc:	becae1cc 	.word	0xbecae1cc
    bc00:	baa3bfa1 	.word	0xbaa3bfa1
    bc04:	f8bdabbd 	.word	0xf8bdabbd
    bc08:	7355ebc8 	.word	0x7355ebc8
    bc0c:	c4b57265 	.word	0xc4b57265
    bc10:	6e69616d 	.word	0x6e69616d
    bc14:	b4d62928 	.word	0xb4d62928
    bc18:	2e2ed0d0 	.word	0x2e2ed0d0
    bc1c:	000a0d2e 	.word	0x000a0d2e
    bc20:	000074c2 	.word	0x000074c2
    bc24:	0000744e 	.word	0x0000744e
    bc28:	000073bc 	.word	0x000073bc
    bc2c:	00007376 	.word	0x00007376
    bc30:	000073bc 	.word	0x000073bc
    bc34:	0000748a 	.word	0x0000748a
    bc38:	000073bc 	.word	0x000073bc
    bc3c:	00007376 	.word	0x00007376
    bc40:	0000744e 	.word	0x0000744e
    bc44:	0000744e 	.word	0x0000744e
    bc48:	0000748a 	.word	0x0000748a
    bc4c:	00007376 	.word	0x00007376
    bc50:	0000737c 	.word	0x0000737c
    bc54:	0000737c 	.word	0x0000737c
    bc58:	0000737c 	.word	0x0000737c
    bc5c:	00007498 	.word	0x00007498
    bc60:	0000744e 	.word	0x0000744e
    bc64:	0000744e 	.word	0x0000744e
    bc68:	000073bc 	.word	0x000073bc
    bc6c:	00007372 	.word	0x00007372
    bc70:	000073bc 	.word	0x000073bc
    bc74:	0000748a 	.word	0x0000748a
    bc78:	000073bc 	.word	0x000073bc
    bc7c:	00007372 	.word	0x00007372
    bc80:	0000744e 	.word	0x0000744e
    bc84:	0000744e 	.word	0x0000744e
    bc88:	0000748a 	.word	0x0000748a
    bc8c:	00007372 	.word	0x00007372
    bc90:	0000737c 	.word	0x0000737c
    bc94:	0000737c 	.word	0x0000737c
    bc98:	0000737c 	.word	0x0000737c
    bc9c:	00007494 	.word	0x00007494
    bca0:	0000777a 	.word	0x0000777a
    bca4:	00007718 	.word	0x00007718
    bca8:	00007718 	.word	0x00007718
    bcac:	00007716 	.word	0x00007716
    bcb0:	0000771c 	.word	0x0000771c
    bcb4:	0000771c 	.word	0x0000771c
    bcb8:	00007844 	.word	0x00007844
    bcbc:	00007716 	.word	0x00007716
    bcc0:	0000771c 	.word	0x0000771c
    bcc4:	00007844 	.word	0x00007844
    bcc8:	0000771c 	.word	0x0000771c
    bccc:	00007716 	.word	0x00007716
    bcd0:	000077fa 	.word	0x000077fa
    bcd4:	000077fa 	.word	0x000077fa
    bcd8:	000077fa 	.word	0x000077fa
    bcdc:	0000787e 	.word	0x0000787e
    bce0:	00008170 	.word	0x00008170
    bce4:	0000809e 	.word	0x0000809e
    bce8:	0000809e 	.word	0x0000809e
    bcec:	0000809a 	.word	0x0000809a
    bcf0:	000080a4 	.word	0x000080a4
    bcf4:	000080a4 	.word	0x000080a4
    bcf8:	00008390 	.word	0x00008390
    bcfc:	0000809a 	.word	0x0000809a
    bd00:	000080a4 	.word	0x000080a4
    bd04:	00008390 	.word	0x00008390
    bd08:	000080a4 	.word	0x000080a4
    bd0c:	0000809a 	.word	0x0000809a
    bd10:	0000832e 	.word	0x0000832e
    bd14:	0000832e 	.word	0x0000832e
    bd18:	0000832e 	.word	0x0000832e
    bd1c:	000083fa 	.word	0x000083fa

0000bd20 <PORT_ARR>:
    bd20:	40049000 4004a000 4004b000 4004c000     ...@...@...@...@
    bd30:	4004d000                                ...@

0000bd34 <UART_ARR>:
    bd34:	4006b000 4006c000 0000b4f4 0000b512     ...@...@........
    bd44:	0000b512 0000b508 0000b512 0000b512     ................
    bd54:	0000b512 0000b512 0000b512 0000b512     ................
    bd64:	0000b512 0000b4ea 0000b512 0000b4e0     ................
    bd74:	0000b512 0000b512 0000b4fe 0000b888     ................
    bd84:	0000bb32 0000bb32 0000bb32 0000bb32     2...2...2...2...
    bd94:	0000bb32 0000bb32 0000bb32 0000bb32     2...2...2...2...
    bda4:	0000bb32 0000b984 0000ba5e 0000b62e     2.......^.......
    bdb4:	0000bb32 0000b70e 0000bb32 0000bb32     2.......2...2...
    bdc4:	0000b62e 0000bb32 0000bb32 0000bb32     ....2...2...2...
    bdd4:	0000bb32 0000bb1c 0000b964 0000b9a4     2.......d.......
    bde4:	0000bb32 0000bb32 0000ba7c 0000bb32     2...2...|...2...
    bdf4:	0000b9c4 0000bb32 0000bb32 0000b888     ....2...2.......

0000be04 <_init>:
_init():
    be04:	b5f8      	push	{r3, r4, r5, r6, r7, lr}
    be06:	46c0      	nop			; (mov r8, r8)
    be08:	bcf8      	pop	{r3, r4, r5, r6, r7}
    be0a:	bc08      	pop	{r3}
    be0c:	469e      	mov	lr, r3
    be0e:	4770      	bx	lr

0000be10 <_fini>:
_fini():
    be10:	b5f8      	push	{r3, r4, r5, r6, r7, lr}
    be12:	46c0      	nop			; (mov r8, r8)
    be14:	bcf8      	pop	{r3, r4, r5, r6, r7}
    be16:	bc08      	pop	{r3}
    be18:	469e      	mov	lr, r3
    be1a:	4770      	bx	lr
